TMS320C2000 Assembler PC v6.1.3 Tue Oct 01 15:27:17 2013

Tools Copyright (c) 1996-2012 Texas Instruments Incorporated
C:\Users\a0272466\AppData\Local\Temp\0493210                         PAGE    1

       1              ;***************************************************************
       2              ;* TMS320C2000 C/C++ Codegen                         PC v6.1.3 *
       3              ;* Date/Time created: Tue Oct 01 15:27:17 2013                 *
       4              ;***************************************************************
       5                      .compiler_opts --float_support=fpu32 --hll_source=on --mem_model:code=flat --mem_model:data=large --o
       6        0002  FP      .set    XAR2
       7              
       8              $C$DW$CU        .dwtag  DW_TAG_compile_unit
       9                      .dwattr $C$DW$CU, DW_AT_name("C:/work/grepos/device_support/device_support/f2837x/F2837x_bootROM_dev/
      10                      .dwattr $C$DW$CU, DW_AT_producer("TMS320C2000 C/C++ Codegen PC v6.1.3 Copyright (c) 1996-2012 Texas I
      11                      .dwattr $C$DW$CU, DW_AT_TI_version(0x01)
      12                      .dwattr $C$DW$CU, DW_AT_comp_dir("C:\work\grepos\device_support\device_support\f2837x\F2837x_bootROM_
      13              
      14              $C$DW$1 .dwtag  DW_TAG_subprogram, DW_AT_name("CopyData")
      15                      .dwattr $C$DW$1, DW_AT_TI_symbol_name("_CopyData")
      16                      .dwattr $C$DW$1, DW_AT_declaration
      17                      .dwattr $C$DW$1, DW_AT_external
      18              
      19              $C$DW$2 .dwtag  DW_TAG_subprogram, DW_AT_name("GetLongData")
      20                      .dwattr $C$DW$2, DW_AT_TI_symbol_name("_GetLongData")
      21                      .dwattr $C$DW$2, DW_AT_type(*$C$DW$T$21)
      22                      .dwattr $C$DW$2, DW_AT_declaration
      23                      .dwattr $C$DW$2, DW_AT_external
      24              $C$DW$3 .dwtag  DW_TAG_variable, DW_AT_name("GetWordData")
      25                      .dwattr $C$DW$3, DW_AT_TI_symbol_name("_GetWordData")
      26                      .dwattr $C$DW$3, DW_AT_type(*$C$DW$T$560)
      27                      .dwattr $C$DW$3, DW_AT_declaration
      28                      .dwattr $C$DW$3, DW_AT_external
      29              $C$DW$4 .dwtag  DW_TAG_variable, DW_AT_name("SpiaRegs")
      30                      .dwattr $C$DW$4, DW_AT_TI_symbol_name("_SpiaRegs")
      31                      .dwattr $C$DW$4, DW_AT_type(*$C$DW$T$550)
      32                      .dwattr $C$DW$4, DW_AT_declaration
      33                      .dwattr $C$DW$4, DW_AT_external
      34              $C$DW$5 .dwtag  DW_TAG_variable, DW_AT_name("GpioDataRegs")
      35                      .dwattr $C$DW$5, DW_AT_TI_symbol_name("_GpioDataRegs")
      36                      .dwattr $C$DW$5, DW_AT_type(*$C$DW$T$541)
      37                      .dwattr $C$DW$5, DW_AT_declaration
      38                      .dwattr $C$DW$5, DW_AT_external
      39              $C$DW$6 .dwtag  DW_TAG_variable, DW_AT_name("ClkCfgRegs")
      40                      .dwattr $C$DW$6, DW_AT_TI_symbol_name("_ClkCfgRegs")
      41                      .dwattr $C$DW$6, DW_AT_type(*$C$DW$T$519)
      42                      .dwattr $C$DW$6, DW_AT_declaration
      43                      .dwattr $C$DW$6, DW_AT_external
      44              $C$DW$7 .dwtag  DW_TAG_variable, DW_AT_name("CpuSysRegs")
      45                      .dwattr $C$DW$7, DW_AT_TI_symbol_name("_CpuSysRegs")
      46                      .dwattr $C$DW$7, DW_AT_type(*$C$DW$T$520)
      47                      .dwattr $C$DW$7, DW_AT_declaration
      48                      .dwattr $C$DW$7, DW_AT_external
      49              $C$DW$8 .dwtag  DW_TAG_variable, DW_AT_name("DevCfgRegs")
      50                      .dwattr $C$DW$8, DW_AT_TI_symbol_name("_DevCfgRegs")
      51                      .dwattr $C$DW$8, DW_AT_type(*$C$DW$T$523)
      52                      .dwattr $C$DW$8, DW_AT_declaration
      53                      .dwattr $C$DW$8, DW_AT_external
      54              $C$DW$9 .dwtag  DW_TAG_variable, DW_AT_name("GpioCtrlRegs")
      55                      .dwattr $C$DW$9, DW_AT_TI_symbol_name("_GpioCtrlRegs")
TMS320C2000 Assembler PC v6.1.3 Tue Oct 01 15:27:17 2013

Tools Copyright (c) 1996-2012 Texas Instruments Incorporated
C:\Users\a0272466\AppData\Local\Temp\0493210                         PAGE    2

      56                      .dwattr $C$DW$9, DW_AT_type(*$C$DW$T$540)
      57                      .dwattr $C$DW$9, DW_AT_declaration
      58                      .dwattr $C$DW$9, DW_AT_external
      59              ;       C:\ti\ccsv5\tools\compiler\c2000_6.1.3\bin\ac2000.exe -@C:\\Users\\a0272466\\AppData\\Local\\Temp\\04
      60 00000000               .sect   ".text"
      61              
      62              $C$DW$10        .dwtag  DW_TAG_subprogram, DW_AT_name("SPIA_Transmit")
      63                      .dwattr $C$DW$10, DW_AT_low_pc(_SPIA_Transmit)
      64                      .dwattr $C$DW$10, DW_AT_high_pc(0x00)
      65                      .dwattr $C$DW$10, DW_AT_TI_symbol_name("_SPIA_Transmit")
      66                      .dwattr $C$DW$10, DW_AT_type(*$C$DW$T$19)
      67                      .dwattr $C$DW$10, DW_AT_TI_begin_file("C:/work/grepos/device_support/device_support/f2837x/F2837x_boo
      68                      .dwattr $C$DW$10, DW_AT_TI_begin_line(0xad)
      69                      .dwattr $C$DW$10, DW_AT_TI_begin_column(0x0f)
      70                      .dwattr $C$DW$10, DW_AT_TI_max_frame_size(-4)
      71                      .dwpsn  file "C:/work/grepos/device_support/device_support/f2837x/F2837x_bootROM_dev/F2837x_bootROM/c
      72              
      73                      .dwfde $C$DW$CIE, _SPIA_Transmit
      74              $C$DW$11        .dwtag  DW_TAG_formal_parameter, DW_AT_name("cmdData")
      75                      .dwattr $C$DW$11, DW_AT_TI_symbol_name("_cmdData")
      76                      .dwattr $C$DW$11, DW_AT_type(*$C$DW$T$19)
      77                      .dwattr $C$DW$11, DW_AT_location[DW_OP_reg0]
      78              
      79              ;***************************************************************
      80              ;* FNAME: _SPIA_Transmit                FR SIZE:   2           *
      81              ;*                                                             *
      82              ;* FUNCTION ENVIRONMENT                                        *
      83              ;*                                                             *
      84              ;* FUNCTION PROPERTIES                                         *
      85              ;*                            0 Parameter,  2 Auto,  0 SOE     *
      86              ;***************************************************************
      87              
      88 00000000       _SPIA_Transmit:
      89                      .dwcfi  cfa_offset, -2
      90                      .dwcfi  save_reg_to_mem, 26, 0
      91                      .dwcfi  save_reg_to_reg, 78, 26
      92 00000000 FE02          ADDB      SP,#2                 ; [CPU_U] 
      93                      .dwcfi  cfa_offset, -4
      94              $C$DW$12        .dwtag  DW_TAG_variable, DW_AT_name("cmdData")
      95                      .dwattr $C$DW$12, DW_AT_TI_symbol_name("_cmdData")
      96                      .dwattr $C$DW$12, DW_AT_type(*$C$DW$T$19)
      97                      .dwattr $C$DW$12, DW_AT_location[DW_OP_breg20 -1]
      98              $C$DW$13        .dwtag  DW_TAG_variable, DW_AT_name("recvData")
      99                      .dwattr $C$DW$13, DW_AT_TI_symbol_name("_recvData")
     100                      .dwattr $C$DW$13, DW_AT_type(*$C$DW$T$19)
     101                      .dwattr $C$DW$13, DW_AT_location[DW_OP_breg20 -2]
     102 00000001 9641          MOV       *-SP[1],AL            ; [CPU_] |174| 
     103                      .dwpsn  file "C:/work/grepos/device_support/device_support/f2837x/F2837x_bootROM_dev/F2837x_bootROM/c
     104 00000002 761F!         MOVW      DP,#_SpiaRegs+8       ; [CPU_U] 
         00000003 0000 
     105 00000004 9608!         MOV       @_SpiaRegs+8,AL       ; [CPU_] |177| 
     106                      .dwpsn  file "C:/work/grepos/device_support/device_support/f2837x/F2837x_bootROM_dev/F2837x_bootROM/c
     107 00000005       $C$L1:    
     108 00000005       $C$DW$L$_SPIA_Transmit$2$B:
     109                      .dwpsn  file "C:/work/grepos/device_support/device_support/f2837x/F2837x_bootROM_dev/F2837x_bootROM/c
TMS320C2000 Assembler PC v6.1.3 Tue Oct 01 15:27:17 2013

Tools Copyright (c) 1996-2012 Texas Instruments Incorporated
C:\Users\a0272466\AppData\Local\Temp\0493210                         PAGE    3

     110 00000005 CC02!         AND       AL,@_SpiaRegs+2,#0x0040 ; [CPU_] |178| 
         00000006 0040 
     111 00000007 FFC5          LSR       AL,6                  ; [CPU_] |178| 
     112 00000008 5201          CMPB      AL,#1                 ; [CPU_] |178| 
     113 00000009 EDFC          BF        $C$L1,NEQ             ; [CPU_] |178| 
     114                      ; branchcc occurs ; [] |178| 
     115 0000000a       $C$DW$L$_SPIA_Transmit$2$E:
     116                      .dwpsn  file "C:/work/grepos/device_support/device_support/f2837x/F2837x_bootROM_dev/F2837x_bootROM/c
     117 0000000a 9207!         MOV       AL,@_SpiaRegs+7       ; [CPU_] |180| 
     118 0000000b 9642          MOV       *-SP[2],AL            ; [CPU_] |180| 
     119                      .dwpsn  file "C:/work/grepos/device_support/device_support/f2837x/F2837x_bootROM_dev/F2837x_bootROM/c
     120                      .dwpsn  file "C:/work/grepos/device_support/device_support/f2837x/F2837x_bootROM_dev/F2837x_bootROM/c
     121 0000000c FE82          SUBB      SP,#2                 ; [CPU_U] 
     122                      .dwcfi  cfa_offset, -2
     123              $C$DW$14        .dwtag  DW_TAG_TI_branch
     124                      .dwattr $C$DW$14, DW_AT_low_pc(0x00)
     125                      .dwattr $C$DW$14, DW_AT_TI_return
     126 0000000d 0006          LRETR     ; [CPU_] 
     127                      ; return occurs ; [] 
     128              
     129              $C$DW$15        .dwtag  DW_TAG_TI_loop
     130                      .dwattr $C$DW$15, DW_AT_name("C:\\Users\\a0272466\\AppData\\Local\\Temp\\0493210:$C$L1:1:1380659237")
     131                      .dwattr $C$DW$15, DW_AT_TI_begin_file("C:/work/grepos/device_support/device_support/f2837x/F2837x_boo
     132                      .dwattr $C$DW$15, DW_AT_TI_begin_line(0xb2)
     133                      .dwattr $C$DW$15, DW_AT_TI_end_line(0xb2)
     134              $C$DW$16        .dwtag  DW_TAG_TI_loop_range
     135                      .dwattr $C$DW$16, DW_AT_low_pc($C$DW$L$_SPIA_Transmit$2$B)
     136                      .dwattr $C$DW$16, DW_AT_high_pc($C$DW$L$_SPIA_Transmit$2$E)
     137                      .dwendtag $C$DW$15
     138              
     139                      .dwattr $C$DW$10, DW_AT_TI_end_file("C:/work/grepos/device_support/device_support/f2837x/F2837x_bootR
     140                      .dwattr $C$DW$10, DW_AT_TI_end_line(0xb6)
     141                      .dwattr $C$DW$10, DW_AT_TI_end_column(0x01)
     142                      .dwendentry
     143                      .dwendtag $C$DW$10
     144              
     145 0000000e               .sect   ".text"
     146              
     147              $C$DW$17        .dwtag  DW_TAG_subprogram, DW_AT_name("SPIA_ReservedFn")
     148                      .dwattr $C$DW$17, DW_AT_low_pc(_SPIA_ReservedFn)
     149                      .dwattr $C$DW$17, DW_AT_high_pc(0x00)
     150                      .dwattr $C$DW$17, DW_AT_TI_symbol_name("_SPIA_ReservedFn")
     151                      .dwattr $C$DW$17, DW_AT_TI_begin_file("C:/work/grepos/device_support/device_support/f2837x/F2837x_boo
     152                      .dwattr $C$DW$17, DW_AT_TI_begin_line(0xc8)
     153                      .dwattr $C$DW$17, DW_AT_TI_begin_column(0x0d)
     154                      .dwattr $C$DW$17, DW_AT_TI_max_frame_size(-4)
     155                      .dwpsn  file "C:/work/grepos/device_support/device_support/f2837x/F2837x_bootROM_dev/F2837x_bootROM/c
     156              
     157                      .dwfde $C$DW$CIE, _SPIA_ReservedFn
     158              
     159              ;***************************************************************
     160              ;* FNAME: _SPIA_ReservedFn              FR SIZE:   2           *
     161              ;*                                                             *
     162              ;* FUNCTION ENVIRONMENT                                        *
     163              ;*                                                             *
TMS320C2000 Assembler PC v6.1.3 Tue Oct 01 15:27:17 2013

Tools Copyright (c) 1996-2012 Texas Instruments Incorporated
C:\Users\a0272466\AppData\Local\Temp\0493210                         PAGE    4

     164              ;* FUNCTION PROPERTIES                                         *
     165              ;*                            0 Parameter,  2 Auto,  0 SOE     *
     166              ;***************************************************************
     167              
     168 0000000e       _SPIA_ReservedFn:
     169                      .dwcfi  cfa_offset, -2
     170                      .dwcfi  save_reg_to_mem, 26, 0
     171                      .dwcfi  save_reg_to_reg, 78, 26
     172 0000000e FE02          ADDB      SP,#2                 ; [CPU_U] 
     173                      .dwcfi  cfa_offset, -4
     174              $C$DW$18        .dwtag  DW_TAG_variable, DW_AT_name("speedData")
     175                      .dwattr $C$DW$18, DW_AT_TI_symbol_name("_speedData")
     176                      .dwattr $C$DW$18, DW_AT_type(*$C$DW$T$19)
     177                      .dwattr $C$DW$18, DW_AT_location[DW_OP_breg20 -1]
     178              $C$DW$19        .dwtag  DW_TAG_variable, DW_AT_name("i")
     179                      .dwattr $C$DW$19, DW_AT_TI_symbol_name("_i")
     180                      .dwattr $C$DW$19, DW_AT_type(*$C$DW$T$19)
     181                      .dwattr $C$DW$19, DW_AT_location[DW_OP_breg20 -2]
     182                      .dwpsn  file "C:/work/grepos/device_support/device_support/f2837x/F2837x_bootROM_dev/F2837x_bootROM/c
     183 0000000f 9A00          MOVB      AL,#0                 ; [CPU_] |206| 
     184              $C$DW$20        .dwtag  DW_TAG_TI_branch
     185                      .dwattr $C$DW$20, DW_AT_low_pc(0x00)
     186                      .dwattr $C$DW$20, DW_AT_name("_SPIA_Transmit")
     187                      .dwattr $C$DW$20, DW_AT_TI_call
     188 00000010 7640'         LCR       #_SPIA_Transmit       ; [CPU_] |206| 
         00000011 0000 
     189                      ; call occurs [#_SPIA_Transmit] ; [] |206| 
     190 00000012 9641          MOV       *-SP[1],AL            ; [CPU_] |206| 
     191                      .dwpsn  file "C:/work/grepos/device_support/device_support/f2837x/F2837x_bootROM_dev/F2837x_bootROM/c
     192 00000013 7622   EALLOW
     193                      .dwpsn  file "C:/work/grepos/device_support/device_support/f2837x/F2837x_bootROM_dev/F2837x_bootROM/c
     194 00000014 761F!         MOVW      DP,#_ClkCfgRegs+44    ; [CPU_U] 
         00000015 0000 
     195 00000016 0E41          MOVU      ACC,*-SP[1]           ; [CPU_] |208| 
     196 00000017 1E2C!         MOVL      @_ClkCfgRegs+44,ACC   ; [CPU_] |208| 
     197                      .dwpsn  file "C:/work/grepos/device_support/device_support/f2837x/F2837x_bootROM_dev/F2837x_bootROM/c
     198 00000018 761A   EDIS
     199                      .dwpsn  file "C:/work/grepos/device_support/device_support/f2837x/F2837x_bootROM_dev/F2837x_bootROM/c
     200 00000019 F60F     RPT #0x0F ||NOP
         0000001a 7700 
     201                      .dwpsn  file "C:/work/grepos/device_support/device_support/f2837x/F2837x_bootROM_dev/F2837x_bootROM/c
     202 0000001b FF69          SPM       #0                    ; [CPU_] 
     203 0000001c 9A00          MOVB      AL,#0                 ; [CPU_] |213| 
     204              $C$DW$21        .dwtag  DW_TAG_TI_branch
     205                      .dwattr $C$DW$21, DW_AT_low_pc(0x00)
     206                      .dwattr $C$DW$21, DW_AT_name("_SPIA_Transmit")
     207                      .dwattr $C$DW$21, DW_AT_TI_call
     208 0000001d 7640'         LCR       #_SPIA_Transmit       ; [CPU_] |213| 
         0000001e 0000 
     209                      ; call occurs [#_SPIA_Transmit] ; [] |213| 
     210 0000001f 9641          MOV       *-SP[1],AL            ; [CPU_] |213| 
     211                      .dwpsn  file "C:/work/grepos/device_support/device_support/f2837x/F2837x_bootROM_dev/F2837x_bootROM/c
     212 00000020 9604!         MOV       @_SpiaRegs+4,AL       ; [CPU_] |214| 
     213                      .dwpsn  file "C:/work/grepos/device_support/device_support/f2837x/F2837x_bootROM_dev/F2837x_bootROM/c
     214 00000021 F60F     RPT #0x0F ||NOP
TMS320C2000 Assembler PC v6.1.3 Tue Oct 01 15:27:17 2013

Tools Copyright (c) 1996-2012 Texas Instruments Incorporated
C:\Users\a0272466\AppData\Local\Temp\0493210                         PAGE    5

         00000022 7700 
     215                      .dwpsn  file "C:/work/grepos/device_support/device_support/f2837x/F2837x_bootROM_dev/F2837x_bootROM/c
     216 00000023 56BF          MOVB      *-SP[2],#1,UNC        ; [CPU_] |218| 
         00000024 0142 
     217                      .dwpsn  file "C:/work/grepos/device_support/device_support/f2837x/F2837x_bootROM_dev/F2837x_bootROM/c
     218 00000025 9242          MOV       AL,*-SP[2]            ; [CPU_] |218| 
     219 00000026 5207          CMPB      AL,#7                 ; [CPU_] |218| 
     220 00000027 6608          B         $C$L3,HI              ; [CPU_] |218| 
     221                      ; branchcc occurs ; [] |218| 
     222 00000028       $C$L2:    
     223 00000028       $C$DW$L$_SPIA_ReservedFn$2$B:
     224                      .dwpsn  file "C:/work/grepos/device_support/device_support/f2837x/F2837x_bootROM_dev/F2837x_bootROM/c
     225 00000028 FF69          SPM       #0                    ; [CPU_] 
     226              $C$DW$22        .dwtag  DW_TAG_TI_branch
     227                      .dwattr $C$DW$22, DW_AT_low_pc(0x00)
     228                      .dwattr $C$DW$22, DW_AT_name("_SPIA_GetWordData")
     229                      .dwattr $C$DW$22, DW_AT_TI_call
     230 00000029 7640'         LCR       #_SPIA_GetWordData    ; [CPU_] |220| 
         0000002a 009C 
     231                      ; call occurs [#_SPIA_GetWordData] ; [] |220| 
     232                      .dwpsn  file "C:/work/grepos/device_support/device_support/f2837x/F2837x_bootROM_dev/F2837x_bootROM/c
     233 0000002b 0A42          INC       *-SP[2]               ; [CPU_] |218| 
     234                      .dwpsn  file "C:/work/grepos/device_support/device_support/f2837x/F2837x_bootROM_dev/F2837x_bootROM/c
     235 0000002c 9242          MOV       AL,*-SP[2]            ; [CPU_] |218| 
     236 0000002d 5207          CMPB      AL,#7                 ; [CPU_] |218| 
     237 0000002e 69FA          B         $C$L2,LOS             ; [CPU_] |218| 
     238                      ; branchcc occurs ; [] |218| 
     239 0000002f       $C$DW$L$_SPIA_ReservedFn$2$E:
     240                      .dwpsn  file "C:/work/grepos/device_support/device_support/f2837x/F2837x_bootROM_dev/F2837x_bootROM/c
     241 0000002f       $C$L3:    
     242                      .dwpsn  file "C:/work/grepos/device_support/device_support/f2837x/F2837x_bootROM_dev/F2837x_bootROM/c
     243 0000002f FE82          SUBB      SP,#2                 ; [CPU_U] 
     244                      .dwcfi  cfa_offset, -2
     245 00000030 FF69          SPM       #0                    ; [CPU_] 
     246              $C$DW$23        .dwtag  DW_TAG_TI_branch
     247                      .dwattr $C$DW$23, DW_AT_low_pc(0x00)
     248                      .dwattr $C$DW$23, DW_AT_TI_return
     249 00000031 0006          LRETR     ; [CPU_] 
     250                      ; return occurs ; [] 
     251              
     252              $C$DW$24        .dwtag  DW_TAG_TI_loop
     253                      .dwattr $C$DW$24, DW_AT_name("C:\\Users\\a0272466\\AppData\\Local\\Temp\\0493210:$C$L2:1:1380659237")
     254                      .dwattr $C$DW$24, DW_AT_TI_begin_file("C:/work/grepos/device_support/device_support/f2837x/F2837x_boo
     255                      .dwattr $C$DW$24, DW_AT_TI_begin_line(0xda)
     256                      .dwattr $C$DW$24, DW_AT_TI_end_line(0xdd)
     257              $C$DW$25        .dwtag  DW_TAG_TI_loop_range
     258                      .dwattr $C$DW$25, DW_AT_low_pc($C$DW$L$_SPIA_ReservedFn$2$B)
     259                      .dwattr $C$DW$25, DW_AT_high_pc($C$DW$L$_SPIA_ReservedFn$2$E)
     260                      .dwendtag $C$DW$24
     261              
     262                      .dwattr $C$DW$17, DW_AT_TI_end_file("C:/work/grepos/device_support/device_support/f2837x/F2837x_bootR
     263                      .dwattr $C$DW$17, DW_AT_TI_end_line(0xdf)
     264                      .dwattr $C$DW$17, DW_AT_TI_end_column(0x01)
     265                      .dwendentry
     266                      .dwendtag $C$DW$17
TMS320C2000 Assembler PC v6.1.3 Tue Oct 01 15:27:17 2013

Tools Copyright (c) 1996-2012 Texas Instruments Incorporated
C:\Users\a0272466\AppData\Local\Temp\0493210                         PAGE    6

     267              
     268 00000032               .sect   ".text"
     269                      .global _SPI_Boot
     270              
     271              $C$DW$26        .dwtag  DW_TAG_subprogram, DW_AT_name("SPI_Boot")
     272                      .dwattr $C$DW$26, DW_AT_low_pc(_SPI_Boot)
     273                      .dwattr $C$DW$26, DW_AT_high_pc(0x00)
     274                      .dwattr $C$DW$26, DW_AT_TI_symbol_name("_SPI_Boot")
     275                      .dwattr $C$DW$26, DW_AT_external
     276                      .dwattr $C$DW$26, DW_AT_type(*$C$DW$T$21)
     277                      .dwattr $C$DW$26, DW_AT_TI_begin_file("C:/work/grepos/device_support/device_support/f2837x/F2837x_boo
     278                      .dwattr $C$DW$26, DW_AT_TI_begin_line(0x33)
     279                      .dwattr $C$DW$26, DW_AT_TI_begin_column(0x08)
     280                      .dwattr $C$DW$26, DW_AT_TI_max_frame_size(-6)
     281                      .dwpsn  file "C:/work/grepos/device_support/device_support/f2837x/F2837x_bootROM_dev/F2837x_bootROM/c
     282              
     283                      .dwfde $C$DW$CIE, _SPI_Boot
     284              $C$DW$27        .dwtag  DW_TAG_formal_parameter, DW_AT_name("BootMode")
     285                      .dwattr $C$DW$27, DW_AT_TI_symbol_name("_BootMode")
     286                      .dwattr $C$DW$27, DW_AT_type(*$C$DW$T$21)
     287                      .dwattr $C$DW$27, DW_AT_location[DW_OP_reg0]
     288              
     289              ;***************************************************************
     290              ;* FNAME: _SPI_Boot                     FR SIZE:   4           *
     291              ;*                                                             *
     292              ;* FUNCTION ENVIRONMENT                                        *
     293              ;*                                                             *
     294              ;* FUNCTION PROPERTIES                                         *
     295              ;*                            0 Parameter,  4 Auto,  0 SOE     *
     296              ;***************************************************************
     297              
     298 00000032       _SPI_Boot:
     299                      .dwcfi  cfa_offset, -2
     300                      .dwcfi  save_reg_to_mem, 26, 0
     301                      .dwcfi  save_reg_to_reg, 78, 26
     302 00000032 FE04          ADDB      SP,#4                 ; [CPU_U] 
     303                      .dwcfi  cfa_offset, -6
     304              $C$DW$28        .dwtag  DW_TAG_variable, DW_AT_name("BootMode")
     305                      .dwattr $C$DW$28, DW_AT_TI_symbol_name("_BootMode")
     306                      .dwattr $C$DW$28, DW_AT_type(*$C$DW$T$21)
     307                      .dwattr $C$DW$28, DW_AT_location[DW_OP_breg20 -2]
     308              $C$DW$29        .dwtag  DW_TAG_variable, DW_AT_name("EntryAddr")
     309                      .dwattr $C$DW$29, DW_AT_TI_symbol_name("_EntryAddr")
     310                      .dwattr $C$DW$29, DW_AT_type(*$C$DW$T$21)
     311                      .dwattr $C$DW$29, DW_AT_location[DW_OP_breg20 -4]
     312 00000033 1E42          MOVL      *-SP[2],ACC           ; [CPU_] |52| 
     313                      .dwpsn  file "C:/work/grepos/device_support/device_support/f2837x/F2837x_bootROM_dev/F2837x_bootROM/c
     314 00000034 761F!         MOVW      DP,#_DevCfgRegs+34    ; [CPU_U] 
         00000035 0000 
     315 00000036 9222!         MOV       AL,@_DevCfgRegs+34    ; [CPU_] |56| 
     316 00000037 9001          ANDB      AL,#0x01              ; [CPU_] |56| 
     317 00000038 40A9          TBIT      AL,#0                 ; [CPU_] |56| 
     318 00000039 EE04          BF        $C$L4,TC              ; [CPU_] |56| 
     319                      ; branchcc occurs ; [] |56| 
     320                      .dwpsn  file "C:/work/grepos/device_support/device_support/f2837x/F2837x_bootROM_dev/F2837x_bootROM/c
TMS320C2000 Assembler PC v6.1.3 Tue Oct 01 15:27:17 2013

Tools Copyright (c) 1996-2012 Texas Instruments Incorporated
C:\Users\a0272466\AppData\Local\Temp\0493210                         PAGE    7

     321 0000003a 0200          MOVB      ACC,#0                ; [CPU_] |58| 
     322 0000003b 1901          SUBB      ACC,#1                ; [CPU_] |58| 
     323 0000003c 6F21          B         $C$L9,UNC             ; [CPU_] |58| 
     324                      ; branch occurs ; [] |58| 
     325 0000003d       $C$L4:    
     326                      .dwpsn  file "C:/work/grepos/device_support/device_support/f2837x/F2837x_bootROM_dev/F2837x_bootROM/c
     327 0000003d 8F00'         MOVL      XAR4,#_SPIA_GetWordData ; [CPU_U] |63| 
         0000003e 009C 
     328 0000003f 761F!         MOVW      DP,#_GetWordData      ; [CPU_U] 
         00000040 0000 
     329 00000041 A800!         MOVL      @_GetWordData,XAR4    ; [CPU_] |63| 
     330                      .dwpsn  file "C:/work/grepos/device_support/device_support/f2837x/F2837x_bootROM_dev/F2837x_bootROM/c
     331              $C$DW$30        .dwtag  DW_TAG_TI_branch
     332                      .dwattr $C$DW$30, DW_AT_low_pc(0x00)
     333                      .dwattr $C$DW$30, DW_AT_name("_SPIA_Init")
     334                      .dwattr $C$DW$30, DW_AT_TI_call
     335 00000042 7640'         LCR       #_SPIA_Init           ; [CPU_] |67| 
         00000043 00D0 
     336                      ; call occurs [#_SPIA_Init] ; [] |67| 
     337                      .dwpsn  file "C:/work/grepos/device_support/device_support/f2837x/F2837x_bootROM_dev/F2837x_bootROM/c
     338 00000044 8F07          MOVL      XAR4,#459744          ; [CPU_U] |70| 
         00000045 03E0 
     339 00000046 06C4          MOVL      ACC,*+XAR4[0]         ; [CPU_] |70| 
     340 00000047 1E44          MOVL      *-SP[4],ACC           ; [CPU_] |70| 
     341                      .dwpsn  file "C:/work/grepos/device_support/device_support/f2837x/F2837x_bootROM_dev/F2837x_bootROM/c
     342 00000048 0200          MOVB      ACC,#0                ; [CPU_] |71| 
     343 00000049 1901          SUBB      ACC,#1                ; [CPU_] |71| 
     344 0000004a 0F44          CMPL      ACC,*-SP[4]           ; [CPU_] |71| 
     345 0000004b EC03          BF        $C$L5,EQ              ; [CPU_] |71| 
     346                      ; branchcc occurs ; [] |71| 
     347 0000004c 0644          MOVL      ACC,*-SP[4]           ; [CPU_] |71| 
     348 0000004d ED0C          BF        $C$L7,NEQ             ; [CPU_] |71| 
     349                      ; branchcc occurs ; [] |71| 
     350 0000004e       $C$L5:    
     351                      .dwpsn  file "C:/work/grepos/device_support/device_support/f2837x/F2837x_bootROM_dev/F2837x_bootROM/c
     352 0000004e 0642          MOVL      ACC,*-SP[2]           ; [CPU_] |75| 
     353 0000004f 9B00          MOVB      AH,#0                 ; [CPU_] |75| 
     354 00000050 90F0          ANDB      AL,#0xf0              ; [CPU_] |75| 
     355 00000051 FF58          TEST      ACC                   ; [CPU_] |75| 
     356 00000052 ED04          BF        $C$L6,NEQ             ; [CPU_] |75| 
     357                      ; branchcc occurs ; [] |75| 
     358                      .dwpsn  file "C:/work/grepos/device_support/device_support/f2837x/F2837x_bootROM_dev/F2837x_bootROM/c
     359              $C$DW$31        .dwtag  DW_TAG_TI_branch
     360                      .dwattr $C$DW$31, DW_AT_low_pc(0x00)
     361                      .dwattr $C$DW$31, DW_AT_name("_SPI_Pinmux_Option1")
     362                      .dwattr $C$DW$31, DW_AT_TI_call
     363 00000053 7640'         LCR       #_SPI_Pinmux_Option1  ; [CPU_] |83| 
         00000054 00AA 
     364                      ; call occurs [#_SPI_Pinmux_Option1] ; [] |83| 
     365                      .dwpsn  file "C:/work/grepos/device_support/device_support/f2837x/F2837x_bootROM_dev/F2837x_bootROM/c
     366 00000055 6F06          B         $C$L8,UNC             ; [CPU_] |84| 
     367                      ; branch occurs ; [] |84| 
     368 00000056       $C$L6:    
     369                      .dwpsn  file "C:/work/grepos/device_support/device_support/f2837x/F2837x_bootROM_dev/F2837x_bootROM/c
     370              $C$DW$32        .dwtag  DW_TAG_TI_branch
TMS320C2000 Assembler PC v6.1.3 Tue Oct 01 15:27:17 2013

Tools Copyright (c) 1996-2012 Texas Instruments Incorporated
C:\Users\a0272466\AppData\Local\Temp\0493210                         PAGE    8

     371                      .dwattr $C$DW$32, DW_AT_low_pc(0x00)
     372                      .dwattr $C$DW$32, DW_AT_name("_SPI_Pinmux_Option2")
     373                      .dwattr $C$DW$32, DW_AT_TI_call
     374 00000056 7640'         LCR       #_SPI_Pinmux_Option2  ; [CPU_] |93| 
         00000057 00BE 
     375                      ; call occurs [#_SPI_Pinmux_Option2] ; [] |93| 
     376                      .dwpsn  file "C:/work/grepos/device_support/device_support/f2837x/F2837x_bootROM_dev/F2837x_bootROM/c
     377 00000058 6F03          B         $C$L8,UNC             ; [CPU_] |95| 
     378                      ; branch occurs ; [] |95| 
     379 00000059       $C$L7:    
     380                      .dwpsn  file "C:/work/grepos/device_support/device_support/f2837x/F2837x_bootROM_dev/F2837x_bootROM/c
     381 00000059 C544          MOVL      XAR7,*-SP[4]          ; [CPU_] |99| 
     382              $C$DW$33        .dwtag  DW_TAG_TI_branch
     383                      .dwattr $C$DW$33, DW_AT_low_pc(0x00)
     384                      .dwattr $C$DW$33, DW_AT_TI_call
     385                      .dwattr $C$DW$33, DW_AT_TI_indirect
     386 0000005a 3E67          LCR       *XAR7                 ; [CPU_] |99| 
     387                      ; call occurs [XAR7] ; [] |99| 
     388 0000005b       $C$L8:    
     389                      .dwpsn  file "C:/work/grepos/device_support/device_support/f2837x/F2837x_bootROM_dev/F2837x_bootROM/c
     390              $C$DW$34        .dwtag  DW_TAG_TI_branch
     391                      .dwattr $C$DW$34, DW_AT_low_pc(0x00)
     392                      .dwattr $C$DW$34, DW_AT_name("_SPI_start_Boot")
     393                      .dwattr $C$DW$34, DW_AT_TI_call
     394 0000005b 7640'         LCR       #_SPI_start_Boot      ; [CPU_] |102| 
         0000005c 005F 
     395                      ; call occurs [#_SPI_start_Boot] ; [] |102| 
     396 0000005d       $C$L9:    
     397                      .dwpsn  file "C:/work/grepos/device_support/device_support/f2837x/F2837x_bootROM_dev/F2837x_bootROM/c
     398 0000005d FE84          SUBB      SP,#4                 ; [CPU_U] 
     399                      .dwcfi  cfa_offset, -2
     400              $C$DW$35        .dwtag  DW_TAG_TI_branch
     401                      .dwattr $C$DW$35, DW_AT_low_pc(0x00)
     402                      .dwattr $C$DW$35, DW_AT_TI_return
     403 0000005e 0006          LRETR     ; [CPU_] 
     404                      ; return occurs ; [] 
     405                      .dwattr $C$DW$26, DW_AT_TI_end_file("C:/work/grepos/device_support/device_support/f2837x/F2837x_bootR
     406                      .dwattr $C$DW$26, DW_AT_TI_end_line(0x67)
     407                      .dwattr $C$DW$26, DW_AT_TI_end_column(0x01)
     408                      .dwendentry
     409                      .dwendtag $C$DW$26
     410              
     411 0000005f               .sect   ".text"
     412                      .global _SPI_start_Boot
     413              
     414              $C$DW$36        .dwtag  DW_TAG_subprogram, DW_AT_name("SPI_start_Boot")
     415                      .dwattr $C$DW$36, DW_AT_low_pc(_SPI_start_Boot)
     416                      .dwattr $C$DW$36, DW_AT_high_pc(0x00)
     417                      .dwattr $C$DW$36, DW_AT_TI_symbol_name("_SPI_start_Boot")
     418                      .dwattr $C$DW$36, DW_AT_external
     419                      .dwattr $C$DW$36, DW_AT_type(*$C$DW$T$21)
     420                      .dwattr $C$DW$36, DW_AT_TI_begin_file("C:/work/grepos/device_support/device_support/f2837x/F2837x_boo
     421                      .dwattr $C$DW$36, DW_AT_TI_begin_line(0x69)
     422                      .dwattr $C$DW$36, DW_AT_TI_begin_column(0x08)
     423                      .dwattr $C$DW$36, DW_AT_TI_max_frame_size(-4)
TMS320C2000 Assembler PC v6.1.3 Tue Oct 01 15:27:17 2013

Tools Copyright (c) 1996-2012 Texas Instruments Incorporated
C:\Users\a0272466\AppData\Local\Temp\0493210                         PAGE    9

     424                      .dwpsn  file "C:/work/grepos/device_support/device_support/f2837x/F2837x_bootROM_dev/F2837x_bootROM/c
     425              
     426                      .dwfde $C$DW$CIE, _SPI_start_Boot
     427              
     428              ;***************************************************************
     429              ;* FNAME: _SPI_start_Boot               FR SIZE:   2           *
     430              ;*                                                             *
     431              ;* FUNCTION ENVIRONMENT                                        *
     432              ;*                                                             *
     433              ;* FUNCTION PROPERTIES                                         *
     434              ;*                            0 Parameter,  2 Auto,  0 SOE     *
     435              ;***************************************************************
     436              
     437 0000005f       _SPI_start_Boot:
     438                      .dwcfi  cfa_offset, -2
     439                      .dwcfi  save_reg_to_mem, 26, 0
     440                      .dwcfi  save_reg_to_reg, 78, 26
     441 0000005f FE02          ADDB      SP,#2                 ; [CPU_U] 
     442                      .dwcfi  cfa_offset, -4
     443              $C$DW$37        .dwtag  DW_TAG_variable, DW_AT_name("EntryAddr")
     444                      .dwattr $C$DW$37, DW_AT_TI_symbol_name("_EntryAddr")
     445                      .dwattr $C$DW$37, DW_AT_type(*$C$DW$T$21)
     446                      .dwattr $C$DW$37, DW_AT_location[DW_OP_breg20 -2]
     447                      .dwpsn  file "C:/work/grepos/device_support/device_support/f2837x/F2837x_bootROM_dev/F2837x_bootROM/c
     448 00000060 28A9          MOV       AL,#768               ; [CPU_] |110| 
         00000061 0300 
     449              $C$DW$38        .dwtag  DW_TAG_TI_branch
     450                      .dwattr $C$DW$38, DW_AT_low_pc(0x00)
     451                      .dwattr $C$DW$38, DW_AT_name("_SPIA_Transmit")
     452                      .dwattr $C$DW$38, DW_AT_TI_call
     453 00000062 7640'         LCR       #_SPIA_Transmit       ; [CPU_] |110| 
         00000063 0000 
     454                      ; call occurs [#_SPIA_Transmit] ; [] |110| 
     455                      .dwpsn  file "C:/work/grepos/device_support/device_support/f2837x/F2837x_bootROM_dev/F2837x_bootROM/c
     456              $C$DW$39        .dwtag  DW_TAG_TI_branch
     457                      .dwattr $C$DW$39, DW_AT_low_pc(0x00)
     458                      .dwattr $C$DW$39, DW_AT_name("_SPIA_SetAddress_KeyChk")
     459                      .dwattr $C$DW$39, DW_AT_TI_call
     460 00000064 7640'         LCR       #_SPIA_SetAddress_KeyChk ; [CPU_] |114| 
         00000065 007B 
     461                      ; call occurs [#_SPIA_SetAddress_KeyChk] ; [] |114| 
     462 00000066 1BA9          CMP       AL,#2218              ; [CPU_] |114| 
         00000067 08AA 
     463 00000068 EC04          BF        $C$L10,EQ             ; [CPU_] |114| 
     464                      ; branchcc occurs ; [] |114| 
     465                      .dwpsn  file "C:/work/grepos/device_support/device_support/f2837x/F2837x_bootROM_dev/F2837x_bootROM/c
     466 00000069 8F08          MOVL      XAR4,#524288          ; [CPU_U] |114| 
         0000006a 0000 
     467 0000006b 6F0D          B         $C$L11,UNC            ; [CPU_] |114| 
     468                      ; branch occurs ; [] |114| 
     469 0000006c       $C$L10:    
     470                      .dwpsn  file "C:/work/grepos/device_support/device_support/f2837x/F2837x_bootROM_dev/F2837x_bootROM/c
     471              $C$DW$40        .dwtag  DW_TAG_TI_branch
     472                      .dwattr $C$DW$40, DW_AT_low_pc(0x00)
     473                      .dwattr $C$DW$40, DW_AT_name("_SPIA_ReservedFn")
TMS320C2000 Assembler PC v6.1.3 Tue Oct 01 15:27:17 2013

Tools Copyright (c) 1996-2012 Texas Instruments Incorporated
C:\Users\a0272466\AppData\Local\Temp\0493210                         PAGE   10

     474                      .dwattr $C$DW$40, DW_AT_TI_call
     475 0000006c 7640'         LCR       #_SPIA_ReservedFn     ; [CPU_] |116| 
         0000006d 000E 
     476                      ; call occurs [#_SPIA_ReservedFn] ; [] |116| 
     477                      .dwpsn  file "C:/work/grepos/device_support/device_support/f2837x/F2837x_bootROM_dev/F2837x_bootROM/c
     478              $C$DW$41        .dwtag  DW_TAG_TI_branch
     479                      .dwattr $C$DW$41, DW_AT_low_pc(0x00)
     480                      .dwattr $C$DW$41, DW_AT_name("_GetLongData")
     481                      .dwattr $C$DW$41, DW_AT_TI_call
     482 0000006e 7640!         LCR       #_GetLongData         ; [CPU_] |118| 
         0000006f 0000 
     483                      ; call occurs [#_GetLongData] ; [] |118| 
     484 00000070 1E42          MOVL      *-SP[2],ACC           ; [CPU_] |118| 
     485                      .dwpsn  file "C:/work/grepos/device_support/device_support/f2837x/F2837x_bootROM_dev/F2837x_bootROM/c
     486              $C$DW$42        .dwtag  DW_TAG_TI_branch
     487                      .dwattr $C$DW$42, DW_AT_low_pc(0x00)
     488                      .dwattr $C$DW$42, DW_AT_name("_CopyData")
     489                      .dwattr $C$DW$42, DW_AT_TI_call
     490 00000071 7640!         LCR       #_CopyData            ; [CPU_] |120| 
         00000072 0000 
     491                      ; call occurs [#_CopyData] ; [] |120| 
     492                      .dwpsn  file "C:/work/grepos/device_support/device_support/f2837x/F2837x_bootROM_dev/F2837x_bootROM/c
     493 00000073 761F!         MOVW      DP,#_GpioDataRegs+3   ; [CPU_U] 
         00000074 0000 
     494 00000075 1A03!         OR        @_GpioDataRegs+3,#0x0008 ; [CPU_] |123| 
         00000076 0008 
     495                      .dwpsn  file "C:/work/grepos/device_support/device_support/f2837x/F2837x_bootROM_dev/F2837x_bootROM/c
     496 00000077 8A42          MOVL      XAR4,*-SP[2]          ; [CPU_] |125| 
     497 00000078       $C$L11:    
     498                      .dwpsn  file "C:/work/grepos/device_support/device_support/f2837x/F2837x_bootROM_dev/F2837x_bootROM/c
     499 00000078 A8A9          MOVL      ACC,XAR4              ; [CPU_] |125| 
     500 00000079 FE82          SUBB      SP,#2                 ; [CPU_U] |125| 
     501                      .dwcfi  cfa_offset, -2
     502              $C$DW$43        .dwtag  DW_TAG_TI_branch
     503                      .dwattr $C$DW$43, DW_AT_low_pc(0x00)
     504                      .dwattr $C$DW$43, DW_AT_TI_return
     505 0000007a 0006          LRETR     ; [CPU_] 
     506                      ; return occurs ; [] 
     507                      .dwattr $C$DW$36, DW_AT_TI_end_file("C:/work/grepos/device_support/device_support/f2837x/F2837x_bootR
     508                      .dwattr $C$DW$36, DW_AT_TI_end_line(0x7e)
     509                      .dwattr $C$DW$36, DW_AT_TI_end_column(0x01)
     510                      .dwendentry
     511                      .dwendtag $C$DW$36
     512              
     513 0000007b               .sect   ".text"
     514                      .global _SPIA_SetAddress_KeyChk
     515              
     516              $C$DW$44        .dwtag  DW_TAG_subprogram, DW_AT_name("SPIA_SetAddress_KeyChk")
     517                      .dwattr $C$DW$44, DW_AT_low_pc(_SPIA_SetAddress_KeyChk)
     518                      .dwattr $C$DW$44, DW_AT_high_pc(0x00)
     519                      .dwattr $C$DW$44, DW_AT_TI_symbol_name("_SPIA_SetAddress_KeyChk")
     520                      .dwattr $C$DW$44, DW_AT_external
     521                      .dwattr $C$DW$44, DW_AT_type(*$C$DW$T$19)
     522                      .dwattr $C$DW$44, DW_AT_TI_begin_file("C:/work/grepos/device_support/device_support/f2837x/F2837x_boo
     523                      .dwattr $C$DW$44, DW_AT_TI_begin_line(0x8c)
TMS320C2000 Assembler PC v6.1.3 Tue Oct 01 15:27:17 2013

Tools Copyright (c) 1996-2012 Texas Instruments Incorporated
C:\Users\a0272466\AppData\Local\Temp\0493210                         PAGE   11

     524                      .dwattr $C$DW$44, DW_AT_TI_begin_column(0x08)
     525                      .dwattr $C$DW$44, DW_AT_TI_max_frame_size(-4)
     526                      .dwpsn  file "C:/work/grepos/device_support/device_support/f2837x/F2837x_bootROM_dev/F2837x_bootROM/c
     527              
     528                      .dwfde $C$DW$CIE, _SPIA_SetAddress_KeyChk
     529              
     530              ;***************************************************************
     531              ;* FNAME: _SPIA_SetAddress_KeyChk       FR SIZE:   2           *
     532              ;*                                                             *
     533              ;* FUNCTION ENVIRONMENT                                        *
     534              ;*                                                             *
     535              ;* FUNCTION PROPERTIES                                         *
     536              ;*                            0 Parameter,  1 Auto,  0 SOE     *
     537              ;***************************************************************
     538              
     539 0000007b       _SPIA_SetAddress_KeyChk:
     540                      .dwcfi  cfa_offset, -2
     541                      .dwcfi  save_reg_to_mem, 26, 0
     542                      .dwcfi  save_reg_to_reg, 78, 26
     543 0000007b FE02          ADDB      SP,#2                 ; [CPU_U] 
     544                      .dwcfi  cfa_offset, -4
     545              $C$DW$45        .dwtag  DW_TAG_variable, DW_AT_name("keyValue")
     546                      .dwattr $C$DW$45, DW_AT_TI_symbol_name("_keyValue")
     547                      .dwattr $C$DW$45, DW_AT_type(*$C$DW$T$19)
     548                      .dwattr $C$DW$45, DW_AT_location[DW_OP_breg20 -1]
     549                      .dwpsn  file "C:/work/grepos/device_support/device_support/f2837x/F2837x_bootROM_dev/F2837x_bootROM/c
     550 0000007c 9A00          MOVB      AL,#0                 ; [CPU_] |144| 
     551              $C$DW$46        .dwtag  DW_TAG_TI_branch
     552                      .dwattr $C$DW$46, DW_AT_low_pc(0x00)
     553                      .dwattr $C$DW$46, DW_AT_name("_SPIA_Transmit")
     554                      .dwattr $C$DW$46, DW_AT_TI_call
     555 0000007d 7640'         LCR       #_SPIA_Transmit       ; [CPU_] |144| 
         0000007e 0000 
     556                      ; call occurs [#_SPIA_Transmit] ; [] |144| 
     557                      .dwpsn  file "C:/work/grepos/device_support/device_support/f2837x/F2837x_bootROM_dev/F2837x_bootROM/c
     558 0000007f 9A00          MOVB      AL,#0                 ; [CPU_] |146| 
     559              $C$DW$47        .dwtag  DW_TAG_TI_branch
     560                      .dwattr $C$DW$47, DW_AT_low_pc(0x00)
     561                      .dwattr $C$DW$47, DW_AT_name("_SPIA_Transmit")
     562                      .dwattr $C$DW$47, DW_AT_TI_call
     563 00000080 7640'         LCR       #_SPIA_Transmit       ; [CPU_] |146| 
         00000081 0000 
     564                      ; call occurs [#_SPIA_Transmit] ; [] |146| 
     565                      .dwpsn  file "C:/work/grepos/device_support/device_support/f2837x/F2837x_bootROM_dev/F2837x_bootROM/c
     566 00000082 9A00          MOVB      AL,#0                 ; [CPU_] |149| 
     567              $C$DW$48        .dwtag  DW_TAG_TI_branch
     568                      .dwattr $C$DW$48, DW_AT_low_pc(0x00)
     569                      .dwattr $C$DW$48, DW_AT_name("_SPIA_Transmit")
     570                      .dwattr $C$DW$48, DW_AT_TI_call
     571 00000083 7640'         LCR       #_SPIA_Transmit       ; [CPU_] |149| 
         00000084 0000 
     572                      ; call occurs [#_SPIA_Transmit] ; [] |149| 
     573 00000085 9641          MOV       *-SP[1],AL            ; [CPU_] |149| 
     574                      .dwpsn  file "C:/work/grepos/device_support/device_support/f2837x/F2837x_bootROM_dev/F2837x_bootROM/c
     575 00000086 52AA          CMPB      AL,#170               ; [CPU_] |151| 
TMS320C2000 Assembler PC v6.1.3 Tue Oct 01 15:27:17 2013

Tools Copyright (c) 1996-2012 Texas Instruments Incorporated
C:\Users\a0272466\AppData\Local\Temp\0493210                         PAGE   12

     576 00000087 ED08          BF        $C$L12,NEQ            ; [CPU_] |151| 
     577                      ; branchcc occurs ; [] |151| 
     578                      .dwpsn  file "C:/work/grepos/device_support/device_support/f2837x/F2837x_bootROM_dev/F2837x_bootROM/c
     579 00000088 9A00          MOVB      AL,#0                 ; [CPU_] |153| 
     580              $C$DW$49        .dwtag  DW_TAG_TI_branch
     581                      .dwattr $C$DW$49, DW_AT_low_pc(0x00)
     582                      .dwattr $C$DW$49, DW_AT_name("_SPIA_Transmit")
     583                      .dwattr $C$DW$49, DW_AT_TI_call
     584 00000089 7640'         LCR       #_SPIA_Transmit       ; [CPU_] |153| 
         0000008a 0000 
     585                      ; call occurs [#_SPIA_Transmit] ; [] |153| 
     586 0000008b 5603          MOV       ACC,AL << #8          ; [CPU_] |153| 
         0000008c 08A9 
     587 0000008d 9841          OR        *-SP[1],AL            ; [CPU_] |153| 
     588                      .dwpsn  file "C:/work/grepos/device_support/device_support/f2837x/F2837x_bootROM_dev/F2837x_bootROM/c
     589 0000008e 6F0B          B         $C$L13,UNC            ; [CPU_] |154| 
     590                      ; branch occurs ; [] |154| 
     591 0000008f       $C$L12:    
     592                      .dwpsn  file "C:/work/grepos/device_support/device_support/f2837x/F2837x_bootROM_dev/F2837x_bootROM/c
     593 0000008f 9A00          MOVB      AL,#0                 ; [CPU_] |159| 
     594              $C$DW$50        .dwtag  DW_TAG_TI_branch
     595                      .dwattr $C$DW$50, DW_AT_low_pc(0x00)
     596                      .dwattr $C$DW$50, DW_AT_name("_SPIA_Transmit")
     597                      .dwattr $C$DW$50, DW_AT_TI_call
     598 00000090 7640'         LCR       #_SPIA_Transmit       ; [CPU_] |159| 
         00000091 0000 
     599                      ; call occurs [#_SPIA_Transmit] ; [] |159| 
     600 00000092 9641          MOV       *-SP[1],AL            ; [CPU_] |159| 
     601                      .dwpsn  file "C:/work/grepos/device_support/device_support/f2837x/F2837x_bootROM_dev/F2837x_bootROM/c
     602 00000093 9A00          MOVB      AL,#0                 ; [CPU_] |161| 
     603              $C$DW$51        .dwtag  DW_TAG_TI_branch
     604                      .dwattr $C$DW$51, DW_AT_low_pc(0x00)
     605                      .dwattr $C$DW$51, DW_AT_name("_SPIA_Transmit")
     606                      .dwattr $C$DW$51, DW_AT_TI_call
     607 00000094 7640'         LCR       #_SPIA_Transmit       ; [CPU_] |161| 
         00000095 0000 
     608                      ; call occurs [#_SPIA_Transmit] ; [] |161| 
     609 00000096 5603          MOV       ACC,AL << #8          ; [CPU_] |161| 
         00000097 08A9 
     610 00000098 9841          OR        *-SP[1],AL            ; [CPU_] |161| 
     611 00000099       $C$L13:    
     612                      .dwpsn  file "C:/work/grepos/device_support/device_support/f2837x/F2837x_bootROM_dev/F2837x_bootROM/c
     613 00000099 9241          MOV       AL,*-SP[1]            ; [CPU_] |163| 
     614                      .dwpsn  file "C:/work/grepos/device_support/device_support/f2837x/F2837x_bootROM_dev/F2837x_bootROM/c
     615 0000009a FE82          SUBB      SP,#2                 ; [CPU_U] 
     616                      .dwcfi  cfa_offset, -2
     617              $C$DW$52        .dwtag  DW_TAG_TI_branch
     618                      .dwattr $C$DW$52, DW_AT_low_pc(0x00)
     619                      .dwattr $C$DW$52, DW_AT_TI_return
     620 0000009b 0006          LRETR     ; [CPU_] 
     621                      ; return occurs ; [] 
     622                      .dwattr $C$DW$44, DW_AT_TI_end_file("C:/work/grepos/device_support/device_support/f2837x/F2837x_bootR
     623                      .dwattr $C$DW$44, DW_AT_TI_end_line(0xa4)
     624                      .dwattr $C$DW$44, DW_AT_TI_end_column(0x01)
     625                      .dwendentry
TMS320C2000 Assembler PC v6.1.3 Tue Oct 01 15:27:17 2013

Tools Copyright (c) 1996-2012 Texas Instruments Incorporated
C:\Users\a0272466\AppData\Local\Temp\0493210                         PAGE   13

     626                      .dwendtag $C$DW$44
     627              
     628 0000009c               .sect   ".text"
     629                      .global _SPIA_GetWordData
     630              
     631              $C$DW$53        .dwtag  DW_TAG_subprogram, DW_AT_name("SPIA_GetWordData")
     632                      .dwattr $C$DW$53, DW_AT_low_pc(_SPIA_GetWordData)
     633                      .dwattr $C$DW$53, DW_AT_high_pc(0x00)
     634                      .dwattr $C$DW$53, DW_AT_TI_symbol_name("_SPIA_GetWordData")
     635                      .dwattr $C$DW$53, DW_AT_external
     636                      .dwattr $C$DW$53, DW_AT_type(*$C$DW$T$19)
     637                      .dwattr $C$DW$53, DW_AT_TI_begin_file("C:/work/grepos/device_support/device_support/f2837x/F2837x_boo
     638                      .dwattr $C$DW$53, DW_AT_TI_begin_line(0xea)
     639                      .dwattr $C$DW$53, DW_AT_TI_begin_column(0x08)
     640                      .dwattr $C$DW$53, DW_AT_TI_max_frame_size(-4)
     641                      .dwpsn  file "C:/work/grepos/device_support/device_support/f2837x/F2837x_bootROM_dev/F2837x_bootROM/c
     642              
     643                      .dwfde $C$DW$CIE, _SPIA_GetWordData
     644              
     645              ;***************************************************************
     646              ;* FNAME: _SPIA_GetWordData             FR SIZE:   2           *
     647              ;*                                                             *
     648              ;* FUNCTION ENVIRONMENT                                        *
     649              ;*                                                             *
     650              ;* FUNCTION PROPERTIES                                         *
     651              ;*                            0 Parameter,  1 Auto,  0 SOE     *
     652              ;***************************************************************
     653              
     654 0000009c       _SPIA_GetWordData:
     655                      .dwcfi  cfa_offset, -2
     656                      .dwcfi  save_reg_to_mem, 26, 0
     657                      .dwcfi  save_reg_to_reg, 78, 26
     658 0000009c FE02          ADDB      SP,#2                 ; [CPU_U] 
     659                      .dwcfi  cfa_offset, -4
     660              $C$DW$54        .dwtag  DW_TAG_variable, DW_AT_name("wordData")
     661                      .dwattr $C$DW$54, DW_AT_TI_symbol_name("_wordData")
     662                      .dwattr $C$DW$54, DW_AT_type(*$C$DW$T$19)
     663                      .dwattr $C$DW$54, DW_AT_location[DW_OP_breg20 -1]
     664                      .dwpsn  file "C:/work/grepos/device_support/device_support/f2837x/F2837x_bootROM_dev/F2837x_bootROM/c
     665 0000009d 9A00          MOVB      AL,#0                 ; [CPU_] |238| 
     666              $C$DW$55        .dwtag  DW_TAG_TI_branch
     667                      .dwattr $C$DW$55, DW_AT_low_pc(0x00)
     668                      .dwattr $C$DW$55, DW_AT_name("_SPIA_Transmit")
     669                      .dwattr $C$DW$55, DW_AT_TI_call
     670 0000009e 7640'         LCR       #_SPIA_Transmit       ; [CPU_] |238| 
         0000009f 0000 
     671                      ; call occurs [#_SPIA_Transmit] ; [] |238| 
     672 000000a0 9641          MOV       *-SP[1],AL            ; [CPU_] |238| 
     673                      .dwpsn  file "C:/work/grepos/device_support/device_support/f2837x/F2837x_bootROM_dev/F2837x_bootROM/c
     674 000000a1 9A00          MOVB      AL,#0                 ; [CPU_] |240| 
     675              $C$DW$56        .dwtag  DW_TAG_TI_branch
     676                      .dwattr $C$DW$56, DW_AT_low_pc(0x00)
     677                      .dwattr $C$DW$56, DW_AT_name("_SPIA_Transmit")
     678                      .dwattr $C$DW$56, DW_AT_TI_call
     679 000000a2 7640'         LCR       #_SPIA_Transmit       ; [CPU_] |240| 
TMS320C2000 Assembler PC v6.1.3 Tue Oct 01 15:27:17 2013

Tools Copyright (c) 1996-2012 Texas Instruments Incorporated
C:\Users\a0272466\AppData\Local\Temp\0493210                         PAGE   14

         000000a3 0000 
     680                      ; call occurs [#_SPIA_Transmit] ; [] |240| 
     681 000000a4 5603          MOV       ACC,AL << #8          ; [CPU_] |240| 
         000000a5 08A9 
     682 000000a6 9841          OR        *-SP[1],AL            ; [CPU_] |240| 
     683                      .dwpsn  file "C:/work/grepos/device_support/device_support/f2837x/F2837x_bootROM_dev/F2837x_bootROM/c
     684 000000a7 9241          MOV       AL,*-SP[1]            ; [CPU_] |241| 
     685                      .dwpsn  file "C:/work/grepos/device_support/device_support/f2837x/F2837x_bootROM_dev/F2837x_bootROM/c
     686 000000a8 FE82          SUBB      SP,#2                 ; [CPU_U] 
     687                      .dwcfi  cfa_offset, -2
     688              $C$DW$57        .dwtag  DW_TAG_TI_branch
     689                      .dwattr $C$DW$57, DW_AT_low_pc(0x00)
     690                      .dwattr $C$DW$57, DW_AT_TI_return
     691 000000a9 0006          LRETR     ; [CPU_] 
     692                      ; return occurs ; [] 
     693                      .dwattr $C$DW$53, DW_AT_TI_end_file("C:/work/grepos/device_support/device_support/f2837x/F2837x_bootR
     694                      .dwattr $C$DW$53, DW_AT_TI_end_line(0xf2)
     695                      .dwattr $C$DW$53, DW_AT_TI_end_column(0x01)
     696                      .dwendentry
     697                      .dwendtag $C$DW$53
     698              
     699 000000aa               .sect   ".text"
     700                      .global _SPI_Pinmux_Option1
     701              
     702              $C$DW$58        .dwtag  DW_TAG_subprogram, DW_AT_name("SPI_Pinmux_Option1")
     703                      .dwattr $C$DW$58, DW_AT_low_pc(_SPI_Pinmux_Option1)
     704                      .dwattr $C$DW$58, DW_AT_high_pc(0x00)
     705                      .dwattr $C$DW$58, DW_AT_TI_symbol_name("_SPI_Pinmux_Option1")
     706                      .dwattr $C$DW$58, DW_AT_external
     707                      .dwattr $C$DW$58, DW_AT_TI_begin_file("C:/work/grepos/device_support/device_support/f2837x/F2837x_boo
     708                      .dwattr $C$DW$58, DW_AT_TI_begin_line(0x101)
     709                      .dwattr $C$DW$58, DW_AT_TI_begin_column(0x06)
     710                      .dwattr $C$DW$58, DW_AT_TI_max_frame_size(-2)
     711                      .dwpsn  file "C:/work/grepos/device_support/device_support/f2837x/F2837x_bootROM_dev/F2837x_bootROM/c
     712              
     713                      .dwfde $C$DW$CIE, _SPI_Pinmux_Option1
     714              
     715              ;***************************************************************
     716              ;* FNAME: _SPI_Pinmux_Option1           FR SIZE:   0           *
     717              ;*                                                             *
     718              ;* FUNCTION ENVIRONMENT                                        *
     719              ;*                                                             *
     720              ;* FUNCTION PROPERTIES                                         *
     721              ;*                            0 Parameter,  0 Auto,  0 SOE     *
     722              ;***************************************************************
     723              
     724 000000aa       _SPI_Pinmux_Option1:
     725                      .dwcfi  cfa_offset, -2
     726                      .dwcfi  save_reg_to_mem, 26, 0
     727                      .dwcfi  save_reg_to_reg, 78, 26
     728                      .dwpsn  file "C:/work/grepos/device_support/device_support/f2837x/F2837x_bootROM_dev/F2837x_bootROM/c
     729 000000aa 7622   EALLOW
     730                      .dwpsn  file "C:/work/grepos/device_support/device_support/f2837x/F2837x_bootROM_dev/F2837x_bootROM/c
     731 000000ab 761F!         MOVW      DP,#_GpioCtrlRegs+77  ; [CPU_U] 
         000000ac 0001 
TMS320C2000 Assembler PC v6.1.3 Tue Oct 01 15:27:17 2013

Tools Copyright (c) 1996-2012 Texas Instruments Incorporated
C:\Users\a0272466\AppData\Local\Temp\0493210                         PAGE   15

     732 000000ad 180D!         AND       @_GpioCtrlRegs+77,#50175 ; [CPU_] |261| 
         000000ae C3FF 
     733                      .dwpsn  file "C:/work/grepos/device_support/device_support/f2837x/F2837x_bootROM_dev/F2837x_bootROM/c
     734 000000af 1A23!         OR        @_GpioCtrlRegs+99,#1008 ; [CPU_] |264| 
         000000b0 03F0 
     735                      .dwpsn  file "C:/work/grepos/device_support/device_support/f2837x/F2837x_bootROM_dev/F2837x_bootROM/c
     736 000000b1 1A09!         OR        @_GpioCtrlRegs+73,#1008 ; [CPU_] |265| 
         000000b2 03F0 
     737                      .dwpsn  file "C:/work/grepos/device_support/device_support/f2837x/F2837x_bootROM_dev/F2837x_bootROM/c
     738 000000b3 1A05!         OR        @_GpioCtrlRegs+69,#1008 ; [CPU_] |268| 
         000000b4 03F0 
     739                      .dwpsn  file "C:/work/grepos/device_support/device_support/f2837x/F2837x_bootROM_dev/F2837x_bootROM/c
     740 000000b5 1A0B!         OR        @_GpioCtrlRegs+75,#8192 ; [CPU_] |271| 
         000000b6 2000 
     741                      .dwpsn  file "C:/work/grepos/device_support/device_support/f2837x/F2837x_bootROM_dev/F2837x_bootROM/c
     742 000000b7 761F!         MOVW      DP,#_GpioDataRegs+13  ; [CPU_U] 
         000000b8 0000 
     743 000000b9 1A0D!         OR        @_GpioDataRegs+13,#0x2000 ; [CPU_] |274| 
         000000ba 2000 
     744                      .dwpsn  file "C:/work/grepos/device_support/device_support/f2837x/F2837x_bootROM_dev/F2837x_bootROM/c
     745 000000bb 761A   EDIS
     746                      .dwpsn  file "C:/work/grepos/device_support/device_support/f2837x/F2837x_bootROM_dev/F2837x_bootROM/c
     747 000000bc FF69          SPM       #0                    ; [CPU_] 
     748              $C$DW$59        .dwtag  DW_TAG_TI_branch
     749                      .dwattr $C$DW$59, DW_AT_low_pc(0x00)
     750                      .dwattr $C$DW$59, DW_AT_TI_return
     751 000000bd 0006          LRETR     ; [CPU_] 
     752                      ; return occurs ; [] 
     753                      .dwattr $C$DW$58, DW_AT_TI_end_file("C:/work/grepos/device_support/device_support/f2837x/F2837x_bootR
     754                      .dwattr $C$DW$58, DW_AT_TI_end_line(0x114)
     755                      .dwattr $C$DW$58, DW_AT_TI_end_column(0x01)
     756                      .dwendentry
     757                      .dwendtag $C$DW$58
     758              
     759 000000be               .sect   ".text"
     760                      .global _SPI_Pinmux_Option2
     761              
     762              $C$DW$60        .dwtag  DW_TAG_subprogram, DW_AT_name("SPI_Pinmux_Option2")
     763                      .dwattr $C$DW$60, DW_AT_low_pc(_SPI_Pinmux_Option2)
     764                      .dwattr $C$DW$60, DW_AT_high_pc(0x00)
     765                      .dwattr $C$DW$60, DW_AT_TI_symbol_name("_SPI_Pinmux_Option2")
     766                      .dwattr $C$DW$60, DW_AT_external
     767                      .dwattr $C$DW$60, DW_AT_TI_begin_file("C:/work/grepos/device_support/device_support/f2837x/F2837x_boo
     768                      .dwattr $C$DW$60, DW_AT_TI_begin_line(0x124)
     769                      .dwattr $C$DW$60, DW_AT_TI_begin_column(0x06)
     770                      .dwattr $C$DW$60, DW_AT_TI_max_frame_size(-2)
     771                      .dwpsn  file "C:/work/grepos/device_support/device_support/f2837x/F2837x_bootROM_dev/F2837x_bootROM/c
     772              
     773                      .dwfde $C$DW$CIE, _SPI_Pinmux_Option2
     774              
     775              ;***************************************************************
     776              ;* FNAME: _SPI_Pinmux_Option2           FR SIZE:   0           *
     777              ;*                                                             *
     778              ;* FUNCTION ENVIRONMENT                                        *
     779              ;*                                                             *
TMS320C2000 Assembler PC v6.1.3 Tue Oct 01 15:27:17 2013

Tools Copyright (c) 1996-2012 Texas Instruments Incorporated
C:\Users\a0272466\AppData\Local\Temp\0493210                         PAGE   16

     780              ;* FUNCTION PROPERTIES                                         *
     781              ;*                            0 Parameter,  0 Auto,  0 SOE     *
     782              ;***************************************************************
     783              
     784 000000be       _SPI_Pinmux_Option2:
     785                      .dwcfi  cfa_offset, -2
     786                      .dwcfi  save_reg_to_mem, 26, 0
     787                      .dwcfi  save_reg_to_reg, 78, 26
     788                      .dwpsn  file "C:/work/grepos/device_support/device_support/f2837x/F2837x_bootROM_dev/F2837x_bootROM/c
     789 000000be 7622   EALLOW
     790                      .dwpsn  file "C:/work/grepos/device_support/device_support/f2837x/F2837x_bootROM_dev/F2837x_bootROM/c
     791 000000bf 761F!         MOVW      DP,#_GpioCtrlRegs+13  ; [CPU_U] 
         000000c0 0000 
     792 000000c1 180D!         AND       @_GpioCtrlRegs+13,#65520 ; [CPU_] |296| 
         000000c2 FFF0 
     793                      .dwpsn  file "C:/work/grepos/device_support/device_support/f2837x/F2837x_bootROM_dev/F2837x_bootROM/c
     794 000000c3 1A08!         OR        @_GpioCtrlRegs+8,#21  ; [CPU_] |299| 
         000000c4 0015 
     795                      .dwpsn  file "C:/work/grepos/device_support/device_support/f2837x/F2837x_bootROM_dev/F2837x_bootROM/c
     796 000000c5 1A04!         OR        @_GpioCtrlRegs+4,#63  ; [CPU_] |302| 
         000000c6 003F 
     797                      .dwpsn  file "C:/work/grepos/device_support/device_support/f2837x/F2837x_bootROM_dev/F2837x_bootROM/c
     798 000000c7 1A0B!         OR        @_GpioCtrlRegs+11,#0x0008 ; [CPU_] |305| 
         000000c8 0008 
     799                      .dwpsn  file "C:/work/grepos/device_support/device_support/f2837x/F2837x_bootROM_dev/F2837x_bootROM/c
     800 000000c9 761F!         MOVW      DP,#_GpioDataRegs+5   ; [CPU_U] 
         000000ca 0000 
     801 000000cb 1A05!         OR        @_GpioDataRegs+5,#0x0008 ; [CPU_] |308| 
         000000cc 0008 
     802                      .dwpsn  file "C:/work/grepos/device_support/device_support/f2837x/F2837x_bootROM_dev/F2837x_bootROM/c
     803 000000cd 761A   EDIS
     804                      .dwpsn  file "C:/work/grepos/device_support/device_support/f2837x/F2837x_bootROM_dev/F2837x_bootROM/c
     805 000000ce FF69          SPM       #0                    ; [CPU_] 
     806              $C$DW$61        .dwtag  DW_TAG_TI_branch
     807                      .dwattr $C$DW$61, DW_AT_low_pc(0x00)
     808                      .dwattr $C$DW$61, DW_AT_TI_return
     809 000000cf 0006          LRETR     ; [CPU_] 
     810                      ; return occurs ; [] 
     811                      .dwattr $C$DW$60, DW_AT_TI_end_file("C:/work/grepos/device_support/device_support/f2837x/F2837x_bootR
     812                      .dwattr $C$DW$60, DW_AT_TI_end_line(0x136)
     813                      .dwattr $C$DW$60, DW_AT_TI_end_column(0x01)
     814                      .dwendentry
     815                      .dwendtag $C$DW$60
     816              
     817 000000d0               .sect   ".text"
     818                      .global _SPIA_Init
     819              
     820              $C$DW$62        .dwtag  DW_TAG_subprogram, DW_AT_name("SPIA_Init")
     821                      .dwattr $C$DW$62, DW_AT_low_pc(_SPIA_Init)
     822                      .dwattr $C$DW$62, DW_AT_high_pc(0x00)
     823                      .dwattr $C$DW$62, DW_AT_TI_symbol_name("_SPIA_Init")
     824                      .dwattr $C$DW$62, DW_AT_external
     825                      .dwattr $C$DW$62, DW_AT_TI_begin_file("C:/work/grepos/device_support/device_support/f2837x/F2837x_boo
     826                      .dwattr $C$DW$62, DW_AT_TI_begin_line(0x139)
     827                      .dwattr $C$DW$62, DW_AT_TI_begin_column(0x06)
TMS320C2000 Assembler PC v6.1.3 Tue Oct 01 15:27:17 2013

Tools Copyright (c) 1996-2012 Texas Instruments Incorporated
C:\Users\a0272466\AppData\Local\Temp\0493210                         PAGE   17

     828                      .dwattr $C$DW$62, DW_AT_TI_max_frame_size(-2)
     829                      .dwpsn  file "C:/work/grepos/device_support/device_support/f2837x/F2837x_bootROM_dev/F2837x_bootROM/c
     830              
     831                      .dwfde $C$DW$CIE, _SPIA_Init
     832              
     833              ;***************************************************************
     834              ;* FNAME: _SPIA_Init                    FR SIZE:   0           *
     835              ;*                                                             *
     836              ;* FUNCTION ENVIRONMENT                                        *
     837              ;*                                                             *
     838              ;* FUNCTION PROPERTIES                                         *
     839              ;*                            0 Parameter,  0 Auto,  0 SOE     *
     840              ;***************************************************************
     841              
     842 000000d0       _SPIA_Init:
     843                      .dwcfi  cfa_offset, -2
     844                      .dwcfi  save_reg_to_mem, 26, 0
     845                      .dwcfi  save_reg_to_reg, 78, 26
     846                      .dwpsn  file "C:/work/grepos/device_support/device_support/f2837x/F2837x_bootROM_dev/F2837x_bootROM/c
     847 000000d0 7622   EALLOW
     848                      .dwpsn  file "C:/work/grepos/device_support/device_support/f2837x/F2837x_bootROM_dev/F2837x_bootROM/c
     849 000000d1 761F!         MOVW      DP,#_CpuSysRegs+50    ; [CPU_U] 
         000000d2 0000 
     850 000000d3 1A32!         OR        @_CpuSysRegs+50,#0x0001 ; [CPU_] |322| 
         000000d4 0001 
     851                      .dwpsn  file "C:/work/grepos/device_support/device_support/f2837x/F2837x_bootROM_dev/F2837x_bootROM/c
     852 000000d5 0202          MOVB      ACC,#2                ; [CPU_] |323| 
     853 000000d6 761F!         MOVW      DP,#_ClkCfgRegs+44    ; [CPU_U] 
         000000d7 0000 
     854 000000d8 1E2C!         MOVL      @_ClkCfgRegs+44,ACC   ; [CPU_] |323| 
     855                      .dwpsn  file "C:/work/grepos/device_support/device_support/f2837x/F2837x_bootROM_dev/F2837x_bootROM/c
     856 000000d9 761F!         MOVW      DP,#_SpiaRegs+10      ; [CPU_U] 
         000000da 0000 
     857 000000db 280A!         MOV       @_SpiaRegs+10,#32768  ; [CPU_] |326| 
         000000dc 8000 
     858                      .dwpsn  file "C:/work/grepos/device_support/device_support/f2837x/F2837x_bootROM_dev/F2837x_bootROM/c
     859 000000dd 56BF!         MOVB      @_SpiaRegs,#7,UNC     ; [CPU_] |328| 
         000000de 0700 
     860                      .dwpsn  file "C:/work/grepos/device_support/device_support/f2837x/F2837x_bootROM_dev/F2837x_bootROM/c
     861 000000df 56BF!         MOVB      @_SpiaRegs+1,#14,UNC  ; [CPU_] |330| 
         000000e0 0E01 
     862                      .dwpsn  file "C:/work/grepos/device_support/device_support/f2837x/F2837x_bootROM_dev/F2837x_bootROM/c
     863 000000e1 56BF!         MOVB      @_SpiaRegs+4,#127,UNC ; [CPU_] |332| 
         000000e2 7F04 
     864                      .dwpsn  file "C:/work/grepos/device_support/device_support/f2837x/F2837x_bootROM_dev/F2837x_bootROM/c
     865 000000e3 56BF!         MOVB      @_SpiaRegs,#135,UNC   ; [CPU_] |334| 
         000000e4 8700 
     866                      .dwpsn  file "C:/work/grepos/device_support/device_support/f2837x/F2837x_bootROM_dev/F2837x_bootROM/c
     867 000000e5 761A   EDIS
     868                      .dwpsn  file "C:/work/grepos/device_support/device_support/f2837x/F2837x_bootROM_dev/F2837x_bootROM/c
     869 000000e6 FF69          SPM       #0                    ; [CPU_] 
     870              $C$DW$63        .dwtag  DW_TAG_TI_branch
     871                      .dwattr $C$DW$63, DW_AT_low_pc(0x00)
     872                      .dwattr $C$DW$63, DW_AT_TI_return
     873 000000e7 0006          LRETR     ; [CPU_] 
TMS320C2000 Assembler PC v6.1.3 Tue Oct 01 15:27:17 2013

Tools Copyright (c) 1996-2012 Texas Instruments Incorporated
C:\Users\a0272466\AppData\Local\Temp\0493210                         PAGE   18

     874                      ; return occurs ; [] 
     875                      .dwattr $C$DW$62, DW_AT_TI_end_file("C:/work/grepos/device_support/device_support/f2837x/F2837x_bootR
     876                      .dwattr $C$DW$62, DW_AT_TI_end_line(0x150)
     877                      .dwattr $C$DW$62, DW_AT_TI_end_column(0x01)
     878                      .dwendentry
     879                      .dwendtag $C$DW$62
     880              
     881              ;**************************************************************
     882              ;* UNDEFINED EXTERNAL REFERENCES                              *
     883              ;**************************************************************
     884                      .global _CopyData
     885                      .global _GetLongData
     886                      .global _GetWordData
     887                      .global _SpiaRegs
     888                      .global _GpioDataRegs
     889                      .global _ClkCfgRegs
     890                      .global _CpuSysRegs
     891                      .global _DevCfgRegs
     892                      .global _GpioCtrlRegs
     893              
     894              ;***************************************************************
     895              ;* TYPE INFORMATION                                            *
     896              ;***************************************************************
     897              
     898              $C$DW$T$20      .dwtag  DW_TAG_structure_type
     899                      .dwattr $C$DW$T$20, DW_AT_name("AUXCLKDIVSEL_BITS")
     900                      .dwattr $C$DW$T$20, DW_AT_byte_size(0x02)
     901              $C$DW$64        .dwtag  DW_TAG_member
     902                      .dwattr $C$DW$64, DW_AT_type(*$C$DW$T$19)
     903                      .dwattr $C$DW$64, DW_AT_name("AUXPLLDIV")
     904                      .dwattr $C$DW$64, DW_AT_TI_symbol_name("_AUXPLLDIV")
     905                      .dwattr $C$DW$64, DW_AT_bit_offset(0x0e), DW_AT_bit_size(0x02)
     906                      .dwattr $C$DW$64, DW_AT_data_member_location[DW_OP_plus_uconst 0x0]
     907                      .dwattr $C$DW$64, DW_AT_accessibility(DW_ACCESS_public)
     908              $C$DW$65        .dwtag  DW_TAG_member
     909                      .dwattr $C$DW$65, DW_AT_type(*$C$DW$T$19)
     910                      .dwattr $C$DW$65, DW_AT_name("rsvd1")
     911                      .dwattr $C$DW$65, DW_AT_TI_symbol_name("_rsvd1")
     912                      .dwattr $C$DW$65, DW_AT_bit_offset(0x00), DW_AT_bit_size(0x0e)
     913                      .dwattr $C$DW$65, DW_AT_data_member_location[DW_OP_plus_uconst 0x0]
     914                      .dwattr $C$DW$65, DW_AT_accessibility(DW_ACCESS_public)
     915              $C$DW$66        .dwtag  DW_TAG_member
     916                      .dwattr $C$DW$66, DW_AT_type(*$C$DW$T$19)
     917                      .dwattr $C$DW$66, DW_AT_name("rsvd2")
     918                      .dwattr $C$DW$66, DW_AT_TI_symbol_name("_rsvd2")
     919                      .dwattr $C$DW$66, DW_AT_bit_offset(0x00), DW_AT_bit_size(0x10)
     920                      .dwattr $C$DW$66, DW_AT_data_member_location[DW_OP_plus_uconst 0x1]
     921                      .dwattr $C$DW$66, DW_AT_accessibility(DW_ACCESS_public)
     922                      .dwendtag $C$DW$T$20
     923              
     924              
     925              $C$DW$T$22      .dwtag  DW_TAG_union_type
     926                      .dwattr $C$DW$T$22, DW_AT_name("AUXCLKDIVSEL_REG")
     927                      .dwattr $C$DW$T$22, DW_AT_byte_size(0x02)
     928              $C$DW$67        .dwtag  DW_TAG_member
TMS320C2000 Assembler PC v6.1.3 Tue Oct 01 15:27:17 2013

Tools Copyright (c) 1996-2012 Texas Instruments Incorporated
C:\Users\a0272466\AppData\Local\Temp\0493210                         PAGE   19

     929                      .dwattr $C$DW$67, DW_AT_type(*$C$DW$T$21)
     930                      .dwattr $C$DW$67, DW_AT_name("all")
     931                      .dwattr $C$DW$67, DW_AT_TI_symbol_name("_all")
     932                      .dwattr $C$DW$67, DW_AT_data_member_location[DW_OP_plus_uconst 0x0]
     933                      .dwattr $C$DW$67, DW_AT_accessibility(DW_ACCESS_public)
     934              $C$DW$68        .dwtag  DW_TAG_member
     935                      .dwattr $C$DW$68, DW_AT_type(*$C$DW$T$20)
     936                      .dwattr $C$DW$68, DW_AT_name("bit")
     937                      .dwattr $C$DW$68, DW_AT_TI_symbol_name("_bit")
     938                      .dwattr $C$DW$68, DW_AT_data_member_location[DW_OP_plus_uconst 0x0]
     939                      .dwattr $C$DW$68, DW_AT_accessibility(DW_ACCESS_public)
     940                      .dwendtag $C$DW$T$22
     941              
     942              
     943              $C$DW$T$23      .dwtag  DW_TAG_structure_type
     944                      .dwattr $C$DW$T$23, DW_AT_name("AUXPLLCTL1_BITS")
     945                      .dwattr $C$DW$T$23, DW_AT_byte_size(0x02)
     946              $C$DW$69        .dwtag  DW_TAG_member
     947                      .dwattr $C$DW$69, DW_AT_type(*$C$DW$T$19)
     948                      .dwattr $C$DW$69, DW_AT_name("PLLEN")
     949                      .dwattr $C$DW$69, DW_AT_TI_symbol_name("_PLLEN")
     950                      .dwattr $C$DW$69, DW_AT_bit_offset(0x0f), DW_AT_bit_size(0x01)
     951                      .dwattr $C$DW$69, DW_AT_data_member_location[DW_OP_plus_uconst 0x0]
     952                      .dwattr $C$DW$69, DW_AT_accessibility(DW_ACCESS_public)
     953              $C$DW$70        .dwtag  DW_TAG_member
     954                      .dwattr $C$DW$70, DW_AT_type(*$C$DW$T$19)
     955                      .dwattr $C$DW$70, DW_AT_name("PLLCLKEN")
     956                      .dwattr $C$DW$70, DW_AT_TI_symbol_name("_PLLCLKEN")
     957                      .dwattr $C$DW$70, DW_AT_bit_offset(0x0e), DW_AT_bit_size(0x01)
     958                      .dwattr $C$DW$70, DW_AT_data_member_location[DW_OP_plus_uconst 0x0]
     959                      .dwattr $C$DW$70, DW_AT_accessibility(DW_ACCESS_public)
     960              $C$DW$71        .dwtag  DW_TAG_member
     961                      .dwattr $C$DW$71, DW_AT_type(*$C$DW$T$19)
     962                      .dwattr $C$DW$71, DW_AT_name("rsvd1")
     963                      .dwattr $C$DW$71, DW_AT_TI_symbol_name("_rsvd1")
     964                      .dwattr $C$DW$71, DW_AT_bit_offset(0x00), DW_AT_bit_size(0x0e)
     965                      .dwattr $C$DW$71, DW_AT_data_member_location[DW_OP_plus_uconst 0x0]
     966                      .dwattr $C$DW$71, DW_AT_accessibility(DW_ACCESS_public)
     967              $C$DW$72        .dwtag  DW_TAG_member
     968                      .dwattr $C$DW$72, DW_AT_type(*$C$DW$T$19)
     969                      .dwattr $C$DW$72, DW_AT_name("rsvd2")
     970                      .dwattr $C$DW$72, DW_AT_TI_symbol_name("_rsvd2")
     971                      .dwattr $C$DW$72, DW_AT_bit_offset(0x00), DW_AT_bit_size(0x10)
     972                      .dwattr $C$DW$72, DW_AT_data_member_location[DW_OP_plus_uconst 0x1]
     973                      .dwattr $C$DW$72, DW_AT_accessibility(DW_ACCESS_public)
     974                      .dwendtag $C$DW$T$23
     975              
     976              
     977              $C$DW$T$24      .dwtag  DW_TAG_union_type
     978                      .dwattr $C$DW$T$24, DW_AT_name("AUXPLLCTL1_REG")
     979                      .dwattr $C$DW$T$24, DW_AT_byte_size(0x02)
     980              $C$DW$73        .dwtag  DW_TAG_member
     981                      .dwattr $C$DW$73, DW_AT_type(*$C$DW$T$21)
     982                      .dwattr $C$DW$73, DW_AT_name("all")
     983                      .dwattr $C$DW$73, DW_AT_TI_symbol_name("_all")
TMS320C2000 Assembler PC v6.1.3 Tue Oct 01 15:27:17 2013

Tools Copyright (c) 1996-2012 Texas Instruments Incorporated
C:\Users\a0272466\AppData\Local\Temp\0493210                         PAGE   20

     984                      .dwattr $C$DW$73, DW_AT_data_member_location[DW_OP_plus_uconst 0x0]
     985                      .dwattr $C$DW$73, DW_AT_accessibility(DW_ACCESS_public)
     986              $C$DW$74        .dwtag  DW_TAG_member
     987                      .dwattr $C$DW$74, DW_AT_type(*$C$DW$T$23)
     988                      .dwattr $C$DW$74, DW_AT_name("bit")
     989                      .dwattr $C$DW$74, DW_AT_TI_symbol_name("_bit")
     990                      .dwattr $C$DW$74, DW_AT_data_member_location[DW_OP_plus_uconst 0x0]
     991                      .dwattr $C$DW$74, DW_AT_accessibility(DW_ACCESS_public)
     992                      .dwendtag $C$DW$T$24
     993              
     994              
     995              $C$DW$T$25      .dwtag  DW_TAG_structure_type
     996                      .dwattr $C$DW$T$25, DW_AT_name("AUXPLLMULT_BITS")
     997                      .dwattr $C$DW$T$25, DW_AT_byte_size(0x02)
     998              $C$DW$75        .dwtag  DW_TAG_member
     999                      .dwattr $C$DW$75, DW_AT_type(*$C$DW$T$19)
    1000                      .dwattr $C$DW$75, DW_AT_name("IMULT")
    1001                      .dwattr $C$DW$75, DW_AT_TI_symbol_name("_IMULT")
    1002                      .dwattr $C$DW$75, DW_AT_bit_offset(0x09), DW_AT_bit_size(0x07)
    1003                      .dwattr $C$DW$75, DW_AT_data_member_location[DW_OP_plus_uconst 0x0]
    1004                      .dwattr $C$DW$75, DW_AT_accessibility(DW_ACCESS_public)
    1005              $C$DW$76        .dwtag  DW_TAG_member
    1006                      .dwattr $C$DW$76, DW_AT_type(*$C$DW$T$19)
    1007                      .dwattr $C$DW$76, DW_AT_name("rsvd1")
    1008                      .dwattr $C$DW$76, DW_AT_TI_symbol_name("_rsvd1")
    1009                      .dwattr $C$DW$76, DW_AT_bit_offset(0x08), DW_AT_bit_size(0x01)
    1010                      .dwattr $C$DW$76, DW_AT_data_member_location[DW_OP_plus_uconst 0x0]
    1011                      .dwattr $C$DW$76, DW_AT_accessibility(DW_ACCESS_public)
    1012              $C$DW$77        .dwtag  DW_TAG_member
    1013                      .dwattr $C$DW$77, DW_AT_type(*$C$DW$T$19)
    1014                      .dwattr $C$DW$77, DW_AT_name("FMULT")
    1015                      .dwattr $C$DW$77, DW_AT_TI_symbol_name("_FMULT")
    1016                      .dwattr $C$DW$77, DW_AT_bit_offset(0x06), DW_AT_bit_size(0x02)
    1017                      .dwattr $C$DW$77, DW_AT_data_member_location[DW_OP_plus_uconst 0x0]
    1018                      .dwattr $C$DW$77, DW_AT_accessibility(DW_ACCESS_public)
    1019              $C$DW$78        .dwtag  DW_TAG_member
    1020                      .dwattr $C$DW$78, DW_AT_type(*$C$DW$T$19)
    1021                      .dwattr $C$DW$78, DW_AT_name("rsvd2")
    1022                      .dwattr $C$DW$78, DW_AT_TI_symbol_name("_rsvd2")
    1023                      .dwattr $C$DW$78, DW_AT_bit_offset(0x00), DW_AT_bit_size(0x06)
    1024                      .dwattr $C$DW$78, DW_AT_data_member_location[DW_OP_plus_uconst 0x0]
    1025                      .dwattr $C$DW$78, DW_AT_accessibility(DW_ACCESS_public)
    1026              $C$DW$79        .dwtag  DW_TAG_member
    1027                      .dwattr $C$DW$79, DW_AT_type(*$C$DW$T$19)
    1028                      .dwattr $C$DW$79, DW_AT_name("rsvd3")
    1029                      .dwattr $C$DW$79, DW_AT_TI_symbol_name("_rsvd3")
    1030                      .dwattr $C$DW$79, DW_AT_bit_offset(0x00), DW_AT_bit_size(0x10)
    1031                      .dwattr $C$DW$79, DW_AT_data_member_location[DW_OP_plus_uconst 0x1]
    1032                      .dwattr $C$DW$79, DW_AT_accessibility(DW_ACCESS_public)
    1033                      .dwendtag $C$DW$T$25
    1034              
    1035              
    1036              $C$DW$T$26      .dwtag  DW_TAG_union_type
    1037                      .dwattr $C$DW$T$26, DW_AT_name("AUXPLLMULT_REG")
    1038                      .dwattr $C$DW$T$26, DW_AT_byte_size(0x02)
TMS320C2000 Assembler PC v6.1.3 Tue Oct 01 15:27:17 2013

Tools Copyright (c) 1996-2012 Texas Instruments Incorporated
C:\Users\a0272466\AppData\Local\Temp\0493210                         PAGE   21

    1039              $C$DW$80        .dwtag  DW_TAG_member
    1040                      .dwattr $C$DW$80, DW_AT_type(*$C$DW$T$21)
    1041                      .dwattr $C$DW$80, DW_AT_name("all")
    1042                      .dwattr $C$DW$80, DW_AT_TI_symbol_name("_all")
    1043                      .dwattr $C$DW$80, DW_AT_data_member_location[DW_OP_plus_uconst 0x0]
    1044                      .dwattr $C$DW$80, DW_AT_accessibility(DW_ACCESS_public)
    1045              $C$DW$81        .dwtag  DW_TAG_member
    1046                      .dwattr $C$DW$81, DW_AT_type(*$C$DW$T$25)
    1047                      .dwattr $C$DW$81, DW_AT_name("bit")
    1048                      .dwattr $C$DW$81, DW_AT_TI_symbol_name("_bit")
    1049                      .dwattr $C$DW$81, DW_AT_data_member_location[DW_OP_plus_uconst 0x0]
    1050                      .dwattr $C$DW$81, DW_AT_accessibility(DW_ACCESS_public)
    1051                      .dwendtag $C$DW$T$26
    1052              
    1053              
    1054              $C$DW$T$27      .dwtag  DW_TAG_structure_type
    1055                      .dwattr $C$DW$T$27, DW_AT_name("AUXPLLSTS_BITS")
    1056                      .dwattr $C$DW$T$27, DW_AT_byte_size(0x02)
    1057              $C$DW$82        .dwtag  DW_TAG_member
    1058                      .dwattr $C$DW$82, DW_AT_type(*$C$DW$T$19)
    1059                      .dwattr $C$DW$82, DW_AT_name("LOCKS")
    1060                      .dwattr $C$DW$82, DW_AT_TI_symbol_name("_LOCKS")
    1061                      .dwattr $C$DW$82, DW_AT_bit_offset(0x0f), DW_AT_bit_size(0x01)
    1062                      .dwattr $C$DW$82, DW_AT_data_member_location[DW_OP_plus_uconst 0x0]
    1063                      .dwattr $C$DW$82, DW_AT_accessibility(DW_ACCESS_public)
    1064              $C$DW$83        .dwtag  DW_TAG_member
    1065                      .dwattr $C$DW$83, DW_AT_type(*$C$DW$T$19)
    1066                      .dwattr $C$DW$83, DW_AT_name("SLIPS")
    1067                      .dwattr $C$DW$83, DW_AT_TI_symbol_name("_SLIPS")
    1068                      .dwattr $C$DW$83, DW_AT_bit_offset(0x0e), DW_AT_bit_size(0x01)
    1069                      .dwattr $C$DW$83, DW_AT_data_member_location[DW_OP_plus_uconst 0x0]
    1070                      .dwattr $C$DW$83, DW_AT_accessibility(DW_ACCESS_public)
    1071              $C$DW$84        .dwtag  DW_TAG_member
    1072                      .dwattr $C$DW$84, DW_AT_type(*$C$DW$T$19)
    1073                      .dwattr $C$DW$84, DW_AT_name("rsvd1")
    1074                      .dwattr $C$DW$84, DW_AT_TI_symbol_name("_rsvd1")
    1075                      .dwattr $C$DW$84, DW_AT_bit_offset(0x00), DW_AT_bit_size(0x0e)
    1076                      .dwattr $C$DW$84, DW_AT_data_member_location[DW_OP_plus_uconst 0x0]
    1077                      .dwattr $C$DW$84, DW_AT_accessibility(DW_ACCESS_public)
    1078              $C$DW$85        .dwtag  DW_TAG_member
    1079                      .dwattr $C$DW$85, DW_AT_type(*$C$DW$T$19)
    1080                      .dwattr $C$DW$85, DW_AT_name("rsvd2")
    1081                      .dwattr $C$DW$85, DW_AT_TI_symbol_name("_rsvd2")
    1082                      .dwattr $C$DW$85, DW_AT_bit_offset(0x00), DW_AT_bit_size(0x10)
    1083                      .dwattr $C$DW$85, DW_AT_data_member_location[DW_OP_plus_uconst 0x1]
    1084                      .dwattr $C$DW$85, DW_AT_accessibility(DW_ACCESS_public)
    1085                      .dwendtag $C$DW$T$27
    1086              
    1087              
    1088              $C$DW$T$28      .dwtag  DW_TAG_union_type
    1089                      .dwattr $C$DW$T$28, DW_AT_name("AUXPLLSTS_REG")
    1090                      .dwattr $C$DW$T$28, DW_AT_byte_size(0x02)
    1091              $C$DW$86        .dwtag  DW_TAG_member
    1092                      .dwattr $C$DW$86, DW_AT_type(*$C$DW$T$21)
    1093                      .dwattr $C$DW$86, DW_AT_name("all")
TMS320C2000 Assembler PC v6.1.3 Tue Oct 01 15:27:17 2013

Tools Copyright (c) 1996-2012 Texas Instruments Incorporated
C:\Users\a0272466\AppData\Local\Temp\0493210                         PAGE   22

    1094                      .dwattr $C$DW$86, DW_AT_TI_symbol_name("_all")
    1095                      .dwattr $C$DW$86, DW_AT_data_member_location[DW_OP_plus_uconst 0x0]
    1096                      .dwattr $C$DW$86, DW_AT_accessibility(DW_ACCESS_public)
    1097              $C$DW$87        .dwtag  DW_TAG_member
    1098                      .dwattr $C$DW$87, DW_AT_type(*$C$DW$T$27)
    1099                      .dwattr $C$DW$87, DW_AT_name("bit")
    1100                      .dwattr $C$DW$87, DW_AT_TI_symbol_name("_bit")
    1101                      .dwattr $C$DW$87, DW_AT_data_member_location[DW_OP_plus_uconst 0x0]
    1102                      .dwattr $C$DW$87, DW_AT_accessibility(DW_ACCESS_public)
    1103                      .dwendtag $C$DW$T$28
    1104              
    1105              
    1106              $C$DW$T$29      .dwtag  DW_TAG_structure_type
    1107                      .dwattr $C$DW$T$29, DW_AT_name("CCR_BITS")
    1108                      .dwattr $C$DW$T$29, DW_AT_byte_size(0x02)
    1109              $C$DW$88        .dwtag  DW_TAG_member
    1110                      .dwattr $C$DW$88, DW_AT_type(*$C$DW$T$19)
    1111                      .dwattr $C$DW$88, DW_AT_name("VMAPS")
    1112                      .dwattr $C$DW$88, DW_AT_TI_symbol_name("_VMAPS")
    1113                      .dwattr $C$DW$88, DW_AT_bit_offset(0x0f), DW_AT_bit_size(0x01)
    1114                      .dwattr $C$DW$88, DW_AT_data_member_location[DW_OP_plus_uconst 0x0]
    1115                      .dwattr $C$DW$88, DW_AT_accessibility(DW_ACCESS_public)
    1116              $C$DW$89        .dwtag  DW_TAG_member
    1117                      .dwattr $C$DW$89, DW_AT_type(*$C$DW$T$19)
    1118                      .dwattr $C$DW$89, DW_AT_name("MONPRIV")
    1119                      .dwattr $C$DW$89, DW_AT_TI_symbol_name("_MONPRIV")
    1120                      .dwattr $C$DW$89, DW_AT_bit_offset(0x0e), DW_AT_bit_size(0x01)
    1121                      .dwattr $C$DW$89, DW_AT_data_member_location[DW_OP_plus_uconst 0x0]
    1122                      .dwattr $C$DW$89, DW_AT_accessibility(DW_ACCESS_public)
    1123              $C$DW$90        .dwtag  DW_TAG_member
    1124                      .dwattr $C$DW$90, DW_AT_type(*$C$DW$T$19)
    1125                      .dwattr $C$DW$90, DW_AT_name("ENPROT")
    1126                      .dwattr $C$DW$90, DW_AT_TI_symbol_name("_ENPROT")
    1127                      .dwattr $C$DW$90, DW_AT_bit_offset(0x0d), DW_AT_bit_size(0x01)
    1128                      .dwattr $C$DW$90, DW_AT_data_member_location[DW_OP_plus_uconst 0x0]
    1129                      .dwattr $C$DW$90, DW_AT_accessibility(DW_ACCESS_public)
    1130              $C$DW$91        .dwtag  DW_TAG_member
    1131                      .dwattr $C$DW$91, DW_AT_type(*$C$DW$T$19)
    1132                      .dwattr $C$DW$91, DW_AT_name("rsvd1")
    1133                      .dwattr $C$DW$91, DW_AT_TI_symbol_name("_rsvd1")
    1134                      .dwattr $C$DW$91, DW_AT_bit_offset(0x00), DW_AT_bit_size(0x0d)
    1135                      .dwattr $C$DW$91, DW_AT_data_member_location[DW_OP_plus_uconst 0x0]
    1136                      .dwattr $C$DW$91, DW_AT_accessibility(DW_ACCESS_public)
    1137              $C$DW$92        .dwtag  DW_TAG_member
    1138                      .dwattr $C$DW$92, DW_AT_type(*$C$DW$T$19)
    1139                      .dwattr $C$DW$92, DW_AT_name("rsvd2")
    1140                      .dwattr $C$DW$92, DW_AT_TI_symbol_name("_rsvd2")
    1141                      .dwattr $C$DW$92, DW_AT_bit_offset(0x00), DW_AT_bit_size(0x10)
    1142                      .dwattr $C$DW$92, DW_AT_data_member_location[DW_OP_plus_uconst 0x1]
    1143                      .dwattr $C$DW$92, DW_AT_accessibility(DW_ACCESS_public)
    1144                      .dwendtag $C$DW$T$29
    1145              
    1146              
    1147              $C$DW$T$30      .dwtag  DW_TAG_union_type
    1148                      .dwattr $C$DW$T$30, DW_AT_name("CCR_REG")
TMS320C2000 Assembler PC v6.1.3 Tue Oct 01 15:27:17 2013

Tools Copyright (c) 1996-2012 Texas Instruments Incorporated
C:\Users\a0272466\AppData\Local\Temp\0493210                         PAGE   23

    1149                      .dwattr $C$DW$T$30, DW_AT_byte_size(0x02)
    1150              $C$DW$93        .dwtag  DW_TAG_member
    1151                      .dwattr $C$DW$93, DW_AT_type(*$C$DW$T$21)
    1152                      .dwattr $C$DW$93, DW_AT_name("all")
    1153                      .dwattr $C$DW$93, DW_AT_TI_symbol_name("_all")
    1154                      .dwattr $C$DW$93, DW_AT_data_member_location[DW_OP_plus_uconst 0x0]
    1155                      .dwattr $C$DW$93, DW_AT_accessibility(DW_ACCESS_public)
    1156              $C$DW$94        .dwtag  DW_TAG_member
    1157                      .dwattr $C$DW$94, DW_AT_type(*$C$DW$T$29)
    1158                      .dwattr $C$DW$94, DW_AT_name("bit")
    1159                      .dwattr $C$DW$94, DW_AT_TI_symbol_name("_bit")
    1160                      .dwattr $C$DW$94, DW_AT_data_member_location[DW_OP_plus_uconst 0x0]
    1161                      .dwattr $C$DW$94, DW_AT_accessibility(DW_ACCESS_public)
    1162                      .dwendtag $C$DW$T$30
    1163              
    1164              
    1165              $C$DW$T$31      .dwtag  DW_TAG_structure_type
    1166                      .dwattr $C$DW$T$31, DW_AT_name("CLKCFGLOCK1_BITS")
    1167                      .dwattr $C$DW$T$31, DW_AT_byte_size(0x02)
    1168              $C$DW$95        .dwtag  DW_TAG_member
    1169                      .dwattr $C$DW$95, DW_AT_type(*$C$DW$T$19)
    1170                      .dwattr $C$DW$95, DW_AT_name("CLKSRCCTL1")
    1171                      .dwattr $C$DW$95, DW_AT_TI_symbol_name("_CLKSRCCTL1")
    1172                      .dwattr $C$DW$95, DW_AT_bit_offset(0x0f), DW_AT_bit_size(0x01)
    1173                      .dwattr $C$DW$95, DW_AT_data_member_location[DW_OP_plus_uconst 0x0]
    1174                      .dwattr $C$DW$95, DW_AT_accessibility(DW_ACCESS_public)
    1175              $C$DW$96        .dwtag  DW_TAG_member
    1176                      .dwattr $C$DW$96, DW_AT_type(*$C$DW$T$19)
    1177                      .dwattr $C$DW$96, DW_AT_name("CLKSRCCTL2")
    1178                      .dwattr $C$DW$96, DW_AT_TI_symbol_name("_CLKSRCCTL2")
    1179                      .dwattr $C$DW$96, DW_AT_bit_offset(0x0e), DW_AT_bit_size(0x01)
    1180                      .dwattr $C$DW$96, DW_AT_data_member_location[DW_OP_plus_uconst 0x0]
    1181                      .dwattr $C$DW$96, DW_AT_accessibility(DW_ACCESS_public)
    1182              $C$DW$97        .dwtag  DW_TAG_member
    1183                      .dwattr $C$DW$97, DW_AT_type(*$C$DW$T$19)
    1184                      .dwattr $C$DW$97, DW_AT_name("CLKSRCCTL3")
    1185                      .dwattr $C$DW$97, DW_AT_TI_symbol_name("_CLKSRCCTL3")
    1186                      .dwattr $C$DW$97, DW_AT_bit_offset(0x0d), DW_AT_bit_size(0x01)
    1187                      .dwattr $C$DW$97, DW_AT_data_member_location[DW_OP_plus_uconst 0x0]
    1188                      .dwattr $C$DW$97, DW_AT_accessibility(DW_ACCESS_public)
    1189              $C$DW$98        .dwtag  DW_TAG_member
    1190                      .dwattr $C$DW$98, DW_AT_type(*$C$DW$T$19)
    1191                      .dwattr $C$DW$98, DW_AT_name("SYSPLLCTL1")
    1192                      .dwattr $C$DW$98, DW_AT_TI_symbol_name("_SYSPLLCTL1")
    1193                      .dwattr $C$DW$98, DW_AT_bit_offset(0x0c), DW_AT_bit_size(0x01)
    1194                      .dwattr $C$DW$98, DW_AT_data_member_location[DW_OP_plus_uconst 0x0]
    1195                      .dwattr $C$DW$98, DW_AT_accessibility(DW_ACCESS_public)
    1196              $C$DW$99        .dwtag  DW_TAG_member
    1197                      .dwattr $C$DW$99, DW_AT_type(*$C$DW$T$19)
    1198                      .dwattr $C$DW$99, DW_AT_name("SYSPLLCTL2")
    1199                      .dwattr $C$DW$99, DW_AT_TI_symbol_name("_SYSPLLCTL2")
    1200                      .dwattr $C$DW$99, DW_AT_bit_offset(0x0b), DW_AT_bit_size(0x01)
    1201                      .dwattr $C$DW$99, DW_AT_data_member_location[DW_OP_plus_uconst 0x0]
    1202                      .dwattr $C$DW$99, DW_AT_accessibility(DW_ACCESS_public)
    1203              $C$DW$100       .dwtag  DW_TAG_member
TMS320C2000 Assembler PC v6.1.3 Tue Oct 01 15:27:17 2013

Tools Copyright (c) 1996-2012 Texas Instruments Incorporated
C:\Users\a0272466\AppData\Local\Temp\0493210                         PAGE   24

    1204                      .dwattr $C$DW$100, DW_AT_type(*$C$DW$T$19)
    1205                      .dwattr $C$DW$100, DW_AT_name("SYSPLLCTL3")
    1206                      .dwattr $C$DW$100, DW_AT_TI_symbol_name("_SYSPLLCTL3")
    1207                      .dwattr $C$DW$100, DW_AT_bit_offset(0x0a), DW_AT_bit_size(0x01)
    1208                      .dwattr $C$DW$100, DW_AT_data_member_location[DW_OP_plus_uconst 0x0]
    1209                      .dwattr $C$DW$100, DW_AT_accessibility(DW_ACCESS_public)
    1210              $C$DW$101       .dwtag  DW_TAG_member
    1211                      .dwattr $C$DW$101, DW_AT_type(*$C$DW$T$19)
    1212                      .dwattr $C$DW$101, DW_AT_name("SYSPLLMULT")
    1213                      .dwattr $C$DW$101, DW_AT_TI_symbol_name("_SYSPLLMULT")
    1214                      .dwattr $C$DW$101, DW_AT_bit_offset(0x09), DW_AT_bit_size(0x01)
    1215                      .dwattr $C$DW$101, DW_AT_data_member_location[DW_OP_plus_uconst 0x0]
    1216                      .dwattr $C$DW$101, DW_AT_accessibility(DW_ACCESS_public)
    1217              $C$DW$102       .dwtag  DW_TAG_member
    1218                      .dwattr $C$DW$102, DW_AT_type(*$C$DW$T$19)
    1219                      .dwattr $C$DW$102, DW_AT_name("AUXPLLCTL1")
    1220                      .dwattr $C$DW$102, DW_AT_TI_symbol_name("_AUXPLLCTL1")
    1221                      .dwattr $C$DW$102, DW_AT_bit_offset(0x08), DW_AT_bit_size(0x01)
    1222                      .dwattr $C$DW$102, DW_AT_data_member_location[DW_OP_plus_uconst 0x0]
    1223                      .dwattr $C$DW$102, DW_AT_accessibility(DW_ACCESS_public)
    1224              $C$DW$103       .dwtag  DW_TAG_member
    1225                      .dwattr $C$DW$103, DW_AT_type(*$C$DW$T$19)
    1226                      .dwattr $C$DW$103, DW_AT_name("rsvd1")
    1227                      .dwattr $C$DW$103, DW_AT_TI_symbol_name("_rsvd1")
    1228                      .dwattr $C$DW$103, DW_AT_bit_offset(0x06), DW_AT_bit_size(0x02)
    1229                      .dwattr $C$DW$103, DW_AT_data_member_location[DW_OP_plus_uconst 0x0]
    1230                      .dwattr $C$DW$103, DW_AT_accessibility(DW_ACCESS_public)
    1231              $C$DW$104       .dwtag  DW_TAG_member
    1232                      .dwattr $C$DW$104, DW_AT_type(*$C$DW$T$19)
    1233                      .dwattr $C$DW$104, DW_AT_name("AUXPLLMULT")
    1234                      .dwattr $C$DW$104, DW_AT_TI_symbol_name("_AUXPLLMULT")
    1235                      .dwattr $C$DW$104, DW_AT_bit_offset(0x05), DW_AT_bit_size(0x01)
    1236                      .dwattr $C$DW$104, DW_AT_data_member_location[DW_OP_plus_uconst 0x0]
    1237                      .dwattr $C$DW$104, DW_AT_accessibility(DW_ACCESS_public)
    1238              $C$DW$105       .dwtag  DW_TAG_member
    1239                      .dwattr $C$DW$105, DW_AT_type(*$C$DW$T$19)
    1240                      .dwattr $C$DW$105, DW_AT_name("SYSCLKDIVSEL")
    1241                      .dwattr $C$DW$105, DW_AT_TI_symbol_name("_SYSCLKDIVSEL")
    1242                      .dwattr $C$DW$105, DW_AT_bit_offset(0x04), DW_AT_bit_size(0x01)
    1243                      .dwattr $C$DW$105, DW_AT_data_member_location[DW_OP_plus_uconst 0x0]
    1244                      .dwattr $C$DW$105, DW_AT_accessibility(DW_ACCESS_public)
    1245              $C$DW$106       .dwtag  DW_TAG_member
    1246                      .dwattr $C$DW$106, DW_AT_type(*$C$DW$T$19)
    1247                      .dwattr $C$DW$106, DW_AT_name("AUXCLKDIVSEL")
    1248                      .dwattr $C$DW$106, DW_AT_TI_symbol_name("_AUXCLKDIVSEL")
    1249                      .dwattr $C$DW$106, DW_AT_bit_offset(0x03), DW_AT_bit_size(0x01)
    1250                      .dwattr $C$DW$106, DW_AT_data_member_location[DW_OP_plus_uconst 0x0]
    1251                      .dwattr $C$DW$106, DW_AT_accessibility(DW_ACCESS_public)
    1252              $C$DW$107       .dwtag  DW_TAG_member
    1253                      .dwattr $C$DW$107, DW_AT_type(*$C$DW$T$19)
    1254                      .dwattr $C$DW$107, DW_AT_name("PERCLKDIVSEL")
    1255                      .dwattr $C$DW$107, DW_AT_TI_symbol_name("_PERCLKDIVSEL")
    1256                      .dwattr $C$DW$107, DW_AT_bit_offset(0x02), DW_AT_bit_size(0x01)
    1257                      .dwattr $C$DW$107, DW_AT_data_member_location[DW_OP_plus_uconst 0x0]
    1258                      .dwattr $C$DW$107, DW_AT_accessibility(DW_ACCESS_public)
TMS320C2000 Assembler PC v6.1.3 Tue Oct 01 15:27:17 2013

Tools Copyright (c) 1996-2012 Texas Instruments Incorporated
C:\Users\a0272466\AppData\Local\Temp\0493210                         PAGE   25

    1259              $C$DW$108       .dwtag  DW_TAG_member
    1260                      .dwattr $C$DW$108, DW_AT_type(*$C$DW$T$19)
    1261                      .dwattr $C$DW$108, DW_AT_name("rsvd2")
    1262                      .dwattr $C$DW$108, DW_AT_TI_symbol_name("_rsvd2")
    1263                      .dwattr $C$DW$108, DW_AT_bit_offset(0x01), DW_AT_bit_size(0x01)
    1264                      .dwattr $C$DW$108, DW_AT_data_member_location[DW_OP_plus_uconst 0x0]
    1265                      .dwattr $C$DW$108, DW_AT_accessibility(DW_ACCESS_public)
    1266              $C$DW$109       .dwtag  DW_TAG_member
    1267                      .dwattr $C$DW$109, DW_AT_type(*$C$DW$T$19)
    1268                      .dwattr $C$DW$109, DW_AT_name("LOSPCP")
    1269                      .dwattr $C$DW$109, DW_AT_TI_symbol_name("_LOSPCP")
    1270                      .dwattr $C$DW$109, DW_AT_bit_offset(0x00), DW_AT_bit_size(0x01)
    1271                      .dwattr $C$DW$109, DW_AT_data_member_location[DW_OP_plus_uconst 0x0]
    1272                      .dwattr $C$DW$109, DW_AT_accessibility(DW_ACCESS_public)
    1273              $C$DW$110       .dwtag  DW_TAG_member
    1274                      .dwattr $C$DW$110, DW_AT_type(*$C$DW$T$19)
    1275                      .dwattr $C$DW$110, DW_AT_name("rsvd3")
    1276                      .dwattr $C$DW$110, DW_AT_TI_symbol_name("_rsvd3")
    1277                      .dwattr $C$DW$110, DW_AT_bit_offset(0x00), DW_AT_bit_size(0x10)
    1278                      .dwattr $C$DW$110, DW_AT_data_member_location[DW_OP_plus_uconst 0x1]
    1279                      .dwattr $C$DW$110, DW_AT_accessibility(DW_ACCESS_public)
    1280                      .dwendtag $C$DW$T$31
    1281              
    1282              
    1283              $C$DW$T$32      .dwtag  DW_TAG_union_type
    1284                      .dwattr $C$DW$T$32, DW_AT_name("CLKCFGLOCK1_REG")
    1285                      .dwattr $C$DW$T$32, DW_AT_byte_size(0x02)
    1286              $C$DW$111       .dwtag  DW_TAG_member
    1287                      .dwattr $C$DW$111, DW_AT_type(*$C$DW$T$21)
    1288                      .dwattr $C$DW$111, DW_AT_name("all")
    1289                      .dwattr $C$DW$111, DW_AT_TI_symbol_name("_all")
    1290                      .dwattr $C$DW$111, DW_AT_data_member_location[DW_OP_plus_uconst 0x0]
    1291                      .dwattr $C$DW$111, DW_AT_accessibility(DW_ACCESS_public)
    1292              $C$DW$112       .dwtag  DW_TAG_member
    1293                      .dwattr $C$DW$112, DW_AT_type(*$C$DW$T$31)
    1294                      .dwattr $C$DW$112, DW_AT_name("bit")
    1295                      .dwattr $C$DW$112, DW_AT_TI_symbol_name("_bit")
    1296                      .dwattr $C$DW$112, DW_AT_data_member_location[DW_OP_plus_uconst 0x0]
    1297                      .dwattr $C$DW$112, DW_AT_accessibility(DW_ACCESS_public)
    1298                      .dwendtag $C$DW$T$32
    1299              
    1300              
    1301              $C$DW$T$33      .dwtag  DW_TAG_structure_type
    1302                      .dwattr $C$DW$T$33, DW_AT_name("CLKSEM_BITS")
    1303                      .dwattr $C$DW$T$33, DW_AT_byte_size(0x02)
    1304              $C$DW$113       .dwtag  DW_TAG_member
    1305                      .dwattr $C$DW$113, DW_AT_type(*$C$DW$T$19)
    1306                      .dwattr $C$DW$113, DW_AT_name("SEM")
    1307                      .dwattr $C$DW$113, DW_AT_TI_symbol_name("_SEM")
    1308                      .dwattr $C$DW$113, DW_AT_bit_offset(0x0e), DW_AT_bit_size(0x02)
    1309                      .dwattr $C$DW$113, DW_AT_data_member_location[DW_OP_plus_uconst 0x0]
    1310                      .dwattr $C$DW$113, DW_AT_accessibility(DW_ACCESS_public)
    1311              $C$DW$114       .dwtag  DW_TAG_member
    1312                      .dwattr $C$DW$114, DW_AT_type(*$C$DW$T$19)
    1313                      .dwattr $C$DW$114, DW_AT_name("rsvd1")
TMS320C2000 Assembler PC v6.1.3 Tue Oct 01 15:27:17 2013

Tools Copyright (c) 1996-2012 Texas Instruments Incorporated
C:\Users\a0272466\AppData\Local\Temp\0493210                         PAGE   26

    1314                      .dwattr $C$DW$114, DW_AT_TI_symbol_name("_rsvd1")
    1315                      .dwattr $C$DW$114, DW_AT_bit_offset(0x00), DW_AT_bit_size(0x0e)
    1316                      .dwattr $C$DW$114, DW_AT_data_member_location[DW_OP_plus_uconst 0x0]
    1317                      .dwattr $C$DW$114, DW_AT_accessibility(DW_ACCESS_public)
    1318              $C$DW$115       .dwtag  DW_TAG_member
    1319                      .dwattr $C$DW$115, DW_AT_type(*$C$DW$T$19)
    1320                      .dwattr $C$DW$115, DW_AT_name("KEY")
    1321                      .dwattr $C$DW$115, DW_AT_TI_symbol_name("_KEY")
    1322                      .dwattr $C$DW$115, DW_AT_bit_offset(0x00), DW_AT_bit_size(0x10)
    1323                      .dwattr $C$DW$115, DW_AT_data_member_location[DW_OP_plus_uconst 0x1]
    1324                      .dwattr $C$DW$115, DW_AT_accessibility(DW_ACCESS_public)
    1325                      .dwendtag $C$DW$T$33
    1326              
    1327              
    1328              $C$DW$T$34      .dwtag  DW_TAG_union_type
    1329                      .dwattr $C$DW$T$34, DW_AT_name("CLKSEM_REG")
    1330                      .dwattr $C$DW$T$34, DW_AT_byte_size(0x02)
    1331              $C$DW$116       .dwtag  DW_TAG_member
    1332                      .dwattr $C$DW$116, DW_AT_type(*$C$DW$T$21)
    1333                      .dwattr $C$DW$116, DW_AT_name("all")
    1334                      .dwattr $C$DW$116, DW_AT_TI_symbol_name("_all")
    1335                      .dwattr $C$DW$116, DW_AT_data_member_location[DW_OP_plus_uconst 0x0]
    1336                      .dwattr $C$DW$116, DW_AT_accessibility(DW_ACCESS_public)
    1337              $C$DW$117       .dwtag  DW_TAG_member
    1338                      .dwattr $C$DW$117, DW_AT_type(*$C$DW$T$33)
    1339                      .dwattr $C$DW$117, DW_AT_name("bit")
    1340                      .dwattr $C$DW$117, DW_AT_TI_symbol_name("_bit")
    1341                      .dwattr $C$DW$117, DW_AT_data_member_location[DW_OP_plus_uconst 0x0]
    1342                      .dwattr $C$DW$117, DW_AT_accessibility(DW_ACCESS_public)
    1343                      .dwendtag $C$DW$T$34
    1344              
    1345              
    1346              $C$DW$T$35      .dwtag  DW_TAG_structure_type
    1347                      .dwattr $C$DW$T$35, DW_AT_name("CLKSRCCTL1_BITS")
    1348                      .dwattr $C$DW$T$35, DW_AT_byte_size(0x02)
    1349              $C$DW$118       .dwtag  DW_TAG_member
    1350                      .dwattr $C$DW$118, DW_AT_type(*$C$DW$T$19)
    1351                      .dwattr $C$DW$118, DW_AT_name("OSCCLKSRCSEL")
    1352                      .dwattr $C$DW$118, DW_AT_TI_symbol_name("_OSCCLKSRCSEL")
    1353                      .dwattr $C$DW$118, DW_AT_bit_offset(0x0e), DW_AT_bit_size(0x02)
    1354                      .dwattr $C$DW$118, DW_AT_data_member_location[DW_OP_plus_uconst 0x0]
    1355                      .dwattr $C$DW$118, DW_AT_accessibility(DW_ACCESS_public)
    1356              $C$DW$119       .dwtag  DW_TAG_member
    1357                      .dwattr $C$DW$119, DW_AT_type(*$C$DW$T$19)
    1358                      .dwattr $C$DW$119, DW_AT_name("rsvd1")
    1359                      .dwattr $C$DW$119, DW_AT_TI_symbol_name("_rsvd1")
    1360                      .dwattr $C$DW$119, DW_AT_bit_offset(0x0d), DW_AT_bit_size(0x01)
    1361                      .dwattr $C$DW$119, DW_AT_data_member_location[DW_OP_plus_uconst 0x0]
    1362                      .dwattr $C$DW$119, DW_AT_accessibility(DW_ACCESS_public)
    1363              $C$DW$120       .dwtag  DW_TAG_member
    1364                      .dwattr $C$DW$120, DW_AT_type(*$C$DW$T$19)
    1365                      .dwattr $C$DW$120, DW_AT_name("INTOSC2OFF")
    1366                      .dwattr $C$DW$120, DW_AT_TI_symbol_name("_INTOSC2OFF")
    1367                      .dwattr $C$DW$120, DW_AT_bit_offset(0x0c), DW_AT_bit_size(0x01)
    1368                      .dwattr $C$DW$120, DW_AT_data_member_location[DW_OP_plus_uconst 0x0]
TMS320C2000 Assembler PC v6.1.3 Tue Oct 01 15:27:17 2013

Tools Copyright (c) 1996-2012 Texas Instruments Incorporated
C:\Users\a0272466\AppData\Local\Temp\0493210                         PAGE   27

    1369                      .dwattr $C$DW$120, DW_AT_accessibility(DW_ACCESS_public)
    1370              $C$DW$121       .dwtag  DW_TAG_member
    1371                      .dwattr $C$DW$121, DW_AT_type(*$C$DW$T$19)
    1372                      .dwattr $C$DW$121, DW_AT_name("XTALOFF")
    1373                      .dwattr $C$DW$121, DW_AT_TI_symbol_name("_XTALOFF")
    1374                      .dwattr $C$DW$121, DW_AT_bit_offset(0x0b), DW_AT_bit_size(0x01)
    1375                      .dwattr $C$DW$121, DW_AT_data_member_location[DW_OP_plus_uconst 0x0]
    1376                      .dwattr $C$DW$121, DW_AT_accessibility(DW_ACCESS_public)
    1377              $C$DW$122       .dwtag  DW_TAG_member
    1378                      .dwattr $C$DW$122, DW_AT_type(*$C$DW$T$19)
    1379                      .dwattr $C$DW$122, DW_AT_name("WDHALTI")
    1380                      .dwattr $C$DW$122, DW_AT_TI_symbol_name("_WDHALTI")
    1381                      .dwattr $C$DW$122, DW_AT_bit_offset(0x0a), DW_AT_bit_size(0x01)
    1382                      .dwattr $C$DW$122, DW_AT_data_member_location[DW_OP_plus_uconst 0x0]
    1383                      .dwattr $C$DW$122, DW_AT_accessibility(DW_ACCESS_public)
    1384              $C$DW$123       .dwtag  DW_TAG_member
    1385                      .dwattr $C$DW$123, DW_AT_type(*$C$DW$T$19)
    1386                      .dwattr $C$DW$123, DW_AT_name("rsvd2")
    1387                      .dwattr $C$DW$123, DW_AT_TI_symbol_name("_rsvd2")
    1388                      .dwattr $C$DW$123, DW_AT_bit_offset(0x00), DW_AT_bit_size(0x0a)
    1389                      .dwattr $C$DW$123, DW_AT_data_member_location[DW_OP_plus_uconst 0x0]
    1390                      .dwattr $C$DW$123, DW_AT_accessibility(DW_ACCESS_public)
    1391              $C$DW$124       .dwtag  DW_TAG_member
    1392                      .dwattr $C$DW$124, DW_AT_type(*$C$DW$T$19)
    1393                      .dwattr $C$DW$124, DW_AT_name("rsvd3")
    1394                      .dwattr $C$DW$124, DW_AT_TI_symbol_name("_rsvd3")
    1395                      .dwattr $C$DW$124, DW_AT_bit_offset(0x00), DW_AT_bit_size(0x10)
    1396                      .dwattr $C$DW$124, DW_AT_data_member_location[DW_OP_plus_uconst 0x1]
    1397                      .dwattr $C$DW$124, DW_AT_accessibility(DW_ACCESS_public)
    1398                      .dwendtag $C$DW$T$35
    1399              
    1400              
    1401              $C$DW$T$36      .dwtag  DW_TAG_union_type
    1402                      .dwattr $C$DW$T$36, DW_AT_name("CLKSRCCTL1_REG")
    1403                      .dwattr $C$DW$T$36, DW_AT_byte_size(0x02)
    1404              $C$DW$125       .dwtag  DW_TAG_member
    1405                      .dwattr $C$DW$125, DW_AT_type(*$C$DW$T$21)
    1406                      .dwattr $C$DW$125, DW_AT_name("all")
    1407                      .dwattr $C$DW$125, DW_AT_TI_symbol_name("_all")
    1408                      .dwattr $C$DW$125, DW_AT_data_member_location[DW_OP_plus_uconst 0x0]
    1409                      .dwattr $C$DW$125, DW_AT_accessibility(DW_ACCESS_public)
    1410              $C$DW$126       .dwtag  DW_TAG_member
    1411                      .dwattr $C$DW$126, DW_AT_type(*$C$DW$T$35)
    1412                      .dwattr $C$DW$126, DW_AT_name("bit")
    1413                      .dwattr $C$DW$126, DW_AT_TI_symbol_name("_bit")
    1414                      .dwattr $C$DW$126, DW_AT_data_member_location[DW_OP_plus_uconst 0x0]
    1415                      .dwattr $C$DW$126, DW_AT_accessibility(DW_ACCESS_public)
    1416                      .dwendtag $C$DW$T$36
    1417              
    1418              
    1419              $C$DW$T$37      .dwtag  DW_TAG_structure_type
    1420                      .dwattr $C$DW$T$37, DW_AT_name("CLKSRCCTL2_BITS")
    1421                      .dwattr $C$DW$T$37, DW_AT_byte_size(0x02)
    1422              $C$DW$127       .dwtag  DW_TAG_member
    1423                      .dwattr $C$DW$127, DW_AT_type(*$C$DW$T$19)
TMS320C2000 Assembler PC v6.1.3 Tue Oct 01 15:27:17 2013

Tools Copyright (c) 1996-2012 Texas Instruments Incorporated
C:\Users\a0272466\AppData\Local\Temp\0493210                         PAGE   28

    1424                      .dwattr $C$DW$127, DW_AT_name("AUXOSCCLKSRCSEL")
    1425                      .dwattr $C$DW$127, DW_AT_TI_symbol_name("_AUXOSCCLKSRCSEL")
    1426                      .dwattr $C$DW$127, DW_AT_bit_offset(0x0e), DW_AT_bit_size(0x02)
    1427                      .dwattr $C$DW$127, DW_AT_data_member_location[DW_OP_plus_uconst 0x0]
    1428                      .dwattr $C$DW$127, DW_AT_accessibility(DW_ACCESS_public)
    1429              $C$DW$128       .dwtag  DW_TAG_member
    1430                      .dwattr $C$DW$128, DW_AT_type(*$C$DW$T$19)
    1431                      .dwattr $C$DW$128, DW_AT_name("CANABCLKSEL")
    1432                      .dwattr $C$DW$128, DW_AT_TI_symbol_name("_CANABCLKSEL")
    1433                      .dwattr $C$DW$128, DW_AT_bit_offset(0x0c), DW_AT_bit_size(0x02)
    1434                      .dwattr $C$DW$128, DW_AT_data_member_location[DW_OP_plus_uconst 0x0]
    1435                      .dwattr $C$DW$128, DW_AT_accessibility(DW_ACCESS_public)
    1436              $C$DW$129       .dwtag  DW_TAG_member
    1437                      .dwattr $C$DW$129, DW_AT_type(*$C$DW$T$19)
    1438                      .dwattr $C$DW$129, DW_AT_name("CANBBCLKSEL")
    1439                      .dwattr $C$DW$129, DW_AT_TI_symbol_name("_CANBBCLKSEL")
    1440                      .dwattr $C$DW$129, DW_AT_bit_offset(0x0a), DW_AT_bit_size(0x02)
    1441                      .dwattr $C$DW$129, DW_AT_data_member_location[DW_OP_plus_uconst 0x0]
    1442                      .dwattr $C$DW$129, DW_AT_accessibility(DW_ACCESS_public)
    1443              $C$DW$130       .dwtag  DW_TAG_member
    1444                      .dwattr $C$DW$130, DW_AT_type(*$C$DW$T$19)
    1445                      .dwattr $C$DW$130, DW_AT_name("rsvd1")
    1446                      .dwattr $C$DW$130, DW_AT_TI_symbol_name("_rsvd1")
    1447                      .dwattr $C$DW$130, DW_AT_bit_offset(0x00), DW_AT_bit_size(0x0a)
    1448                      .dwattr $C$DW$130, DW_AT_data_member_location[DW_OP_plus_uconst 0x0]
    1449                      .dwattr $C$DW$130, DW_AT_accessibility(DW_ACCESS_public)
    1450              $C$DW$131       .dwtag  DW_TAG_member
    1451                      .dwattr $C$DW$131, DW_AT_type(*$C$DW$T$19)
    1452                      .dwattr $C$DW$131, DW_AT_name("rsvd2")
    1453                      .dwattr $C$DW$131, DW_AT_TI_symbol_name("_rsvd2")
    1454                      .dwattr $C$DW$131, DW_AT_bit_offset(0x00), DW_AT_bit_size(0x10)
    1455                      .dwattr $C$DW$131, DW_AT_data_member_location[DW_OP_plus_uconst 0x1]
    1456                      .dwattr $C$DW$131, DW_AT_accessibility(DW_ACCESS_public)
    1457                      .dwendtag $C$DW$T$37
    1458              
    1459              
    1460              $C$DW$T$38      .dwtag  DW_TAG_union_type
    1461                      .dwattr $C$DW$T$38, DW_AT_name("CLKSRCCTL2_REG")
    1462                      .dwattr $C$DW$T$38, DW_AT_byte_size(0x02)
    1463              $C$DW$132       .dwtag  DW_TAG_member
    1464                      .dwattr $C$DW$132, DW_AT_type(*$C$DW$T$21)
    1465                      .dwattr $C$DW$132, DW_AT_name("all")
    1466                      .dwattr $C$DW$132, DW_AT_TI_symbol_name("_all")
    1467                      .dwattr $C$DW$132, DW_AT_data_member_location[DW_OP_plus_uconst 0x0]
    1468                      .dwattr $C$DW$132, DW_AT_accessibility(DW_ACCESS_public)
    1469              $C$DW$133       .dwtag  DW_TAG_member
    1470                      .dwattr $C$DW$133, DW_AT_type(*$C$DW$T$37)
    1471                      .dwattr $C$DW$133, DW_AT_name("bit")
    1472                      .dwattr $C$DW$133, DW_AT_TI_symbol_name("_bit")
    1473                      .dwattr $C$DW$133, DW_AT_data_member_location[DW_OP_plus_uconst 0x0]
    1474                      .dwattr $C$DW$133, DW_AT_accessibility(DW_ACCESS_public)
    1475                      .dwendtag $C$DW$T$38
    1476              
    1477              
    1478              $C$DW$T$39      .dwtag  DW_TAG_structure_type
TMS320C2000 Assembler PC v6.1.3 Tue Oct 01 15:27:17 2013

Tools Copyright (c) 1996-2012 Texas Instruments Incorporated
C:\Users\a0272466\AppData\Local\Temp\0493210                         PAGE   29

    1479                      .dwattr $C$DW$T$39, DW_AT_name("CLKSRCCTL3_BITS")
    1480                      .dwattr $C$DW$T$39, DW_AT_byte_size(0x02)
    1481              $C$DW$134       .dwtag  DW_TAG_member
    1482                      .dwattr $C$DW$134, DW_AT_type(*$C$DW$T$19)
    1483                      .dwattr $C$DW$134, DW_AT_name("XCLKOUTSEL")
    1484                      .dwattr $C$DW$134, DW_AT_TI_symbol_name("_XCLKOUTSEL")
    1485                      .dwattr $C$DW$134, DW_AT_bit_offset(0x0d), DW_AT_bit_size(0x03)
    1486                      .dwattr $C$DW$134, DW_AT_data_member_location[DW_OP_plus_uconst 0x0]
    1487                      .dwattr $C$DW$134, DW_AT_accessibility(DW_ACCESS_public)
    1488              $C$DW$135       .dwtag  DW_TAG_member
    1489                      .dwattr $C$DW$135, DW_AT_type(*$C$DW$T$19)
    1490                      .dwattr $C$DW$135, DW_AT_name("rsvd1")
    1491                      .dwattr $C$DW$135, DW_AT_TI_symbol_name("_rsvd1")
    1492                      .dwattr $C$DW$135, DW_AT_bit_offset(0x00), DW_AT_bit_size(0x0d)
    1493                      .dwattr $C$DW$135, DW_AT_data_member_location[DW_OP_plus_uconst 0x0]
    1494                      .dwattr $C$DW$135, DW_AT_accessibility(DW_ACCESS_public)
    1495              $C$DW$136       .dwtag  DW_TAG_member
    1496                      .dwattr $C$DW$136, DW_AT_type(*$C$DW$T$19)
    1497                      .dwattr $C$DW$136, DW_AT_name("rsvd2")
    1498                      .dwattr $C$DW$136, DW_AT_TI_symbol_name("_rsvd2")
    1499                      .dwattr $C$DW$136, DW_AT_bit_offset(0x00), DW_AT_bit_size(0x10)
    1500                      .dwattr $C$DW$136, DW_AT_data_member_location[DW_OP_plus_uconst 0x1]
    1501                      .dwattr $C$DW$136, DW_AT_accessibility(DW_ACCESS_public)
    1502                      .dwendtag $C$DW$T$39
    1503              
    1504              
    1505              $C$DW$T$40      .dwtag  DW_TAG_union_type
    1506                      .dwattr $C$DW$T$40, DW_AT_name("CLKSRCCTL3_REG")
    1507                      .dwattr $C$DW$T$40, DW_AT_byte_size(0x02)
    1508              $C$DW$137       .dwtag  DW_TAG_member
    1509                      .dwattr $C$DW$137, DW_AT_type(*$C$DW$T$21)
    1510                      .dwattr $C$DW$137, DW_AT_name("all")
    1511                      .dwattr $C$DW$137, DW_AT_TI_symbol_name("_all")
    1512                      .dwattr $C$DW$137, DW_AT_data_member_location[DW_OP_plus_uconst 0x0]
    1513                      .dwattr $C$DW$137, DW_AT_accessibility(DW_ACCESS_public)
    1514              $C$DW$138       .dwtag  DW_TAG_member
    1515                      .dwattr $C$DW$138, DW_AT_type(*$C$DW$T$39)
    1516                      .dwattr $C$DW$138, DW_AT_name("bit")
    1517                      .dwattr $C$DW$138, DW_AT_TI_symbol_name("_bit")
    1518                      .dwattr $C$DW$138, DW_AT_data_member_location[DW_OP_plus_uconst 0x0]
    1519                      .dwattr $C$DW$138, DW_AT_accessibility(DW_ACCESS_public)
    1520                      .dwendtag $C$DW$T$40
    1521              
    1522              
    1523              $C$DW$T$43      .dwtag  DW_TAG_structure_type
    1524                      .dwattr $C$DW$T$43, DW_AT_name("CLK_CFG_REGS")
    1525                      .dwattr $C$DW$T$43, DW_AT_byte_size(0x32)
    1526              $C$DW$139       .dwtag  DW_TAG_member
    1527                      .dwattr $C$DW$139, DW_AT_type(*$C$DW$T$34)
    1528                      .dwattr $C$DW$139, DW_AT_name("CLKSEM")
    1529                      .dwattr $C$DW$139, DW_AT_TI_symbol_name("_CLKSEM")
    1530                      .dwattr $C$DW$139, DW_AT_data_member_location[DW_OP_plus_uconst 0x0]
    1531                      .dwattr $C$DW$139, DW_AT_accessibility(DW_ACCESS_public)
    1532              $C$DW$140       .dwtag  DW_TAG_member
    1533                      .dwattr $C$DW$140, DW_AT_type(*$C$DW$T$32)
TMS320C2000 Assembler PC v6.1.3 Tue Oct 01 15:27:17 2013

Tools Copyright (c) 1996-2012 Texas Instruments Incorporated
C:\Users\a0272466\AppData\Local\Temp\0493210                         PAGE   30

    1534                      .dwattr $C$DW$140, DW_AT_name("CLKCFGLOCK1")
    1535                      .dwattr $C$DW$140, DW_AT_TI_symbol_name("_CLKCFGLOCK1")
    1536                      .dwattr $C$DW$140, DW_AT_data_member_location[DW_OP_plus_uconst 0x2]
    1537                      .dwattr $C$DW$140, DW_AT_accessibility(DW_ACCESS_public)
    1538              $C$DW$141       .dwtag  DW_TAG_member
    1539                      .dwattr $C$DW$141, DW_AT_type(*$C$DW$T$41)
    1540                      .dwattr $C$DW$141, DW_AT_name("rsvd1")
    1541                      .dwattr $C$DW$141, DW_AT_TI_symbol_name("_rsvd1")
    1542                      .dwattr $C$DW$141, DW_AT_data_member_location[DW_OP_plus_uconst 0x4]
    1543                      .dwattr $C$DW$141, DW_AT_accessibility(DW_ACCESS_public)
    1544              $C$DW$142       .dwtag  DW_TAG_member
    1545                      .dwattr $C$DW$142, DW_AT_type(*$C$DW$T$36)
    1546                      .dwattr $C$DW$142, DW_AT_name("CLKSRCCTL1")
    1547                      .dwattr $C$DW$142, DW_AT_TI_symbol_name("_CLKSRCCTL1")
    1548                      .dwattr $C$DW$142, DW_AT_data_member_location[DW_OP_plus_uconst 0x8]
    1549                      .dwattr $C$DW$142, DW_AT_accessibility(DW_ACCESS_public)
    1550              $C$DW$143       .dwtag  DW_TAG_member
    1551                      .dwattr $C$DW$143, DW_AT_type(*$C$DW$T$38)
    1552                      .dwattr $C$DW$143, DW_AT_name("CLKSRCCTL2")
    1553                      .dwattr $C$DW$143, DW_AT_TI_symbol_name("_CLKSRCCTL2")
    1554                      .dwattr $C$DW$143, DW_AT_data_member_location[DW_OP_plus_uconst 0xa]
    1555                      .dwattr $C$DW$143, DW_AT_accessibility(DW_ACCESS_public)
    1556              $C$DW$144       .dwtag  DW_TAG_member
    1557                      .dwattr $C$DW$144, DW_AT_type(*$C$DW$T$40)
    1558                      .dwattr $C$DW$144, DW_AT_name("CLKSRCCTL3")
    1559                      .dwattr $C$DW$144, DW_AT_TI_symbol_name("_CLKSRCCTL3")
    1560                      .dwattr $C$DW$144, DW_AT_data_member_location[DW_OP_plus_uconst 0xc]
    1561                      .dwattr $C$DW$144, DW_AT_accessibility(DW_ACCESS_public)
    1562              $C$DW$145       .dwtag  DW_TAG_member
    1563                      .dwattr $C$DW$145, DW_AT_type(*$C$DW$T$504)
    1564                      .dwattr $C$DW$145, DW_AT_name("SYSPLLCTL1")
    1565                      .dwattr $C$DW$145, DW_AT_TI_symbol_name("_SYSPLLCTL1")
    1566                      .dwattr $C$DW$145, DW_AT_data_member_location[DW_OP_plus_uconst 0xe]
    1567                      .dwattr $C$DW$145, DW_AT_accessibility(DW_ACCESS_public)
    1568              $C$DW$146       .dwtag  DW_TAG_member
    1569                      .dwattr $C$DW$146, DW_AT_type(*$C$DW$T$506)
    1570                      .dwattr $C$DW$146, DW_AT_name("SYSPLLCTL2")
    1571                      .dwattr $C$DW$146, DW_AT_TI_symbol_name("_SYSPLLCTL2")
    1572                      .dwattr $C$DW$146, DW_AT_data_member_location[DW_OP_plus_uconst 0x10]
    1573                      .dwattr $C$DW$146, DW_AT_accessibility(DW_ACCESS_public)
    1574              $C$DW$147       .dwtag  DW_TAG_member
    1575                      .dwattr $C$DW$147, DW_AT_type(*$C$DW$T$508)
    1576                      .dwattr $C$DW$147, DW_AT_name("SYSPLLCTL3")
    1577                      .dwattr $C$DW$147, DW_AT_TI_symbol_name("_SYSPLLCTL3")
    1578                      .dwattr $C$DW$147, DW_AT_data_member_location[DW_OP_plus_uconst 0x12]
    1579                      .dwattr $C$DW$147, DW_AT_accessibility(DW_ACCESS_public)
    1580              $C$DW$148       .dwtag  DW_TAG_member
    1581                      .dwattr $C$DW$148, DW_AT_type(*$C$DW$T$510)
    1582                      .dwattr $C$DW$148, DW_AT_name("SYSPLLMULT")
    1583                      .dwattr $C$DW$148, DW_AT_TI_symbol_name("_SYSPLLMULT")
    1584                      .dwattr $C$DW$148, DW_AT_data_member_location[DW_OP_plus_uconst 0x14]
    1585                      .dwattr $C$DW$148, DW_AT_accessibility(DW_ACCESS_public)
    1586              $C$DW$149       .dwtag  DW_TAG_member
    1587                      .dwattr $C$DW$149, DW_AT_type(*$C$DW$T$512)
    1588                      .dwattr $C$DW$149, DW_AT_name("SYSPLLSTS")
TMS320C2000 Assembler PC v6.1.3 Tue Oct 01 15:27:17 2013

Tools Copyright (c) 1996-2012 Texas Instruments Incorporated
C:\Users\a0272466\AppData\Local\Temp\0493210                         PAGE   31

    1589                      .dwattr $C$DW$149, DW_AT_TI_symbol_name("_SYSPLLSTS")
    1590                      .dwattr $C$DW$149, DW_AT_data_member_location[DW_OP_plus_uconst 0x16]
    1591                      .dwattr $C$DW$149, DW_AT_accessibility(DW_ACCESS_public)
    1592              $C$DW$150       .dwtag  DW_TAG_member
    1593                      .dwattr $C$DW$150, DW_AT_type(*$C$DW$T$24)
    1594                      .dwattr $C$DW$150, DW_AT_name("AUXPLLCTL1")
    1595                      .dwattr $C$DW$150, DW_AT_TI_symbol_name("_AUXPLLCTL1")
    1596                      .dwattr $C$DW$150, DW_AT_data_member_location[DW_OP_plus_uconst 0x18]
    1597                      .dwattr $C$DW$150, DW_AT_accessibility(DW_ACCESS_public)
    1598              $C$DW$151       .dwtag  DW_TAG_member
    1599                      .dwattr $C$DW$151, DW_AT_type(*$C$DW$T$41)
    1600                      .dwattr $C$DW$151, DW_AT_name("rsvd2")
    1601                      .dwattr $C$DW$151, DW_AT_TI_symbol_name("_rsvd2")
    1602                      .dwattr $C$DW$151, DW_AT_data_member_location[DW_OP_plus_uconst 0x1a]
    1603                      .dwattr $C$DW$151, DW_AT_accessibility(DW_ACCESS_public)
    1604              $C$DW$152       .dwtag  DW_TAG_member
    1605                      .dwattr $C$DW$152, DW_AT_type(*$C$DW$T$26)
    1606                      .dwattr $C$DW$152, DW_AT_name("AUXPLLMULT")
    1607                      .dwattr $C$DW$152, DW_AT_TI_symbol_name("_AUXPLLMULT")
    1608                      .dwattr $C$DW$152, DW_AT_data_member_location[DW_OP_plus_uconst 0x1e]
    1609                      .dwattr $C$DW$152, DW_AT_accessibility(DW_ACCESS_public)
    1610              $C$DW$153       .dwtag  DW_TAG_member
    1611                      .dwattr $C$DW$153, DW_AT_type(*$C$DW$T$28)
    1612                      .dwattr $C$DW$153, DW_AT_name("AUXPLLSTS")
    1613                      .dwattr $C$DW$153, DW_AT_TI_symbol_name("_AUXPLLSTS")
    1614                      .dwattr $C$DW$153, DW_AT_data_member_location[DW_OP_plus_uconst 0x20]
    1615                      .dwattr $C$DW$153, DW_AT_accessibility(DW_ACCESS_public)
    1616              $C$DW$154       .dwtag  DW_TAG_member
    1617                      .dwattr $C$DW$154, DW_AT_type(*$C$DW$T$500)
    1618                      .dwattr $C$DW$154, DW_AT_name("SYSCLKDIVSEL")
    1619                      .dwattr $C$DW$154, DW_AT_TI_symbol_name("_SYSCLKDIVSEL")
    1620                      .dwattr $C$DW$154, DW_AT_data_member_location[DW_OP_plus_uconst 0x22]
    1621                      .dwattr $C$DW$154, DW_AT_accessibility(DW_ACCESS_public)
    1622              $C$DW$155       .dwtag  DW_TAG_member
    1623                      .dwattr $C$DW$155, DW_AT_type(*$C$DW$T$22)
    1624                      .dwattr $C$DW$155, DW_AT_name("AUXCLKDIVSEL")
    1625                      .dwattr $C$DW$155, DW_AT_TI_symbol_name("_AUXCLKDIVSEL")
    1626                      .dwattr $C$DW$155, DW_AT_data_member_location[DW_OP_plus_uconst 0x24]
    1627                      .dwattr $C$DW$155, DW_AT_accessibility(DW_ACCESS_public)
    1628              $C$DW$156       .dwtag  DW_TAG_member
    1629                      .dwattr $C$DW$156, DW_AT_type(*$C$DW$T$443)
    1630                      .dwattr $C$DW$156, DW_AT_name("PERCLKDIVSEL")
    1631                      .dwattr $C$DW$156, DW_AT_TI_symbol_name("_PERCLKDIVSEL")
    1632                      .dwattr $C$DW$156, DW_AT_data_member_location[DW_OP_plus_uconst 0x26]
    1633                      .dwattr $C$DW$156, DW_AT_accessibility(DW_ACCESS_public)
    1634              $C$DW$157       .dwtag  DW_TAG_member
    1635                      .dwattr $C$DW$157, DW_AT_type(*$C$DW$T$518)
    1636                      .dwattr $C$DW$157, DW_AT_name("XCLKOUTDIVSEL")
    1637                      .dwattr $C$DW$157, DW_AT_TI_symbol_name("_XCLKOUTDIVSEL")
    1638                      .dwattr $C$DW$157, DW_AT_data_member_location[DW_OP_plus_uconst 0x28]
    1639                      .dwattr $C$DW$157, DW_AT_accessibility(DW_ACCESS_public)
    1640              $C$DW$158       .dwtag  DW_TAG_member
    1641                      .dwattr $C$DW$158, DW_AT_type(*$C$DW$T$42)
    1642                      .dwattr $C$DW$158, DW_AT_name("rsvd3")
    1643                      .dwattr $C$DW$158, DW_AT_TI_symbol_name("_rsvd3")
TMS320C2000 Assembler PC v6.1.3 Tue Oct 01 15:27:17 2013

Tools Copyright (c) 1996-2012 Texas Instruments Incorporated
C:\Users\a0272466\AppData\Local\Temp\0493210                         PAGE   32

    1644                      .dwattr $C$DW$158, DW_AT_data_member_location[DW_OP_plus_uconst 0x2a]
    1645                      .dwattr $C$DW$158, DW_AT_accessibility(DW_ACCESS_public)
    1646              $C$DW$159       .dwtag  DW_TAG_member
    1647                      .dwattr $C$DW$159, DW_AT_type(*$C$DW$T$401)
    1648                      .dwattr $C$DW$159, DW_AT_name("LOSPCP")
    1649                      .dwattr $C$DW$159, DW_AT_TI_symbol_name("_LOSPCP")
    1650                      .dwattr $C$DW$159, DW_AT_data_member_location[DW_OP_plus_uconst 0x2c]
    1651                      .dwattr $C$DW$159, DW_AT_accessibility(DW_ACCESS_public)
    1652              $C$DW$160       .dwtag  DW_TAG_member
    1653                      .dwattr $C$DW$160, DW_AT_type(*$C$DW$T$407)
    1654                      .dwattr $C$DW$160, DW_AT_name("MCDCR")
    1655                      .dwattr $C$DW$160, DW_AT_TI_symbol_name("_MCDCR")
    1656                      .dwattr $C$DW$160, DW_AT_data_member_location[DW_OP_plus_uconst 0x2e]
    1657                      .dwattr $C$DW$160, DW_AT_accessibility(DW_ACCESS_public)
    1658              $C$DW$161       .dwtag  DW_TAG_member
    1659                      .dwattr $C$DW$161, DW_AT_type(*$C$DW$T$516)
    1660                      .dwattr $C$DW$161, DW_AT_name("X1CNT")
    1661                      .dwattr $C$DW$161, DW_AT_TI_symbol_name("_X1CNT")
    1662                      .dwattr $C$DW$161, DW_AT_data_member_location[DW_OP_plus_uconst 0x30]
    1663                      .dwattr $C$DW$161, DW_AT_accessibility(DW_ACCESS_public)
    1664                      .dwendtag $C$DW$T$43
    1665              
    1666              $C$DW$162       .dwtag  DW_TAG_TI_far_type
    1667                      .dwattr $C$DW$162, DW_AT_type(*$C$DW$T$43)
    1668              $C$DW$T$519     .dwtag  DW_TAG_volatile_type
    1669                      .dwattr $C$DW$T$519, DW_AT_type(*$C$DW$162)
    1670              
    1671              $C$DW$T$44      .dwtag  DW_TAG_structure_type
    1672                      .dwattr $C$DW$T$44, DW_AT_name("CPU2RESCTL_BITS")
    1673                      .dwattr $C$DW$T$44, DW_AT_byte_size(0x02)
    1674              $C$DW$163       .dwtag  DW_TAG_member
    1675                      .dwattr $C$DW$163, DW_AT_type(*$C$DW$T$19)
    1676                      .dwattr $C$DW$163, DW_AT_name("RESET")
    1677                      .dwattr $C$DW$163, DW_AT_TI_symbol_name("_RESET")
    1678                      .dwattr $C$DW$163, DW_AT_bit_offset(0x0f), DW_AT_bit_size(0x01)
    1679                      .dwattr $C$DW$163, DW_AT_data_member_location[DW_OP_plus_uconst 0x0]
    1680                      .dwattr $C$DW$163, DW_AT_accessibility(DW_ACCESS_public)
    1681              $C$DW$164       .dwtag  DW_TAG_member
    1682                      .dwattr $C$DW$164, DW_AT_type(*$C$DW$T$19)
    1683                      .dwattr $C$DW$164, DW_AT_name("rsvd1")
    1684                      .dwattr $C$DW$164, DW_AT_TI_symbol_name("_rsvd1")
    1685                      .dwattr $C$DW$164, DW_AT_bit_offset(0x00), DW_AT_bit_size(0x0f)
    1686                      .dwattr $C$DW$164, DW_AT_data_member_location[DW_OP_plus_uconst 0x0]
    1687                      .dwattr $C$DW$164, DW_AT_accessibility(DW_ACCESS_public)
    1688              $C$DW$165       .dwtag  DW_TAG_member
    1689                      .dwattr $C$DW$165, DW_AT_type(*$C$DW$T$19)
    1690                      .dwattr $C$DW$165, DW_AT_name("KEY")
    1691                      .dwattr $C$DW$165, DW_AT_TI_symbol_name("_KEY")
    1692                      .dwattr $C$DW$165, DW_AT_bit_offset(0x00), DW_AT_bit_size(0x10)
    1693                      .dwattr $C$DW$165, DW_AT_data_member_location[DW_OP_plus_uconst 0x1]
    1694                      .dwattr $C$DW$165, DW_AT_accessibility(DW_ACCESS_public)
    1695                      .dwendtag $C$DW$T$44
    1696              
    1697              
    1698              $C$DW$T$45      .dwtag  DW_TAG_union_type
TMS320C2000 Assembler PC v6.1.3 Tue Oct 01 15:27:17 2013

Tools Copyright (c) 1996-2012 Texas Instruments Incorporated
C:\Users\a0272466\AppData\Local\Temp\0493210                         PAGE   33

    1699                      .dwattr $C$DW$T$45, DW_AT_name("CPU2RESCTL_REG")
    1700                      .dwattr $C$DW$T$45, DW_AT_byte_size(0x02)
    1701              $C$DW$166       .dwtag  DW_TAG_member
    1702                      .dwattr $C$DW$166, DW_AT_type(*$C$DW$T$21)
    1703                      .dwattr $C$DW$166, DW_AT_name("all")
    1704                      .dwattr $C$DW$166, DW_AT_TI_symbol_name("_all")
    1705                      .dwattr $C$DW$166, DW_AT_data_member_location[DW_OP_plus_uconst 0x0]
    1706                      .dwattr $C$DW$166, DW_AT_accessibility(DW_ACCESS_public)
    1707              $C$DW$167       .dwtag  DW_TAG_member
    1708                      .dwattr $C$DW$167, DW_AT_type(*$C$DW$T$44)
    1709                      .dwattr $C$DW$167, DW_AT_name("bit")
    1710                      .dwattr $C$DW$167, DW_AT_TI_symbol_name("_bit")
    1711                      .dwattr $C$DW$167, DW_AT_data_member_location[DW_OP_plus_uconst 0x0]
    1712                      .dwattr $C$DW$167, DW_AT_accessibility(DW_ACCESS_public)
    1713                      .dwendtag $C$DW$T$45
    1714              
    1715              
    1716              $C$DW$T$46      .dwtag  DW_TAG_structure_type
    1717                      .dwattr $C$DW$T$46, DW_AT_name("CPUSEL0_BITS")
    1718                      .dwattr $C$DW$T$46, DW_AT_byte_size(0x02)
    1719              $C$DW$168       .dwtag  DW_TAG_member
    1720                      .dwattr $C$DW$168, DW_AT_type(*$C$DW$T$19)
    1721                      .dwattr $C$DW$168, DW_AT_name("EPWM1")
    1722                      .dwattr $C$DW$168, DW_AT_TI_symbol_name("_EPWM1")
    1723                      .dwattr $C$DW$168, DW_AT_bit_offset(0x0f), DW_AT_bit_size(0x01)
    1724                      .dwattr $C$DW$168, DW_AT_data_member_location[DW_OP_plus_uconst 0x0]
    1725                      .dwattr $C$DW$168, DW_AT_accessibility(DW_ACCESS_public)
    1726              $C$DW$169       .dwtag  DW_TAG_member
    1727                      .dwattr $C$DW$169, DW_AT_type(*$C$DW$T$19)
    1728                      .dwattr $C$DW$169, DW_AT_name("EPWM2")
    1729                      .dwattr $C$DW$169, DW_AT_TI_symbol_name("_EPWM2")
    1730                      .dwattr $C$DW$169, DW_AT_bit_offset(0x0e), DW_AT_bit_size(0x01)
    1731                      .dwattr $C$DW$169, DW_AT_data_member_location[DW_OP_plus_uconst 0x0]
    1732                      .dwattr $C$DW$169, DW_AT_accessibility(DW_ACCESS_public)
    1733              $C$DW$170       .dwtag  DW_TAG_member
    1734                      .dwattr $C$DW$170, DW_AT_type(*$C$DW$T$19)
    1735                      .dwattr $C$DW$170, DW_AT_name("EPWM3")
    1736                      .dwattr $C$DW$170, DW_AT_TI_symbol_name("_EPWM3")
    1737                      .dwattr $C$DW$170, DW_AT_bit_offset(0x0d), DW_AT_bit_size(0x01)
    1738                      .dwattr $C$DW$170, DW_AT_data_member_location[DW_OP_plus_uconst 0x0]
    1739                      .dwattr $C$DW$170, DW_AT_accessibility(DW_ACCESS_public)
    1740              $C$DW$171       .dwtag  DW_TAG_member
    1741                      .dwattr $C$DW$171, DW_AT_type(*$C$DW$T$19)
    1742                      .dwattr $C$DW$171, DW_AT_name("EPWM4")
    1743                      .dwattr $C$DW$171, DW_AT_TI_symbol_name("_EPWM4")
    1744                      .dwattr $C$DW$171, DW_AT_bit_offset(0x0c), DW_AT_bit_size(0x01)
    1745                      .dwattr $C$DW$171, DW_AT_data_member_location[DW_OP_plus_uconst 0x0]
    1746                      .dwattr $C$DW$171, DW_AT_accessibility(DW_ACCESS_public)
    1747              $C$DW$172       .dwtag  DW_TAG_member
    1748                      .dwattr $C$DW$172, DW_AT_type(*$C$DW$T$19)
    1749                      .dwattr $C$DW$172, DW_AT_name("EPWM5")
    1750                      .dwattr $C$DW$172, DW_AT_TI_symbol_name("_EPWM5")
    1751                      .dwattr $C$DW$172, DW_AT_bit_offset(0x0b), DW_AT_bit_size(0x01)
    1752                      .dwattr $C$DW$172, DW_AT_data_member_location[DW_OP_plus_uconst 0x0]
    1753                      .dwattr $C$DW$172, DW_AT_accessibility(DW_ACCESS_public)
TMS320C2000 Assembler PC v6.1.3 Tue Oct 01 15:27:17 2013

Tools Copyright (c) 1996-2012 Texas Instruments Incorporated
C:\Users\a0272466\AppData\Local\Temp\0493210                         PAGE   34

    1754              $C$DW$173       .dwtag  DW_TAG_member
    1755                      .dwattr $C$DW$173, DW_AT_type(*$C$DW$T$19)
    1756                      .dwattr $C$DW$173, DW_AT_name("EPWM6")
    1757                      .dwattr $C$DW$173, DW_AT_TI_symbol_name("_EPWM6")
    1758                      .dwattr $C$DW$173, DW_AT_bit_offset(0x0a), DW_AT_bit_size(0x01)
    1759                      .dwattr $C$DW$173, DW_AT_data_member_location[DW_OP_plus_uconst 0x0]
    1760                      .dwattr $C$DW$173, DW_AT_accessibility(DW_ACCESS_public)
    1761              $C$DW$174       .dwtag  DW_TAG_member
    1762                      .dwattr $C$DW$174, DW_AT_type(*$C$DW$T$19)
    1763                      .dwattr $C$DW$174, DW_AT_name("EPWM7")
    1764                      .dwattr $C$DW$174, DW_AT_TI_symbol_name("_EPWM7")
    1765                      .dwattr $C$DW$174, DW_AT_bit_offset(0x09), DW_AT_bit_size(0x01)
    1766                      .dwattr $C$DW$174, DW_AT_data_member_location[DW_OP_plus_uconst 0x0]
    1767                      .dwattr $C$DW$174, DW_AT_accessibility(DW_ACCESS_public)
    1768              $C$DW$175       .dwtag  DW_TAG_member
    1769                      .dwattr $C$DW$175, DW_AT_type(*$C$DW$T$19)
    1770                      .dwattr $C$DW$175, DW_AT_name("EPWM8")
    1771                      .dwattr $C$DW$175, DW_AT_TI_symbol_name("_EPWM8")
    1772                      .dwattr $C$DW$175, DW_AT_bit_offset(0x08), DW_AT_bit_size(0x01)
    1773                      .dwattr $C$DW$175, DW_AT_data_member_location[DW_OP_plus_uconst 0x0]
    1774                      .dwattr $C$DW$175, DW_AT_accessibility(DW_ACCESS_public)
    1775              $C$DW$176       .dwtag  DW_TAG_member
    1776                      .dwattr $C$DW$176, DW_AT_type(*$C$DW$T$19)
    1777                      .dwattr $C$DW$176, DW_AT_name("EPWM9")
    1778                      .dwattr $C$DW$176, DW_AT_TI_symbol_name("_EPWM9")
    1779                      .dwattr $C$DW$176, DW_AT_bit_offset(0x07), DW_AT_bit_size(0x01)
    1780                      .dwattr $C$DW$176, DW_AT_data_member_location[DW_OP_plus_uconst 0x0]
    1781                      .dwattr $C$DW$176, DW_AT_accessibility(DW_ACCESS_public)
    1782              $C$DW$177       .dwtag  DW_TAG_member
    1783                      .dwattr $C$DW$177, DW_AT_type(*$C$DW$T$19)
    1784                      .dwattr $C$DW$177, DW_AT_name("EPWM10")
    1785                      .dwattr $C$DW$177, DW_AT_TI_symbol_name("_EPWM10")
    1786                      .dwattr $C$DW$177, DW_AT_bit_offset(0x06), DW_AT_bit_size(0x01)
    1787                      .dwattr $C$DW$177, DW_AT_data_member_location[DW_OP_plus_uconst 0x0]
    1788                      .dwattr $C$DW$177, DW_AT_accessibility(DW_ACCESS_public)
    1789              $C$DW$178       .dwtag  DW_TAG_member
    1790                      .dwattr $C$DW$178, DW_AT_type(*$C$DW$T$19)
    1791                      .dwattr $C$DW$178, DW_AT_name("EPWM11")
    1792                      .dwattr $C$DW$178, DW_AT_TI_symbol_name("_EPWM11")
    1793                      .dwattr $C$DW$178, DW_AT_bit_offset(0x05), DW_AT_bit_size(0x01)
    1794                      .dwattr $C$DW$178, DW_AT_data_member_location[DW_OP_plus_uconst 0x0]
    1795                      .dwattr $C$DW$178, DW_AT_accessibility(DW_ACCESS_public)
    1796              $C$DW$179       .dwtag  DW_TAG_member
    1797                      .dwattr $C$DW$179, DW_AT_type(*$C$DW$T$19)
    1798                      .dwattr $C$DW$179, DW_AT_name("EPWM12")
    1799                      .dwattr $C$DW$179, DW_AT_TI_symbol_name("_EPWM12")
    1800                      .dwattr $C$DW$179, DW_AT_bit_offset(0x04), DW_AT_bit_size(0x01)
    1801                      .dwattr $C$DW$179, DW_AT_data_member_location[DW_OP_plus_uconst 0x0]
    1802                      .dwattr $C$DW$179, DW_AT_accessibility(DW_ACCESS_public)
    1803              $C$DW$180       .dwtag  DW_TAG_member
    1804                      .dwattr $C$DW$180, DW_AT_type(*$C$DW$T$19)
    1805                      .dwattr $C$DW$180, DW_AT_name("rsvd1")
    1806                      .dwattr $C$DW$180, DW_AT_TI_symbol_name("_rsvd1")
    1807                      .dwattr $C$DW$180, DW_AT_bit_offset(0x00), DW_AT_bit_size(0x04)
    1808                      .dwattr $C$DW$180, DW_AT_data_member_location[DW_OP_plus_uconst 0x0]
TMS320C2000 Assembler PC v6.1.3 Tue Oct 01 15:27:17 2013

Tools Copyright (c) 1996-2012 Texas Instruments Incorporated
C:\Users\a0272466\AppData\Local\Temp\0493210                         PAGE   35

    1809                      .dwattr $C$DW$180, DW_AT_accessibility(DW_ACCESS_public)
    1810              $C$DW$181       .dwtag  DW_TAG_member
    1811                      .dwattr $C$DW$181, DW_AT_type(*$C$DW$T$19)
    1812                      .dwattr $C$DW$181, DW_AT_name("rsvd2")
    1813                      .dwattr $C$DW$181, DW_AT_TI_symbol_name("_rsvd2")
    1814                      .dwattr $C$DW$181, DW_AT_bit_offset(0x00), DW_AT_bit_size(0x10)
    1815                      .dwattr $C$DW$181, DW_AT_data_member_location[DW_OP_plus_uconst 0x1]
    1816                      .dwattr $C$DW$181, DW_AT_accessibility(DW_ACCESS_public)
    1817                      .dwendtag $C$DW$T$46
    1818              
    1819              
    1820              $C$DW$T$47      .dwtag  DW_TAG_union_type
    1821                      .dwattr $C$DW$T$47, DW_AT_name("CPUSEL0_REG")
    1822                      .dwattr $C$DW$T$47, DW_AT_byte_size(0x02)
    1823              $C$DW$182       .dwtag  DW_TAG_member
    1824                      .dwattr $C$DW$182, DW_AT_type(*$C$DW$T$21)
    1825                      .dwattr $C$DW$182, DW_AT_name("all")
    1826                      .dwattr $C$DW$182, DW_AT_TI_symbol_name("_all")
    1827                      .dwattr $C$DW$182, DW_AT_data_member_location[DW_OP_plus_uconst 0x0]
    1828                      .dwattr $C$DW$182, DW_AT_accessibility(DW_ACCESS_public)
    1829              $C$DW$183       .dwtag  DW_TAG_member
    1830                      .dwattr $C$DW$183, DW_AT_type(*$C$DW$T$46)
    1831                      .dwattr $C$DW$183, DW_AT_name("bit")
    1832                      .dwattr $C$DW$183, DW_AT_TI_symbol_name("_bit")
    1833                      .dwattr $C$DW$183, DW_AT_data_member_location[DW_OP_plus_uconst 0x0]
    1834                      .dwattr $C$DW$183, DW_AT_accessibility(DW_ACCESS_public)
    1835                      .dwendtag $C$DW$T$47
    1836              
    1837              
    1838              $C$DW$T$48      .dwtag  DW_TAG_structure_type
    1839                      .dwattr $C$DW$T$48, DW_AT_name("CPUSEL11_BITS")
    1840                      .dwattr $C$DW$T$48, DW_AT_byte_size(0x02)
    1841              $C$DW$184       .dwtag  DW_TAG_member
    1842                      .dwattr $C$DW$184, DW_AT_type(*$C$DW$T$19)
    1843                      .dwattr $C$DW$184, DW_AT_name("ADC1")
    1844                      .dwattr $C$DW$184, DW_AT_TI_symbol_name("_ADC1")
    1845                      .dwattr $C$DW$184, DW_AT_bit_offset(0x0f), DW_AT_bit_size(0x01)
    1846                      .dwattr $C$DW$184, DW_AT_data_member_location[DW_OP_plus_uconst 0x0]
    1847                      .dwattr $C$DW$184, DW_AT_accessibility(DW_ACCESS_public)
    1848              $C$DW$185       .dwtag  DW_TAG_member
    1849                      .dwattr $C$DW$185, DW_AT_type(*$C$DW$T$19)
    1850                      .dwattr $C$DW$185, DW_AT_name("ADC2")
    1851                      .dwattr $C$DW$185, DW_AT_TI_symbol_name("_ADC2")
    1852                      .dwattr $C$DW$185, DW_AT_bit_offset(0x0e), DW_AT_bit_size(0x01)
    1853                      .dwattr $C$DW$185, DW_AT_data_member_location[DW_OP_plus_uconst 0x0]
    1854                      .dwattr $C$DW$185, DW_AT_accessibility(DW_ACCESS_public)
    1855              $C$DW$186       .dwtag  DW_TAG_member
    1856                      .dwattr $C$DW$186, DW_AT_type(*$C$DW$T$19)
    1857                      .dwattr $C$DW$186, DW_AT_name("ADC3")
    1858                      .dwattr $C$DW$186, DW_AT_TI_symbol_name("_ADC3")
    1859                      .dwattr $C$DW$186, DW_AT_bit_offset(0x0d), DW_AT_bit_size(0x01)
    1860                      .dwattr $C$DW$186, DW_AT_data_member_location[DW_OP_plus_uconst 0x0]
    1861                      .dwattr $C$DW$186, DW_AT_accessibility(DW_ACCESS_public)
    1862              $C$DW$187       .dwtag  DW_TAG_member
    1863                      .dwattr $C$DW$187, DW_AT_type(*$C$DW$T$19)
TMS320C2000 Assembler PC v6.1.3 Tue Oct 01 15:27:17 2013

Tools Copyright (c) 1996-2012 Texas Instruments Incorporated
C:\Users\a0272466\AppData\Local\Temp\0493210                         PAGE   36

    1864                      .dwattr $C$DW$187, DW_AT_name("ADC4")
    1865                      .dwattr $C$DW$187, DW_AT_TI_symbol_name("_ADC4")
    1866                      .dwattr $C$DW$187, DW_AT_bit_offset(0x0c), DW_AT_bit_size(0x01)
    1867                      .dwattr $C$DW$187, DW_AT_data_member_location[DW_OP_plus_uconst 0x0]
    1868                      .dwattr $C$DW$187, DW_AT_accessibility(DW_ACCESS_public)
    1869              $C$DW$188       .dwtag  DW_TAG_member
    1870                      .dwattr $C$DW$188, DW_AT_type(*$C$DW$T$19)
    1871                      .dwattr $C$DW$188, DW_AT_name("rsvd1")
    1872                      .dwattr $C$DW$188, DW_AT_TI_symbol_name("_rsvd1")
    1873                      .dwattr $C$DW$188, DW_AT_bit_offset(0x00), DW_AT_bit_size(0x0c)
    1874                      .dwattr $C$DW$188, DW_AT_data_member_location[DW_OP_plus_uconst 0x0]
    1875                      .dwattr $C$DW$188, DW_AT_accessibility(DW_ACCESS_public)
    1876              $C$DW$189       .dwtag  DW_TAG_member
    1877                      .dwattr $C$DW$189, DW_AT_type(*$C$DW$T$19)
    1878                      .dwattr $C$DW$189, DW_AT_name("rsvd2")
    1879                      .dwattr $C$DW$189, DW_AT_TI_symbol_name("_rsvd2")
    1880                      .dwattr $C$DW$189, DW_AT_bit_offset(0x00), DW_AT_bit_size(0x10)
    1881                      .dwattr $C$DW$189, DW_AT_data_member_location[DW_OP_plus_uconst 0x1]
    1882                      .dwattr $C$DW$189, DW_AT_accessibility(DW_ACCESS_public)
    1883                      .dwendtag $C$DW$T$48
    1884              
    1885              
    1886              $C$DW$T$49      .dwtag  DW_TAG_union_type
    1887                      .dwattr $C$DW$T$49, DW_AT_name("CPUSEL11_REG")
    1888                      .dwattr $C$DW$T$49, DW_AT_byte_size(0x02)
    1889              $C$DW$190       .dwtag  DW_TAG_member
    1890                      .dwattr $C$DW$190, DW_AT_type(*$C$DW$T$21)
    1891                      .dwattr $C$DW$190, DW_AT_name("all")
    1892                      .dwattr $C$DW$190, DW_AT_TI_symbol_name("_all")
    1893                      .dwattr $C$DW$190, DW_AT_data_member_location[DW_OP_plus_uconst 0x0]
    1894                      .dwattr $C$DW$190, DW_AT_accessibility(DW_ACCESS_public)
    1895              $C$DW$191       .dwtag  DW_TAG_member
    1896                      .dwattr $C$DW$191, DW_AT_type(*$C$DW$T$48)
    1897                      .dwattr $C$DW$191, DW_AT_name("bit")
    1898                      .dwattr $C$DW$191, DW_AT_TI_symbol_name("_bit")
    1899                      .dwattr $C$DW$191, DW_AT_data_member_location[DW_OP_plus_uconst 0x0]
    1900                      .dwattr $C$DW$191, DW_AT_accessibility(DW_ACCESS_public)
    1901                      .dwendtag $C$DW$T$49
    1902              
    1903              
    1904              $C$DW$T$50      .dwtag  DW_TAG_structure_type
    1905                      .dwattr $C$DW$T$50, DW_AT_name("CPUSEL12_BITS")
    1906                      .dwattr $C$DW$T$50, DW_AT_byte_size(0x02)
    1907              $C$DW$192       .dwtag  DW_TAG_member
    1908                      .dwattr $C$DW$192, DW_AT_type(*$C$DW$T$19)
    1909                      .dwattr $C$DW$192, DW_AT_name("CMPSS1")
    1910                      .dwattr $C$DW$192, DW_AT_TI_symbol_name("_CMPSS1")
    1911                      .dwattr $C$DW$192, DW_AT_bit_offset(0x0f), DW_AT_bit_size(0x01)
    1912                      .dwattr $C$DW$192, DW_AT_data_member_location[DW_OP_plus_uconst 0x0]
    1913                      .dwattr $C$DW$192, DW_AT_accessibility(DW_ACCESS_public)
    1914              $C$DW$193       .dwtag  DW_TAG_member
    1915                      .dwattr $C$DW$193, DW_AT_type(*$C$DW$T$19)
    1916                      .dwattr $C$DW$193, DW_AT_name("CMPSS2")
    1917                      .dwattr $C$DW$193, DW_AT_TI_symbol_name("_CMPSS2")
    1918                      .dwattr $C$DW$193, DW_AT_bit_offset(0x0e), DW_AT_bit_size(0x01)
TMS320C2000 Assembler PC v6.1.3 Tue Oct 01 15:27:17 2013

Tools Copyright (c) 1996-2012 Texas Instruments Incorporated
C:\Users\a0272466\AppData\Local\Temp\0493210                         PAGE   37

    1919                      .dwattr $C$DW$193, DW_AT_data_member_location[DW_OP_plus_uconst 0x0]
    1920                      .dwattr $C$DW$193, DW_AT_accessibility(DW_ACCESS_public)
    1921              $C$DW$194       .dwtag  DW_TAG_member
    1922                      .dwattr $C$DW$194, DW_AT_type(*$C$DW$T$19)
    1923                      .dwattr $C$DW$194, DW_AT_name("CMPSS3")
    1924                      .dwattr $C$DW$194, DW_AT_TI_symbol_name("_CMPSS3")
    1925                      .dwattr $C$DW$194, DW_AT_bit_offset(0x0d), DW_AT_bit_size(0x01)
    1926                      .dwattr $C$DW$194, DW_AT_data_member_location[DW_OP_plus_uconst 0x0]
    1927                      .dwattr $C$DW$194, DW_AT_accessibility(DW_ACCESS_public)
    1928              $C$DW$195       .dwtag  DW_TAG_member
    1929                      .dwattr $C$DW$195, DW_AT_type(*$C$DW$T$19)
    1930                      .dwattr $C$DW$195, DW_AT_name("CMPSS4")
    1931                      .dwattr $C$DW$195, DW_AT_TI_symbol_name("_CMPSS4")
    1932                      .dwattr $C$DW$195, DW_AT_bit_offset(0x0c), DW_AT_bit_size(0x01)
    1933                      .dwattr $C$DW$195, DW_AT_data_member_location[DW_OP_plus_uconst 0x0]
    1934                      .dwattr $C$DW$195, DW_AT_accessibility(DW_ACCESS_public)
    1935              $C$DW$196       .dwtag  DW_TAG_member
    1936                      .dwattr $C$DW$196, DW_AT_type(*$C$DW$T$19)
    1937                      .dwattr $C$DW$196, DW_AT_name("CMPSS5")
    1938                      .dwattr $C$DW$196, DW_AT_TI_symbol_name("_CMPSS5")
    1939                      .dwattr $C$DW$196, DW_AT_bit_offset(0x0b), DW_AT_bit_size(0x01)
    1940                      .dwattr $C$DW$196, DW_AT_data_member_location[DW_OP_plus_uconst 0x0]
    1941                      .dwattr $C$DW$196, DW_AT_accessibility(DW_ACCESS_public)
    1942              $C$DW$197       .dwtag  DW_TAG_member
    1943                      .dwattr $C$DW$197, DW_AT_type(*$C$DW$T$19)
    1944                      .dwattr $C$DW$197, DW_AT_name("CMPSS6")
    1945                      .dwattr $C$DW$197, DW_AT_TI_symbol_name("_CMPSS6")
    1946                      .dwattr $C$DW$197, DW_AT_bit_offset(0x0a), DW_AT_bit_size(0x01)
    1947                      .dwattr $C$DW$197, DW_AT_data_member_location[DW_OP_plus_uconst 0x0]
    1948                      .dwattr $C$DW$197, DW_AT_accessibility(DW_ACCESS_public)
    1949              $C$DW$198       .dwtag  DW_TAG_member
    1950                      .dwattr $C$DW$198, DW_AT_type(*$C$DW$T$19)
    1951                      .dwattr $C$DW$198, DW_AT_name("CMPSS7")
    1952                      .dwattr $C$DW$198, DW_AT_TI_symbol_name("_CMPSS7")
    1953                      .dwattr $C$DW$198, DW_AT_bit_offset(0x09), DW_AT_bit_size(0x01)
    1954                      .dwattr $C$DW$198, DW_AT_data_member_location[DW_OP_plus_uconst 0x0]
    1955                      .dwattr $C$DW$198, DW_AT_accessibility(DW_ACCESS_public)
    1956              $C$DW$199       .dwtag  DW_TAG_member
    1957                      .dwattr $C$DW$199, DW_AT_type(*$C$DW$T$19)
    1958                      .dwattr $C$DW$199, DW_AT_name("CMPSS8")
    1959                      .dwattr $C$DW$199, DW_AT_TI_symbol_name("_CMPSS8")
    1960                      .dwattr $C$DW$199, DW_AT_bit_offset(0x08), DW_AT_bit_size(0x01)
    1961                      .dwattr $C$DW$199, DW_AT_data_member_location[DW_OP_plus_uconst 0x0]
    1962                      .dwattr $C$DW$199, DW_AT_accessibility(DW_ACCESS_public)
    1963              $C$DW$200       .dwtag  DW_TAG_member
    1964                      .dwattr $C$DW$200, DW_AT_type(*$C$DW$T$19)
    1965                      .dwattr $C$DW$200, DW_AT_name("rsvd1")
    1966                      .dwattr $C$DW$200, DW_AT_TI_symbol_name("_rsvd1")
    1967                      .dwattr $C$DW$200, DW_AT_bit_offset(0x00), DW_AT_bit_size(0x08)
    1968                      .dwattr $C$DW$200, DW_AT_data_member_location[DW_OP_plus_uconst 0x0]
    1969                      .dwattr $C$DW$200, DW_AT_accessibility(DW_ACCESS_public)
    1970              $C$DW$201       .dwtag  DW_TAG_member
    1971                      .dwattr $C$DW$201, DW_AT_type(*$C$DW$T$19)
    1972                      .dwattr $C$DW$201, DW_AT_name("rsvd2")
    1973                      .dwattr $C$DW$201, DW_AT_TI_symbol_name("_rsvd2")
TMS320C2000 Assembler PC v6.1.3 Tue Oct 01 15:27:17 2013

Tools Copyright (c) 1996-2012 Texas Instruments Incorporated
C:\Users\a0272466\AppData\Local\Temp\0493210                         PAGE   38

    1974                      .dwattr $C$DW$201, DW_AT_bit_offset(0x00), DW_AT_bit_size(0x10)
    1975                      .dwattr $C$DW$201, DW_AT_data_member_location[DW_OP_plus_uconst 0x1]
    1976                      .dwattr $C$DW$201, DW_AT_accessibility(DW_ACCESS_public)
    1977                      .dwendtag $C$DW$T$50
    1978              
    1979              
    1980              $C$DW$T$51      .dwtag  DW_TAG_union_type
    1981                      .dwattr $C$DW$T$51, DW_AT_name("CPUSEL12_REG")
    1982                      .dwattr $C$DW$T$51, DW_AT_byte_size(0x02)
    1983              $C$DW$202       .dwtag  DW_TAG_member
    1984                      .dwattr $C$DW$202, DW_AT_type(*$C$DW$T$21)
    1985                      .dwattr $C$DW$202, DW_AT_name("all")
    1986                      .dwattr $C$DW$202, DW_AT_TI_symbol_name("_all")
    1987                      .dwattr $C$DW$202, DW_AT_data_member_location[DW_OP_plus_uconst 0x0]
    1988                      .dwattr $C$DW$202, DW_AT_accessibility(DW_ACCESS_public)
    1989              $C$DW$203       .dwtag  DW_TAG_member
    1990                      .dwattr $C$DW$203, DW_AT_type(*$C$DW$T$50)
    1991                      .dwattr $C$DW$203, DW_AT_name("bit")
    1992                      .dwattr $C$DW$203, DW_AT_TI_symbol_name("_bit")
    1993                      .dwattr $C$DW$203, DW_AT_data_member_location[DW_OP_plus_uconst 0x0]
    1994                      .dwattr $C$DW$203, DW_AT_accessibility(DW_ACCESS_public)
    1995                      .dwendtag $C$DW$T$51
    1996              
    1997              
    1998              $C$DW$T$52      .dwtag  DW_TAG_structure_type
    1999                      .dwattr $C$DW$T$52, DW_AT_name("CPUSEL14_BITS")
    2000                      .dwattr $C$DW$T$52, DW_AT_byte_size(0x02)
    2001              $C$DW$204       .dwtag  DW_TAG_member
    2002                      .dwattr $C$DW$204, DW_AT_type(*$C$DW$T$19)
    2003                      .dwattr $C$DW$204, DW_AT_name("rsvd1")
    2004                      .dwattr $C$DW$204, DW_AT_TI_symbol_name("_rsvd1")
    2005                      .dwattr $C$DW$204, DW_AT_bit_offset(0x00), DW_AT_bit_size(0x10)
    2006                      .dwattr $C$DW$204, DW_AT_data_member_location[DW_OP_plus_uconst 0x0]
    2007                      .dwattr $C$DW$204, DW_AT_accessibility(DW_ACCESS_public)
    2008              $C$DW$205       .dwtag  DW_TAG_member
    2009                      .dwattr $C$DW$205, DW_AT_type(*$C$DW$T$19)
    2010                      .dwattr $C$DW$205, DW_AT_name("Buffered_DAC12_1")
    2011                      .dwattr $C$DW$205, DW_AT_TI_symbol_name("_Buffered_DAC12_1")
    2012                      .dwattr $C$DW$205, DW_AT_bit_offset(0x0f), DW_AT_bit_size(0x01)
    2013                      .dwattr $C$DW$205, DW_AT_data_member_location[DW_OP_plus_uconst 0x1]
    2014                      .dwattr $C$DW$205, DW_AT_accessibility(DW_ACCESS_public)
    2015              $C$DW$206       .dwtag  DW_TAG_member
    2016                      .dwattr $C$DW$206, DW_AT_type(*$C$DW$T$19)
    2017                      .dwattr $C$DW$206, DW_AT_name("Buffered_DAC12_2")
    2018                      .dwattr $C$DW$206, DW_AT_TI_symbol_name("_Buffered_DAC12_2")
    2019                      .dwattr $C$DW$206, DW_AT_bit_offset(0x0e), DW_AT_bit_size(0x01)
    2020                      .dwattr $C$DW$206, DW_AT_data_member_location[DW_OP_plus_uconst 0x1]
    2021                      .dwattr $C$DW$206, DW_AT_accessibility(DW_ACCESS_public)
    2022              $C$DW$207       .dwtag  DW_TAG_member
    2023                      .dwattr $C$DW$207, DW_AT_type(*$C$DW$T$19)
    2024                      .dwattr $C$DW$207, DW_AT_name("Buffered_DAC12_3")
    2025                      .dwattr $C$DW$207, DW_AT_TI_symbol_name("_Buffered_DAC12_3")
    2026                      .dwattr $C$DW$207, DW_AT_bit_offset(0x0d), DW_AT_bit_size(0x01)
    2027                      .dwattr $C$DW$207, DW_AT_data_member_location[DW_OP_plus_uconst 0x1]
    2028                      .dwattr $C$DW$207, DW_AT_accessibility(DW_ACCESS_public)
TMS320C2000 Assembler PC v6.1.3 Tue Oct 01 15:27:17 2013

Tools Copyright (c) 1996-2012 Texas Instruments Incorporated
C:\Users\a0272466\AppData\Local\Temp\0493210                         PAGE   39

    2029              $C$DW$208       .dwtag  DW_TAG_member
    2030                      .dwattr $C$DW$208, DW_AT_type(*$C$DW$T$19)
    2031                      .dwattr $C$DW$208, DW_AT_name("rsvd2")
    2032                      .dwattr $C$DW$208, DW_AT_TI_symbol_name("_rsvd2")
    2033                      .dwattr $C$DW$208, DW_AT_bit_offset(0x00), DW_AT_bit_size(0x0d)
    2034                      .dwattr $C$DW$208, DW_AT_data_member_location[DW_OP_plus_uconst 0x1]
    2035                      .dwattr $C$DW$208, DW_AT_accessibility(DW_ACCESS_public)
    2036                      .dwendtag $C$DW$T$52
    2037              
    2038              
    2039              $C$DW$T$53      .dwtag  DW_TAG_union_type
    2040                      .dwattr $C$DW$T$53, DW_AT_name("CPUSEL14_REG")
    2041                      .dwattr $C$DW$T$53, DW_AT_byte_size(0x02)
    2042              $C$DW$209       .dwtag  DW_TAG_member
    2043                      .dwattr $C$DW$209, DW_AT_type(*$C$DW$T$21)
    2044                      .dwattr $C$DW$209, DW_AT_name("all")
    2045                      .dwattr $C$DW$209, DW_AT_TI_symbol_name("_all")
    2046                      .dwattr $C$DW$209, DW_AT_data_member_location[DW_OP_plus_uconst 0x0]
    2047                      .dwattr $C$DW$209, DW_AT_accessibility(DW_ACCESS_public)
    2048              $C$DW$210       .dwtag  DW_TAG_member
    2049                      .dwattr $C$DW$210, DW_AT_type(*$C$DW$T$52)
    2050                      .dwattr $C$DW$210, DW_AT_name("bit")
    2051                      .dwattr $C$DW$210, DW_AT_TI_symbol_name("_bit")
    2052                      .dwattr $C$DW$210, DW_AT_data_member_location[DW_OP_plus_uconst 0x0]
    2053                      .dwattr $C$DW$210, DW_AT_accessibility(DW_ACCESS_public)
    2054                      .dwendtag $C$DW$T$53
    2055              
    2056              
    2057              $C$DW$T$54      .dwtag  DW_TAG_structure_type
    2058                      .dwattr $C$DW$T$54, DW_AT_name("CPUSEL1_BITS")
    2059                      .dwattr $C$DW$T$54, DW_AT_byte_size(0x02)
    2060              $C$DW$211       .dwtag  DW_TAG_member
    2061                      .dwattr $C$DW$211, DW_AT_type(*$C$DW$T$19)
    2062                      .dwattr $C$DW$211, DW_AT_name("ECAP1")
    2063                      .dwattr $C$DW$211, DW_AT_TI_symbol_name("_ECAP1")
    2064                      .dwattr $C$DW$211, DW_AT_bit_offset(0x0f), DW_AT_bit_size(0x01)
    2065                      .dwattr $C$DW$211, DW_AT_data_member_location[DW_OP_plus_uconst 0x0]
    2066                      .dwattr $C$DW$211, DW_AT_accessibility(DW_ACCESS_public)
    2067              $C$DW$212       .dwtag  DW_TAG_member
    2068                      .dwattr $C$DW$212, DW_AT_type(*$C$DW$T$19)
    2069                      .dwattr $C$DW$212, DW_AT_name("ECAP2")
    2070                      .dwattr $C$DW$212, DW_AT_TI_symbol_name("_ECAP2")
    2071                      .dwattr $C$DW$212, DW_AT_bit_offset(0x0e), DW_AT_bit_size(0x01)
    2072                      .dwattr $C$DW$212, DW_AT_data_member_location[DW_OP_plus_uconst 0x0]
    2073                      .dwattr $C$DW$212, DW_AT_accessibility(DW_ACCESS_public)
    2074              $C$DW$213       .dwtag  DW_TAG_member
    2075                      .dwattr $C$DW$213, DW_AT_type(*$C$DW$T$19)
    2076                      .dwattr $C$DW$213, DW_AT_name("ECAP3")
    2077                      .dwattr $C$DW$213, DW_AT_TI_symbol_name("_ECAP3")
    2078                      .dwattr $C$DW$213, DW_AT_bit_offset(0x0d), DW_AT_bit_size(0x01)
    2079                      .dwattr $C$DW$213, DW_AT_data_member_location[DW_OP_plus_uconst 0x0]
    2080                      .dwattr $C$DW$213, DW_AT_accessibility(DW_ACCESS_public)
    2081              $C$DW$214       .dwtag  DW_TAG_member
    2082                      .dwattr $C$DW$214, DW_AT_type(*$C$DW$T$19)
    2083                      .dwattr $C$DW$214, DW_AT_name("ECAP4")
TMS320C2000 Assembler PC v6.1.3 Tue Oct 01 15:27:17 2013

Tools Copyright (c) 1996-2012 Texas Instruments Incorporated
C:\Users\a0272466\AppData\Local\Temp\0493210                         PAGE   40

    2084                      .dwattr $C$DW$214, DW_AT_TI_symbol_name("_ECAP4")
    2085                      .dwattr $C$DW$214, DW_AT_bit_offset(0x0c), DW_AT_bit_size(0x01)
    2086                      .dwattr $C$DW$214, DW_AT_data_member_location[DW_OP_plus_uconst 0x0]
    2087                      .dwattr $C$DW$214, DW_AT_accessibility(DW_ACCESS_public)
    2088              $C$DW$215       .dwtag  DW_TAG_member
    2089                      .dwattr $C$DW$215, DW_AT_type(*$C$DW$T$19)
    2090                      .dwattr $C$DW$215, DW_AT_name("ECAP5")
    2091                      .dwattr $C$DW$215, DW_AT_TI_symbol_name("_ECAP5")
    2092                      .dwattr $C$DW$215, DW_AT_bit_offset(0x0b), DW_AT_bit_size(0x01)
    2093                      .dwattr $C$DW$215, DW_AT_data_member_location[DW_OP_plus_uconst 0x0]
    2094                      .dwattr $C$DW$215, DW_AT_accessibility(DW_ACCESS_public)
    2095              $C$DW$216       .dwtag  DW_TAG_member
    2096                      .dwattr $C$DW$216, DW_AT_type(*$C$DW$T$19)
    2097                      .dwattr $C$DW$216, DW_AT_name("ECAP6")
    2098                      .dwattr $C$DW$216, DW_AT_TI_symbol_name("_ECAP6")
    2099                      .dwattr $C$DW$216, DW_AT_bit_offset(0x0a), DW_AT_bit_size(0x01)
    2100                      .dwattr $C$DW$216, DW_AT_data_member_location[DW_OP_plus_uconst 0x0]
    2101                      .dwattr $C$DW$216, DW_AT_accessibility(DW_ACCESS_public)
    2102              $C$DW$217       .dwtag  DW_TAG_member
    2103                      .dwattr $C$DW$217, DW_AT_type(*$C$DW$T$19)
    2104                      .dwattr $C$DW$217, DW_AT_name("rsvd1")
    2105                      .dwattr $C$DW$217, DW_AT_TI_symbol_name("_rsvd1")
    2106                      .dwattr $C$DW$217, DW_AT_bit_offset(0x00), DW_AT_bit_size(0x0a)
    2107                      .dwattr $C$DW$217, DW_AT_data_member_location[DW_OP_plus_uconst 0x0]
    2108                      .dwattr $C$DW$217, DW_AT_accessibility(DW_ACCESS_public)
    2109              $C$DW$218       .dwtag  DW_TAG_member
    2110                      .dwattr $C$DW$218, DW_AT_type(*$C$DW$T$19)
    2111                      .dwattr $C$DW$218, DW_AT_name("rsvd2")
    2112                      .dwattr $C$DW$218, DW_AT_TI_symbol_name("_rsvd2")
    2113                      .dwattr $C$DW$218, DW_AT_bit_offset(0x00), DW_AT_bit_size(0x10)
    2114                      .dwattr $C$DW$218, DW_AT_data_member_location[DW_OP_plus_uconst 0x1]
    2115                      .dwattr $C$DW$218, DW_AT_accessibility(DW_ACCESS_public)
    2116                      .dwendtag $C$DW$T$54
    2117              
    2118              
    2119              $C$DW$T$55      .dwtag  DW_TAG_union_type
    2120                      .dwattr $C$DW$T$55, DW_AT_name("CPUSEL1_REG")
    2121                      .dwattr $C$DW$T$55, DW_AT_byte_size(0x02)
    2122              $C$DW$219       .dwtag  DW_TAG_member
    2123                      .dwattr $C$DW$219, DW_AT_type(*$C$DW$T$21)
    2124                      .dwattr $C$DW$219, DW_AT_name("all")
    2125                      .dwattr $C$DW$219, DW_AT_TI_symbol_name("_all")
    2126                      .dwattr $C$DW$219, DW_AT_data_member_location[DW_OP_plus_uconst 0x0]
    2127                      .dwattr $C$DW$219, DW_AT_accessibility(DW_ACCESS_public)
    2128              $C$DW$220       .dwtag  DW_TAG_member
    2129                      .dwattr $C$DW$220, DW_AT_type(*$C$DW$T$54)
    2130                      .dwattr $C$DW$220, DW_AT_name("bit")
    2131                      .dwattr $C$DW$220, DW_AT_TI_symbol_name("_bit")
    2132                      .dwattr $C$DW$220, DW_AT_data_member_location[DW_OP_plus_uconst 0x0]
    2133                      .dwattr $C$DW$220, DW_AT_accessibility(DW_ACCESS_public)
    2134                      .dwendtag $C$DW$T$55
    2135              
    2136              
    2137              $C$DW$T$56      .dwtag  DW_TAG_structure_type
    2138                      .dwattr $C$DW$T$56, DW_AT_name("CPUSEL2_BITS")
TMS320C2000 Assembler PC v6.1.3 Tue Oct 01 15:27:17 2013

Tools Copyright (c) 1996-2012 Texas Instruments Incorporated
C:\Users\a0272466\AppData\Local\Temp\0493210                         PAGE   41

    2139                      .dwattr $C$DW$T$56, DW_AT_byte_size(0x02)
    2140              $C$DW$221       .dwtag  DW_TAG_member
    2141                      .dwattr $C$DW$221, DW_AT_type(*$C$DW$T$19)
    2142                      .dwattr $C$DW$221, DW_AT_name("EQEP1")
    2143                      .dwattr $C$DW$221, DW_AT_TI_symbol_name("_EQEP1")
    2144                      .dwattr $C$DW$221, DW_AT_bit_offset(0x0f), DW_AT_bit_size(0x01)
    2145                      .dwattr $C$DW$221, DW_AT_data_member_location[DW_OP_plus_uconst 0x0]
    2146                      .dwattr $C$DW$221, DW_AT_accessibility(DW_ACCESS_public)
    2147              $C$DW$222       .dwtag  DW_TAG_member
    2148                      .dwattr $C$DW$222, DW_AT_type(*$C$DW$T$19)
    2149                      .dwattr $C$DW$222, DW_AT_name("EQEP2")
    2150                      .dwattr $C$DW$222, DW_AT_TI_symbol_name("_EQEP2")
    2151                      .dwattr $C$DW$222, DW_AT_bit_offset(0x0e), DW_AT_bit_size(0x01)
    2152                      .dwattr $C$DW$222, DW_AT_data_member_location[DW_OP_plus_uconst 0x0]
    2153                      .dwattr $C$DW$222, DW_AT_accessibility(DW_ACCESS_public)
    2154              $C$DW$223       .dwtag  DW_TAG_member
    2155                      .dwattr $C$DW$223, DW_AT_type(*$C$DW$T$19)
    2156                      .dwattr $C$DW$223, DW_AT_name("EQEP3")
    2157                      .dwattr $C$DW$223, DW_AT_TI_symbol_name("_EQEP3")
    2158                      .dwattr $C$DW$223, DW_AT_bit_offset(0x0d), DW_AT_bit_size(0x01)
    2159                      .dwattr $C$DW$223, DW_AT_data_member_location[DW_OP_plus_uconst 0x0]
    2160                      .dwattr $C$DW$223, DW_AT_accessibility(DW_ACCESS_public)
    2161              $C$DW$224       .dwtag  DW_TAG_member
    2162                      .dwattr $C$DW$224, DW_AT_type(*$C$DW$T$19)
    2163                      .dwattr $C$DW$224, DW_AT_name("rsvd1")
    2164                      .dwattr $C$DW$224, DW_AT_TI_symbol_name("_rsvd1")
    2165                      .dwattr $C$DW$224, DW_AT_bit_offset(0x00), DW_AT_bit_size(0x0d)
    2166                      .dwattr $C$DW$224, DW_AT_data_member_location[DW_OP_plus_uconst 0x0]
    2167                      .dwattr $C$DW$224, DW_AT_accessibility(DW_ACCESS_public)
    2168              $C$DW$225       .dwtag  DW_TAG_member
    2169                      .dwattr $C$DW$225, DW_AT_type(*$C$DW$T$19)
    2170                      .dwattr $C$DW$225, DW_AT_name("rsvd2")
    2171                      .dwattr $C$DW$225, DW_AT_TI_symbol_name("_rsvd2")
    2172                      .dwattr $C$DW$225, DW_AT_bit_offset(0x00), DW_AT_bit_size(0x10)
    2173                      .dwattr $C$DW$225, DW_AT_data_member_location[DW_OP_plus_uconst 0x1]
    2174                      .dwattr $C$DW$225, DW_AT_accessibility(DW_ACCESS_public)
    2175                      .dwendtag $C$DW$T$56
    2176              
    2177              
    2178              $C$DW$T$57      .dwtag  DW_TAG_union_type
    2179                      .dwattr $C$DW$T$57, DW_AT_name("CPUSEL2_REG")
    2180                      .dwattr $C$DW$T$57, DW_AT_byte_size(0x02)
    2181              $C$DW$226       .dwtag  DW_TAG_member
    2182                      .dwattr $C$DW$226, DW_AT_type(*$C$DW$T$21)
    2183                      .dwattr $C$DW$226, DW_AT_name("all")
    2184                      .dwattr $C$DW$226, DW_AT_TI_symbol_name("_all")
    2185                      .dwattr $C$DW$226, DW_AT_data_member_location[DW_OP_plus_uconst 0x0]
    2186                      .dwattr $C$DW$226, DW_AT_accessibility(DW_ACCESS_public)
    2187              $C$DW$227       .dwtag  DW_TAG_member
    2188                      .dwattr $C$DW$227, DW_AT_type(*$C$DW$T$56)
    2189                      .dwattr $C$DW$227, DW_AT_name("bit")
    2190                      .dwattr $C$DW$227, DW_AT_TI_symbol_name("_bit")
    2191                      .dwattr $C$DW$227, DW_AT_data_member_location[DW_OP_plus_uconst 0x0]
    2192                      .dwattr $C$DW$227, DW_AT_accessibility(DW_ACCESS_public)
    2193                      .dwendtag $C$DW$T$57
TMS320C2000 Assembler PC v6.1.3 Tue Oct 01 15:27:17 2013

Tools Copyright (c) 1996-2012 Texas Instruments Incorporated
C:\Users\a0272466\AppData\Local\Temp\0493210                         PAGE   42

    2194              
    2195              
    2196              $C$DW$T$58      .dwtag  DW_TAG_structure_type
    2197                      .dwattr $C$DW$T$58, DW_AT_name("CPUSEL3_BITS")
    2198                      .dwattr $C$DW$T$58, DW_AT_byte_size(0x02)
    2199              $C$DW$228       .dwtag  DW_TAG_member
    2200                      .dwattr $C$DW$228, DW_AT_type(*$C$DW$T$19)
    2201                      .dwattr $C$DW$228, DW_AT_name("rsvd1")
    2202                      .dwattr $C$DW$228, DW_AT_TI_symbol_name("_rsvd1")
    2203                      .dwattr $C$DW$228, DW_AT_bit_offset(0x00), DW_AT_bit_size(0x10)
    2204                      .dwattr $C$DW$228, DW_AT_data_member_location[DW_OP_plus_uconst 0x0]
    2205                      .dwattr $C$DW$228, DW_AT_accessibility(DW_ACCESS_public)
    2206              $C$DW$229       .dwtag  DW_TAG_member
    2207                      .dwattr $C$DW$229, DW_AT_type(*$C$DW$T$19)
    2208                      .dwattr $C$DW$229, DW_AT_name("rsvd2")
    2209                      .dwattr $C$DW$229, DW_AT_TI_symbol_name("_rsvd2")
    2210                      .dwattr $C$DW$229, DW_AT_bit_offset(0x00), DW_AT_bit_size(0x10)
    2211                      .dwattr $C$DW$229, DW_AT_data_member_location[DW_OP_plus_uconst 0x1]
    2212                      .dwattr $C$DW$229, DW_AT_accessibility(DW_ACCESS_public)
    2213                      .dwendtag $C$DW$T$58
    2214              
    2215              
    2216              $C$DW$T$59      .dwtag  DW_TAG_union_type
    2217                      .dwattr $C$DW$T$59, DW_AT_name("CPUSEL3_REG")
    2218                      .dwattr $C$DW$T$59, DW_AT_byte_size(0x02)
    2219              $C$DW$230       .dwtag  DW_TAG_member
    2220                      .dwattr $C$DW$230, DW_AT_type(*$C$DW$T$21)
    2221                      .dwattr $C$DW$230, DW_AT_name("all")
    2222                      .dwattr $C$DW$230, DW_AT_TI_symbol_name("_all")
    2223                      .dwattr $C$DW$230, DW_AT_data_member_location[DW_OP_plus_uconst 0x0]
    2224                      .dwattr $C$DW$230, DW_AT_accessibility(DW_ACCESS_public)
    2225              $C$DW$231       .dwtag  DW_TAG_member
    2226                      .dwattr $C$DW$231, DW_AT_type(*$C$DW$T$58)
    2227                      .dwattr $C$DW$231, DW_AT_name("bit")
    2228                      .dwattr $C$DW$231, DW_AT_TI_symbol_name("_bit")
    2229                      .dwattr $C$DW$231, DW_AT_data_member_location[DW_OP_plus_uconst 0x0]
    2230                      .dwattr $C$DW$231, DW_AT_accessibility(DW_ACCESS_public)
    2231                      .dwendtag $C$DW$T$59
    2232              
    2233              
    2234              $C$DW$T$60      .dwtag  DW_TAG_structure_type
    2235                      .dwattr $C$DW$T$60, DW_AT_name("CPUSEL4_BITS")
    2236                      .dwattr $C$DW$T$60, DW_AT_byte_size(0x02)
    2237              $C$DW$232       .dwtag  DW_TAG_member
    2238                      .dwattr $C$DW$232, DW_AT_type(*$C$DW$T$19)
    2239                      .dwattr $C$DW$232, DW_AT_name("SD1")
    2240                      .dwattr $C$DW$232, DW_AT_TI_symbol_name("_SD1")
    2241                      .dwattr $C$DW$232, DW_AT_bit_offset(0x0f), DW_AT_bit_size(0x01)
    2242                      .dwattr $C$DW$232, DW_AT_data_member_location[DW_OP_plus_uconst 0x0]
    2243                      .dwattr $C$DW$232, DW_AT_accessibility(DW_ACCESS_public)
    2244              $C$DW$233       .dwtag  DW_TAG_member
    2245                      .dwattr $C$DW$233, DW_AT_type(*$C$DW$T$19)
    2246                      .dwattr $C$DW$233, DW_AT_name("SD2")
    2247                      .dwattr $C$DW$233, DW_AT_TI_symbol_name("_SD2")
    2248                      .dwattr $C$DW$233, DW_AT_bit_offset(0x0e), DW_AT_bit_size(0x01)
TMS320C2000 Assembler PC v6.1.3 Tue Oct 01 15:27:17 2013

Tools Copyright (c) 1996-2012 Texas Instruments Incorporated
C:\Users\a0272466\AppData\Local\Temp\0493210                         PAGE   43

    2249                      .dwattr $C$DW$233, DW_AT_data_member_location[DW_OP_plus_uconst 0x0]
    2250                      .dwattr $C$DW$233, DW_AT_accessibility(DW_ACCESS_public)
    2251              $C$DW$234       .dwtag  DW_TAG_member
    2252                      .dwattr $C$DW$234, DW_AT_type(*$C$DW$T$19)
    2253                      .dwattr $C$DW$234, DW_AT_name("rsvd1")
    2254                      .dwattr $C$DW$234, DW_AT_TI_symbol_name("_rsvd1")
    2255                      .dwattr $C$DW$234, DW_AT_bit_offset(0x00), DW_AT_bit_size(0x0e)
    2256                      .dwattr $C$DW$234, DW_AT_data_member_location[DW_OP_plus_uconst 0x0]
    2257                      .dwattr $C$DW$234, DW_AT_accessibility(DW_ACCESS_public)
    2258              $C$DW$235       .dwtag  DW_TAG_member
    2259                      .dwattr $C$DW$235, DW_AT_type(*$C$DW$T$19)
    2260                      .dwattr $C$DW$235, DW_AT_name("rsvd2")
    2261                      .dwattr $C$DW$235, DW_AT_TI_symbol_name("_rsvd2")
    2262                      .dwattr $C$DW$235, DW_AT_bit_offset(0x00), DW_AT_bit_size(0x10)
    2263                      .dwattr $C$DW$235, DW_AT_data_member_location[DW_OP_plus_uconst 0x1]
    2264                      .dwattr $C$DW$235, DW_AT_accessibility(DW_ACCESS_public)
    2265                      .dwendtag $C$DW$T$60
    2266              
    2267              
    2268              $C$DW$T$61      .dwtag  DW_TAG_union_type
    2269                      .dwattr $C$DW$T$61, DW_AT_name("CPUSEL4_REG")
    2270                      .dwattr $C$DW$T$61, DW_AT_byte_size(0x02)
    2271              $C$DW$236       .dwtag  DW_TAG_member
    2272                      .dwattr $C$DW$236, DW_AT_type(*$C$DW$T$21)
    2273                      .dwattr $C$DW$236, DW_AT_name("all")
    2274                      .dwattr $C$DW$236, DW_AT_TI_symbol_name("_all")
    2275                      .dwattr $C$DW$236, DW_AT_data_member_location[DW_OP_plus_uconst 0x0]
    2276                      .dwattr $C$DW$236, DW_AT_accessibility(DW_ACCESS_public)
    2277              $C$DW$237       .dwtag  DW_TAG_member
    2278                      .dwattr $C$DW$237, DW_AT_type(*$C$DW$T$60)
    2279                      .dwattr $C$DW$237, DW_AT_name("bit")
    2280                      .dwattr $C$DW$237, DW_AT_TI_symbol_name("_bit")
    2281                      .dwattr $C$DW$237, DW_AT_data_member_location[DW_OP_plus_uconst 0x0]
    2282                      .dwattr $C$DW$237, DW_AT_accessibility(DW_ACCESS_public)
    2283                      .dwendtag $C$DW$T$61
    2284              
    2285              
    2286              $C$DW$T$62      .dwtag  DW_TAG_structure_type
    2287                      .dwattr $C$DW$T$62, DW_AT_name("CPUSEL5_BITS")
    2288                      .dwattr $C$DW$T$62, DW_AT_byte_size(0x02)
    2289              $C$DW$238       .dwtag  DW_TAG_member
    2290                      .dwattr $C$DW$238, DW_AT_type(*$C$DW$T$19)
    2291                      .dwattr $C$DW$238, DW_AT_name("SCI_A")
    2292                      .dwattr $C$DW$238, DW_AT_TI_symbol_name("_SCI_A")
    2293                      .dwattr $C$DW$238, DW_AT_bit_offset(0x0f), DW_AT_bit_size(0x01)
    2294                      .dwattr $C$DW$238, DW_AT_data_member_location[DW_OP_plus_uconst 0x0]
    2295                      .dwattr $C$DW$238, DW_AT_accessibility(DW_ACCESS_public)
    2296              $C$DW$239       .dwtag  DW_TAG_member
    2297                      .dwattr $C$DW$239, DW_AT_type(*$C$DW$T$19)
    2298                      .dwattr $C$DW$239, DW_AT_name("SCI_B")
    2299                      .dwattr $C$DW$239, DW_AT_TI_symbol_name("_SCI_B")
    2300                      .dwattr $C$DW$239, DW_AT_bit_offset(0x0e), DW_AT_bit_size(0x01)
    2301                      .dwattr $C$DW$239, DW_AT_data_member_location[DW_OP_plus_uconst 0x0]
    2302                      .dwattr $C$DW$239, DW_AT_accessibility(DW_ACCESS_public)
    2303              $C$DW$240       .dwtag  DW_TAG_member
TMS320C2000 Assembler PC v6.1.3 Tue Oct 01 15:27:17 2013

Tools Copyright (c) 1996-2012 Texas Instruments Incorporated
C:\Users\a0272466\AppData\Local\Temp\0493210                         PAGE   44

    2304                      .dwattr $C$DW$240, DW_AT_type(*$C$DW$T$19)
    2305                      .dwattr $C$DW$240, DW_AT_name("SCI_C")
    2306                      .dwattr $C$DW$240, DW_AT_TI_symbol_name("_SCI_C")
    2307                      .dwattr $C$DW$240, DW_AT_bit_offset(0x0d), DW_AT_bit_size(0x01)
    2308                      .dwattr $C$DW$240, DW_AT_data_member_location[DW_OP_plus_uconst 0x0]
    2309                      .dwattr $C$DW$240, DW_AT_accessibility(DW_ACCESS_public)
    2310              $C$DW$241       .dwtag  DW_TAG_member
    2311                      .dwattr $C$DW$241, DW_AT_type(*$C$DW$T$19)
    2312                      .dwattr $C$DW$241, DW_AT_name("SCI_D")
    2313                      .dwattr $C$DW$241, DW_AT_TI_symbol_name("_SCI_D")
    2314                      .dwattr $C$DW$241, DW_AT_bit_offset(0x0c), DW_AT_bit_size(0x01)
    2315                      .dwattr $C$DW$241, DW_AT_data_member_location[DW_OP_plus_uconst 0x0]
    2316                      .dwattr $C$DW$241, DW_AT_accessibility(DW_ACCESS_public)
    2317              $C$DW$242       .dwtag  DW_TAG_member
    2318                      .dwattr $C$DW$242, DW_AT_type(*$C$DW$T$19)
    2319                      .dwattr $C$DW$242, DW_AT_name("rsvd1")
    2320                      .dwattr $C$DW$242, DW_AT_TI_symbol_name("_rsvd1")
    2321                      .dwattr $C$DW$242, DW_AT_bit_offset(0x00), DW_AT_bit_size(0x0c)
    2322                      .dwattr $C$DW$242, DW_AT_data_member_location[DW_OP_plus_uconst 0x0]
    2323                      .dwattr $C$DW$242, DW_AT_accessibility(DW_ACCESS_public)
    2324              $C$DW$243       .dwtag  DW_TAG_member
    2325                      .dwattr $C$DW$243, DW_AT_type(*$C$DW$T$19)
    2326                      .dwattr $C$DW$243, DW_AT_name("rsvd2")
    2327                      .dwattr $C$DW$243, DW_AT_TI_symbol_name("_rsvd2")
    2328                      .dwattr $C$DW$243, DW_AT_bit_offset(0x00), DW_AT_bit_size(0x10)
    2329                      .dwattr $C$DW$243, DW_AT_data_member_location[DW_OP_plus_uconst 0x1]
    2330                      .dwattr $C$DW$243, DW_AT_accessibility(DW_ACCESS_public)
    2331                      .dwendtag $C$DW$T$62
    2332              
    2333              
    2334              $C$DW$T$63      .dwtag  DW_TAG_union_type
    2335                      .dwattr $C$DW$T$63, DW_AT_name("CPUSEL5_REG")
    2336                      .dwattr $C$DW$T$63, DW_AT_byte_size(0x02)
    2337              $C$DW$244       .dwtag  DW_TAG_member
    2338                      .dwattr $C$DW$244, DW_AT_type(*$C$DW$T$21)
    2339                      .dwattr $C$DW$244, DW_AT_name("all")
    2340                      .dwattr $C$DW$244, DW_AT_TI_symbol_name("_all")
    2341                      .dwattr $C$DW$244, DW_AT_data_member_location[DW_OP_plus_uconst 0x0]
    2342                      .dwattr $C$DW$244, DW_AT_accessibility(DW_ACCESS_public)
    2343              $C$DW$245       .dwtag  DW_TAG_member
    2344                      .dwattr $C$DW$245, DW_AT_type(*$C$DW$T$62)
    2345                      .dwattr $C$DW$245, DW_AT_name("bit")
    2346                      .dwattr $C$DW$245, DW_AT_TI_symbol_name("_bit")
    2347                      .dwattr $C$DW$245, DW_AT_data_member_location[DW_OP_plus_uconst 0x0]
    2348                      .dwattr $C$DW$245, DW_AT_accessibility(DW_ACCESS_public)
    2349                      .dwendtag $C$DW$T$63
    2350              
    2351              
    2352              $C$DW$T$64      .dwtag  DW_TAG_structure_type
    2353                      .dwattr $C$DW$T$64, DW_AT_name("CPUSEL6_BITS")
    2354                      .dwattr $C$DW$T$64, DW_AT_byte_size(0x02)
    2355              $C$DW$246       .dwtag  DW_TAG_member
    2356                      .dwattr $C$DW$246, DW_AT_type(*$C$DW$T$19)
    2357                      .dwattr $C$DW$246, DW_AT_name("SPI_A")
    2358                      .dwattr $C$DW$246, DW_AT_TI_symbol_name("_SPI_A")
TMS320C2000 Assembler PC v6.1.3 Tue Oct 01 15:27:17 2013

Tools Copyright (c) 1996-2012 Texas Instruments Incorporated
C:\Users\a0272466\AppData\Local\Temp\0493210                         PAGE   45

    2359                      .dwattr $C$DW$246, DW_AT_bit_offset(0x0f), DW_AT_bit_size(0x01)
    2360                      .dwattr $C$DW$246, DW_AT_data_member_location[DW_OP_plus_uconst 0x0]
    2361                      .dwattr $C$DW$246, DW_AT_accessibility(DW_ACCESS_public)
    2362              $C$DW$247       .dwtag  DW_TAG_member
    2363                      .dwattr $C$DW$247, DW_AT_type(*$C$DW$T$19)
    2364                      .dwattr $C$DW$247, DW_AT_name("SPI_B")
    2365                      .dwattr $C$DW$247, DW_AT_TI_symbol_name("_SPI_B")
    2366                      .dwattr $C$DW$247, DW_AT_bit_offset(0x0e), DW_AT_bit_size(0x01)
    2367                      .dwattr $C$DW$247, DW_AT_data_member_location[DW_OP_plus_uconst 0x0]
    2368                      .dwattr $C$DW$247, DW_AT_accessibility(DW_ACCESS_public)
    2369              $C$DW$248       .dwtag  DW_TAG_member
    2370                      .dwattr $C$DW$248, DW_AT_type(*$C$DW$T$19)
    2371                      .dwattr $C$DW$248, DW_AT_name("SPI_C")
    2372                      .dwattr $C$DW$248, DW_AT_TI_symbol_name("_SPI_C")
    2373                      .dwattr $C$DW$248, DW_AT_bit_offset(0x0d), DW_AT_bit_size(0x01)
    2374                      .dwattr $C$DW$248, DW_AT_data_member_location[DW_OP_plus_uconst 0x0]
    2375                      .dwattr $C$DW$248, DW_AT_accessibility(DW_ACCESS_public)
    2376              $C$DW$249       .dwtag  DW_TAG_member
    2377                      .dwattr $C$DW$249, DW_AT_type(*$C$DW$T$19)
    2378                      .dwattr $C$DW$249, DW_AT_name("rsvd1")
    2379                      .dwattr $C$DW$249, DW_AT_TI_symbol_name("_rsvd1")
    2380                      .dwattr $C$DW$249, DW_AT_bit_offset(0x00), DW_AT_bit_size(0x0d)
    2381                      .dwattr $C$DW$249, DW_AT_data_member_location[DW_OP_plus_uconst 0x0]
    2382                      .dwattr $C$DW$249, DW_AT_accessibility(DW_ACCESS_public)
    2383              $C$DW$250       .dwtag  DW_TAG_member
    2384                      .dwattr $C$DW$250, DW_AT_type(*$C$DW$T$19)
    2385                      .dwattr $C$DW$250, DW_AT_name("rsvd2")
    2386                      .dwattr $C$DW$250, DW_AT_TI_symbol_name("_rsvd2")
    2387                      .dwattr $C$DW$250, DW_AT_bit_offset(0x00), DW_AT_bit_size(0x10)
    2388                      .dwattr $C$DW$250, DW_AT_data_member_location[DW_OP_plus_uconst 0x1]
    2389                      .dwattr $C$DW$250, DW_AT_accessibility(DW_ACCESS_public)
    2390                      .dwendtag $C$DW$T$64
    2391              
    2392              
    2393              $C$DW$T$65      .dwtag  DW_TAG_union_type
    2394                      .dwattr $C$DW$T$65, DW_AT_name("CPUSEL6_REG")
    2395                      .dwattr $C$DW$T$65, DW_AT_byte_size(0x02)
    2396              $C$DW$251       .dwtag  DW_TAG_member
    2397                      .dwattr $C$DW$251, DW_AT_type(*$C$DW$T$21)
    2398                      .dwattr $C$DW$251, DW_AT_name("all")
    2399                      .dwattr $C$DW$251, DW_AT_TI_symbol_name("_all")
    2400                      .dwattr $C$DW$251, DW_AT_data_member_location[DW_OP_plus_uconst 0x0]
    2401                      .dwattr $C$DW$251, DW_AT_accessibility(DW_ACCESS_public)
    2402              $C$DW$252       .dwtag  DW_TAG_member
    2403                      .dwattr $C$DW$252, DW_AT_type(*$C$DW$T$64)
    2404                      .dwattr $C$DW$252, DW_AT_name("bit")
    2405                      .dwattr $C$DW$252, DW_AT_TI_symbol_name("_bit")
    2406                      .dwattr $C$DW$252, DW_AT_data_member_location[DW_OP_plus_uconst 0x0]
    2407                      .dwattr $C$DW$252, DW_AT_accessibility(DW_ACCESS_public)
    2408                      .dwendtag $C$DW$T$65
    2409              
    2410              
    2411              $C$DW$T$66      .dwtag  DW_TAG_structure_type
    2412                      .dwattr $C$DW$T$66, DW_AT_name("CPUSEL7_BITS")
    2413                      .dwattr $C$DW$T$66, DW_AT_byte_size(0x02)
TMS320C2000 Assembler PC v6.1.3 Tue Oct 01 15:27:17 2013

Tools Copyright (c) 1996-2012 Texas Instruments Incorporated
C:\Users\a0272466\AppData\Local\Temp\0493210                         PAGE   46

    2414              $C$DW$253       .dwtag  DW_TAG_member
    2415                      .dwattr $C$DW$253, DW_AT_type(*$C$DW$T$19)
    2416                      .dwattr $C$DW$253, DW_AT_name("I2C_A")
    2417                      .dwattr $C$DW$253, DW_AT_TI_symbol_name("_I2C_A")
    2418                      .dwattr $C$DW$253, DW_AT_bit_offset(0x0f), DW_AT_bit_size(0x01)
    2419                      .dwattr $C$DW$253, DW_AT_data_member_location[DW_OP_plus_uconst 0x0]
    2420                      .dwattr $C$DW$253, DW_AT_accessibility(DW_ACCESS_public)
    2421              $C$DW$254       .dwtag  DW_TAG_member
    2422                      .dwattr $C$DW$254, DW_AT_type(*$C$DW$T$19)
    2423                      .dwattr $C$DW$254, DW_AT_name("I2C_B")
    2424                      .dwattr $C$DW$254, DW_AT_TI_symbol_name("_I2C_B")
    2425                      .dwattr $C$DW$254, DW_AT_bit_offset(0x0e), DW_AT_bit_size(0x01)
    2426                      .dwattr $C$DW$254, DW_AT_data_member_location[DW_OP_plus_uconst 0x0]
    2427                      .dwattr $C$DW$254, DW_AT_accessibility(DW_ACCESS_public)
    2428              $C$DW$255       .dwtag  DW_TAG_member
    2429                      .dwattr $C$DW$255, DW_AT_type(*$C$DW$T$19)
    2430                      .dwattr $C$DW$255, DW_AT_name("rsvd1")
    2431                      .dwattr $C$DW$255, DW_AT_TI_symbol_name("_rsvd1")
    2432                      .dwattr $C$DW$255, DW_AT_bit_offset(0x00), DW_AT_bit_size(0x0e)
    2433                      .dwattr $C$DW$255, DW_AT_data_member_location[DW_OP_plus_uconst 0x0]
    2434                      .dwattr $C$DW$255, DW_AT_accessibility(DW_ACCESS_public)
    2435              $C$DW$256       .dwtag  DW_TAG_member
    2436                      .dwattr $C$DW$256, DW_AT_type(*$C$DW$T$19)
    2437                      .dwattr $C$DW$256, DW_AT_name("rsvd2")
    2438                      .dwattr $C$DW$256, DW_AT_TI_symbol_name("_rsvd2")
    2439                      .dwattr $C$DW$256, DW_AT_bit_offset(0x00), DW_AT_bit_size(0x10)
    2440                      .dwattr $C$DW$256, DW_AT_data_member_location[DW_OP_plus_uconst 0x1]
    2441                      .dwattr $C$DW$256, DW_AT_accessibility(DW_ACCESS_public)
    2442                      .dwendtag $C$DW$T$66
    2443              
    2444              
    2445              $C$DW$T$67      .dwtag  DW_TAG_union_type
    2446                      .dwattr $C$DW$T$67, DW_AT_name("CPUSEL7_REG")
    2447                      .dwattr $C$DW$T$67, DW_AT_byte_size(0x02)
    2448              $C$DW$257       .dwtag  DW_TAG_member
    2449                      .dwattr $C$DW$257, DW_AT_type(*$C$DW$T$21)
    2450                      .dwattr $C$DW$257, DW_AT_name("all")
    2451                      .dwattr $C$DW$257, DW_AT_TI_symbol_name("_all")
    2452                      .dwattr $C$DW$257, DW_AT_data_member_location[DW_OP_plus_uconst 0x0]
    2453                      .dwattr $C$DW$257, DW_AT_accessibility(DW_ACCESS_public)
    2454              $C$DW$258       .dwtag  DW_TAG_member
    2455                      .dwattr $C$DW$258, DW_AT_type(*$C$DW$T$66)
    2456                      .dwattr $C$DW$258, DW_AT_name("bit")
    2457                      .dwattr $C$DW$258, DW_AT_TI_symbol_name("_bit")
    2458                      .dwattr $C$DW$258, DW_AT_data_member_location[DW_OP_plus_uconst 0x0]
    2459                      .dwattr $C$DW$258, DW_AT_accessibility(DW_ACCESS_public)
    2460                      .dwendtag $C$DW$T$67
    2461              
    2462              
    2463              $C$DW$T$68      .dwtag  DW_TAG_structure_type
    2464                      .dwattr $C$DW$T$68, DW_AT_name("CPUSEL8_BITS")
    2465                      .dwattr $C$DW$T$68, DW_AT_byte_size(0x02)
    2466              $C$DW$259       .dwtag  DW_TAG_member
    2467                      .dwattr $C$DW$259, DW_AT_type(*$C$DW$T$19)
    2468                      .dwattr $C$DW$259, DW_AT_name("CAN_A")
TMS320C2000 Assembler PC v6.1.3 Tue Oct 01 15:27:17 2013

Tools Copyright (c) 1996-2012 Texas Instruments Incorporated
C:\Users\a0272466\AppData\Local\Temp\0493210                         PAGE   47

    2469                      .dwattr $C$DW$259, DW_AT_TI_symbol_name("_CAN_A")
    2470                      .dwattr $C$DW$259, DW_AT_bit_offset(0x0f), DW_AT_bit_size(0x01)
    2471                      .dwattr $C$DW$259, DW_AT_data_member_location[DW_OP_plus_uconst 0x0]
    2472                      .dwattr $C$DW$259, DW_AT_accessibility(DW_ACCESS_public)
    2473              $C$DW$260       .dwtag  DW_TAG_member
    2474                      .dwattr $C$DW$260, DW_AT_type(*$C$DW$T$19)
    2475                      .dwattr $C$DW$260, DW_AT_name("CAN_B")
    2476                      .dwattr $C$DW$260, DW_AT_TI_symbol_name("_CAN_B")
    2477                      .dwattr $C$DW$260, DW_AT_bit_offset(0x0e), DW_AT_bit_size(0x01)
    2478                      .dwattr $C$DW$260, DW_AT_data_member_location[DW_OP_plus_uconst 0x0]
    2479                      .dwattr $C$DW$260, DW_AT_accessibility(DW_ACCESS_public)
    2480              $C$DW$261       .dwtag  DW_TAG_member
    2481                      .dwattr $C$DW$261, DW_AT_type(*$C$DW$T$19)
    2482                      .dwattr $C$DW$261, DW_AT_name("rsvd1")
    2483                      .dwattr $C$DW$261, DW_AT_TI_symbol_name("_rsvd1")
    2484                      .dwattr $C$DW$261, DW_AT_bit_offset(0x00), DW_AT_bit_size(0x0e)
    2485                      .dwattr $C$DW$261, DW_AT_data_member_location[DW_OP_plus_uconst 0x0]
    2486                      .dwattr $C$DW$261, DW_AT_accessibility(DW_ACCESS_public)
    2487              $C$DW$262       .dwtag  DW_TAG_member
    2488                      .dwattr $C$DW$262, DW_AT_type(*$C$DW$T$19)
    2489                      .dwattr $C$DW$262, DW_AT_name("rsvd2")
    2490                      .dwattr $C$DW$262, DW_AT_TI_symbol_name("_rsvd2")
    2491                      .dwattr $C$DW$262, DW_AT_bit_offset(0x00), DW_AT_bit_size(0x10)
    2492                      .dwattr $C$DW$262, DW_AT_data_member_location[DW_OP_plus_uconst 0x1]
    2493                      .dwattr $C$DW$262, DW_AT_accessibility(DW_ACCESS_public)
    2494                      .dwendtag $C$DW$T$68
    2495              
    2496              
    2497              $C$DW$T$69      .dwtag  DW_TAG_union_type
    2498                      .dwattr $C$DW$T$69, DW_AT_name("CPUSEL8_REG")
    2499                      .dwattr $C$DW$T$69, DW_AT_byte_size(0x02)
    2500              $C$DW$263       .dwtag  DW_TAG_member
    2501                      .dwattr $C$DW$263, DW_AT_type(*$C$DW$T$21)
    2502                      .dwattr $C$DW$263, DW_AT_name("all")
    2503                      .dwattr $C$DW$263, DW_AT_TI_symbol_name("_all")
    2504                      .dwattr $C$DW$263, DW_AT_data_member_location[DW_OP_plus_uconst 0x0]
    2505                      .dwattr $C$DW$263, DW_AT_accessibility(DW_ACCESS_public)
    2506              $C$DW$264       .dwtag  DW_TAG_member
    2507                      .dwattr $C$DW$264, DW_AT_type(*$C$DW$T$68)
    2508                      .dwattr $C$DW$264, DW_AT_name("bit")
    2509                      .dwattr $C$DW$264, DW_AT_TI_symbol_name("_bit")
    2510                      .dwattr $C$DW$264, DW_AT_data_member_location[DW_OP_plus_uconst 0x0]
    2511                      .dwattr $C$DW$264, DW_AT_accessibility(DW_ACCESS_public)
    2512                      .dwendtag $C$DW$T$69
    2513              
    2514              
    2515              $C$DW$T$70      .dwtag  DW_TAG_structure_type
    2516                      .dwattr $C$DW$T$70, DW_AT_name("CPUSEL9_BITS")
    2517                      .dwattr $C$DW$T$70, DW_AT_byte_size(0x02)
    2518              $C$DW$265       .dwtag  DW_TAG_member
    2519                      .dwattr $C$DW$265, DW_AT_type(*$C$DW$T$19)
    2520                      .dwattr $C$DW$265, DW_AT_name("McBSP_A")
    2521                      .dwattr $C$DW$265, DW_AT_TI_symbol_name("_McBSP_A")
    2522                      .dwattr $C$DW$265, DW_AT_bit_offset(0x0f), DW_AT_bit_size(0x01)
    2523                      .dwattr $C$DW$265, DW_AT_data_member_location[DW_OP_plus_uconst 0x0]
TMS320C2000 Assembler PC v6.1.3 Tue Oct 01 15:27:17 2013

Tools Copyright (c) 1996-2012 Texas Instruments Incorporated
C:\Users\a0272466\AppData\Local\Temp\0493210                         PAGE   48

    2524                      .dwattr $C$DW$265, DW_AT_accessibility(DW_ACCESS_public)
    2525              $C$DW$266       .dwtag  DW_TAG_member
    2526                      .dwattr $C$DW$266, DW_AT_type(*$C$DW$T$19)
    2527                      .dwattr $C$DW$266, DW_AT_name("McBSP_B")
    2528                      .dwattr $C$DW$266, DW_AT_TI_symbol_name("_McBSP_B")
    2529                      .dwattr $C$DW$266, DW_AT_bit_offset(0x0e), DW_AT_bit_size(0x01)
    2530                      .dwattr $C$DW$266, DW_AT_data_member_location[DW_OP_plus_uconst 0x0]
    2531                      .dwattr $C$DW$266, DW_AT_accessibility(DW_ACCESS_public)
    2532              $C$DW$267       .dwtag  DW_TAG_member
    2533                      .dwattr $C$DW$267, DW_AT_type(*$C$DW$T$19)
    2534                      .dwattr $C$DW$267, DW_AT_name("rsvd1")
    2535                      .dwattr $C$DW$267, DW_AT_TI_symbol_name("_rsvd1")
    2536                      .dwattr $C$DW$267, DW_AT_bit_offset(0x00), DW_AT_bit_size(0x0e)
    2537                      .dwattr $C$DW$267, DW_AT_data_member_location[DW_OP_plus_uconst 0x0]
    2538                      .dwattr $C$DW$267, DW_AT_accessibility(DW_ACCESS_public)
    2539              $C$DW$268       .dwtag  DW_TAG_member
    2540                      .dwattr $C$DW$268, DW_AT_type(*$C$DW$T$19)
    2541                      .dwattr $C$DW$268, DW_AT_name("rsvd2")
    2542                      .dwattr $C$DW$268, DW_AT_TI_symbol_name("_rsvd2")
    2543                      .dwattr $C$DW$268, DW_AT_bit_offset(0x00), DW_AT_bit_size(0x10)
    2544                      .dwattr $C$DW$268, DW_AT_data_member_location[DW_OP_plus_uconst 0x1]
    2545                      .dwattr $C$DW$268, DW_AT_accessibility(DW_ACCESS_public)
    2546                      .dwendtag $C$DW$T$70
    2547              
    2548              
    2549              $C$DW$T$71      .dwtag  DW_TAG_union_type
    2550                      .dwattr $C$DW$T$71, DW_AT_name("CPUSEL9_REG")
    2551                      .dwattr $C$DW$T$71, DW_AT_byte_size(0x02)
    2552              $C$DW$269       .dwtag  DW_TAG_member
    2553                      .dwattr $C$DW$269, DW_AT_type(*$C$DW$T$21)
    2554                      .dwattr $C$DW$269, DW_AT_name("all")
    2555                      .dwattr $C$DW$269, DW_AT_TI_symbol_name("_all")
    2556                      .dwattr $C$DW$269, DW_AT_data_member_location[DW_OP_plus_uconst 0x0]
    2557                      .dwattr $C$DW$269, DW_AT_accessibility(DW_ACCESS_public)
    2558              $C$DW$270       .dwtag  DW_TAG_member
    2559                      .dwattr $C$DW$270, DW_AT_type(*$C$DW$T$70)
    2560                      .dwattr $C$DW$270, DW_AT_name("bit")
    2561                      .dwattr $C$DW$270, DW_AT_TI_symbol_name("_bit")
    2562                      .dwattr $C$DW$270, DW_AT_data_member_location[DW_OP_plus_uconst 0x0]
    2563                      .dwattr $C$DW$270, DW_AT_accessibility(DW_ACCESS_public)
    2564                      .dwendtag $C$DW$T$71
    2565              
    2566              
    2567              $C$DW$T$72      .dwtag  DW_TAG_structure_type
    2568                      .dwattr $C$DW$T$72, DW_AT_name("CPUSYSLOCK1_BITS")
    2569                      .dwattr $C$DW$T$72, DW_AT_byte_size(0x02)
    2570              $C$DW$271       .dwtag  DW_TAG_member
    2571                      .dwattr $C$DW$271, DW_AT_type(*$C$DW$T$19)
    2572                      .dwattr $C$DW$271, DW_AT_name("HIBBOOTMODE")
    2573                      .dwattr $C$DW$271, DW_AT_TI_symbol_name("_HIBBOOTMODE")
    2574                      .dwattr $C$DW$271, DW_AT_bit_offset(0x0f), DW_AT_bit_size(0x01)
    2575                      .dwattr $C$DW$271, DW_AT_data_member_location[DW_OP_plus_uconst 0x0]
    2576                      .dwattr $C$DW$271, DW_AT_accessibility(DW_ACCESS_public)
    2577              $C$DW$272       .dwtag  DW_TAG_member
    2578                      .dwattr $C$DW$272, DW_AT_type(*$C$DW$T$19)
TMS320C2000 Assembler PC v6.1.3 Tue Oct 01 15:27:17 2013

Tools Copyright (c) 1996-2012 Texas Instruments Incorporated
C:\Users\a0272466\AppData\Local\Temp\0493210                         PAGE   49

    2579                      .dwattr $C$DW$272, DW_AT_name("IORESTOREADDR")
    2580                      .dwattr $C$DW$272, DW_AT_TI_symbol_name("_IORESTOREADDR")
    2581                      .dwattr $C$DW$272, DW_AT_bit_offset(0x0e), DW_AT_bit_size(0x01)
    2582                      .dwattr $C$DW$272, DW_AT_data_member_location[DW_OP_plus_uconst 0x0]
    2583                      .dwattr $C$DW$272, DW_AT_accessibility(DW_ACCESS_public)
    2584              $C$DW$273       .dwtag  DW_TAG_member
    2585                      .dwattr $C$DW$273, DW_AT_type(*$C$DW$T$19)
    2586                      .dwattr $C$DW$273, DW_AT_name("PIEVERRADDR")
    2587                      .dwattr $C$DW$273, DW_AT_TI_symbol_name("_PIEVERRADDR")
    2588                      .dwattr $C$DW$273, DW_AT_bit_offset(0x0d), DW_AT_bit_size(0x01)
    2589                      .dwattr $C$DW$273, DW_AT_data_member_location[DW_OP_plus_uconst 0x0]
    2590                      .dwattr $C$DW$273, DW_AT_accessibility(DW_ACCESS_public)
    2591              $C$DW$274       .dwtag  DW_TAG_member
    2592                      .dwattr $C$DW$274, DW_AT_type(*$C$DW$T$19)
    2593                      .dwattr $C$DW$274, DW_AT_name("PCLKCR0")
    2594                      .dwattr $C$DW$274, DW_AT_TI_symbol_name("_PCLKCR0")
    2595                      .dwattr $C$DW$274, DW_AT_bit_offset(0x0c), DW_AT_bit_size(0x01)
    2596                      .dwattr $C$DW$274, DW_AT_data_member_location[DW_OP_plus_uconst 0x0]
    2597                      .dwattr $C$DW$274, DW_AT_accessibility(DW_ACCESS_public)
    2598              $C$DW$275       .dwtag  DW_TAG_member
    2599                      .dwattr $C$DW$275, DW_AT_type(*$C$DW$T$19)
    2600                      .dwattr $C$DW$275, DW_AT_name("PCLKCR1")
    2601                      .dwattr $C$DW$275, DW_AT_TI_symbol_name("_PCLKCR1")
    2602                      .dwattr $C$DW$275, DW_AT_bit_offset(0x0b), DW_AT_bit_size(0x01)
    2603                      .dwattr $C$DW$275, DW_AT_data_member_location[DW_OP_plus_uconst 0x0]
    2604                      .dwattr $C$DW$275, DW_AT_accessibility(DW_ACCESS_public)
    2605              $C$DW$276       .dwtag  DW_TAG_member
    2606                      .dwattr $C$DW$276, DW_AT_type(*$C$DW$T$19)
    2607                      .dwattr $C$DW$276, DW_AT_name("PCLKCR2")
    2608                      .dwattr $C$DW$276, DW_AT_TI_symbol_name("_PCLKCR2")
    2609                      .dwattr $C$DW$276, DW_AT_bit_offset(0x0a), DW_AT_bit_size(0x01)
    2610                      .dwattr $C$DW$276, DW_AT_data_member_location[DW_OP_plus_uconst 0x0]
    2611                      .dwattr $C$DW$276, DW_AT_accessibility(DW_ACCESS_public)
    2612              $C$DW$277       .dwtag  DW_TAG_member
    2613                      .dwattr $C$DW$277, DW_AT_type(*$C$DW$T$19)
    2614                      .dwattr $C$DW$277, DW_AT_name("PCLKCR3")
    2615                      .dwattr $C$DW$277, DW_AT_TI_symbol_name("_PCLKCR3")
    2616                      .dwattr $C$DW$277, DW_AT_bit_offset(0x09), DW_AT_bit_size(0x01)
    2617                      .dwattr $C$DW$277, DW_AT_data_member_location[DW_OP_plus_uconst 0x0]
    2618                      .dwattr $C$DW$277, DW_AT_accessibility(DW_ACCESS_public)
    2619              $C$DW$278       .dwtag  DW_TAG_member
    2620                      .dwattr $C$DW$278, DW_AT_type(*$C$DW$T$19)
    2621                      .dwattr $C$DW$278, DW_AT_name("PCLKCR4")
    2622                      .dwattr $C$DW$278, DW_AT_TI_symbol_name("_PCLKCR4")
    2623                      .dwattr $C$DW$278, DW_AT_bit_offset(0x08), DW_AT_bit_size(0x01)
    2624                      .dwattr $C$DW$278, DW_AT_data_member_location[DW_OP_plus_uconst 0x0]
    2625                      .dwattr $C$DW$278, DW_AT_accessibility(DW_ACCESS_public)
    2626              $C$DW$279       .dwtag  DW_TAG_member
    2627                      .dwattr $C$DW$279, DW_AT_type(*$C$DW$T$19)
    2628                      .dwattr $C$DW$279, DW_AT_name("PCLKCR5")
    2629                      .dwattr $C$DW$279, DW_AT_TI_symbol_name("_PCLKCR5")
    2630                      .dwattr $C$DW$279, DW_AT_bit_offset(0x07), DW_AT_bit_size(0x01)
    2631                      .dwattr $C$DW$279, DW_AT_data_member_location[DW_OP_plus_uconst 0x0]
    2632                      .dwattr $C$DW$279, DW_AT_accessibility(DW_ACCESS_public)
    2633              $C$DW$280       .dwtag  DW_TAG_member
TMS320C2000 Assembler PC v6.1.3 Tue Oct 01 15:27:17 2013

Tools Copyright (c) 1996-2012 Texas Instruments Incorporated
C:\Users\a0272466\AppData\Local\Temp\0493210                         PAGE   50

    2634                      .dwattr $C$DW$280, DW_AT_type(*$C$DW$T$19)
    2635                      .dwattr $C$DW$280, DW_AT_name("PCLKCR6")
    2636                      .dwattr $C$DW$280, DW_AT_TI_symbol_name("_PCLKCR6")
    2637                      .dwattr $C$DW$280, DW_AT_bit_offset(0x06), DW_AT_bit_size(0x01)
    2638                      .dwattr $C$DW$280, DW_AT_data_member_location[DW_OP_plus_uconst 0x0]
    2639                      .dwattr $C$DW$280, DW_AT_accessibility(DW_ACCESS_public)
    2640              $C$DW$281       .dwtag  DW_TAG_member
    2641                      .dwattr $C$DW$281, DW_AT_type(*$C$DW$T$19)
    2642                      .dwattr $C$DW$281, DW_AT_name("PCLKCR7")
    2643                      .dwattr $C$DW$281, DW_AT_TI_symbol_name("_PCLKCR7")
    2644                      .dwattr $C$DW$281, DW_AT_bit_offset(0x05), DW_AT_bit_size(0x01)
    2645                      .dwattr $C$DW$281, DW_AT_data_member_location[DW_OP_plus_uconst 0x0]
    2646                      .dwattr $C$DW$281, DW_AT_accessibility(DW_ACCESS_public)
    2647              $C$DW$282       .dwtag  DW_TAG_member
    2648                      .dwattr $C$DW$282, DW_AT_type(*$C$DW$T$19)
    2649                      .dwattr $C$DW$282, DW_AT_name("PCLKCR8")
    2650                      .dwattr $C$DW$282, DW_AT_TI_symbol_name("_PCLKCR8")
    2651                      .dwattr $C$DW$282, DW_AT_bit_offset(0x04), DW_AT_bit_size(0x01)
    2652                      .dwattr $C$DW$282, DW_AT_data_member_location[DW_OP_plus_uconst 0x0]
    2653                      .dwattr $C$DW$282, DW_AT_accessibility(DW_ACCESS_public)
    2654              $C$DW$283       .dwtag  DW_TAG_member
    2655                      .dwattr $C$DW$283, DW_AT_type(*$C$DW$T$19)
    2656                      .dwattr $C$DW$283, DW_AT_name("PCLKCR9")
    2657                      .dwattr $C$DW$283, DW_AT_TI_symbol_name("_PCLKCR9")
    2658                      .dwattr $C$DW$283, DW_AT_bit_offset(0x03), DW_AT_bit_size(0x01)
    2659                      .dwattr $C$DW$283, DW_AT_data_member_location[DW_OP_plus_uconst 0x0]
    2660                      .dwattr $C$DW$283, DW_AT_accessibility(DW_ACCESS_public)
    2661              $C$DW$284       .dwtag  DW_TAG_member
    2662                      .dwattr $C$DW$284, DW_AT_type(*$C$DW$T$19)
    2663                      .dwattr $C$DW$284, DW_AT_name("PCLKCR10")
    2664                      .dwattr $C$DW$284, DW_AT_TI_symbol_name("_PCLKCR10")
    2665                      .dwattr $C$DW$284, DW_AT_bit_offset(0x02), DW_AT_bit_size(0x01)
    2666                      .dwattr $C$DW$284, DW_AT_data_member_location[DW_OP_plus_uconst 0x0]
    2667                      .dwattr $C$DW$284, DW_AT_accessibility(DW_ACCESS_public)
    2668              $C$DW$285       .dwtag  DW_TAG_member
    2669                      .dwattr $C$DW$285, DW_AT_type(*$C$DW$T$19)
    2670                      .dwattr $C$DW$285, DW_AT_name("PCLKCR11")
    2671                      .dwattr $C$DW$285, DW_AT_TI_symbol_name("_PCLKCR11")
    2672                      .dwattr $C$DW$285, DW_AT_bit_offset(0x01), DW_AT_bit_size(0x01)
    2673                      .dwattr $C$DW$285, DW_AT_data_member_location[DW_OP_plus_uconst 0x0]
    2674                      .dwattr $C$DW$285, DW_AT_accessibility(DW_ACCESS_public)
    2675              $C$DW$286       .dwtag  DW_TAG_member
    2676                      .dwattr $C$DW$286, DW_AT_type(*$C$DW$T$19)
    2677                      .dwattr $C$DW$286, DW_AT_name("PCLKCR12")
    2678                      .dwattr $C$DW$286, DW_AT_TI_symbol_name("_PCLKCR12")
    2679                      .dwattr $C$DW$286, DW_AT_bit_offset(0x00), DW_AT_bit_size(0x01)
    2680                      .dwattr $C$DW$286, DW_AT_data_member_location[DW_OP_plus_uconst 0x0]
    2681                      .dwattr $C$DW$286, DW_AT_accessibility(DW_ACCESS_public)
    2682              $C$DW$287       .dwtag  DW_TAG_member
    2683                      .dwattr $C$DW$287, DW_AT_type(*$C$DW$T$19)
    2684                      .dwattr $C$DW$287, DW_AT_name("PCLKCR13")
    2685                      .dwattr $C$DW$287, DW_AT_TI_symbol_name("_PCLKCR13")
    2686                      .dwattr $C$DW$287, DW_AT_bit_offset(0x0f), DW_AT_bit_size(0x01)
    2687                      .dwattr $C$DW$287, DW_AT_data_member_location[DW_OP_plus_uconst 0x1]
    2688                      .dwattr $C$DW$287, DW_AT_accessibility(DW_ACCESS_public)
TMS320C2000 Assembler PC v6.1.3 Tue Oct 01 15:27:17 2013

Tools Copyright (c) 1996-2012 Texas Instruments Incorporated
C:\Users\a0272466\AppData\Local\Temp\0493210                         PAGE   51

    2689              $C$DW$288       .dwtag  DW_TAG_member
    2690                      .dwattr $C$DW$288, DW_AT_type(*$C$DW$T$19)
    2691                      .dwattr $C$DW$288, DW_AT_name("PCLKCR14")
    2692                      .dwattr $C$DW$288, DW_AT_TI_symbol_name("_PCLKCR14")
    2693                      .dwattr $C$DW$288, DW_AT_bit_offset(0x0e), DW_AT_bit_size(0x01)
    2694                      .dwattr $C$DW$288, DW_AT_data_member_location[DW_OP_plus_uconst 0x1]
    2695                      .dwattr $C$DW$288, DW_AT_accessibility(DW_ACCESS_public)
    2696              $C$DW$289       .dwtag  DW_TAG_member
    2697                      .dwattr $C$DW$289, DW_AT_type(*$C$DW$T$19)
    2698                      .dwattr $C$DW$289, DW_AT_name("PCLKCR15")
    2699                      .dwattr $C$DW$289, DW_AT_TI_symbol_name("_PCLKCR15")
    2700                      .dwattr $C$DW$289, DW_AT_bit_offset(0x0d), DW_AT_bit_size(0x01)
    2701                      .dwattr $C$DW$289, DW_AT_data_member_location[DW_OP_plus_uconst 0x1]
    2702                      .dwattr $C$DW$289, DW_AT_accessibility(DW_ACCESS_public)
    2703              $C$DW$290       .dwtag  DW_TAG_member
    2704                      .dwattr $C$DW$290, DW_AT_type(*$C$DW$T$19)
    2705                      .dwattr $C$DW$290, DW_AT_name("PCLKCR16")
    2706                      .dwattr $C$DW$290, DW_AT_TI_symbol_name("_PCLKCR16")
    2707                      .dwattr $C$DW$290, DW_AT_bit_offset(0x0c), DW_AT_bit_size(0x01)
    2708                      .dwattr $C$DW$290, DW_AT_data_member_location[DW_OP_plus_uconst 0x1]
    2709                      .dwattr $C$DW$290, DW_AT_accessibility(DW_ACCESS_public)
    2710              $C$DW$291       .dwtag  DW_TAG_member
    2711                      .dwattr $C$DW$291, DW_AT_type(*$C$DW$T$19)
    2712                      .dwattr $C$DW$291, DW_AT_name("SECMSEL")
    2713                      .dwattr $C$DW$291, DW_AT_TI_symbol_name("_SECMSEL")
    2714                      .dwattr $C$DW$291, DW_AT_bit_offset(0x0b), DW_AT_bit_size(0x01)
    2715                      .dwattr $C$DW$291, DW_AT_data_member_location[DW_OP_plus_uconst 0x1]
    2716                      .dwattr $C$DW$291, DW_AT_accessibility(DW_ACCESS_public)
    2717              $C$DW$292       .dwtag  DW_TAG_member
    2718                      .dwattr $C$DW$292, DW_AT_type(*$C$DW$T$19)
    2719                      .dwattr $C$DW$292, DW_AT_name("LPMCR")
    2720                      .dwattr $C$DW$292, DW_AT_TI_symbol_name("_LPMCR")
    2721                      .dwattr $C$DW$292, DW_AT_bit_offset(0x0a), DW_AT_bit_size(0x01)
    2722                      .dwattr $C$DW$292, DW_AT_data_member_location[DW_OP_plus_uconst 0x1]
    2723                      .dwattr $C$DW$292, DW_AT_accessibility(DW_ACCESS_public)
    2724              $C$DW$293       .dwtag  DW_TAG_member
    2725                      .dwattr $C$DW$293, DW_AT_type(*$C$DW$T$19)
    2726                      .dwattr $C$DW$293, DW_AT_name("GPIOLPMSEL0")
    2727                      .dwattr $C$DW$293, DW_AT_TI_symbol_name("_GPIOLPMSEL0")
    2728                      .dwattr $C$DW$293, DW_AT_bit_offset(0x09), DW_AT_bit_size(0x01)
    2729                      .dwattr $C$DW$293, DW_AT_data_member_location[DW_OP_plus_uconst 0x1]
    2730                      .dwattr $C$DW$293, DW_AT_accessibility(DW_ACCESS_public)
    2731              $C$DW$294       .dwtag  DW_TAG_member
    2732                      .dwattr $C$DW$294, DW_AT_type(*$C$DW$T$19)
    2733                      .dwattr $C$DW$294, DW_AT_name("GPIOLPMSEL1")
    2734                      .dwattr $C$DW$294, DW_AT_TI_symbol_name("_GPIOLPMSEL1")
    2735                      .dwattr $C$DW$294, DW_AT_bit_offset(0x08), DW_AT_bit_size(0x01)
    2736                      .dwattr $C$DW$294, DW_AT_data_member_location[DW_OP_plus_uconst 0x1]
    2737                      .dwattr $C$DW$294, DW_AT_accessibility(DW_ACCESS_public)
    2738              $C$DW$295       .dwtag  DW_TAG_member
    2739                      .dwattr $C$DW$295, DW_AT_type(*$C$DW$T$19)
    2740                      .dwattr $C$DW$295, DW_AT_name("rsvd1")
    2741                      .dwattr $C$DW$295, DW_AT_TI_symbol_name("_rsvd1")
    2742                      .dwattr $C$DW$295, DW_AT_bit_offset(0x00), DW_AT_bit_size(0x08)
    2743                      .dwattr $C$DW$295, DW_AT_data_member_location[DW_OP_plus_uconst 0x1]
TMS320C2000 Assembler PC v6.1.3 Tue Oct 01 15:27:17 2013

Tools Copyright (c) 1996-2012 Texas Instruments Incorporated
C:\Users\a0272466\AppData\Local\Temp\0493210                         PAGE   52

    2744                      .dwattr $C$DW$295, DW_AT_accessibility(DW_ACCESS_public)
    2745                      .dwendtag $C$DW$T$72
    2746              
    2747              
    2748              $C$DW$T$73      .dwtag  DW_TAG_union_type
    2749                      .dwattr $C$DW$T$73, DW_AT_name("CPUSYSLOCK1_REG")
    2750                      .dwattr $C$DW$T$73, DW_AT_byte_size(0x02)
    2751              $C$DW$296       .dwtag  DW_TAG_member
    2752                      .dwattr $C$DW$296, DW_AT_type(*$C$DW$T$21)
    2753                      .dwattr $C$DW$296, DW_AT_name("all")
    2754                      .dwattr $C$DW$296, DW_AT_TI_symbol_name("_all")
    2755                      .dwattr $C$DW$296, DW_AT_data_member_location[DW_OP_plus_uconst 0x0]
    2756                      .dwattr $C$DW$296, DW_AT_accessibility(DW_ACCESS_public)
    2757              $C$DW$297       .dwtag  DW_TAG_member
    2758                      .dwattr $C$DW$297, DW_AT_type(*$C$DW$T$72)
    2759                      .dwattr $C$DW$297, DW_AT_name("bit")
    2760                      .dwattr $C$DW$297, DW_AT_TI_symbol_name("_bit")
    2761                      .dwattr $C$DW$297, DW_AT_data_member_location[DW_OP_plus_uconst 0x0]
    2762                      .dwattr $C$DW$297, DW_AT_accessibility(DW_ACCESS_public)
    2763                      .dwendtag $C$DW$T$73
    2764              
    2765              
    2766              $C$DW$T$76      .dwtag  DW_TAG_structure_type
    2767                      .dwattr $C$DW$T$76, DW_AT_name("CPU_SYS_REGS")
    2768                      .dwattr $C$DW$T$76, DW_AT_byte_size(0x82)
    2769              $C$DW$298       .dwtag  DW_TAG_member
    2770                      .dwattr $C$DW$298, DW_AT_type(*$C$DW$T$73)
    2771                      .dwattr $C$DW$298, DW_AT_name("CPUSYSLOCK1")
    2772                      .dwattr $C$DW$298, DW_AT_TI_symbol_name("_CPUSYSLOCK1")
    2773                      .dwattr $C$DW$298, DW_AT_data_member_location[DW_OP_plus_uconst 0x0]
    2774                      .dwattr $C$DW$298, DW_AT_accessibility(DW_ACCESS_public)
    2775              $C$DW$299       .dwtag  DW_TAG_member
    2776                      .dwattr $C$DW$299, DW_AT_type(*$C$DW$T$41)
    2777                      .dwattr $C$DW$299, DW_AT_name("rsvd1")
    2778                      .dwattr $C$DW$299, DW_AT_TI_symbol_name("_rsvd1")
    2779                      .dwattr $C$DW$299, DW_AT_data_member_location[DW_OP_plus_uconst 0x2]
    2780                      .dwattr $C$DW$299, DW_AT_accessibility(DW_ACCESS_public)
    2781              $C$DW$300       .dwtag  DW_TAG_member
    2782                      .dwattr $C$DW$300, DW_AT_type(*$C$DW$T$21)
    2783                      .dwattr $C$DW$300, DW_AT_name("HIBBOOTMODE")
    2784                      .dwattr $C$DW$300, DW_AT_TI_symbol_name("_HIBBOOTMODE")
    2785                      .dwattr $C$DW$300, DW_AT_data_member_location[DW_OP_plus_uconst 0x6]
    2786                      .dwattr $C$DW$300, DW_AT_accessibility(DW_ACCESS_public)
    2787              $C$DW$301       .dwtag  DW_TAG_member
    2788                      .dwattr $C$DW$301, DW_AT_type(*$C$DW$T$399)
    2789                      .dwattr $C$DW$301, DW_AT_name("IORESTOREADDR")
    2790                      .dwattr $C$DW$301, DW_AT_TI_symbol_name("_IORESTOREADDR")
    2791                      .dwattr $C$DW$301, DW_AT_data_member_location[DW_OP_plus_uconst 0x8]
    2792                      .dwattr $C$DW$301, DW_AT_accessibility(DW_ACCESS_public)
    2793              $C$DW$302       .dwtag  DW_TAG_member
    2794                      .dwattr $C$DW$302, DW_AT_type(*$C$DW$T$447)
    2795                      .dwattr $C$DW$302, DW_AT_name("PIEVERRADDR")
    2796                      .dwattr $C$DW$302, DW_AT_TI_symbol_name("_PIEVERRADDR")
    2797                      .dwattr $C$DW$302, DW_AT_data_member_location[DW_OP_plus_uconst 0xa]
    2798                      .dwattr $C$DW$302, DW_AT_accessibility(DW_ACCESS_public)
TMS320C2000 Assembler PC v6.1.3 Tue Oct 01 15:27:17 2013

Tools Copyright (c) 1996-2012 Texas Instruments Incorporated
C:\Users\a0272466\AppData\Local\Temp\0493210                         PAGE   53

    2799              $C$DW$303       .dwtag  DW_TAG_member
    2800                      .dwattr $C$DW$303, DW_AT_type(*$C$DW$T$74)
    2801                      .dwattr $C$DW$303, DW_AT_name("rsvd2")
    2802                      .dwattr $C$DW$303, DW_AT_TI_symbol_name("_rsvd2")
    2803                      .dwattr $C$DW$303, DW_AT_data_member_location[DW_OP_plus_uconst 0xc]
    2804                      .dwattr $C$DW$303, DW_AT_accessibility(DW_ACCESS_public)
    2805              $C$DW$304       .dwtag  DW_TAG_member
    2806                      .dwattr $C$DW$304, DW_AT_type(*$C$DW$T$411)
    2807                      .dwattr $C$DW$304, DW_AT_name("PCLKCR0")
    2808                      .dwattr $C$DW$304, DW_AT_TI_symbol_name("_PCLKCR0")
    2809                      .dwattr $C$DW$304, DW_AT_data_member_location[DW_OP_plus_uconst 0x22]
    2810                      .dwattr $C$DW$304, DW_AT_accessibility(DW_ACCESS_public)
    2811              $C$DW$305       .dwtag  DW_TAG_member
    2812                      .dwattr $C$DW$305, DW_AT_type(*$C$DW$T$425)
    2813                      .dwattr $C$DW$305, DW_AT_name("PCLKCR1")
    2814                      .dwattr $C$DW$305, DW_AT_TI_symbol_name("_PCLKCR1")
    2815                      .dwattr $C$DW$305, DW_AT_data_member_location[DW_OP_plus_uconst 0x24]
    2816                      .dwattr $C$DW$305, DW_AT_accessibility(DW_ACCESS_public)
    2817              $C$DW$306       .dwtag  DW_TAG_member
    2818                      .dwattr $C$DW$306, DW_AT_type(*$C$DW$T$427)
    2819                      .dwattr $C$DW$306, DW_AT_name("PCLKCR2")
    2820                      .dwattr $C$DW$306, DW_AT_TI_symbol_name("_PCLKCR2")
    2821                      .dwattr $C$DW$306, DW_AT_data_member_location[DW_OP_plus_uconst 0x26]
    2822                      .dwattr $C$DW$306, DW_AT_accessibility(DW_ACCESS_public)
    2823              $C$DW$307       .dwtag  DW_TAG_member
    2824                      .dwattr $C$DW$307, DW_AT_type(*$C$DW$T$429)
    2825                      .dwattr $C$DW$307, DW_AT_name("PCLKCR3")
    2826                      .dwattr $C$DW$307, DW_AT_TI_symbol_name("_PCLKCR3")
    2827                      .dwattr $C$DW$307, DW_AT_data_member_location[DW_OP_plus_uconst 0x28]
    2828                      .dwattr $C$DW$307, DW_AT_accessibility(DW_ACCESS_public)
    2829              $C$DW$308       .dwtag  DW_TAG_member
    2830                      .dwattr $C$DW$308, DW_AT_type(*$C$DW$T$431)
    2831                      .dwattr $C$DW$308, DW_AT_name("PCLKCR4")
    2832                      .dwattr $C$DW$308, DW_AT_TI_symbol_name("_PCLKCR4")
    2833                      .dwattr $C$DW$308, DW_AT_data_member_location[DW_OP_plus_uconst 0x2a]
    2834                      .dwattr $C$DW$308, DW_AT_accessibility(DW_ACCESS_public)
    2835              $C$DW$309       .dwtag  DW_TAG_member
    2836                      .dwattr $C$DW$309, DW_AT_type(*$C$DW$T$433)
    2837                      .dwattr $C$DW$309, DW_AT_name("PCLKCR5")
    2838                      .dwattr $C$DW$309, DW_AT_TI_symbol_name("_PCLKCR5")
    2839                      .dwattr $C$DW$309, DW_AT_data_member_location[DW_OP_plus_uconst 0x2c]
    2840                      .dwattr $C$DW$309, DW_AT_accessibility(DW_ACCESS_public)
    2841              $C$DW$310       .dwtag  DW_TAG_member
    2842                      .dwattr $C$DW$310, DW_AT_type(*$C$DW$T$435)
    2843                      .dwattr $C$DW$310, DW_AT_name("PCLKCR6")
    2844                      .dwattr $C$DW$310, DW_AT_TI_symbol_name("_PCLKCR6")
    2845                      .dwattr $C$DW$310, DW_AT_data_member_location[DW_OP_plus_uconst 0x2e]
    2846                      .dwattr $C$DW$310, DW_AT_accessibility(DW_ACCESS_public)
    2847              $C$DW$311       .dwtag  DW_TAG_member
    2848                      .dwattr $C$DW$311, DW_AT_type(*$C$DW$T$437)
    2849                      .dwattr $C$DW$311, DW_AT_name("PCLKCR7")
    2850                      .dwattr $C$DW$311, DW_AT_TI_symbol_name("_PCLKCR7")
    2851                      .dwattr $C$DW$311, DW_AT_data_member_location[DW_OP_plus_uconst 0x30]
    2852                      .dwattr $C$DW$311, DW_AT_accessibility(DW_ACCESS_public)
    2853              $C$DW$312       .dwtag  DW_TAG_member
TMS320C2000 Assembler PC v6.1.3 Tue Oct 01 15:27:17 2013

Tools Copyright (c) 1996-2012 Texas Instruments Incorporated
C:\Users\a0272466\AppData\Local\Temp\0493210                         PAGE   54

    2854                      .dwattr $C$DW$312, DW_AT_type(*$C$DW$T$439)
    2855                      .dwattr $C$DW$312, DW_AT_name("PCLKCR8")
    2856                      .dwattr $C$DW$312, DW_AT_TI_symbol_name("_PCLKCR8")
    2857                      .dwattr $C$DW$312, DW_AT_data_member_location[DW_OP_plus_uconst 0x32]
    2858                      .dwattr $C$DW$312, DW_AT_accessibility(DW_ACCESS_public)
    2859              $C$DW$313       .dwtag  DW_TAG_member
    2860                      .dwattr $C$DW$313, DW_AT_type(*$C$DW$T$441)
    2861                      .dwattr $C$DW$313, DW_AT_name("PCLKCR9")
    2862                      .dwattr $C$DW$313, DW_AT_TI_symbol_name("_PCLKCR9")
    2863                      .dwattr $C$DW$313, DW_AT_data_member_location[DW_OP_plus_uconst 0x34]
    2864                      .dwattr $C$DW$313, DW_AT_accessibility(DW_ACCESS_public)
    2865              $C$DW$314       .dwtag  DW_TAG_member
    2866                      .dwattr $C$DW$314, DW_AT_type(*$C$DW$T$413)
    2867                      .dwattr $C$DW$314, DW_AT_name("PCLKCR10")
    2868                      .dwattr $C$DW$314, DW_AT_TI_symbol_name("_PCLKCR10")
    2869                      .dwattr $C$DW$314, DW_AT_data_member_location[DW_OP_plus_uconst 0x36]
    2870                      .dwattr $C$DW$314, DW_AT_accessibility(DW_ACCESS_public)
    2871              $C$DW$315       .dwtag  DW_TAG_member
    2872                      .dwattr $C$DW$315, DW_AT_type(*$C$DW$T$415)
    2873                      .dwattr $C$DW$315, DW_AT_name("PCLKCR11")
    2874                      .dwattr $C$DW$315, DW_AT_TI_symbol_name("_PCLKCR11")
    2875                      .dwattr $C$DW$315, DW_AT_data_member_location[DW_OP_plus_uconst 0x38]
    2876                      .dwattr $C$DW$315, DW_AT_accessibility(DW_ACCESS_public)
    2877              $C$DW$316       .dwtag  DW_TAG_member
    2878                      .dwattr $C$DW$316, DW_AT_type(*$C$DW$T$417)
    2879                      .dwattr $C$DW$316, DW_AT_name("PCLKCR12")
    2880                      .dwattr $C$DW$316, DW_AT_TI_symbol_name("_PCLKCR12")
    2881                      .dwattr $C$DW$316, DW_AT_data_member_location[DW_OP_plus_uconst 0x3a]
    2882                      .dwattr $C$DW$316, DW_AT_accessibility(DW_ACCESS_public)
    2883              $C$DW$317       .dwtag  DW_TAG_member
    2884                      .dwattr $C$DW$317, DW_AT_type(*$C$DW$T$419)
    2885                      .dwattr $C$DW$317, DW_AT_name("PCLKCR13")
    2886                      .dwattr $C$DW$317, DW_AT_TI_symbol_name("_PCLKCR13")
    2887                      .dwattr $C$DW$317, DW_AT_data_member_location[DW_OP_plus_uconst 0x3c]
    2888                      .dwattr $C$DW$317, DW_AT_accessibility(DW_ACCESS_public)
    2889              $C$DW$318       .dwtag  DW_TAG_member
    2890                      .dwattr $C$DW$318, DW_AT_type(*$C$DW$T$421)
    2891                      .dwattr $C$DW$318, DW_AT_name("PCLKCR14")
    2892                      .dwattr $C$DW$318, DW_AT_TI_symbol_name("_PCLKCR14")
    2893                      .dwattr $C$DW$318, DW_AT_data_member_location[DW_OP_plus_uconst 0x3e]
    2894                      .dwattr $C$DW$318, DW_AT_accessibility(DW_ACCESS_public)
    2895              $C$DW$319       .dwtag  DW_TAG_member
    2896                      .dwattr $C$DW$319, DW_AT_type(*$C$DW$T$42)
    2897                      .dwattr $C$DW$319, DW_AT_name("rsvd3")
    2898                      .dwattr $C$DW$319, DW_AT_TI_symbol_name("_rsvd3")
    2899                      .dwattr $C$DW$319, DW_AT_data_member_location[DW_OP_plus_uconst 0x40]
    2900                      .dwattr $C$DW$319, DW_AT_accessibility(DW_ACCESS_public)
    2901              $C$DW$320       .dwtag  DW_TAG_member
    2902                      .dwattr $C$DW$320, DW_AT_type(*$C$DW$T$423)
    2903                      .dwattr $C$DW$320, DW_AT_name("PCLKCR16")
    2904                      .dwattr $C$DW$320, DW_AT_TI_symbol_name("_PCLKCR16")
    2905                      .dwattr $C$DW$320, DW_AT_data_member_location[DW_OP_plus_uconst 0x42]
    2906                      .dwattr $C$DW$320, DW_AT_accessibility(DW_ACCESS_public)
    2907              $C$DW$321       .dwtag  DW_TAG_member
    2908                      .dwattr $C$DW$321, DW_AT_type(*$C$DW$T$75)
TMS320C2000 Assembler PC v6.1.3 Tue Oct 01 15:27:17 2013

Tools Copyright (c) 1996-2012 Texas Instruments Incorporated
C:\Users\a0272466\AppData\Local\Temp\0493210                         PAGE   55

    2909                      .dwattr $C$DW$321, DW_AT_name("rsvd4")
    2910                      .dwattr $C$DW$321, DW_AT_TI_symbol_name("_rsvd4")
    2911                      .dwattr $C$DW$321, DW_AT_data_member_location[DW_OP_plus_uconst 0x44]
    2912                      .dwattr $C$DW$321, DW_AT_accessibility(DW_ACCESS_public)
    2913              $C$DW$322       .dwtag  DW_TAG_member
    2914                      .dwattr $C$DW$322, DW_AT_type(*$C$DW$T$30)
    2915                      .dwattr $C$DW$322, DW_AT_name("CCR")
    2916                      .dwattr $C$DW$322, DW_AT_TI_symbol_name("_CCR")
    2917                      .dwattr $C$DW$322, DW_AT_data_member_location[DW_OP_plus_uconst 0x72]
    2918                      .dwattr $C$DW$322, DW_AT_accessibility(DW_ACCESS_public)
    2919              $C$DW$323       .dwtag  DW_TAG_member
    2920                      .dwattr $C$DW$323, DW_AT_type(*$C$DW$T$455)
    2921                      .dwattr $C$DW$323, DW_AT_name("SECMSEL")
    2922                      .dwattr $C$DW$323, DW_AT_TI_symbol_name("_SECMSEL")
    2923                      .dwattr $C$DW$323, DW_AT_data_member_location[DW_OP_plus_uconst 0x74]
    2924                      .dwattr $C$DW$323, DW_AT_accessibility(DW_ACCESS_public)
    2925              $C$DW$324       .dwtag  DW_TAG_member
    2926                      .dwattr $C$DW$324, DW_AT_type(*$C$DW$T$403)
    2927                      .dwattr $C$DW$324, DW_AT_name("LPMCR")
    2928                      .dwattr $C$DW$324, DW_AT_TI_symbol_name("_LPMCR")
    2929                      .dwattr $C$DW$324, DW_AT_data_member_location[DW_OP_plus_uconst 0x76]
    2930                      .dwattr $C$DW$324, DW_AT_accessibility(DW_ACCESS_public)
    2931              $C$DW$325       .dwtag  DW_TAG_member
    2932                      .dwattr $C$DW$325, DW_AT_type(*$C$DW$T$391)
    2933                      .dwattr $C$DW$325, DW_AT_name("GPIOLPMSEL0")
    2934                      .dwattr $C$DW$325, DW_AT_TI_symbol_name("_GPIOLPMSEL0")
    2935                      .dwattr $C$DW$325, DW_AT_data_member_location[DW_OP_plus_uconst 0x78]
    2936                      .dwattr $C$DW$325, DW_AT_accessibility(DW_ACCESS_public)
    2937              $C$DW$326       .dwtag  DW_TAG_member
    2938                      .dwattr $C$DW$326, DW_AT_type(*$C$DW$T$393)
    2939                      .dwattr $C$DW$326, DW_AT_name("GPIOLPMSEL1")
    2940                      .dwattr $C$DW$326, DW_AT_TI_symbol_name("_GPIOLPMSEL1")
    2941                      .dwattr $C$DW$326, DW_AT_data_member_location[DW_OP_plus_uconst 0x7a]
    2942                      .dwattr $C$DW$326, DW_AT_accessibility(DW_ACCESS_public)
    2943              $C$DW$327       .dwtag  DW_TAG_member
    2944                      .dwattr $C$DW$327, DW_AT_type(*$C$DW$T$514)
    2945                      .dwattr $C$DW$327, DW_AT_name("TMR2CLKCTL")
    2946                      .dwattr $C$DW$327, DW_AT_TI_symbol_name("_TMR2CLKCTL")
    2947                      .dwattr $C$DW$327, DW_AT_data_member_location[DW_OP_plus_uconst 0x7c]
    2948                      .dwattr $C$DW$327, DW_AT_accessibility(DW_ACCESS_public)
    2949              $C$DW$328       .dwtag  DW_TAG_member
    2950                      .dwattr $C$DW$328, DW_AT_type(*$C$DW$T$42)
    2951                      .dwattr $C$DW$328, DW_AT_name("rsvd5")
    2952                      .dwattr $C$DW$328, DW_AT_TI_symbol_name("_rsvd5")
    2953                      .dwattr $C$DW$328, DW_AT_data_member_location[DW_OP_plus_uconst 0x7e]
    2954                      .dwattr $C$DW$328, DW_AT_accessibility(DW_ACCESS_public)
    2955              $C$DW$329       .dwtag  DW_TAG_member
    2956                      .dwattr $C$DW$329, DW_AT_type(*$C$DW$T$451)
    2957                      .dwattr $C$DW$329, DW_AT_name("RESC")
    2958                      .dwattr $C$DW$329, DW_AT_TI_symbol_name("_RESC")
    2959                      .dwattr $C$DW$329, DW_AT_data_member_location[DW_OP_plus_uconst 0x80]
    2960                      .dwattr $C$DW$329, DW_AT_accessibility(DW_ACCESS_public)
    2961                      .dwendtag $C$DW$T$76
    2962              
    2963              $C$DW$330       .dwtag  DW_TAG_TI_far_type
TMS320C2000 Assembler PC v6.1.3 Tue Oct 01 15:27:17 2013

Tools Copyright (c) 1996-2012 Texas Instruments Incorporated
C:\Users\a0272466\AppData\Local\Temp\0493210                         PAGE   56

    2964                      .dwattr $C$DW$330, DW_AT_type(*$C$DW$T$76)
    2965              $C$DW$T$520     .dwtag  DW_TAG_volatile_type
    2966                      .dwattr $C$DW$T$520, DW_AT_type(*$C$DW$330)
    2967              
    2968              $C$DW$T$77      .dwtag  DW_TAG_structure_type
    2969                      .dwattr $C$DW$T$77, DW_AT_name("DC0_BITS")
    2970                      .dwattr $C$DW$T$77, DW_AT_byte_size(0x02)
    2971              $C$DW$331       .dwtag  DW_TAG_member
    2972                      .dwattr $C$DW$331, DW_AT_type(*$C$DW$T$19)
    2973                      .dwattr $C$DW$331, DW_AT_name("SINGLE_CORE")
    2974                      .dwattr $C$DW$331, DW_AT_TI_symbol_name("_SINGLE_CORE")
    2975                      .dwattr $C$DW$331, DW_AT_bit_offset(0x0f), DW_AT_bit_size(0x01)
    2976                      .dwattr $C$DW$331, DW_AT_data_member_location[DW_OP_plus_uconst 0x0]
    2977                      .dwattr $C$DW$331, DW_AT_accessibility(DW_ACCESS_public)
    2978              $C$DW$332       .dwtag  DW_TAG_member
    2979                      .dwattr $C$DW$332, DW_AT_type(*$C$DW$T$19)
    2980                      .dwattr $C$DW$332, DW_AT_name("rsvd1")
    2981                      .dwattr $C$DW$332, DW_AT_TI_symbol_name("_rsvd1")
    2982                      .dwattr $C$DW$332, DW_AT_bit_offset(0x00), DW_AT_bit_size(0x0f)
    2983                      .dwattr $C$DW$332, DW_AT_data_member_location[DW_OP_plus_uconst 0x0]
    2984                      .dwattr $C$DW$332, DW_AT_accessibility(DW_ACCESS_public)
    2985              $C$DW$333       .dwtag  DW_TAG_member
    2986                      .dwattr $C$DW$333, DW_AT_type(*$C$DW$T$19)
    2987                      .dwattr $C$DW$333, DW_AT_name("rsvd2")
    2988                      .dwattr $C$DW$333, DW_AT_TI_symbol_name("_rsvd2")
    2989                      .dwattr $C$DW$333, DW_AT_bit_offset(0x00), DW_AT_bit_size(0x10)
    2990                      .dwattr $C$DW$333, DW_AT_data_member_location[DW_OP_plus_uconst 0x1]
    2991                      .dwattr $C$DW$333, DW_AT_accessibility(DW_ACCESS_public)
    2992                      .dwendtag $C$DW$T$77
    2993              
    2994              
    2995              $C$DW$T$78      .dwtag  DW_TAG_union_type
    2996                      .dwattr $C$DW$T$78, DW_AT_name("DC0_REG")
    2997                      .dwattr $C$DW$T$78, DW_AT_byte_size(0x02)
    2998              $C$DW$334       .dwtag  DW_TAG_member
    2999                      .dwattr $C$DW$334, DW_AT_type(*$C$DW$T$21)
    3000                      .dwattr $C$DW$334, DW_AT_name("all")
    3001                      .dwattr $C$DW$334, DW_AT_TI_symbol_name("_all")
    3002                      .dwattr $C$DW$334, DW_AT_data_member_location[DW_OP_plus_uconst 0x0]
    3003                      .dwattr $C$DW$334, DW_AT_accessibility(DW_ACCESS_public)
    3004              $C$DW$335       .dwtag  DW_TAG_member
    3005                      .dwattr $C$DW$335, DW_AT_type(*$C$DW$T$77)
    3006                      .dwattr $C$DW$335, DW_AT_name("bit")
    3007                      .dwattr $C$DW$335, DW_AT_TI_symbol_name("_bit")
    3008                      .dwattr $C$DW$335, DW_AT_data_member_location[DW_OP_plus_uconst 0x0]
    3009                      .dwattr $C$DW$335, DW_AT_accessibility(DW_ACCESS_public)
    3010                      .dwendtag $C$DW$T$78
    3011              
    3012              
    3013              $C$DW$T$79      .dwtag  DW_TAG_structure_type
    3014                      .dwattr $C$DW$T$79, DW_AT_name("DC10_BITS")
    3015                      .dwattr $C$DW$T$79, DW_AT_byte_size(0x02)
    3016              $C$DW$336       .dwtag  DW_TAG_member
    3017                      .dwattr $C$DW$336, DW_AT_type(*$C$DW$T$19)
    3018                      .dwattr $C$DW$336, DW_AT_name("I2C_A")
TMS320C2000 Assembler PC v6.1.3 Tue Oct 01 15:27:17 2013

Tools Copyright (c) 1996-2012 Texas Instruments Incorporated
C:\Users\a0272466\AppData\Local\Temp\0493210                         PAGE   57

    3019                      .dwattr $C$DW$336, DW_AT_TI_symbol_name("_I2C_A")
    3020                      .dwattr $C$DW$336, DW_AT_bit_offset(0x0f), DW_AT_bit_size(0x01)
    3021                      .dwattr $C$DW$336, DW_AT_data_member_location[DW_OP_plus_uconst 0x0]
    3022                      .dwattr $C$DW$336, DW_AT_accessibility(DW_ACCESS_public)
    3023              $C$DW$337       .dwtag  DW_TAG_member
    3024                      .dwattr $C$DW$337, DW_AT_type(*$C$DW$T$19)
    3025                      .dwattr $C$DW$337, DW_AT_name("I2C_B")
    3026                      .dwattr $C$DW$337, DW_AT_TI_symbol_name("_I2C_B")
    3027                      .dwattr $C$DW$337, DW_AT_bit_offset(0x0e), DW_AT_bit_size(0x01)
    3028                      .dwattr $C$DW$337, DW_AT_data_member_location[DW_OP_plus_uconst 0x0]
    3029                      .dwattr $C$DW$337, DW_AT_accessibility(DW_ACCESS_public)
    3030              $C$DW$338       .dwtag  DW_TAG_member
    3031                      .dwattr $C$DW$338, DW_AT_type(*$C$DW$T$19)
    3032                      .dwattr $C$DW$338, DW_AT_name("rsvd1")
    3033                      .dwattr $C$DW$338, DW_AT_TI_symbol_name("_rsvd1")
    3034                      .dwattr $C$DW$338, DW_AT_bit_offset(0x00), DW_AT_bit_size(0x0e)
    3035                      .dwattr $C$DW$338, DW_AT_data_member_location[DW_OP_plus_uconst 0x0]
    3036                      .dwattr $C$DW$338, DW_AT_accessibility(DW_ACCESS_public)
    3037              $C$DW$339       .dwtag  DW_TAG_member
    3038                      .dwattr $C$DW$339, DW_AT_type(*$C$DW$T$19)
    3039                      .dwattr $C$DW$339, DW_AT_name("rsvd2")
    3040                      .dwattr $C$DW$339, DW_AT_TI_symbol_name("_rsvd2")
    3041                      .dwattr $C$DW$339, DW_AT_bit_offset(0x00), DW_AT_bit_size(0x10)
    3042                      .dwattr $C$DW$339, DW_AT_data_member_location[DW_OP_plus_uconst 0x1]
    3043                      .dwattr $C$DW$339, DW_AT_accessibility(DW_ACCESS_public)
    3044                      .dwendtag $C$DW$T$79
    3045              
    3046              
    3047              $C$DW$T$80      .dwtag  DW_TAG_union_type
    3048                      .dwattr $C$DW$T$80, DW_AT_name("DC10_REG")
    3049                      .dwattr $C$DW$T$80, DW_AT_byte_size(0x02)
    3050              $C$DW$340       .dwtag  DW_TAG_member
    3051                      .dwattr $C$DW$340, DW_AT_type(*$C$DW$T$21)
    3052                      .dwattr $C$DW$340, DW_AT_name("all")
    3053                      .dwattr $C$DW$340, DW_AT_TI_symbol_name("_all")
    3054                      .dwattr $C$DW$340, DW_AT_data_member_location[DW_OP_plus_uconst 0x0]
    3055                      .dwattr $C$DW$340, DW_AT_accessibility(DW_ACCESS_public)
    3056              $C$DW$341       .dwtag  DW_TAG_member
    3057                      .dwattr $C$DW$341, DW_AT_type(*$C$DW$T$79)
    3058                      .dwattr $C$DW$341, DW_AT_name("bit")
    3059                      .dwattr $C$DW$341, DW_AT_TI_symbol_name("_bit")
    3060                      .dwattr $C$DW$341, DW_AT_data_member_location[DW_OP_plus_uconst 0x0]
    3061                      .dwattr $C$DW$341, DW_AT_accessibility(DW_ACCESS_public)
    3062                      .dwendtag $C$DW$T$80
    3063              
    3064              
    3065              $C$DW$T$81      .dwtag  DW_TAG_structure_type
    3066                      .dwattr $C$DW$T$81, DW_AT_name("DC11_BITS")
    3067                      .dwattr $C$DW$T$81, DW_AT_byte_size(0x02)
    3068              $C$DW$342       .dwtag  DW_TAG_member
    3069                      .dwattr $C$DW$342, DW_AT_type(*$C$DW$T$19)
    3070                      .dwattr $C$DW$342, DW_AT_name("CAN_A")
    3071                      .dwattr $C$DW$342, DW_AT_TI_symbol_name("_CAN_A")
    3072                      .dwattr $C$DW$342, DW_AT_bit_offset(0x0f), DW_AT_bit_size(0x01)
    3073                      .dwattr $C$DW$342, DW_AT_data_member_location[DW_OP_plus_uconst 0x0]
TMS320C2000 Assembler PC v6.1.3 Tue Oct 01 15:27:17 2013

Tools Copyright (c) 1996-2012 Texas Instruments Incorporated
C:\Users\a0272466\AppData\Local\Temp\0493210                         PAGE   58

    3074                      .dwattr $C$DW$342, DW_AT_accessibility(DW_ACCESS_public)
    3075              $C$DW$343       .dwtag  DW_TAG_member
    3076                      .dwattr $C$DW$343, DW_AT_type(*$C$DW$T$19)
    3077                      .dwattr $C$DW$343, DW_AT_name("CAN_B")
    3078                      .dwattr $C$DW$343, DW_AT_TI_symbol_name("_CAN_B")
    3079                      .dwattr $C$DW$343, DW_AT_bit_offset(0x0e), DW_AT_bit_size(0x01)
    3080                      .dwattr $C$DW$343, DW_AT_data_member_location[DW_OP_plus_uconst 0x0]
    3081                      .dwattr $C$DW$343, DW_AT_accessibility(DW_ACCESS_public)
    3082              $C$DW$344       .dwtag  DW_TAG_member
    3083                      .dwattr $C$DW$344, DW_AT_type(*$C$DW$T$19)
    3084                      .dwattr $C$DW$344, DW_AT_name("rsvd1")
    3085                      .dwattr $C$DW$344, DW_AT_TI_symbol_name("_rsvd1")
    3086                      .dwattr $C$DW$344, DW_AT_bit_offset(0x00), DW_AT_bit_size(0x0e)
    3087                      .dwattr $C$DW$344, DW_AT_data_member_location[DW_OP_plus_uconst 0x0]
    3088                      .dwattr $C$DW$344, DW_AT_accessibility(DW_ACCESS_public)
    3089              $C$DW$345       .dwtag  DW_TAG_member
    3090                      .dwattr $C$DW$345, DW_AT_type(*$C$DW$T$19)
    3091                      .dwattr $C$DW$345, DW_AT_name("rsvd2")
    3092                      .dwattr $C$DW$345, DW_AT_TI_symbol_name("_rsvd2")
    3093                      .dwattr $C$DW$345, DW_AT_bit_offset(0x00), DW_AT_bit_size(0x10)
    3094                      .dwattr $C$DW$345, DW_AT_data_member_location[DW_OP_plus_uconst 0x1]
    3095                      .dwattr $C$DW$345, DW_AT_accessibility(DW_ACCESS_public)
    3096                      .dwendtag $C$DW$T$81
    3097              
    3098              
    3099              $C$DW$T$82      .dwtag  DW_TAG_union_type
    3100                      .dwattr $C$DW$T$82, DW_AT_name("DC11_REG")
    3101                      .dwattr $C$DW$T$82, DW_AT_byte_size(0x02)
    3102              $C$DW$346       .dwtag  DW_TAG_member
    3103                      .dwattr $C$DW$346, DW_AT_type(*$C$DW$T$21)
    3104                      .dwattr $C$DW$346, DW_AT_name("all")
    3105                      .dwattr $C$DW$346, DW_AT_TI_symbol_name("_all")
    3106                      .dwattr $C$DW$346, DW_AT_data_member_location[DW_OP_plus_uconst 0x0]
    3107                      .dwattr $C$DW$346, DW_AT_accessibility(DW_ACCESS_public)
    3108              $C$DW$347       .dwtag  DW_TAG_member
    3109                      .dwattr $C$DW$347, DW_AT_type(*$C$DW$T$81)
    3110                      .dwattr $C$DW$347, DW_AT_name("bit")
    3111                      .dwattr $C$DW$347, DW_AT_TI_symbol_name("_bit")
    3112                      .dwattr $C$DW$347, DW_AT_data_member_location[DW_OP_plus_uconst 0x0]
    3113                      .dwattr $C$DW$347, DW_AT_accessibility(DW_ACCESS_public)
    3114                      .dwendtag $C$DW$T$82
    3115              
    3116              
    3117              $C$DW$T$83      .dwtag  DW_TAG_structure_type
    3118                      .dwattr $C$DW$T$83, DW_AT_name("DC12_BITS")
    3119                      .dwattr $C$DW$T$83, DW_AT_byte_size(0x02)
    3120              $C$DW$348       .dwtag  DW_TAG_member
    3121                      .dwattr $C$DW$348, DW_AT_type(*$C$DW$T$19)
    3122                      .dwattr $C$DW$348, DW_AT_name("McBSP_A")
    3123                      .dwattr $C$DW$348, DW_AT_TI_symbol_name("_McBSP_A")
    3124                      .dwattr $C$DW$348, DW_AT_bit_offset(0x0f), DW_AT_bit_size(0x01)
    3125                      .dwattr $C$DW$348, DW_AT_data_member_location[DW_OP_plus_uconst 0x0]
    3126                      .dwattr $C$DW$348, DW_AT_accessibility(DW_ACCESS_public)
    3127              $C$DW$349       .dwtag  DW_TAG_member
    3128                      .dwattr $C$DW$349, DW_AT_type(*$C$DW$T$19)
TMS320C2000 Assembler PC v6.1.3 Tue Oct 01 15:27:17 2013

Tools Copyright (c) 1996-2012 Texas Instruments Incorporated
C:\Users\a0272466\AppData\Local\Temp\0493210                         PAGE   59

    3129                      .dwattr $C$DW$349, DW_AT_name("McBSP_B")
    3130                      .dwattr $C$DW$349, DW_AT_TI_symbol_name("_McBSP_B")
    3131                      .dwattr $C$DW$349, DW_AT_bit_offset(0x0e), DW_AT_bit_size(0x01)
