TMS320C2000 Assembler PC v6.1.3 Tue Oct 01 15:28:07 2013

Tools Copyright (c) 1996-2012 Texas Instruments Incorporated
C:\Users\a0272466\AppData\Local\Temp\0414810                         PAGE    1

       1              ;***************************************************************
       2              ;* TMS320C2000 C/C++ Codegen                         PC v6.1.3 *
       3              ;* Date/Time created: Tue Oct 01 15:28:07 2013                 *
       4              ;***************************************************************
       5                      .compiler_opts --float_support=fpu32 --hll_source=on --mem_model:code=flat --mem_model:data=large --o
       6        0002  FP      .set    XAR2
       7              
       8              $C$DW$CU        .dwtag  DW_TAG_compile_unit
       9                      .dwattr $C$DW$CU, DW_AT_name("C:/work/grepos/device_support/device_support/f2837x/F2837x_bootROM_dev/
      10                      .dwattr $C$DW$CU, DW_AT_producer("TMS320C2000 C/C++ Codegen PC v6.1.3 Copyright (c) 1996-2012 Texas I
      11                      .dwattr $C$DW$CU, DW_AT_TI_version(0x01)
      12                      .dwattr $C$DW$CU, DW_AT_comp_dir("C:\work\grepos\device_support\device_support\f2837x\F2837x_bootROM_
      13              
      14              $C$DW$1 .dwtag  DW_TAG_subprogram, DW_AT_name("CopyData")
      15                      .dwattr $C$DW$1, DW_AT_TI_symbol_name("_CopyData")
      16                      .dwattr $C$DW$1, DW_AT_declaration
      17                      .dwattr $C$DW$1, DW_AT_external
      18              
      19              $C$DW$2 .dwtag  DW_TAG_subprogram, DW_AT_name("ReadReservedFn")
      20                      .dwattr $C$DW$2, DW_AT_TI_symbol_name("_ReadReservedFn")
      21                      .dwattr $C$DW$2, DW_AT_declaration
      22                      .dwattr $C$DW$2, DW_AT_external
      23              $C$DW$3 .dwtag  DW_TAG_variable, DW_AT_name("GetWordData")
      24                      .dwattr $C$DW$3, DW_AT_TI_symbol_name("_GetWordData")
      25                      .dwattr $C$DW$3, DW_AT_type(*$C$DW$T$184)
      26                      .dwattr $C$DW$3, DW_AT_declaration
      27                      .dwattr $C$DW$3, DW_AT_external
      28              
      29              $C$DW$4 .dwtag  DW_TAG_subprogram, DW_AT_name("GetLongData")
      30                      .dwattr $C$DW$4, DW_AT_TI_symbol_name("_GetLongData")
      31                      .dwattr $C$DW$4, DW_AT_type(*$C$DW$T$21)
      32                      .dwattr $C$DW$4, DW_AT_declaration
      33                      .dwattr $C$DW$4, DW_AT_external
      34              $C$DW$5 .dwtag  DW_TAG_variable, DW_AT_name("CpuSysRegs")
      35                      .dwattr $C$DW$5, DW_AT_TI_symbol_name("_CpuSysRegs")
      36                      .dwattr $C$DW$5, DW_AT_type(*$C$DW$T$172)
      37                      .dwattr $C$DW$5, DW_AT_declaration
      38                      .dwattr $C$DW$5, DW_AT_external
      39              $C$DW$6 .dwtag  DW_TAG_variable, DW_AT_name("DcanaRegs")
      40                      .dwattr $C$DW$6, DW_AT_TI_symbol_name("_DcanaRegs")
      41                      .dwattr $C$DW$6, DW_AT_type(*$C$DW$T$173)
      42                      .dwattr $C$DW$6, DW_AT_declaration
      43                      .dwattr $C$DW$6, DW_AT_external
      44              ;       C:\ti\ccsv5\tools\compiler\c2000_6.1.3\bin\ac2000.exe -@C:\\Users\\a0272466\\AppData\\Local\\Temp\\04
      45 00000000               .sect   ".text"
      46                      .global _DCAN_Boot
      47              
      48              $C$DW$7 .dwtag  DW_TAG_subprogram, DW_AT_name("DCAN_Boot")
      49                      .dwattr $C$DW$7, DW_AT_low_pc(_DCAN_Boot)
      50                      .dwattr $C$DW$7, DW_AT_high_pc(0x00)
      51                      .dwattr $C$DW$7, DW_AT_TI_symbol_name("_DCAN_Boot")
      52                      .dwattr $C$DW$7, DW_AT_external
      53                      .dwattr $C$DW$7, DW_AT_type(*$C$DW$T$21)
      54                      .dwattr $C$DW$7, DW_AT_TI_begin_file("C:/work/grepos/device_support/device_support/f2837x/F2837x_boot
      55                      .dwattr $C$DW$7, DW_AT_TI_begin_line(0x48)
TMS320C2000 Assembler PC v6.1.3 Tue Oct 01 15:28:07 2013

Tools Copyright (c) 1996-2012 Texas Instruments Incorporated
C:\Users\a0272466\AppData\Local\Temp\0414810                         PAGE    2

      56                      .dwattr $C$DW$7, DW_AT_TI_begin_column(0x08)
      57                      .dwattr $C$DW$7, DW_AT_TI_max_frame_size(-6)
      58                      .dwpsn  file "C:/work/grepos/device_support/device_support/f2837x/F2837x_bootROM_dev/F2837x_bootROM/c
      59              
      60                      .dwfde $C$DW$CIE, _DCAN_Boot
      61              $C$DW$8 .dwtag  DW_TAG_formal_parameter, DW_AT_name("bootMode")
      62                      .dwattr $C$DW$8, DW_AT_TI_symbol_name("_bootMode")
      63                      .dwattr $C$DW$8, DW_AT_type(*$C$DW$T$21)
      64                      .dwattr $C$DW$8, DW_AT_location[DW_OP_reg0]
      65              
      66              ;***************************************************************
      67              ;* FNAME: _DCAN_Boot                    FR SIZE:   4           *
      68              ;*                                                             *
      69              ;* FUNCTION ENVIRONMENT                                        *
      70              ;*                                                             *
      71              ;* FUNCTION PROPERTIES                                         *
      72              ;*                            0 Parameter,  4 Auto,  0 SOE     *
      73              ;***************************************************************
      74              
      75 00000000       _DCAN_Boot:
      76                      .dwcfi  cfa_offset, -2
      77                      .dwcfi  save_reg_to_mem, 26, 0
      78                      .dwcfi  save_reg_to_reg, 78, 26
      79 00000000 FE04          ADDB      SP,#4                 ; [CPU_U] 
      80                      .dwcfi  cfa_offset, -6
      81              $C$DW$9 .dwtag  DW_TAG_variable, DW_AT_name("bootMode")
      82                      .dwattr $C$DW$9, DW_AT_TI_symbol_name("_bootMode")
      83                      .dwattr $C$DW$9, DW_AT_type(*$C$DW$T$21)
      84                      .dwattr $C$DW$9, DW_AT_location[DW_OP_breg20 -2]
      85              $C$DW$10        .dwtag  DW_TAG_variable, DW_AT_name("entryAddr")
      86                      .dwattr $C$DW$10, DW_AT_TI_symbol_name("_entryAddr")
      87                      .dwattr $C$DW$10, DW_AT_type(*$C$DW$T$21)
      88                      .dwattr $C$DW$10, DW_AT_location[DW_OP_breg20 -4]
      89 00000001 1E42          MOVL      *-SP[2],ACC           ; [CPU_] |73| 
      90                      .dwpsn  file "C:/work/grepos/device_support/device_support/f2837x/F2837x_bootROM_dev/F2837x_bootROM/c
      91 00000002 8F08          MOVL      XAR4,#524288          ; [CPU_U] |74| 
         00000003 0000 
      92 00000004 A844          MOVL      *-SP[4],XAR4          ; [CPU_] |74| 
      93                      .dwpsn  file "C:/work/grepos/device_support/device_support/f2837x/F2837x_bootROM_dev/F2837x_bootROM/c
      94 00000005 761F!         MOVW      DP,#_GetWordData      ; [CPU_U] 
         00000006 0000 
      95 00000007 8F00'         MOVL      XAR4,#_DCAN_GetWordData ; [CPU_U] |84| 
         00000008 0069 
      96 00000009 A800!         MOVL      @_GetWordData,XAR4    ; [CPU_] |84| 
      97                      .dwpsn  file "C:/work/grepos/device_support/device_support/f2837x/F2837x_bootROM_dev/F2837x_bootROM/c
      98              $C$DW$11        .dwtag  DW_TAG_TI_branch
      99                      .dwattr $C$DW$11, DW_AT_low_pc(0x00)
     100                      .dwattr $C$DW$11, DW_AT_name("_DCAN_Boot_Init")
     101                      .dwattr $C$DW$11, DW_AT_TI_call
     102 0000000a 7640'         LCR       #_DCAN_Boot_Init      ; [CPU_] |95| 
         0000000b 0039 
     103                      ; call occurs [#_DCAN_Boot_Init] ; [] |95| 
     104                      .dwpsn  file "C:/work/grepos/device_support/device_support/f2837x/F2837x_bootROM_dev/F2837x_bootROM/c
     105 0000000c 8F07          MOVL      XAR4,#459740          ; [CPU_U] |97| 
         0000000d 03DC 
TMS320C2000 Assembler PC v6.1.3 Tue Oct 01 15:28:07 2013

Tools Copyright (c) 1996-2012 Texas Instruments Incorporated
C:\Users\a0272466\AppData\Local\Temp\0414810                         PAGE    3

     106 0000000e 06C4          MOVL      ACC,*+XAR4[0]         ; [CPU_] |97| 
     107 0000000f 1E44          MOVL      *-SP[4],ACC           ; [CPU_] |97| 
     108                      .dwpsn  file "C:/work/grepos/device_support/device_support/f2837x/F2837x_bootROM_dev/F2837x_bootROM/c
     109 00000010 0200          MOVB      ACC,#0                ; [CPU_] |98| 
     110 00000011 1901          SUBB      ACC,#1                ; [CPU_] |98| 
     111 00000012 0F44          CMPL      ACC,*-SP[4]           ; [CPU_] |98| 
     112 00000013 EC05          BF        $C$L1,EQ              ; [CPU_] |98| 
     113                      ; branchcc occurs ; [] |98| 
     114 00000014 0644          MOVL      ACC,*-SP[4]           ; [CPU_] |98| 
     115 00000015 EC03          BF        $C$L1,EQ              ; [CPU_] |98| 
     116                      ; branchcc occurs ; [] |98| 
     117                      .dwpsn  file "C:/work/grepos/device_support/device_support/f2837x/F2837x_bootROM_dev/F2837x_bootROM/c
     118 00000016 C544          MOVL      XAR7,*-SP[4]          ; [CPU_] |102| 
     119              $C$DW$12        .dwtag  DW_TAG_TI_branch
     120                      .dwattr $C$DW$12, DW_AT_low_pc(0x00)
     121                      .dwattr $C$DW$12, DW_AT_TI_call
     122                      .dwattr $C$DW$12, DW_AT_TI_indirect
     123 00000017 3E67          LCR       *XAR7                 ; [CPU_] |102| 
     124                      ; call occurs [XAR7] ; [] |102| 
     125 00000018       $C$L1:    
     126                      .dwpsn  file "C:/work/grepos/device_support/device_support/f2837x/F2837x_bootROM_dev/F2837x_bootROM/c
     127 00000018 4642          TBIT      *-SP[2],#6            ; [CPU_] |107| 
     128 00000019 EF09          BF        $C$L2,NTC             ; [CPU_] |107| 
     129                      ; branchcc occurs ; [] |107| 
     130                      .dwpsn  file "C:/work/grepos/device_support/device_support/f2837x/F2837x_bootROM_dev/F2837x_bootROM/c
     131 0000001a 28A9          MOV       AL,#800               ; [CPU_] |109| 
         0000001b 0320 
     132              $C$DW$13        .dwtag  DW_TAG_TI_branch
     133                      .dwattr $C$DW$13, DW_AT_low_pc(0x00)
     134                      .dwattr $C$DW$13, DW_AT_name("_DCAN_SendWordData")
     135                      .dwattr $C$DW$13, DW_AT_TI_call
     136 0000001c 7640'         LCR       #_DCAN_SendWordData   ; [CPU_] |109| 
         0000001d 0077 
     137                      ; call occurs [#_DCAN_SendWordData] ; [] |109| 
     138                      .dwpsn  file "C:/work/grepos/device_support/device_support/f2837x/F2837x_bootROM_dev/F2837x_bootROM/c
     139 0000001e 28A9          MOV       AL,#10295             ; [CPU_] |110| 
         0000001f 2837 
     140              $C$DW$14        .dwtag  DW_TAG_TI_branch
     141                      .dwattr $C$DW$14, DW_AT_low_pc(0x00)
     142                      .dwattr $C$DW$14, DW_AT_name("_DCAN_SendWordData")
     143                      .dwattr $C$DW$14, DW_AT_TI_call
     144 00000020 7640'         LCR       #_DCAN_SendWordData   ; [CPU_] |110| 
         00000021 0077 
     145                      ; call occurs [#_DCAN_SendWordData] ; [] |110| 
     146 00000022       $C$L2:    
     147                      .dwpsn  file "C:/work/grepos/device_support/device_support/f2837x/F2837x_bootROM_dev/F2837x_bootROM/c
     148              $C$DW$15        .dwtag  DW_TAG_TI_branch
     149                      .dwattr $C$DW$15, DW_AT_low_pc(0x00)
     150                      .dwattr $C$DW$15, DW_AT_name("_DCAN_GetWordData")
     151                      .dwattr $C$DW$15, DW_AT_TI_call
     152 00000022 7640'         LCR       #_DCAN_GetWordData    ; [CPU_] |115| 
         00000023 0069 
     153                      ; call occurs [#_DCAN_GetWordData] ; [] |115| 
     154 00000024 1BA9          CMP       AL,#2218              ; [CPU_] |115| 
         00000025 08AA 
TMS320C2000 Assembler PC v6.1.3 Tue Oct 01 15:28:07 2013

Tools Copyright (c) 1996-2012 Texas Instruments Incorporated
C:\Users\a0272466\AppData\Local\Temp\0414810                         PAGE    4

     155 00000026 EC04          BF        $C$L3,EQ              ; [CPU_] |115| 
     156                      ; branchcc occurs ; [] |115| 
     157                      .dwpsn  file "C:/work/grepos/device_support/device_support/f2837x/F2837x_bootROM_dev/F2837x_bootROM/c
     158 00000027 8F08          MOVL      XAR4,#524288          ; [CPU_U] |116| 
         00000028 0000 
     159 00000029 6F09          B         $C$L4,UNC             ; [CPU_] |116| 
     160                      ; branch occurs ; [] |116| 
     161 0000002a       $C$L3:    
     162                      .dwpsn  file "C:/work/grepos/device_support/device_support/f2837x/F2837x_bootROM_dev/F2837x_bootROM/c
     163              $C$DW$16        .dwtag  DW_TAG_TI_branch
     164                      .dwattr $C$DW$16, DW_AT_low_pc(0x00)
     165                      .dwattr $C$DW$16, DW_AT_name("_ReadReservedFn")
     166                      .dwattr $C$DW$16, DW_AT_TI_call
     167 0000002a 7640!         LCR       #_ReadReservedFn      ; [CPU_] |119| 
         0000002b 0000 
     168                      ; call occurs [#_ReadReservedFn] ; [] |119| 
     169                      .dwpsn  file "C:/work/grepos/device_support/device_support/f2837x/F2837x_bootROM_dev/F2837x_bootROM/c
     170              $C$DW$17        .dwtag  DW_TAG_TI_branch
     171                      .dwattr $C$DW$17, DW_AT_low_pc(0x00)
     172                      .dwattr $C$DW$17, DW_AT_name("_GetLongData")
     173                      .dwattr $C$DW$17, DW_AT_TI_call
     174 0000002c 7640!         LCR       #_GetLongData         ; [CPU_] |120| 
         0000002d 0000 
     175                      ; call occurs [#_GetLongData] ; [] |120| 
     176 0000002e 1E44          MOVL      *-SP[4],ACC           ; [CPU_] |120| 
     177                      .dwpsn  file "C:/work/grepos/device_support/device_support/f2837x/F2837x_bootROM_dev/F2837x_bootROM/c
     178              $C$DW$18        .dwtag  DW_TAG_TI_branch
     179                      .dwattr $C$DW$18, DW_AT_low_pc(0x00)
     180                      .dwattr $C$DW$18, DW_AT_name("_CopyData")
     181                      .dwattr $C$DW$18, DW_AT_TI_call
     182 0000002f 7640!         LCR       #_CopyData            ; [CPU_] |121| 
         00000030 0000 
     183                      ; call occurs [#_CopyData] ; [] |121| 
     184                      .dwpsn  file "C:/work/grepos/device_support/device_support/f2837x/F2837x_bootROM_dev/F2837x_bootROM/c
     185 00000031 8A44          MOVL      XAR4,*-SP[4]          ; [CPU_] |123| 
     186 00000032       $C$L4:    
     187                      .dwpsn  file "C:/work/grepos/device_support/device_support/f2837x/F2837x_bootROM_dev/F2837x_bootROM/c
     188 00000032 A8A9          MOVL      ACC,XAR4              ; [CPU_] |123| 
     189 00000033 FE84          SUBB      SP,#4                 ; [CPU_U] |123| 
     190                      .dwcfi  cfa_offset, -2
     191              $C$DW$19        .dwtag  DW_TAG_TI_branch
     192                      .dwattr $C$DW$19, DW_AT_low_pc(0x00)
     193                      .dwattr $C$DW$19, DW_AT_TI_return
     194 00000034 0006          LRETR     ; [CPU_] 
     195                      ; return occurs ; [] 
     196                      .dwattr $C$DW$7, DW_AT_TI_end_file("C:/work/grepos/device_support/device_support/f2837x/F2837x_bootRO
     197                      .dwattr $C$DW$7, DW_AT_TI_end_line(0x7c)
     198                      .dwattr $C$DW$7, DW_AT_TI_end_column(0x01)
     199                      .dwendentry
     200                      .dwendtag $C$DW$7
     201              
     202 00000035               .sect   ".text"
     203                      .global _DCAN_Boot_Gpio
     204              
     205              $C$DW$20        .dwtag  DW_TAG_subprogram, DW_AT_name("DCAN_Boot_Gpio")
TMS320C2000 Assembler PC v6.1.3 Tue Oct 01 15:28:07 2013

Tools Copyright (c) 1996-2012 Texas Instruments Incorporated
C:\Users\a0272466\AppData\Local\Temp\0414810                         PAGE    5

     206                      .dwattr $C$DW$20, DW_AT_low_pc(_DCAN_Boot_Gpio)
     207                      .dwattr $C$DW$20, DW_AT_high_pc(0x00)
     208                      .dwattr $C$DW$20, DW_AT_TI_symbol_name("_DCAN_Boot_Gpio")
     209                      .dwattr $C$DW$20, DW_AT_external
     210                      .dwattr $C$DW$20, DW_AT_TI_begin_file("C:/work/grepos/device_support/device_support/f2837x/F2837x_boo
     211                      .dwattr $C$DW$20, DW_AT_TI_begin_line(0x80)
     212                      .dwattr $C$DW$20, DW_AT_TI_begin_column(0x06)
     213                      .dwattr $C$DW$20, DW_AT_TI_max_frame_size(-4)
     214                      .dwpsn  file "C:/work/grepos/device_support/device_support/f2837x/F2837x_bootROM_dev/F2837x_bootROM/c
     215              
     216                      .dwfde $C$DW$CIE, _DCAN_Boot_Gpio
     217              $C$DW$21        .dwtag  DW_TAG_formal_parameter, DW_AT_name("gpioSelect")
     218                      .dwattr $C$DW$21, DW_AT_TI_symbol_name("_gpioSelect")
     219                      .dwattr $C$DW$21, DW_AT_type(*$C$DW$T$19)
     220                      .dwattr $C$DW$21, DW_AT_location[DW_OP_reg0]
     221              
     222              ;***************************************************************
     223              ;* FNAME: _DCAN_Boot_Gpio               FR SIZE:   2           *
     224              ;*                                                             *
     225              ;* FUNCTION ENVIRONMENT                                        *
     226              ;*                                                             *
     227              ;* FUNCTION PROPERTIES                                         *
     228              ;*                            0 Parameter,  1 Auto,  0 SOE     *
     229              ;***************************************************************
     230              
     231 00000035       _DCAN_Boot_Gpio:
     232                      .dwcfi  cfa_offset, -2
     233                      .dwcfi  save_reg_to_mem, 26, 0
     234                      .dwcfi  save_reg_to_reg, 78, 26
     235 00000035 FE02          ADDB      SP,#2                 ; [CPU_U] 
     236                      .dwcfi  cfa_offset, -4
     237              $C$DW$22        .dwtag  DW_TAG_variable, DW_AT_name("gpioSelect")
     238                      .dwattr $C$DW$22, DW_AT_TI_symbol_name("_gpioSelect")
     239                      .dwattr $C$DW$22, DW_AT_type(*$C$DW$T$19)
     240                      .dwattr $C$DW$22, DW_AT_location[DW_OP_breg20 -1]
     241 00000036 9641          MOV       *-SP[1],AL            ; [CPU_] |129| 
     242                      .dwpsn  file "C:/work/grepos/device_support/device_support/f2837x/F2837x_bootROM_dev/F2837x_bootROM/c
     243 00000037 FE82          SUBB      SP,#2                 ; [CPU_U] 
     244                      .dwcfi  cfa_offset, -2
     245              $C$DW$23        .dwtag  DW_TAG_TI_branch
     246                      .dwattr $C$DW$23, DW_AT_low_pc(0x00)
     247                      .dwattr $C$DW$23, DW_AT_TI_return
     248 00000038 0006          LRETR     ; [CPU_] 
     249                      ; return occurs ; [] 
     250                      .dwattr $C$DW$20, DW_AT_TI_end_file("C:/work/grepos/device_support/device_support/f2837x/F2837x_bootR
     251                      .dwattr $C$DW$20, DW_AT_TI_end_line(0xb4)
     252                      .dwattr $C$DW$20, DW_AT_TI_end_column(0x01)
     253                      .dwendentry
     254                      .dwendtag $C$DW$20
     255              
     256 00000039               .sect   ".text"
     257                      .global _DCAN_Boot_Init
     258              
     259              $C$DW$24        .dwtag  DW_TAG_subprogram, DW_AT_name("DCAN_Boot_Init")
     260                      .dwattr $C$DW$24, DW_AT_low_pc(_DCAN_Boot_Init)
TMS320C2000 Assembler PC v6.1.3 Tue Oct 01 15:28:07 2013

Tools Copyright (c) 1996-2012 Texas Instruments Incorporated
C:\Users\a0272466\AppData\Local\Temp\0414810                         PAGE    6

     261                      .dwattr $C$DW$24, DW_AT_high_pc(0x00)
     262                      .dwattr $C$DW$24, DW_AT_TI_symbol_name("_DCAN_Boot_Init")
     263                      .dwattr $C$DW$24, DW_AT_external
     264                      .dwattr $C$DW$24, DW_AT_TI_begin_file("C:/work/grepos/device_support/device_support/f2837x/F2837x_boo
     265                      .dwattr $C$DW$24, DW_AT_TI_begin_line(0xb8)
     266                      .dwattr $C$DW$24, DW_AT_TI_begin_column(0x06)
     267                      .dwattr $C$DW$24, DW_AT_TI_max_frame_size(-2)
     268                      .dwpsn  file "C:/work/grepos/device_support/device_support/f2837x/F2837x_bootROM_dev/F2837x_bootROM/c
     269              
     270                      .dwfde $C$DW$CIE, _DCAN_Boot_Init
     271              
     272              ;***************************************************************
     273              ;* FNAME: _DCAN_Boot_Init               FR SIZE:   0           *
     274              ;*                                                             *
     275              ;* FUNCTION ENVIRONMENT                                        *
     276              ;*                                                             *
     277              ;* FUNCTION PROPERTIES                                         *
     278              ;*                            0 Parameter,  0 Auto,  0 SOE     *
     279              ;***************************************************************
     280              
     281 00000039       _DCAN_Boot_Init:
     282                      .dwcfi  cfa_offset, -2
     283                      .dwcfi  save_reg_to_mem, 26, 0
     284                      .dwcfi  save_reg_to_reg, 78, 26
     285                      .dwpsn  file "C:/work/grepos/device_support/device_support/f2837x/F2837x_bootROM_dev/F2837x_bootROM/c
     286 00000039 7622   EALLOW
     287                      .dwpsn  file "C:/work/grepos/device_support/device_support/f2837x/F2837x_bootROM_dev/F2837x_bootROM/c
     288 0000003a 761F!         MOVW      DP,#_CpuSysRegs+54    ; [CPU_U] 
         0000003b 0000 
     289 0000003c 1A36!         OR        @_CpuSysRegs+54,#0x0001 ; [CPU_] |188| 
         0000003d 0001 
     290                      .dwpsn  file "C:/work/grepos/device_support/device_support/f2837x/F2837x_bootROM_dev/F2837x_bootROM/c
     291 0000003e 761A   EDIS
     292                      .dwpsn  file "C:/work/grepos/device_support/device_support/f2837x/F2837x_bootROM_dev/F2837x_bootROM/c
     293 0000003f 0201          MOVB      ACC,#1                ; [CPU_] |192| 
     294 00000040 761F!         MOVW      DP,#_DcanaRegs        ; [CPU_U] 
         00000041 0000 
     295 00000042 1E00!         MOVL      @_DcanaRegs,ACC       ; [CPU_] |192| 
     296                      .dwpsn  file "C:/work/grepos/device_support/device_support/f2837x/F2837x_bootROM_dev/F2837x_bootROM/c
     297 00000043 8F00          MOVL      XAR4,#32768           ; [CPU_U] |193| 
         00000044 8000 
     298 00000045 A800!         MOVL      @_DcanaRegs,XAR4      ; [CPU_] |193| 
     299                      .dwpsn  file "C:/work/grepos/device_support/device_support/f2837x/F2837x_bootROM_dev/F2837x_bootROM/c
     300 00000046 8F00          MOVL      XAR4,#5185            ; [CPU_U] |196| 
         00000047 1441 
     301 00000048 A800!         MOVL      @_DcanaRegs,XAR4      ; [CPU_] |196| 
     302                      .dwpsn  file "C:/work/grepos/device_support/device_support/f2837x/F2837x_bootROM_dev/F2837x_bootROM/c
     303 00000049 8F00          MOVL      XAR4,#31433           ; [CPU_U] |197| 
         0000004a 7AC9 
     304 0000004b A80C!         MOVL      @_DcanaRegs+12,XAR4   ; [CPU_] |197| 
     305                      .dwpsn  file "C:/work/grepos/device_support/device_support/f2837x/F2837x_bootROM_dev/F2837x_bootROM/c
     306 0000004c 8F00          MOVL      XAR4,#5120            ; [CPU_U] |198| 
         0000004d 1400 
     307 0000004e A800!         MOVL      @_DcanaRegs,XAR4      ; [CPU_] |198| 
     308                      .dwpsn  file "C:/work/grepos/device_support/device_support/f2837x/F2837x_bootROM_dev/F2837x_bootROM/c
TMS320C2000 Assembler PC v6.1.3 Tue Oct 01 15:28:07 2013

Tools Copyright (c) 1996-2012 Texas Instruments Incorporated
C:\Users\a0272466\AppData\Local\Temp\0414810                         PAGE    7

     309 0000004f 9A00          MOV       AL,#0                 ; [CPU_] |201| 
     310 00000050 28A8          MOV       AH,#32772             ; [CPU_] |201| 
         00000051 8004 
     311 00000052 761F!         MOVW      DP,#_DcanaRegs+264    ; [CPU_U] 
         00000053 0004 
     312 00000054 1E08!         MOVL      @_DcanaRegs+264,ACC   ; [CPU_] |201| 
     313                      .dwpsn  file "C:/work/grepos/device_support/device_support/f2837x/F2837x_bootROM_dev/F2837x_bootROM/c
     314 00000055 0202          MOVB      ACC,#2                ; [CPU_] |202| 
     315 00000056 1E0C!         MOVL      @_DcanaRegs+268,ACC   ; [CPU_] |202| 
     316                      .dwpsn  file "C:/work/grepos/device_support/device_support/f2837x/F2837x_bootROM_dev/F2837x_bootROM/c
     317 00000057 9A01          MOV       AL,#1                 ; [CPU_] |203| 
     318 00000058 9BF8          MOV       AH,#248               ; [CPU_] |203| 
     319 00000059 1E00!         MOVL      @_DcanaRegs+256,ACC   ; [CPU_] |203| 
     320                      .dwpsn  file "C:/work/grepos/device_support/device_support/f2837x/F2837x_bootROM_dev/F2837x_bootROM/c
     321 0000005a       $C$L5:    
     322 0000005a       $C$DW$L$_DCAN_Boot_Init$2$B:
     323 0000005a 4F00!         TBIT      @_DcanaRegs+256,#15   ; [CPU_] |204| 
     324 0000005b EEFF          BF        $C$L5,TC              ; [CPU_] |204| 
     325                      ; branchcc occurs ; [] |204| 
     326 0000005c       $C$DW$L$_DCAN_Boot_Init$2$E:
     327                      .dwpsn  file "C:/work/grepos/device_support/device_support/f2837x/F2837x_bootROM_dev/F2837x_bootROM/c
     328 0000005c 9A00          MOV       AL,#0                 ; [CPU_] |207| 
     329 0000005d 28A8          MOV       AH,#40968             ; [CPU_] |207| 
         0000005e A008 
     330 0000005f 1E28!         MOVL      @_DcanaRegs+296,ACC   ; [CPU_] |207| 
     331                      .dwpsn  file "C:/work/grepos/device_support/device_support/f2837x/F2837x_bootROM_dev/F2837x_bootROM/c
     332 00000060 0202          MOVB      ACC,#2                ; [CPU_] |208| 
     333 00000061 1E2C!         MOVL      @_DcanaRegs+300,ACC   ; [CPU_] |208| 
     334                      .dwpsn  file "C:/work/grepos/device_support/device_support/f2837x/F2837x_bootROM_dev/F2837x_bootROM/c
     335 00000062 9A02          MOV       AL,#2                 ; [CPU_] |209| 
     336 00000063 9BF8          MOV       AH,#248               ; [CPU_] |209| 
     337 00000064 1E20!         MOVL      @_DcanaRegs+288,ACC   ; [CPU_] |209| 
     338                      .dwpsn  file "C:/work/grepos/device_support/device_support/f2837x/F2837x_bootROM_dev/F2837x_bootROM/c
     339 00000065       $C$L6:    
     340 00000065       $C$DW$L$_DCAN_Boot_Init$4$B:
     341 00000065 4F20!         TBIT      @_DcanaRegs+288,#15   ; [CPU_] |210| 
     342 00000066 EEFF          BF        $C$L6,TC              ; [CPU_] |210| 
     343                      ; branchcc occurs ; [] |210| 
     344 00000067       $C$DW$L$_DCAN_Boot_Init$4$E:
     345                      .dwpsn  file "C:/work/grepos/device_support/device_support/f2837x/F2837x_bootROM_dev/F2837x_bootROM/c
     346 00000067 FF69          SPM       #0                    ; [CPU_] 
     347              $C$DW$25        .dwtag  DW_TAG_TI_branch
     348                      .dwattr $C$DW$25, DW_AT_low_pc(0x00)
     349                      .dwattr $C$DW$25, DW_AT_TI_return
     350 00000068 0006          LRETR     ; [CPU_] 
     351                      ; return occurs ; [] 
     352              
     353              $C$DW$26        .dwtag  DW_TAG_TI_loop
     354                      .dwattr $C$DW$26, DW_AT_name("C:\\Users\\a0272466\\AppData\\Local\\Temp\\0414810:$C$L6:1:1380659287")
     355                      .dwattr $C$DW$26, DW_AT_TI_begin_file("C:/work/grepos/device_support/device_support/f2837x/F2837x_boo
     356                      .dwattr $C$DW$26, DW_AT_TI_begin_line(0xd2)
     357                      .dwattr $C$DW$26, DW_AT_TI_end_line(0xd2)
     358              $C$DW$27        .dwtag  DW_TAG_TI_loop_range
     359                      .dwattr $C$DW$27, DW_AT_low_pc($C$DW$L$_DCAN_Boot_Init$4$B)
     360                      .dwattr $C$DW$27, DW_AT_high_pc($C$DW$L$_DCAN_Boot_Init$4$E)
TMS320C2000 Assembler PC v6.1.3 Tue Oct 01 15:28:07 2013

Tools Copyright (c) 1996-2012 Texas Instruments Incorporated
C:\Users\a0272466\AppData\Local\Temp\0414810                         PAGE    8

     361                      .dwendtag $C$DW$26
     362              
     363              
     364              $C$DW$28        .dwtag  DW_TAG_TI_loop
     365                      .dwattr $C$DW$28, DW_AT_name("C:\\Users\\a0272466\\AppData\\Local\\Temp\\0414810:$C$L5:1:1380659287")
     366                      .dwattr $C$DW$28, DW_AT_TI_begin_file("C:/work/grepos/device_support/device_support/f2837x/F2837x_boo
     367                      .dwattr $C$DW$28, DW_AT_TI_begin_line(0xcc)
     368                      .dwattr $C$DW$28, DW_AT_TI_end_line(0xcc)
     369              $C$DW$29        .dwtag  DW_TAG_TI_loop_range
     370                      .dwattr $C$DW$29, DW_AT_low_pc($C$DW$L$_DCAN_Boot_Init$2$B)
     371                      .dwattr $C$DW$29, DW_AT_high_pc($C$DW$L$_DCAN_Boot_Init$2$E)
     372                      .dwendtag $C$DW$28
     373              
     374                      .dwattr $C$DW$24, DW_AT_TI_end_file("C:/work/grepos/device_support/device_support/f2837x/F2837x_bootR
     375                      .dwattr $C$DW$24, DW_AT_TI_end_line(0xd3)
     376                      .dwattr $C$DW$24, DW_AT_TI_end_column(0x01)
     377                      .dwendentry
     378                      .dwendtag $C$DW$24
     379              
     380 00000069               .sect   ".text"
     381                      .global _DCAN_GetWordData
     382              
     383              $C$DW$30        .dwtag  DW_TAG_subprogram, DW_AT_name("DCAN_GetWordData")
     384                      .dwattr $C$DW$30, DW_AT_low_pc(_DCAN_GetWordData)
     385                      .dwattr $C$DW$30, DW_AT_high_pc(0x00)
     386                      .dwattr $C$DW$30, DW_AT_TI_symbol_name("_DCAN_GetWordData")
     387                      .dwattr $C$DW$30, DW_AT_external
     388                      .dwattr $C$DW$30, DW_AT_type(*$C$DW$T$19)
     389                      .dwattr $C$DW$30, DW_AT_TI_begin_file("C:/work/grepos/device_support/device_support/f2837x/F2837x_boo
     390                      .dwattr $C$DW$30, DW_AT_TI_begin_line(0xd7)
     391                      .dwattr $C$DW$30, DW_AT_TI_begin_column(0x08)
     392                      .dwattr $C$DW$30, DW_AT_TI_max_frame_size(-2)
     393                      .dwpsn  file "C:/work/grepos/device_support/device_support/f2837x/F2837x_bootROM_dev/F2837x_bootROM/c
     394              
     395                      .dwfde $C$DW$CIE, _DCAN_GetWordData
     396              
     397              ;***************************************************************
     398              ;* FNAME: _DCAN_GetWordData             FR SIZE:   0           *
     399              ;*                                                             *
     400              ;* FUNCTION ENVIRONMENT                                        *
     401              ;*                                                             *
     402              ;* FUNCTION PROPERTIES                                         *
     403              ;*                            0 Parameter,  0 Auto,  0 SOE     *
     404              ;***************************************************************
     405              
     406 00000069       _DCAN_GetWordData:
     407                      .dwcfi  cfa_offset, -2
     408                      .dwcfi  save_reg_to_mem, 26, 0
     409                      .dwcfi  save_reg_to_reg, 78, 26
     410                      .dwpsn  file "C:/work/grepos/device_support/device_support/f2837x/F2837x_bootROM_dev/F2837x_bootROM/c
     411 00000069       $C$L7:    
     412 00000069       $C$DW$L$_DCAN_GetWordData$2$B:
     413                      .dwpsn  file "C:/work/grepos/device_support/device_support/f2837x/F2837x_bootROM_dev/F2837x_bootROM/c
     414 00000069 0201          MOVB      ACC,#1                ; [CPU_] |218| 
     415 0000006a 761F!         MOVW      DP,#_DcanaRegs+156    ; [CPU_U] 
TMS320C2000 Assembler PC v6.1.3 Tue Oct 01 15:28:07 2013

Tools Copyright (c) 1996-2012 Texas Instruments Incorporated
C:\Users\a0272466\AppData\Local\Temp\0414810                         PAGE    9

         0000006b 0002 
     416 0000006c 0F1C!         CMPL      ACC,@_DcanaRegs+156   ; [CPU_] |218| 
     417 0000006d EDFC          BF        $C$L7,NEQ             ; [CPU_] |218| 
     418                      ; branchcc occurs ; [] |218| 
     419 0000006e       $C$DW$L$_DCAN_GetWordData$2$E:
     420                      .dwpsn  file "C:/work/grepos/device_support/device_support/f2837x/F2837x_bootROM_dev/F2837x_bootROM/c
     421 0000006e 8F07          MOVL      XAR4,#458753          ; [CPU_U] |221| 
         0000006f 0001 
     422 00000070 761F!         MOVW      DP,#_DcanaRegs+256    ; [CPU_U] 
         00000071 0004 
     423 00000072 A800!         MOVL      @_DcanaRegs+256,XAR4  ; [CPU_] |221| 
     424                      .dwpsn  file "C:/work/grepos/device_support/device_support/f2837x/F2837x_bootROM_dev/F2837x_bootROM/c
     425 00000073       $C$L8:    
     426 00000073       $C$DW$L$_DCAN_GetWordData$4$B:
     427 00000073 4F00!         TBIT      @_DcanaRegs+256,#15   ; [CPU_] |222| 
     428 00000074 EEFF          BF        $C$L8,TC              ; [CPU_] |222| 
     429                      ; branchcc occurs ; [] |222| 
     430 00000075       $C$DW$L$_DCAN_GetWordData$4$E:
     431                      .dwpsn  file "C:/work/grepos/device_support/device_support/f2837x/F2837x_bootROM_dev/F2837x_bootROM/c
     432 00000075 0610!         MOVL      ACC,@_DcanaRegs+272   ; [CPU_] |223| 
     433                      .dwpsn  file "C:/work/grepos/device_support/device_support/f2837x/F2837x_bootROM_dev/F2837x_bootROM/c
     434              $C$DW$31        .dwtag  DW_TAG_TI_branch
     435                      .dwattr $C$DW$31, DW_AT_low_pc(0x00)
     436                      .dwattr $C$DW$31, DW_AT_TI_return
     437 00000076 0006          LRETR     ; [CPU_] 
     438                      ; return occurs ; [] 
     439              
     440              $C$DW$32        .dwtag  DW_TAG_TI_loop
     441                      .dwattr $C$DW$32, DW_AT_name("C:\\Users\\a0272466\\AppData\\Local\\Temp\\0414810:$C$L8:1:1380659287")
     442                      .dwattr $C$DW$32, DW_AT_TI_begin_file("C:/work/grepos/device_support/device_support/f2837x/F2837x_boo
     443                      .dwattr $C$DW$32, DW_AT_TI_begin_line(0xde)
     444                      .dwattr $C$DW$32, DW_AT_TI_end_line(0xde)
     445              $C$DW$33        .dwtag  DW_TAG_TI_loop_range
     446                      .dwattr $C$DW$33, DW_AT_low_pc($C$DW$L$_DCAN_GetWordData$4$B)
     447                      .dwattr $C$DW$33, DW_AT_high_pc($C$DW$L$_DCAN_GetWordData$4$E)
     448                      .dwendtag $C$DW$32
     449              
     450              
     451              $C$DW$34        .dwtag  DW_TAG_TI_loop
     452                      .dwattr $C$DW$34, DW_AT_name("C:\\Users\\a0272466\\AppData\\Local\\Temp\\0414810:$C$L7:1:1380659287")
     453                      .dwattr $C$DW$34, DW_AT_TI_begin_file("C:/work/grepos/device_support/device_support/f2837x/F2837x_boo
     454                      .dwattr $C$DW$34, DW_AT_TI_begin_line(0xda)
     455                      .dwattr $C$DW$34, DW_AT_TI_end_line(0xda)
     456              $C$DW$35        .dwtag  DW_TAG_TI_loop_range
     457                      .dwattr $C$DW$35, DW_AT_low_pc($C$DW$L$_DCAN_GetWordData$2$B)
     458                      .dwattr $C$DW$35, DW_AT_high_pc($C$DW$L$_DCAN_GetWordData$2$E)
     459                      .dwendtag $C$DW$34
     460              
     461                      .dwattr $C$DW$30, DW_AT_TI_end_file("C:/work/grepos/device_support/device_support/f2837x/F2837x_bootR
     462                      .dwattr $C$DW$30, DW_AT_TI_end_line(0xe1)
     463                      .dwattr $C$DW$30, DW_AT_TI_end_column(0x01)
     464                      .dwendentry
     465                      .dwendtag $C$DW$30
     466              
     467 00000077               .sect   ".text"
TMS320C2000 Assembler PC v6.1.3 Tue Oct 01 15:28:07 2013

Tools Copyright (c) 1996-2012 Texas Instruments Incorporated
C:\Users\a0272466\AppData\Local\Temp\0414810                         PAGE   10

     468                      .global _DCAN_SendWordData
     469              
     470              $C$DW$36        .dwtag  DW_TAG_subprogram, DW_AT_name("DCAN_SendWordData")
     471                      .dwattr $C$DW$36, DW_AT_low_pc(_DCAN_SendWordData)
     472                      .dwattr $C$DW$36, DW_AT_high_pc(0x00)
     473                      .dwattr $C$DW$36, DW_AT_TI_symbol_name("_DCAN_SendWordData")
     474                      .dwattr $C$DW$36, DW_AT_external
     475                      .dwattr $C$DW$36, DW_AT_TI_begin_file("C:/work/grepos/device_support/device_support/f2837x/F2837x_boo
     476                      .dwattr $C$DW$36, DW_AT_TI_begin_line(0xe5)
     477                      .dwattr $C$DW$36, DW_AT_TI_begin_column(0x06)
     478                      .dwattr $C$DW$36, DW_AT_TI_max_frame_size(-4)
     479                      .dwpsn  file "C:/work/grepos/device_support/device_support/f2837x/F2837x_bootROM_dev/F2837x_bootROM/c
     480              
     481                      .dwfde $C$DW$CIE, _DCAN_SendWordData
     482              $C$DW$37        .dwtag  DW_TAG_formal_parameter, DW_AT_name("data")
     483                      .dwattr $C$DW$37, DW_AT_TI_symbol_name("_data")
     484                      .dwattr $C$DW$37, DW_AT_type(*$C$DW$T$19)
     485                      .dwattr $C$DW$37, DW_AT_location[DW_OP_reg0]
     486              
     487              ;***************************************************************
     488              ;* FNAME: _DCAN_SendWordData            FR SIZE:   2           *
     489              ;*                                                             *
     490              ;* FUNCTION ENVIRONMENT                                        *
     491              ;*                                                             *
     492              ;* FUNCTION PROPERTIES                                         *
     493              ;*                            0 Parameter,  1 Auto,  0 SOE     *
     494              ;***************************************************************
     495              
     496 00000077       _DCAN_SendWordData:
     497                      .dwcfi  cfa_offset, -2
     498                      .dwcfi  save_reg_to_mem, 26, 0
     499                      .dwcfi  save_reg_to_reg, 78, 26
     500 00000077 FE02          ADDB      SP,#2                 ; [CPU_U] 
     501                      .dwcfi  cfa_offset, -4
     502              $C$DW$38        .dwtag  DW_TAG_variable, DW_AT_name("data")
     503                      .dwattr $C$DW$38, DW_AT_TI_symbol_name("_data")
     504                      .dwattr $C$DW$38, DW_AT_type(*$C$DW$T$19)
     505                      .dwattr $C$DW$38, DW_AT_location[DW_OP_breg20 -1]
     506 00000078 9641          MOV       *-SP[1],AL            ; [CPU_] |230| 
     507                      .dwpsn  file "C:/work/grepos/device_support/device_support/f2837x/F2837x_bootROM_dev/F2837x_bootROM/c
     508 00000079 761F!         MOVW      DP,#_DcanaRegs+304    ; [CPU_U] 
         0000007a 0004 
     509 0000007b 0E41          MOVU      ACC,*-SP[1]           ; [CPU_] |231| 
     510 0000007c 1E30!         MOVL      @_DcanaRegs+304,ACC   ; [CPU_] |231| 
     511                      .dwpsn  file "C:/work/grepos/device_support/device_support/f2837x/F2837x_bootROM_dev/F2837x_bootROM/c
     512 0000007d 9A02          MOV       AL,#2                 ; [CPU_] |232| 
     513 0000007e 9B87          MOV       AH,#135               ; [CPU_] |232| 
     514 0000007f 1E20!         MOVL      @_DcanaRegs+288,ACC   ; [CPU_] |232| 
     515                      .dwpsn  file "C:/work/grepos/device_support/device_support/f2837x/F2837x_bootROM_dev/F2837x_bootROM/c
     516 00000080       $C$L9:    
     517 00000080       $C$DW$L$_DCAN_SendWordData$2$B:
     518 00000080 4F20!         TBIT      @_DcanaRegs+288,#15   ; [CPU_] |233| 
     519 00000081 EEFF          BF        $C$L9,TC              ; [CPU_] |233| 
     520                      ; branchcc occurs ; [] |233| 
     521 00000082       $C$DW$L$_DCAN_SendWordData$2$E:
TMS320C2000 Assembler PC v6.1.3 Tue Oct 01 15:28:07 2013

Tools Copyright (c) 1996-2012 Texas Instruments Incorporated
C:\Users\a0272466\AppData\Local\Temp\0414810                         PAGE   11

     522                      .dwpsn  file "C:/work/grepos/device_support/device_support/f2837x/F2837x_bootROM_dev/F2837x_bootROM/c
     523 00000082       $C$L10:    
     524 00000082       $C$DW$L$_DCAN_SendWordData$4$B:
     525 00000082 761F!         MOVW      DP,#_DcanaRegs+136    ; [CPU_U] 
         00000083 0002 
     526 00000084 4108!         TBIT      @_DcanaRegs+136,#1    ; [CPU_] |234| 
     527 00000085 EEFD          BF        $C$L10,TC             ; [CPU_] |234| 
     528                      ; branchcc occurs ; [] |234| 
     529 00000086       $C$DW$L$_DCAN_SendWordData$4$E:
     530                      .dwpsn  file "C:/work/grepos/device_support/device_support/f2837x/F2837x_bootROM_dev/F2837x_bootROM/c
     531 00000086 FE82          SUBB      SP,#2                 ; [CPU_U] 
     532                      .dwcfi  cfa_offset, -2
     533              $C$DW$39        .dwtag  DW_TAG_TI_branch
     534                      .dwattr $C$DW$39, DW_AT_low_pc(0x00)
     535                      .dwattr $C$DW$39, DW_AT_TI_return
     536 00000087 0006          LRETR     ; [CPU_] 
     537                      ; return occurs ; [] 
     538              
     539              $C$DW$40        .dwtag  DW_TAG_TI_loop
     540                      .dwattr $C$DW$40, DW_AT_name("C:\\Users\\a0272466\\AppData\\Local\\Temp\\0414810:$C$L10:1:1380659287"
     541                      .dwattr $C$DW$40, DW_AT_TI_begin_file("C:/work/grepos/device_support/device_support/f2837x/F2837x_boo
     542                      .dwattr $C$DW$40, DW_AT_TI_begin_line(0xea)
     543                      .dwattr $C$DW$40, DW_AT_TI_end_line(0xea)
     544              $C$DW$41        .dwtag  DW_TAG_TI_loop_range
     545                      .dwattr $C$DW$41, DW_AT_low_pc($C$DW$L$_DCAN_SendWordData$4$B)
     546                      .dwattr $C$DW$41, DW_AT_high_pc($C$DW$L$_DCAN_SendWordData$4$E)
     547                      .dwendtag $C$DW$40
     548              
     549              
     550              $C$DW$42        .dwtag  DW_TAG_TI_loop
     551                      .dwattr $C$DW$42, DW_AT_name("C:\\Users\\a0272466\\AppData\\Local\\Temp\\0414810:$C$L9:1:1380659287")
     552                      .dwattr $C$DW$42, DW_AT_TI_begin_file("C:/work/grepos/device_support/device_support/f2837x/F2837x_boo
     553                      .dwattr $C$DW$42, DW_AT_TI_begin_line(0xe9)
     554                      .dwattr $C$DW$42, DW_AT_TI_end_line(0xe9)
     555              $C$DW$43        .dwtag  DW_TAG_TI_loop_range
     556                      .dwattr $C$DW$43, DW_AT_low_pc($C$DW$L$_DCAN_SendWordData$2$B)
     557                      .dwattr $C$DW$43, DW_AT_high_pc($C$DW$L$_DCAN_SendWordData$2$E)
     558                      .dwendtag $C$DW$42
     559              
     560                      .dwattr $C$DW$36, DW_AT_TI_end_file("C:/work/grepos/device_support/device_support/f2837x/F2837x_bootR
     561                      .dwattr $C$DW$36, DW_AT_TI_end_line(0xeb)
     562                      .dwattr $C$DW$36, DW_AT_TI_end_column(0x01)
     563                      .dwendentry
     564                      .dwendtag $C$DW$36
     565              
     566              ;**************************************************************
     567              ;* UNDEFINED EXTERNAL REFERENCES                              *
     568              ;**************************************************************
     569                      .global _CopyData
     570                      .global _ReadReservedFn
     571                      .global _GetWordData
     572                      .global _GetLongData
     573                      .global _CpuSysRegs
     574                      .global _DcanaRegs
     575              
TMS320C2000 Assembler PC v6.1.3 Tue Oct 01 15:28:07 2013

Tools Copyright (c) 1996-2012 Texas Instruments Incorporated
C:\Users\a0272466\AppData\Local\Temp\0414810                         PAGE   12

     576              ;***************************************************************
     577              ;* TYPE INFORMATION                                            *
     578              ;***************************************************************
     579              
     580              $C$DW$T$20      .dwtag  DW_TAG_structure_type
     581                      .dwattr $C$DW$T$20, DW_AT_name("CAN_BTR_BITS")
     582                      .dwattr $C$DW$T$20, DW_AT_byte_size(0x02)
     583              $C$DW$44        .dwtag  DW_TAG_member
     584                      .dwattr $C$DW$44, DW_AT_type(*$C$DW$T$19)
     585                      .dwattr $C$DW$44, DW_AT_name("BPR")
     586                      .dwattr $C$DW$44, DW_AT_TI_symbol_name("_BPR")
     587                      .dwattr $C$DW$44, DW_AT_bit_offset(0x0a), DW_AT_bit_size(0x06)
     588                      .dwattr $C$DW$44, DW_AT_data_member_location[DW_OP_plus_uconst 0x0]
     589                      .dwattr $C$DW$44, DW_AT_accessibility(DW_ACCESS_public)
     590              $C$DW$45        .dwtag  DW_TAG_member
     591                      .dwattr $C$DW$45, DW_AT_type(*$C$DW$T$19)
     592                      .dwattr $C$DW$45, DW_AT_name("SJW")
     593                      .dwattr $C$DW$45, DW_AT_TI_symbol_name("_SJW")
     594                      .dwattr $C$DW$45, DW_AT_bit_offset(0x08), DW_AT_bit_size(0x02)
     595                      .dwattr $C$DW$45, DW_AT_data_member_location[DW_OP_plus_uconst 0x0]
     596                      .dwattr $C$DW$45, DW_AT_accessibility(DW_ACCESS_public)
     597              $C$DW$46        .dwtag  DW_TAG_member
     598                      .dwattr $C$DW$46, DW_AT_type(*$C$DW$T$19)
     599                      .dwattr $C$DW$46, DW_AT_name("TSEG1")
     600                      .dwattr $C$DW$46, DW_AT_TI_symbol_name("_TSEG1")
     601                      .dwattr $C$DW$46, DW_AT_bit_offset(0x04), DW_AT_bit_size(0x04)
     602                      .dwattr $C$DW$46, DW_AT_data_member_location[DW_OP_plus_uconst 0x0]
     603                      .dwattr $C$DW$46, DW_AT_accessibility(DW_ACCESS_public)
     604              $C$DW$47        .dwtag  DW_TAG_member
     605                      .dwattr $C$DW$47, DW_AT_type(*$C$DW$T$19)
     606                      .dwattr $C$DW$47, DW_AT_name("TSEG2")
     607                      .dwattr $C$DW$47, DW_AT_TI_symbol_name("_TSEG2")
     608                      .dwattr $C$DW$47, DW_AT_bit_offset(0x01), DW_AT_bit_size(0x03)
     609                      .dwattr $C$DW$47, DW_AT_data_member_location[DW_OP_plus_uconst 0x0]
     610                      .dwattr $C$DW$47, DW_AT_accessibility(DW_ACCESS_public)
     611              $C$DW$48        .dwtag  DW_TAG_member
     612                      .dwattr $C$DW$48, DW_AT_type(*$C$DW$T$19)
     613                      .dwattr $C$DW$48, DW_AT_name("rsvd1")
     614                      .dwattr $C$DW$48, DW_AT_TI_symbol_name("_rsvd1")
     615                      .dwattr $C$DW$48, DW_AT_bit_offset(0x00), DW_AT_bit_size(0x01)
     616                      .dwattr $C$DW$48, DW_AT_data_member_location[DW_OP_plus_uconst 0x0]
     617                      .dwattr $C$DW$48, DW_AT_accessibility(DW_ACCESS_public)
     618              $C$DW$49        .dwtag  DW_TAG_member
     619                      .dwattr $C$DW$49, DW_AT_type(*$C$DW$T$19)
     620                      .dwattr $C$DW$49, DW_AT_name("BRPE")
     621                      .dwattr $C$DW$49, DW_AT_TI_symbol_name("_BRPE")
     622                      .dwattr $C$DW$49, DW_AT_bit_offset(0x0c), DW_AT_bit_size(0x04)
     623                      .dwattr $C$DW$49, DW_AT_data_member_location[DW_OP_plus_uconst 0x1]
     624                      .dwattr $C$DW$49, DW_AT_accessibility(DW_ACCESS_public)
     625              $C$DW$50        .dwtag  DW_TAG_member
     626                      .dwattr $C$DW$50, DW_AT_type(*$C$DW$T$19)
     627                      .dwattr $C$DW$50, DW_AT_name("rsvd2")
     628                      .dwattr $C$DW$50, DW_AT_TI_symbol_name("_rsvd2")
     629                      .dwattr $C$DW$50, DW_AT_bit_offset(0x00), DW_AT_bit_size(0x0c)
     630                      .dwattr $C$DW$50, DW_AT_data_member_location[DW_OP_plus_uconst 0x1]
TMS320C2000 Assembler PC v6.1.3 Tue Oct 01 15:28:07 2013

Tools Copyright (c) 1996-2012 Texas Instruments Incorporated
C:\Users\a0272466\AppData\Local\Temp\0414810                         PAGE   13

     631                      .dwattr $C$DW$50, DW_AT_accessibility(DW_ACCESS_public)
     632                      .dwendtag $C$DW$T$20
     633              
     634              
     635              $C$DW$T$22      .dwtag  DW_TAG_union_type
     636                      .dwattr $C$DW$T$22, DW_AT_name("CAN_BTR_REG")
     637                      .dwattr $C$DW$T$22, DW_AT_byte_size(0x02)
     638              $C$DW$51        .dwtag  DW_TAG_member
     639                      .dwattr $C$DW$51, DW_AT_type(*$C$DW$T$21)
     640                      .dwattr $C$DW$51, DW_AT_name("all")
     641                      .dwattr $C$DW$51, DW_AT_TI_symbol_name("_all")
     642                      .dwattr $C$DW$51, DW_AT_data_member_location[DW_OP_plus_uconst 0x0]
     643                      .dwattr $C$DW$51, DW_AT_accessibility(DW_ACCESS_public)
     644              $C$DW$52        .dwtag  DW_TAG_member
     645                      .dwattr $C$DW$52, DW_AT_type(*$C$DW$T$20)
     646                      .dwattr $C$DW$52, DW_AT_name("bit")
     647                      .dwattr $C$DW$52, DW_AT_TI_symbol_name("_bit")
     648                      .dwattr $C$DW$52, DW_AT_data_member_location[DW_OP_plus_uconst 0x0]
     649                      .dwattr $C$DW$52, DW_AT_accessibility(DW_ACCESS_public)
     650                      .dwendtag $C$DW$T$22
     651              
     652              
     653              $C$DW$T$23      .dwtag  DW_TAG_structure_type
     654                      .dwattr $C$DW$T$23, DW_AT_name("CAN_CTL_BITS")
     655                      .dwattr $C$DW$T$23, DW_AT_byte_size(0x02)
     656              $C$DW$53        .dwtag  DW_TAG_member
     657                      .dwattr $C$DW$53, DW_AT_type(*$C$DW$T$19)
     658                      .dwattr $C$DW$53, DW_AT_name("Init")
     659                      .dwattr $C$DW$53, DW_AT_TI_symbol_name("_Init")
     660                      .dwattr $C$DW$53, DW_AT_bit_offset(0x0f), DW_AT_bit_size(0x01)
     661                      .dwattr $C$DW$53, DW_AT_data_member_location[DW_OP_plus_uconst 0x0]
     662                      .dwattr $C$DW$53, DW_AT_accessibility(DW_ACCESS_public)
     663              $C$DW$54        .dwtag  DW_TAG_member
     664                      .dwattr $C$DW$54, DW_AT_type(*$C$DW$T$19)
     665                      .dwattr $C$DW$54, DW_AT_name("IE0")
     666                      .dwattr $C$DW$54, DW_AT_TI_symbol_name("_IE0")
     667                      .dwattr $C$DW$54, DW_AT_bit_offset(0x0e), DW_AT_bit_size(0x01)
     668                      .dwattr $C$DW$54, DW_AT_data_member_location[DW_OP_plus_uconst 0x0]
     669                      .dwattr $C$DW$54, DW_AT_accessibility(DW_ACCESS_public)
     670              $C$DW$55        .dwtag  DW_TAG_member
     671                      .dwattr $C$DW$55, DW_AT_type(*$C$DW$T$19)
     672                      .dwattr $C$DW$55, DW_AT_name("SIE")
     673                      .dwattr $C$DW$55, DW_AT_TI_symbol_name("_SIE")
     674                      .dwattr $C$DW$55, DW_AT_bit_offset(0x0d), DW_AT_bit_size(0x01)
     675                      .dwattr $C$DW$55, DW_AT_data_member_location[DW_OP_plus_uconst 0x0]
     676                      .dwattr $C$DW$55, DW_AT_accessibility(DW_ACCESS_public)
     677              $C$DW$56        .dwtag  DW_TAG_member
     678                      .dwattr $C$DW$56, DW_AT_type(*$C$DW$T$19)
     679                      .dwattr $C$DW$56, DW_AT_name("EIE")
     680                      .dwattr $C$DW$56, DW_AT_TI_symbol_name("_EIE")
     681                      .dwattr $C$DW$56, DW_AT_bit_offset(0x0c), DW_AT_bit_size(0x01)
     682                      .dwattr $C$DW$56, DW_AT_data_member_location[DW_OP_plus_uconst 0x0]
     683                      .dwattr $C$DW$56, DW_AT_accessibility(DW_ACCESS_public)
     684              $C$DW$57        .dwtag  DW_TAG_member
     685                      .dwattr $C$DW$57, DW_AT_type(*$C$DW$T$19)
TMS320C2000 Assembler PC v6.1.3 Tue Oct 01 15:28:07 2013

Tools Copyright (c) 1996-2012 Texas Instruments Incorporated
C:\Users\a0272466\AppData\Local\Temp\0414810                         PAGE   14

     686                      .dwattr $C$DW$57, DW_AT_name("rsvd1")
     687                      .dwattr $C$DW$57, DW_AT_TI_symbol_name("_rsvd1")
     688                      .dwattr $C$DW$57, DW_AT_bit_offset(0x0b), DW_AT_bit_size(0x01)
     689                      .dwattr $C$DW$57, DW_AT_data_member_location[DW_OP_plus_uconst 0x0]
     690                      .dwattr $C$DW$57, DW_AT_accessibility(DW_ACCESS_public)
     691              $C$DW$58        .dwtag  DW_TAG_member
     692                      .dwattr $C$DW$58, DW_AT_type(*$C$DW$T$19)
     693                      .dwattr $C$DW$58, DW_AT_name("DAR")
     694                      .dwattr $C$DW$58, DW_AT_TI_symbol_name("_DAR")
     695                      .dwattr $C$DW$58, DW_AT_bit_offset(0x0a), DW_AT_bit_size(0x01)
     696                      .dwattr $C$DW$58, DW_AT_data_member_location[DW_OP_plus_uconst 0x0]
     697                      .dwattr $C$DW$58, DW_AT_accessibility(DW_ACCESS_public)
     698              $C$DW$59        .dwtag  DW_TAG_member
     699                      .dwattr $C$DW$59, DW_AT_type(*$C$DW$T$19)
     700                      .dwattr $C$DW$59, DW_AT_name("CCE")
     701                      .dwattr $C$DW$59, DW_AT_TI_symbol_name("_CCE")
     702                      .dwattr $C$DW$59, DW_AT_bit_offset(0x09), DW_AT_bit_size(0x01)
     703                      .dwattr $C$DW$59, DW_AT_data_member_location[DW_OP_plus_uconst 0x0]
     704                      .dwattr $C$DW$59, DW_AT_accessibility(DW_ACCESS_public)
     705              $C$DW$60        .dwtag  DW_TAG_member
     706                      .dwattr $C$DW$60, DW_AT_type(*$C$DW$T$19)
     707                      .dwattr $C$DW$60, DW_AT_name("Test")
     708                      .dwattr $C$DW$60, DW_AT_TI_symbol_name("_Test")
     709                      .dwattr $C$DW$60, DW_AT_bit_offset(0x08), DW_AT_bit_size(0x01)
     710                      .dwattr $C$DW$60, DW_AT_data_member_location[DW_OP_plus_uconst 0x0]
     711                      .dwattr $C$DW$60, DW_AT_accessibility(DW_ACCESS_public)
     712              $C$DW$61        .dwtag  DW_TAG_member
     713                      .dwattr $C$DW$61, DW_AT_type(*$C$DW$T$19)
     714                      .dwattr $C$DW$61, DW_AT_name("IDS")
     715                      .dwattr $C$DW$61, DW_AT_TI_symbol_name("_IDS")
     716                      .dwattr $C$DW$61, DW_AT_bit_offset(0x07), DW_AT_bit_size(0x01)
     717                      .dwattr $C$DW$61, DW_AT_data_member_location[DW_OP_plus_uconst 0x0]
     718                      .dwattr $C$DW$61, DW_AT_accessibility(DW_ACCESS_public)
     719              $C$DW$62        .dwtag  DW_TAG_member
     720                      .dwattr $C$DW$62, DW_AT_type(*$C$DW$T$19)
     721                      .dwattr $C$DW$62, DW_AT_name("ABO")
     722                      .dwattr $C$DW$62, DW_AT_TI_symbol_name("_ABO")
     723                      .dwattr $C$DW$62, DW_AT_bit_offset(0x06), DW_AT_bit_size(0x01)
     724                      .dwattr $C$DW$62, DW_AT_data_member_location[DW_OP_plus_uconst 0x0]
     725                      .dwattr $C$DW$62, DW_AT_accessibility(DW_ACCESS_public)
     726              $C$DW$63        .dwtag  DW_TAG_member
     727                      .dwattr $C$DW$63, DW_AT_type(*$C$DW$T$19)
     728                      .dwattr $C$DW$63, DW_AT_name("PMD")
     729                      .dwattr $C$DW$63, DW_AT_TI_symbol_name("_PMD")
     730                      .dwattr $C$DW$63, DW_AT_bit_offset(0x02), DW_AT_bit_size(0x04)
     731                      .dwattr $C$DW$63, DW_AT_data_member_location[DW_OP_plus_uconst 0x0]
     732                      .dwattr $C$DW$63, DW_AT_accessibility(DW_ACCESS_public)
     733              $C$DW$64        .dwtag  DW_TAG_member
     734                      .dwattr $C$DW$64, DW_AT_type(*$C$DW$T$19)
     735                      .dwattr $C$DW$64, DW_AT_name("rsvd2")
     736                      .dwattr $C$DW$64, DW_AT_TI_symbol_name("_rsvd2")
     737                      .dwattr $C$DW$64, DW_AT_bit_offset(0x01), DW_AT_bit_size(0x01)
     738                      .dwattr $C$DW$64, DW_AT_data_member_location[DW_OP_plus_uconst 0x0]
     739                      .dwattr $C$DW$64, DW_AT_accessibility(DW_ACCESS_public)
     740              $C$DW$65        .dwtag  DW_TAG_member
TMS320C2000 Assembler PC v6.1.3 Tue Oct 01 15:28:07 2013

Tools Copyright (c) 1996-2012 Texas Instruments Incorporated
C:\Users\a0272466\AppData\Local\Temp\0414810                         PAGE   15

     741                      .dwattr $C$DW$65, DW_AT_type(*$C$DW$T$19)
     742                      .dwattr $C$DW$65, DW_AT_name("SWR")
     743                      .dwattr $C$DW$65, DW_AT_TI_symbol_name("_SWR")
     744                      .dwattr $C$DW$65, DW_AT_bit_offset(0x00), DW_AT_bit_size(0x01)
     745                      .dwattr $C$DW$65, DW_AT_data_member_location[DW_OP_plus_uconst 0x0]
     746                      .dwattr $C$DW$65, DW_AT_accessibility(DW_ACCESS_public)
     747              $C$DW$66        .dwtag  DW_TAG_member
     748                      .dwattr $C$DW$66, DW_AT_type(*$C$DW$T$19)
     749                      .dwattr $C$DW$66, DW_AT_name("INITDBG")
     750                      .dwattr $C$DW$66, DW_AT_TI_symbol_name("_INITDBG")
     751                      .dwattr $C$DW$66, DW_AT_bit_offset(0x0f), DW_AT_bit_size(0x01)
     752                      .dwattr $C$DW$66, DW_AT_data_member_location[DW_OP_plus_uconst 0x1]
     753                      .dwattr $C$DW$66, DW_AT_accessibility(DW_ACCESS_public)
     754              $C$DW$67        .dwtag  DW_TAG_member
     755                      .dwattr $C$DW$67, DW_AT_type(*$C$DW$T$19)
     756                      .dwattr $C$DW$67, DW_AT_name("IE1")
     757                      .dwattr $C$DW$67, DW_AT_TI_symbol_name("_IE1")
     758                      .dwattr $C$DW$67, DW_AT_bit_offset(0x0e), DW_AT_bit_size(0x01)
     759                      .dwattr $C$DW$67, DW_AT_data_member_location[DW_OP_plus_uconst 0x1]
     760                      .dwattr $C$DW$67, DW_AT_accessibility(DW_ACCESS_public)
     761              $C$DW$68        .dwtag  DW_TAG_member
     762                      .dwattr $C$DW$68, DW_AT_type(*$C$DW$T$19)
     763                      .dwattr $C$DW$68, DW_AT_name("rsvd3")
     764                      .dwattr $C$DW$68, DW_AT_TI_symbol_name("_rsvd3")
     765                      .dwattr $C$DW$68, DW_AT_bit_offset(0x08), DW_AT_bit_size(0x06)
     766                      .dwattr $C$DW$68, DW_AT_data_member_location[DW_OP_plus_uconst 0x1]
     767                      .dwattr $C$DW$68, DW_AT_accessibility(DW_ACCESS_public)
     768              $C$DW$69        .dwtag  DW_TAG_member
     769                      .dwattr $C$DW$69, DW_AT_type(*$C$DW$T$19)
     770                      .dwattr $C$DW$69, DW_AT_name("PDR")
     771                      .dwattr $C$DW$69, DW_AT_TI_symbol_name("_PDR")
     772                      .dwattr $C$DW$69, DW_AT_bit_offset(0x07), DW_AT_bit_size(0x01)
     773                      .dwattr $C$DW$69, DW_AT_data_member_location[DW_OP_plus_uconst 0x1]
     774                      .dwattr $C$DW$69, DW_AT_accessibility(DW_ACCESS_public)
     775              $C$DW$70        .dwtag  DW_TAG_member
     776                      .dwattr $C$DW$70, DW_AT_type(*$C$DW$T$19)
     777                      .dwattr $C$DW$70, DW_AT_name("WUBA")
     778                      .dwattr $C$DW$70, DW_AT_TI_symbol_name("_WUBA")
     779                      .dwattr $C$DW$70, DW_AT_bit_offset(0x06), DW_AT_bit_size(0x01)
     780                      .dwattr $C$DW$70, DW_AT_data_member_location[DW_OP_plus_uconst 0x1]
     781                      .dwattr $C$DW$70, DW_AT_accessibility(DW_ACCESS_public)
     782              $C$DW$71        .dwtag  DW_TAG_member
     783                      .dwattr $C$DW$71, DW_AT_type(*$C$DW$T$19)
     784                      .dwattr $C$DW$71, DW_AT_name("rsvd4")
     785                      .dwattr $C$DW$71, DW_AT_TI_symbol_name("_rsvd4")
     786                      .dwattr $C$DW$71, DW_AT_bit_offset(0x00), DW_AT_bit_size(0x06)
     787                      .dwattr $C$DW$71, DW_AT_data_member_location[DW_OP_plus_uconst 0x1]
     788                      .dwattr $C$DW$71, DW_AT_accessibility(DW_ACCESS_public)
     789                      .dwendtag $C$DW$T$23
     790              
     791              
     792              $C$DW$T$24      .dwtag  DW_TAG_union_type
     793                      .dwattr $C$DW$T$24, DW_AT_name("CAN_CTL_REG")
     794                      .dwattr $C$DW$T$24, DW_AT_byte_size(0x02)
     795              $C$DW$72        .dwtag  DW_TAG_member
TMS320C2000 Assembler PC v6.1.3 Tue Oct 01 15:28:07 2013

Tools Copyright (c) 1996-2012 Texas Instruments Incorporated
C:\Users\a0272466\AppData\Local\Temp\0414810                         PAGE   16

     796                      .dwattr $C$DW$72, DW_AT_type(*$C$DW$T$21)
     797                      .dwattr $C$DW$72, DW_AT_name("all")
     798                      .dwattr $C$DW$72, DW_AT_TI_symbol_name("_all")
     799                      .dwattr $C$DW$72, DW_AT_data_member_location[DW_OP_plus_uconst 0x0]
     800                      .dwattr $C$DW$72, DW_AT_accessibility(DW_ACCESS_public)
     801              $C$DW$73        .dwtag  DW_TAG_member
     802                      .dwattr $C$DW$73, DW_AT_type(*$C$DW$T$23)
     803                      .dwattr $C$DW$73, DW_AT_name("bit")
     804                      .dwattr $C$DW$73, DW_AT_TI_symbol_name("_bit")
     805                      .dwattr $C$DW$73, DW_AT_data_member_location[DW_OP_plus_uconst 0x0]
     806                      .dwattr $C$DW$73, DW_AT_accessibility(DW_ACCESS_public)
     807                      .dwendtag $C$DW$T$24
     808              
     809              
     810              $C$DW$T$25      .dwtag  DW_TAG_structure_type
     811                      .dwattr $C$DW$T$25, DW_AT_name("CAN_ECCDIAG_BITS")
     812                      .dwattr $C$DW$T$25, DW_AT_byte_size(0x02)
     813              $C$DW$74        .dwtag  DW_TAG_member
     814                      .dwattr $C$DW$74, DW_AT_type(*$C$DW$T$19)
     815                      .dwattr $C$DW$74, DW_AT_name("ECCDIAG")
     816                      .dwattr $C$DW$74, DW_AT_TI_symbol_name("_ECCDIAG")
     817                      .dwattr $C$DW$74, DW_AT_bit_offset(0x0c), DW_AT_bit_size(0x04)
     818                      .dwattr $C$DW$74, DW_AT_data_member_location[DW_OP_plus_uconst 0x0]
     819                      .dwattr $C$DW$74, DW_AT_accessibility(DW_ACCESS_public)
     820              $C$DW$75        .dwtag  DW_TAG_member
     821                      .dwattr $C$DW$75, DW_AT_type(*$C$DW$T$19)
     822                      .dwattr $C$DW$75, DW_AT_name("rsvd1")
     823                      .dwattr $C$DW$75, DW_AT_TI_symbol_name("_rsvd1")
     824                      .dwattr $C$DW$75, DW_AT_bit_offset(0x00), DW_AT_bit_size(0x0c)
     825                      .dwattr $C$DW$75, DW_AT_data_member_location[DW_OP_plus_uconst 0x0]
     826                      .dwattr $C$DW$75, DW_AT_accessibility(DW_ACCESS_public)
     827              $C$DW$76        .dwtag  DW_TAG_member
     828                      .dwattr $C$DW$76, DW_AT_type(*$C$DW$T$19)
     829                      .dwattr $C$DW$76, DW_AT_name("rsvd2")
     830                      .dwattr $C$DW$76, DW_AT_TI_symbol_name("_rsvd2")
     831                      .dwattr $C$DW$76, DW_AT_bit_offset(0x00), DW_AT_bit_size(0x10)
     832                      .dwattr $C$DW$76, DW_AT_data_member_location[DW_OP_plus_uconst 0x1]
     833                      .dwattr $C$DW$76, DW_AT_accessibility(DW_ACCESS_public)
     834                      .dwendtag $C$DW$T$25
     835              
     836              
     837              $C$DW$T$26      .dwtag  DW_TAG_union_type
     838                      .dwattr $C$DW$T$26, DW_AT_name("CAN_ECCDIAG_REG")
     839                      .dwattr $C$DW$T$26, DW_AT_byte_size(0x02)
     840              $C$DW$77        .dwtag  DW_TAG_member
     841                      .dwattr $C$DW$77, DW_AT_type(*$C$DW$T$21)
     842                      .dwattr $C$DW$77, DW_AT_name("all")
     843                      .dwattr $C$DW$77, DW_AT_TI_symbol_name("_all")
     844                      .dwattr $C$DW$77, DW_AT_data_member_location[DW_OP_plus_uconst 0x0]
     845                      .dwattr $C$DW$77, DW_AT_accessibility(DW_ACCESS_public)
     846              $C$DW$78        .dwtag  DW_TAG_member
     847                      .dwattr $C$DW$78, DW_AT_type(*$C$DW$T$25)
     848                      .dwattr $C$DW$78, DW_AT_name("bit")
     849                      .dwattr $C$DW$78, DW_AT_TI_symbol_name("_bit")
     850                      .dwattr $C$DW$78, DW_AT_data_member_location[DW_OP_plus_uconst 0x0]
TMS320C2000 Assembler PC v6.1.3 Tue Oct 01 15:28:07 2013

Tools Copyright (c) 1996-2012 Texas Instruments Incorporated
C:\Users\a0272466\AppData\Local\Temp\0414810                         PAGE   17

     851                      .dwattr $C$DW$78, DW_AT_accessibility(DW_ACCESS_public)
     852                      .dwendtag $C$DW$T$26
     853              
     854              
     855              $C$DW$T$27      .dwtag  DW_TAG_structure_type
     856                      .dwattr $C$DW$T$27, DW_AT_name("CAN_ECCDIAG_STAT_BITS")
     857                      .dwattr $C$DW$T$27, DW_AT_byte_size(0x02)
     858              $C$DW$79        .dwtag  DW_TAG_member
     859                      .dwattr $C$DW$79, DW_AT_type(*$C$DW$T$19)
     860                      .dwattr $C$DW$79, DW_AT_name("SEFLG")
     861                      .dwattr $C$DW$79, DW_AT_TI_symbol_name("_SEFLG")
     862                      .dwattr $C$DW$79, DW_AT_bit_offset(0x0f), DW_AT_bit_size(0x01)
     863                      .dwattr $C$DW$79, DW_AT_data_member_location[DW_OP_plus_uconst 0x0]
     864                      .dwattr $C$DW$79, DW_AT_accessibility(DW_ACCESS_public)
     865              $C$DW$80        .dwtag  DW_TAG_member
     866                      .dwattr $C$DW$80, DW_AT_type(*$C$DW$T$19)
     867                      .dwattr $C$DW$80, DW_AT_name("rsvd1")
     868                      .dwattr $C$DW$80, DW_AT_TI_symbol_name("_rsvd1")
     869                      .dwattr $C$DW$80, DW_AT_bit_offset(0x08), DW_AT_bit_size(0x07)
     870                      .dwattr $C$DW$80, DW_AT_data_member_location[DW_OP_plus_uconst 0x0]
     871                      .dwattr $C$DW$80, DW_AT_accessibility(DW_ACCESS_public)
     872              $C$DW$81        .dwtag  DW_TAG_member
     873                      .dwattr $C$DW$81, DW_AT_type(*$C$DW$T$19)
     874                      .dwattr $C$DW$81, DW_AT_name("DEFLG")
     875                      .dwattr $C$DW$81, DW_AT_TI_symbol_name("_DEFLG")
     876                      .dwattr $C$DW$81, DW_AT_bit_offset(0x07), DW_AT_bit_size(0x01)
     877                      .dwattr $C$DW$81, DW_AT_data_member_location[DW_OP_plus_uconst 0x0]
     878                      .dwattr $C$DW$81, DW_AT_accessibility(DW_ACCESS_public)
     879              $C$DW$82        .dwtag  DW_TAG_member
     880                      .dwattr $C$DW$82, DW_AT_type(*$C$DW$T$19)
     881                      .dwattr $C$DW$82, DW_AT_name("rsvd2")
     882                      .dwattr $C$DW$82, DW_AT_TI_symbol_name("_rsvd2")
     883                      .dwattr $C$DW$82, DW_AT_bit_offset(0x00), DW_AT_bit_size(0x07)
     884                      .dwattr $C$DW$82, DW_AT_data_member_location[DW_OP_plus_uconst 0x0]
     885                      .dwattr $C$DW$82, DW_AT_accessibility(DW_ACCESS_public)
     886              $C$DW$83        .dwtag  DW_TAG_member
     887                      .dwattr $C$DW$83, DW_AT_type(*$C$DW$T$19)
     888                      .dwattr $C$DW$83, DW_AT_name("rsvd3")
     889                      .dwattr $C$DW$83, DW_AT_TI_symbol_name("_rsvd3")
     890                      .dwattr $C$DW$83, DW_AT_bit_offset(0x00), DW_AT_bit_size(0x10)
     891                      .dwattr $C$DW$83, DW_AT_data_member_location[DW_OP_plus_uconst 0x1]
     892                      .dwattr $C$DW$83, DW_AT_accessibility(DW_ACCESS_public)
     893                      .dwendtag $C$DW$T$27
     894              
     895              
     896              $C$DW$T$28      .dwtag  DW_TAG_union_type
     897                      .dwattr $C$DW$T$28, DW_AT_name("CAN_ECCDIAG_STAT_REG")
     898                      .dwattr $C$DW$T$28, DW_AT_byte_size(0x02)
     899              $C$DW$84        .dwtag  DW_TAG_member
     900                      .dwattr $C$DW$84, DW_AT_type(*$C$DW$T$21)
     901                      .dwattr $C$DW$84, DW_AT_name("all")
     902                      .dwattr $C$DW$84, DW_AT_TI_symbol_name("_all")
     903                      .dwattr $C$DW$84, DW_AT_data_member_location[DW_OP_plus_uconst 0x0]
     904                      .dwattr $C$DW$84, DW_AT_accessibility(DW_ACCESS_public)
     905              $C$DW$85        .dwtag  DW_TAG_member
TMS320C2000 Assembler PC v6.1.3 Tue Oct 01 15:28:07 2013

Tools Copyright (c) 1996-2012 Texas Instruments Incorporated
C:\Users\a0272466\AppData\Local\Temp\0414810                         PAGE   18

     906                      .dwattr $C$DW$85, DW_AT_type(*$C$DW$T$27)
     907                      .dwattr $C$DW$85, DW_AT_name("bit")
     908                      .dwattr $C$DW$85, DW_AT_TI_symbol_name("_bit")
     909                      .dwattr $C$DW$85, DW_AT_data_member_location[DW_OP_plus_uconst 0x0]
     910                      .dwattr $C$DW$85, DW_AT_accessibility(DW_ACCESS_public)
     911                      .dwendtag $C$DW$T$28
     912              
     913              
     914              $C$DW$T$29      .dwtag  DW_TAG_structure_type
     915                      .dwattr $C$DW$T$29, DW_AT_name("CAN_ERRC_BITS")
     916                      .dwattr $C$DW$T$29, DW_AT_byte_size(0x02)
     917              $C$DW$86        .dwtag  DW_TAG_member
     918                      .dwattr $C$DW$86, DW_AT_type(*$C$DW$T$19)
     919                      .dwattr $C$DW$86, DW_AT_name("TEC")
     920                      .dwattr $C$DW$86, DW_AT_TI_symbol_name("_TEC")
     921                      .dwattr $C$DW$86, DW_AT_bit_offset(0x08), DW_AT_bit_size(0x08)
     922                      .dwattr $C$DW$86, DW_AT_data_member_location[DW_OP_plus_uconst 0x0]
     923                      .dwattr $C$DW$86, DW_AT_accessibility(DW_ACCESS_public)
     924              $C$DW$87        .dwtag  DW_TAG_member
     925                      .dwattr $C$DW$87, DW_AT_type(*$C$DW$T$19)
     926                      .dwattr $C$DW$87, DW_AT_name("REC")
     927                      .dwattr $C$DW$87, DW_AT_TI_symbol_name("_REC")
     928                      .dwattr $C$DW$87, DW_AT_bit_offset(0x01), DW_AT_bit_size(0x07)
     929                      .dwattr $C$DW$87, DW_AT_data_member_location[DW_OP_plus_uconst 0x0]
     930                      .dwattr $C$DW$87, DW_AT_accessibility(DW_ACCESS_public)
     931              $C$DW$88        .dwtag  DW_TAG_member
     932                      .dwattr $C$DW$88, DW_AT_type(*$C$DW$T$19)
     933                      .dwattr $C$DW$88, DW_AT_name("RP")
     934                      .dwattr $C$DW$88, DW_AT_TI_symbol_name("_RP")
     935                      .dwattr $C$DW$88, DW_AT_bit_offset(0x00), DW_AT_bit_size(0x01)
     936                      .dwattr $C$DW$88, DW_AT_data_member_location[DW_OP_plus_uconst 0x0]
     937                      .dwattr $C$DW$88, DW_AT_accessibility(DW_ACCESS_public)
     938              $C$DW$89        .dwtag  DW_TAG_member
     939                      .dwattr $C$DW$89, DW_AT_type(*$C$DW$T$19)
     940                      .dwattr $C$DW$89, DW_AT_name("rsvd1")
     941                      .dwattr $C$DW$89, DW_AT_TI_symbol_name("_rsvd1")
     942                      .dwattr $C$DW$89, DW_AT_bit_offset(0x00), DW_AT_bit_size(0x10)
     943                      .dwattr $C$DW$89, DW_AT_data_member_location[DW_OP_plus_uconst 0x1]
     944                      .dwattr $C$DW$89, DW_AT_accessibility(DW_ACCESS_public)
     945                      .dwendtag $C$DW$T$29
     946              
     947              
     948              $C$DW$T$30      .dwtag  DW_TAG_union_type
     949                      .dwattr $C$DW$T$30, DW_AT_name("CAN_ERRC_REG")
     950                      .dwattr $C$DW$T$30, DW_AT_byte_size(0x02)
     951              $C$DW$90        .dwtag  DW_TAG_member
     952                      .dwattr $C$DW$90, DW_AT_type(*$C$DW$T$21)
     953                      .dwattr $C$DW$90, DW_AT_name("all")
     954                      .dwattr $C$DW$90, DW_AT_TI_symbol_name("_all")
     955                      .dwattr $C$DW$90, DW_AT_data_member_location[DW_OP_plus_uconst 0x0]
     956                      .dwattr $C$DW$90, DW_AT_accessibility(DW_ACCESS_public)
     957              $C$DW$91        .dwtag  DW_TAG_member
     958                      .dwattr $C$DW$91, DW_AT_type(*$C$DW$T$29)
     959                      .dwattr $C$DW$91, DW_AT_name("bit")
     960                      .dwattr $C$DW$91, DW_AT_TI_symbol_name("_bit")
TMS320C2000 Assembler PC v6.1.3 Tue Oct 01 15:28:07 2013

Tools Copyright (c) 1996-2012 Texas Instruments Incorporated
C:\Users\a0272466\AppData\Local\Temp\0414810                         PAGE   19

     961                      .dwattr $C$DW$91, DW_AT_data_member_location[DW_OP_plus_uconst 0x0]
     962                      .dwattr $C$DW$91, DW_AT_accessibility(DW_ACCESS_public)
     963                      .dwendtag $C$DW$T$30
     964              
     965              
     966              $C$DW$T$31      .dwtag  DW_TAG_structure_type
     967                      .dwattr $C$DW$T$31, DW_AT_name("CAN_ES_BITS")
     968                      .dwattr $C$DW$T$31, DW_AT_byte_size(0x02)
     969              $C$DW$92        .dwtag  DW_TAG_member
     970                      .dwattr $C$DW$92, DW_AT_type(*$C$DW$T$19)
     971                      .dwattr $C$DW$92, DW_AT_name("LEC")
     972                      .dwattr $C$DW$92, DW_AT_TI_symbol_name("_LEC")
     973                      .dwattr $C$DW$92, DW_AT_bit_offset(0x0d), DW_AT_bit_size(0x03)
     974                      .dwattr $C$DW$92, DW_AT_data_member_location[DW_OP_plus_uconst 0x0]
     975                      .dwattr $C$DW$92, DW_AT_accessibility(DW_ACCESS_public)
     976              $C$DW$93        .dwtag  DW_TAG_member
     977                      .dwattr $C$DW$93, DW_AT_type(*$C$DW$T$19)
     978                      .dwattr $C$DW$93, DW_AT_name("TxOk")
     979                      .dwattr $C$DW$93, DW_AT_TI_symbol_name("_TxOk")
     980                      .dwattr $C$DW$93, DW_AT_bit_offset(0x0c), DW_AT_bit_size(0x01)
     981                      .dwattr $C$DW$93, DW_AT_data_member_location[DW_OP_plus_uconst 0x0]
     982                      .dwattr $C$DW$93, DW_AT_accessibility(DW_ACCESS_public)
     983              $C$DW$94        .dwtag  DW_TAG_member
     984                      .dwattr $C$DW$94, DW_AT_type(*$C$DW$T$19)
     985                      .dwattr $C$DW$94, DW_AT_name("RxOk")
     986                      .dwattr $C$DW$94, DW_AT_TI_symbol_name("_RxOk")
     987                      .dwattr $C$DW$94, DW_AT_bit_offset(0x0b), DW_AT_bit_size(0x01)
     988                      .dwattr $C$DW$94, DW_AT_data_member_location[DW_OP_plus_uconst 0x0]
     989                      .dwattr $C$DW$94, DW_AT_accessibility(DW_ACCESS_public)
     990              $C$DW$95        .dwtag  DW_TAG_member
     991                      .dwattr $C$DW$95, DW_AT_type(*$C$DW$T$19)
     992                      .dwattr $C$DW$95, DW_AT_name("EPass")
     993                      .dwattr $C$DW$95, DW_AT_TI_symbol_name("_EPass")
     994                      .dwattr $C$DW$95, DW_AT_bit_offset(0x0a), DW_AT_bit_size(0x01)
     995                      .dwattr $C$DW$95, DW_AT_data_member_location[DW_OP_plus_uconst 0x0]
     996                      .dwattr $C$DW$95, DW_AT_accessibility(DW_ACCESS_public)
     997              $C$DW$96        .dwtag  DW_TAG_member
     998                      .dwattr $C$DW$96, DW_AT_type(*$C$DW$T$19)
     999                      .dwattr $C$DW$96, DW_AT_name("EWarn")
    1000                      .dwattr $C$DW$96, DW_AT_TI_symbol_name("_EWarn")
    1001                      .dwattr $C$DW$96, DW_AT_bit_offset(0x09), DW_AT_bit_size(0x01)
    1002                      .dwattr $C$DW$96, DW_AT_data_member_location[DW_OP_plus_uconst 0x0]
    1003                      .dwattr $C$DW$96, DW_AT_accessibility(DW_ACCESS_public)
    1004              $C$DW$97        .dwtag  DW_TAG_member
    1005                      .dwattr $C$DW$97, DW_AT_type(*$C$DW$T$19)
    1006                      .dwattr $C$DW$97, DW_AT_name("BOff")
    1007                      .dwattr $C$DW$97, DW_AT_TI_symbol_name("_BOff")
    1008                      .dwattr $C$DW$97, DW_AT_bit_offset(0x08), DW_AT_bit_size(0x01)
    1009                      .dwattr $C$DW$97, DW_AT_data_member_location[DW_OP_plus_uconst 0x0]
    1010                      .dwattr $C$DW$97, DW_AT_accessibility(DW_ACCESS_public)
    1011              $C$DW$98        .dwtag  DW_TAG_member
    1012                      .dwattr $C$DW$98, DW_AT_type(*$C$DW$T$19)
    1013                      .dwattr $C$DW$98, DW_AT_name("PER")
    1014                      .dwattr $C$DW$98, DW_AT_TI_symbol_name("_PER")
    1015                      .dwattr $C$DW$98, DW_AT_bit_offset(0x07), DW_AT_bit_size(0x01)
TMS320C2000 Assembler PC v6.1.3 Tue Oct 01 15:28:07 2013

Tools Copyright (c) 1996-2012 Texas Instruments Incorporated
C:\Users\a0272466\AppData\Local\Temp\0414810                         PAGE   20

    1016                      .dwattr $C$DW$98, DW_AT_data_member_location[DW_OP_plus_uconst 0x0]
    1017                      .dwattr $C$DW$98, DW_AT_accessibility(DW_ACCESS_public)
    1018              $C$DW$99        .dwtag  DW_TAG_member
    1019                      .dwattr $C$DW$99, DW_AT_type(*$C$DW$T$19)
    1020                      .dwattr $C$DW$99, DW_AT_name("WakeUpPnd")
    1021                      .dwattr $C$DW$99, DW_AT_TI_symbol_name("_WakeUpPnd")
    1022                      .dwattr $C$DW$99, DW_AT_bit_offset(0x06), DW_AT_bit_size(0x01)
    1023                      .dwattr $C$DW$99, DW_AT_data_member_location[DW_OP_plus_uconst 0x0]
    1024                      .dwattr $C$DW$99, DW_AT_accessibility(DW_ACCESS_public)
    1025              $C$DW$100       .dwtag  DW_TAG_member
    1026                      .dwattr $C$DW$100, DW_AT_type(*$C$DW$T$19)
    1027                      .dwattr $C$DW$100, DW_AT_name("PDA")
    1028                      .dwattr $C$DW$100, DW_AT_TI_symbol_name("_PDA")
    1029                      .dwattr $C$DW$100, DW_AT_bit_offset(0x05), DW_AT_bit_size(0x01)
    1030                      .dwattr $C$DW$100, DW_AT_data_member_location[DW_OP_plus_uconst 0x0]
    1031                      .dwattr $C$DW$100, DW_AT_accessibility(DW_ACCESS_public)
    1032              $C$DW$101       .dwtag  DW_TAG_member
    1033                      .dwattr $C$DW$101, DW_AT_type(*$C$DW$T$19)
    1034                      .dwattr $C$DW$101, DW_AT_name("rsvd1")
    1035                      .dwattr $C$DW$101, DW_AT_TI_symbol_name("_rsvd1")
    1036                      .dwattr $C$DW$101, DW_AT_bit_offset(0x00), DW_AT_bit_size(0x05)
    1037                      .dwattr $C$DW$101, DW_AT_data_member_location[DW_OP_plus_uconst 0x0]
    1038                      .dwattr $C$DW$101, DW_AT_accessibility(DW_ACCESS_public)
    1039              $C$DW$102       .dwtag  DW_TAG_member
    1040                      .dwattr $C$DW$102, DW_AT_type(*$C$DW$T$19)
    1041                      .dwattr $C$DW$102, DW_AT_name("rsvd2")
    1042                      .dwattr $C$DW$102, DW_AT_TI_symbol_name("_rsvd2")
    1043                      .dwattr $C$DW$102, DW_AT_bit_offset(0x00), DW_AT_bit_size(0x10)
    1044                      .dwattr $C$DW$102, DW_AT_data_member_location[DW_OP_plus_uconst 0x1]
    1045                      .dwattr $C$DW$102, DW_AT_accessibility(DW_ACCESS_public)
    1046                      .dwendtag $C$DW$T$31
    1047              
    1048              
    1049              $C$DW$T$32      .dwtag  DW_TAG_union_type
    1050                      .dwattr $C$DW$T$32, DW_AT_name("CAN_ES_REG")
    1051                      .dwattr $C$DW$T$32, DW_AT_byte_size(0x02)
    1052              $C$DW$103       .dwtag  DW_TAG_member
    1053                      .dwattr $C$DW$103, DW_AT_type(*$C$DW$T$21)
    1054                      .dwattr $C$DW$103, DW_AT_name("all")
    1055                      .dwattr $C$DW$103, DW_AT_TI_symbol_name("_all")
    1056                      .dwattr $C$DW$103, DW_AT_data_member_location[DW_OP_plus_uconst 0x0]
    1057                      .dwattr $C$DW$103, DW_AT_accessibility(DW_ACCESS_public)
    1058              $C$DW$104       .dwtag  DW_TAG_member
    1059                      .dwattr $C$DW$104, DW_AT_type(*$C$DW$T$31)
    1060                      .dwattr $C$DW$104, DW_AT_name("bit")
    1061                      .dwattr $C$DW$104, DW_AT_TI_symbol_name("_bit")
    1062                      .dwattr $C$DW$104, DW_AT_data_member_location[DW_OP_plus_uconst 0x0]
    1063                      .dwattr $C$DW$104, DW_AT_accessibility(DW_ACCESS_public)
    1064                      .dwendtag $C$DW$T$32
    1065              
    1066              
    1067              $C$DW$T$33      .dwtag  DW_TAG_structure_type
    1068                      .dwattr $C$DW$T$33, DW_AT_name("CAN_GLB_INT_CLR_BITS")
    1069                      .dwattr $C$DW$T$33, DW_AT_byte_size(0x02)
    1070              $C$DW$105       .dwtag  DW_TAG_member
TMS320C2000 Assembler PC v6.1.3 Tue Oct 01 15:28:07 2013

Tools Copyright (c) 1996-2012 Texas Instruments Incorporated
C:\Users\a0272466\AppData\Local\Temp\0414810                         PAGE   21

    1071                      .dwattr $C$DW$105, DW_AT_type(*$C$DW$T$19)
    1072                      .dwattr $C$DW$105, DW_AT_name("INT0_FLG_CLR")
    1073                      .dwattr $C$DW$105, DW_AT_TI_symbol_name("_INT0_FLG_CLR")
    1074                      .dwattr $C$DW$105, DW_AT_bit_offset(0x0f), DW_AT_bit_size(0x01)
    1075                      .dwattr $C$DW$105, DW_AT_data_member_location[DW_OP_plus_uconst 0x0]
    1076                      .dwattr $C$DW$105, DW_AT_accessibility(DW_ACCESS_public)
    1077              $C$DW$106       .dwtag  DW_TAG_member
    1078                      .dwattr $C$DW$106, DW_AT_type(*$C$DW$T$19)
    1079                      .dwattr $C$DW$106, DW_AT_name("INT1_FLG_CLR")
    1080                      .dwattr $C$DW$106, DW_AT_TI_symbol_name("_INT1_FLG_CLR")
    1081                      .dwattr $C$DW$106, DW_AT_bit_offset(0x0e), DW_AT_bit_size(0x01)
    1082                      .dwattr $C$DW$106, DW_AT_data_member_location[DW_OP_plus_uconst 0x0]
    1083                      .dwattr $C$DW$106, DW_AT_accessibility(DW_ACCESS_public)
    1084              $C$DW$107       .dwtag  DW_TAG_member
    1085                      .dwattr $C$DW$107, DW_AT_type(*$C$DW$T$19)
    1086                      .dwattr $C$DW$107, DW_AT_name("rsvd1")
    1087                      .dwattr $C$DW$107, DW_AT_TI_symbol_name("_rsvd1")
    1088                      .dwattr $C$DW$107, DW_AT_bit_offset(0x00), DW_AT_bit_size(0x0e)
    1089                      .dwattr $C$DW$107, DW_AT_data_member_location[DW_OP_plus_uconst 0x0]
    1090                      .dwattr $C$DW$107, DW_AT_accessibility(DW_ACCESS_public)
    1091              $C$DW$108       .dwtag  DW_TAG_member
    1092                      .dwattr $C$DW$108, DW_AT_type(*$C$DW$T$19)
    1093                      .dwattr $C$DW$108, DW_AT_name("rsvd2")
    1094                      .dwattr $C$DW$108, DW_AT_TI_symbol_name("_rsvd2")
    1095                      .dwattr $C$DW$108, DW_AT_bit_offset(0x00), DW_AT_bit_size(0x10)
    1096                      .dwattr $C$DW$108, DW_AT_data_member_location[DW_OP_plus_uconst 0x1]
    1097                      .dwattr $C$DW$108, DW_AT_accessibility(DW_ACCESS_public)
    1098                      .dwendtag $C$DW$T$33
    1099              
    1100              
    1101              $C$DW$T$34      .dwtag  DW_TAG_union_type
    1102                      .dwattr $C$DW$T$34, DW_AT_name("CAN_GLB_INT_CLR_REG")
    1103                      .dwattr $C$DW$T$34, DW_AT_byte_size(0x02)
    1104              $C$DW$109       .dwtag  DW_TAG_member
    1105                      .dwattr $C$DW$109, DW_AT_type(*$C$DW$T$21)
    1106                      .dwattr $C$DW$109, DW_AT_name("all")
    1107                      .dwattr $C$DW$109, DW_AT_TI_symbol_name("_all")
    1108                      .dwattr $C$DW$109, DW_AT_data_member_location[DW_OP_plus_uconst 0x0]
    1109                      .dwattr $C$DW$109, DW_AT_accessibility(DW_ACCESS_public)
    1110              $C$DW$110       .dwtag  DW_TAG_member
    1111                      .dwattr $C$DW$110, DW_AT_type(*$C$DW$T$33)
    1112                      .dwattr $C$DW$110, DW_AT_name("bit")
    1113                      .dwattr $C$DW$110, DW_AT_TI_symbol_name("_bit")
    1114                      .dwattr $C$DW$110, DW_AT_data_member_location[DW_OP_plus_uconst 0x0]
    1115                      .dwattr $C$DW$110, DW_AT_accessibility(DW_ACCESS_public)
    1116                      .dwendtag $C$DW$T$34
    1117              
    1118              
    1119              $C$DW$T$35      .dwtag  DW_TAG_structure_type
    1120                      .dwattr $C$DW$T$35, DW_AT_name("CAN_GLB_INT_EN_BITS")
    1121                      .dwattr $C$DW$T$35, DW_AT_byte_size(0x02)
    1122              $C$DW$111       .dwtag  DW_TAG_member
    1123                      .dwattr $C$DW$111, DW_AT_type(*$C$DW$T$19)
    1124                      .dwattr $C$DW$111, DW_AT_name("GLBINT0_EN")
    1125                      .dwattr $C$DW$111, DW_AT_TI_symbol_name("_GLBINT0_EN")
TMS320C2000 Assembler PC v6.1.3 Tue Oct 01 15:28:07 2013

Tools Copyright (c) 1996-2012 Texas Instruments Incorporated
C:\Users\a0272466\AppData\Local\Temp\0414810                         PAGE   22

    1126                      .dwattr $C$DW$111, DW_AT_bit_offset(0x0f), DW_AT_bit_size(0x01)
    1127                      .dwattr $C$DW$111, DW_AT_data_member_location[DW_OP_plus_uconst 0x0]
    1128                      .dwattr $C$DW$111, DW_AT_accessibility(DW_ACCESS_public)
    1129              $C$DW$112       .dwtag  DW_TAG_member
    1130                      .dwattr $C$DW$112, DW_AT_type(*$C$DW$T$19)
    1131                      .dwattr $C$DW$112, DW_AT_name("GLBINT1_EN")
    1132                      .dwattr $C$DW$112, DW_AT_TI_symbol_name("_GLBINT1_EN")
    1133                      .dwattr $C$DW$112, DW_AT_bit_offset(0x0e), DW_AT_bit_size(0x01)
    1134                      .dwattr $C$DW$112, DW_AT_data_member_location[DW_OP_plus_uconst 0x0]
    1135                      .dwattr $C$DW$112, DW_AT_accessibility(DW_ACCESS_public)
    1136              $C$DW$113       .dwtag  DW_TAG_member
    1137                      .dwattr $C$DW$113, DW_AT_type(*$C$DW$T$19)
    1138                      .dwattr $C$DW$113, DW_AT_name("rsvd1")
    1139                      .dwattr $C$DW$113, DW_AT_TI_symbol_name("_rsvd1")
    1140                      .dwattr $C$DW$113, DW_AT_bit_offset(0x00), DW_AT_bit_size(0x0e)
    1141                      .dwattr $C$DW$113, DW_AT_data_member_location[DW_OP_plus_uconst 0x0]
    1142                      .dwattr $C$DW$113, DW_AT_accessibility(DW_ACCESS_public)
    1143              $C$DW$114       .dwtag  DW_TAG_member
    1144                      .dwattr $C$DW$114, DW_AT_type(*$C$DW$T$19)
    1145                      .dwattr $C$DW$114, DW_AT_name("rsvd2")
    1146                      .dwattr $C$DW$114, DW_AT_TI_symbol_name("_rsvd2")
    1147                      .dwattr $C$DW$114, DW_AT_bit_offset(0x00), DW_AT_bit_size(0x10)
    1148                      .dwattr $C$DW$114, DW_AT_data_member_location[DW_OP_plus_uconst 0x1]
    1149                      .dwattr $C$DW$114, DW_AT_accessibility(DW_ACCESS_public)
    1150                      .dwendtag $C$DW$T$35
    1151              
    1152              
    1153              $C$DW$T$36      .dwtag  DW_TAG_union_type
    1154                      .dwattr $C$DW$T$36, DW_AT_name("CAN_GLB_INT_EN_REG")
    1155                      .dwattr $C$DW$T$36, DW_AT_byte_size(0x02)
    1156              $C$DW$115       .dwtag  DW_TAG_member
    1157                      .dwattr $C$DW$115, DW_AT_type(*$C$DW$T$21)
    1158                      .dwattr $C$DW$115, DW_AT_name("all")
    1159                      .dwattr $C$DW$115, DW_AT_TI_symbol_name("_all")
    1160                      .dwattr $C$DW$115, DW_AT_data_member_location[DW_OP_plus_uconst 0x0]
    1161                      .dwattr $C$DW$115, DW_AT_accessibility(DW_ACCESS_public)
    1162              $C$DW$116       .dwtag  DW_TAG_member
    1163                      .dwattr $C$DW$116, DW_AT_type(*$C$DW$T$35)
    1164                      .dwattr $C$DW$116, DW_AT_name("bit")
    1165                      .dwattr $C$DW$116, DW_AT_TI_symbol_name("_bit")
    1166                      .dwattr $C$DW$116, DW_AT_data_member_location[DW_OP_plus_uconst 0x0]
    1167                      .dwattr $C$DW$116, DW_AT_accessibility(DW_ACCESS_public)
    1168                      .dwendtag $C$DW$T$36
    1169              
    1170              
    1171              $C$DW$T$37      .dwtag  DW_TAG_structure_type
    1172                      .dwattr $C$DW$T$37, DW_AT_name("CAN_GLB_INT_FLG_BITS")
    1173                      .dwattr $C$DW$T$37, DW_AT_byte_size(0x02)
    1174              $C$DW$117       .dwtag  DW_TAG_member
    1175                      .dwattr $C$DW$117, DW_AT_type(*$C$DW$T$19)
    1176                      .dwattr $C$DW$117, DW_AT_name("Name")
    1177                      .dwattr $C$DW$117, DW_AT_TI_symbol_name("_Name")
    1178                      .dwattr $C$DW$117, DW_AT_bit_offset(0x0f), DW_AT_bit_size(0x01)
    1179                      .dwattr $C$DW$117, DW_AT_data_member_location[DW_OP_plus_uconst 0x0]
    1180                      .dwattr $C$DW$117, DW_AT_accessibility(DW_ACCESS_public)
TMS320C2000 Assembler PC v6.1.3 Tue Oct 01 15:28:07 2013

Tools Copyright (c) 1996-2012 Texas Instruments Incorporated
C:\Users\a0272466\AppData\Local\Temp\0414810                         PAGE   23

    1181              $C$DW$118       .dwtag  DW_TAG_member
    1182                      .dwattr $C$DW$118, DW_AT_type(*$C$DW$T$19)
    1183                      .dwattr $C$DW$118, DW_AT_name("INT1_FLG")
    1184                      .dwattr $C$DW$118, DW_AT_TI_symbol_name("_INT1_FLG")
    1185                      .dwattr $C$DW$118, DW_AT_bit_offset(0x0e), DW_AT_bit_size(0x01)
    1186                      .dwattr $C$DW$118, DW_AT_data_member_location[DW_OP_plus_uconst 0x0]
    1187                      .dwattr $C$DW$118, DW_AT_accessibility(DW_ACCESS_public)
    1188              $C$DW$119       .dwtag  DW_TAG_member
    1189                      .dwattr $C$DW$119, DW_AT_type(*$C$DW$T$19)
    1190                      .dwattr $C$DW$119, DW_AT_name("rsvd1")
    1191                      .dwattr $C$DW$119, DW_AT_TI_symbol_name("_rsvd1")
    1192                      .dwattr $C$DW$119, DW_AT_bit_offset(0x00), DW_AT_bit_size(0x0e)
    1193                      .dwattr $C$DW$119, DW_AT_data_member_location[DW_OP_plus_uconst 0x0]
    1194                      .dwattr $C$DW$119, DW_AT_accessibility(DW_ACCESS_public)
    1195              $C$DW$120       .dwtag  DW_TAG_member
    1196                      .dwattr $C$DW$120, DW_AT_type(*$C$DW$T$19)
    1197                      .dwattr $C$DW$120, DW_AT_name("rsvd2")
    1198                      .dwattr $C$DW$120, DW_AT_TI_symbol_name("_rsvd2")
    1199                      .dwattr $C$DW$120, DW_AT_bit_offset(0x00), DW_AT_bit_size(0x10)
    1200                      .dwattr $C$DW$120, DW_AT_data_member_location[DW_OP_plus_uconst 0x1]
    1201                      .dwattr $C$DW$120, DW_AT_accessibility(DW_ACCESS_public)
    1202                      .dwendtag $C$DW$T$37
    1203              
    1204              
    1205              $C$DW$T$38      .dwtag  DW_TAG_union_type
    1206                      .dwattr $C$DW$T$38, DW_AT_name("CAN_GLB_INT_FLG_REG")
    1207                      .dwattr $C$DW$T$38, DW_AT_byte_size(0x02)
    1208              $C$DW$121       .dwtag  DW_TAG_member
    1209                      .dwattr $C$DW$121, DW_AT_type(*$C$DW$T$21)
    1210                      .dwattr $C$DW$121, DW_AT_name("all")
    1211                      .dwattr $C$DW$121, DW_AT_TI_symbol_name("_all")
    1212                      .dwattr $C$DW$121, DW_AT_data_member_location[DW_OP_plus_uconst 0x0]
    1213                      .dwattr $C$DW$121, DW_AT_accessibility(DW_ACCESS_public)
    1214              $C$DW$122       .dwtag  DW_TAG_member
    1215                      .dwattr $C$DW$122, DW_AT_type(*$C$DW$T$37)
    1216                      .dwattr $C$DW$122, DW_AT_name("bit")
    1217                      .dwattr $C$DW$122, DW_AT_TI_symbol_name("_bit")
    1218                      .dwattr $C$DW$122, DW_AT_data_member_location[DW_OP_plus_uconst 0x0]
    1219                      .dwattr $C$DW$122, DW_AT_accessibility(DW_ACCESS_public)
    1220                      .dwendtag $C$DW$T$38
    1221              
    1222              
    1223              $C$DW$T$39      .dwtag  DW_TAG_structure_type
    1224                      .dwattr $C$DW$T$39, DW_AT_name("CAN_IF1ARB_BITS")
    1225                      .dwattr $C$DW$T$39, DW_AT_byte_size(0x02)
    1226              $C$DW$123       .dwtag  DW_TAG_member
    1227                      .dwattr $C$DW$123, DW_AT_type(*$C$DW$T$21)
    1228                      .dwattr $C$DW$123, DW_AT_name("ID")
    1229                      .dwattr $C$DW$123, DW_AT_TI_symbol_name("_ID")
    1230                      .dwattr $C$DW$123, DW_AT_bit_offset(0x03), DW_AT_bit_size(0x1d)
    1231                      .dwattr $C$DW$123, DW_AT_data_member_location[DW_OP_plus_uconst 0x0]
    1232                      .dwattr $C$DW$123, DW_AT_accessibility(DW_ACCESS_public)
    1233              $C$DW$124       .dwtag  DW_TAG_member
    1234                      .dwattr $C$DW$124, DW_AT_type(*$C$DW$T$19)
    1235                      .dwattr $C$DW$124, DW_AT_name("Dir")
TMS320C2000 Assembler PC v6.1.3 Tue Oct 01 15:28:07 2013

Tools Copyright (c) 1996-2012 Texas Instruments Incorporated
C:\Users\a0272466\AppData\Local\Temp\0414810                         PAGE   24

    1236                      .dwattr $C$DW$124, DW_AT_TI_symbol_name("_Dir")
    1237                      .dwattr $C$DW$124, DW_AT_bit_offset(0x02), DW_AT_bit_size(0x01)
    1238                      .dwattr $C$DW$124, DW_AT_data_member_location[DW_OP_plus_uconst 0x1]
    1239                      .dwattr $C$DW$124, DW_AT_accessibility(DW_ACCESS_public)
    1240              $C$DW$125       .dwtag  DW_TAG_member
    1241                      .dwattr $C$DW$125, DW_AT_type(*$C$DW$T$19)
    1242                      .dwattr $C$DW$125, DW_AT_name("Xtd")
    1243                      .dwattr $C$DW$125, DW_AT_TI_symbol_name("_Xtd")
    1244                      .dwattr $C$DW$125, DW_AT_bit_offset(0x01), DW_AT_bit_size(0x01)
    1245                      .dwattr $C$DW$125, DW_AT_data_member_location[DW_OP_plus_uconst 0x1]
    1246                      .dwattr $C$DW$125, DW_AT_accessibility(DW_ACCESS_public)
    1247              $C$DW$126       .dwtag  DW_TAG_member
    1248                      .dwattr $C$DW$126, DW_AT_type(*$C$DW$T$19)
    1249                      .dwattr $C$DW$126, DW_AT_name("MsgVal")
    1250                      .dwattr $C$DW$126, DW_AT_TI_symbol_name("_MsgVal")
    1251                      .dwattr $C$DW$126, DW_AT_bit_offset(0x00), DW_AT_bit_size(0x01)
    1252                      .dwattr $C$DW$126, DW_AT_data_member_location[DW_OP_plus_uconst 0x1]
    1253                      .dwattr $C$DW$126, DW_AT_accessibility(DW_ACCESS_public)
    1254                      .dwendtag $C$DW$T$39
    1255              
    1256              
    1257              $C$DW$T$40      .dwtag  DW_TAG_union_type
    1258                      .dwattr $C$DW$T$40, DW_AT_name("CAN_IF1ARB_REG")
    1259                      .dwattr $C$DW$T$40, DW_AT_byte_size(0x02)
    1260              $C$DW$127       .dwtag  DW_TAG_member
    1261                      .dwattr $C$DW$127, DW_AT_type(*$C$DW$T$21)
    1262                      .dwattr $C$DW$127, DW_AT_name("all")
    1263                      .dwattr $C$DW$127, DW_AT_TI_symbol_name("_all")
    1264                      .dwattr $C$DW$127, DW_AT_data_member_location[DW_OP_plus_uconst 0x0]
    1265                      .dwattr $C$DW$127, DW_AT_accessibility(DW_ACCESS_public)
    1266              $C$DW$128       .dwtag  DW_TAG_member
    1267                      .dwattr $C$DW$128, DW_AT_type(*$C$DW$T$39)
    1268                      .dwattr $C$DW$128, DW_AT_name("bit")
    1269                      .dwattr $C$DW$128, DW_AT_TI_symbol_name("_bit")
    1270                      .dwattr $C$DW$128, DW_AT_data_member_location[DW_OP_plus_uconst 0x0]
    1271                      .dwattr $C$DW$128, DW_AT_accessibility(DW_ACCESS_public)
    1272                      .dwendtag $C$DW$T$40
    1273              
    1274              
    1275              $C$DW$T$41      .dwtag  DW_TAG_structure_type
    1276                      .dwattr $C$DW$T$41, DW_AT_name("CAN_IF1CMD_BITS")
    1277                      .dwattr $C$DW$T$41, DW_AT_byte_size(0x02)
    1278              $C$DW$129       .dwtag  DW_TAG_member
    1279                      .dwattr $C$DW$129, DW_AT_type(*$C$DW$T$19)
    1280                      .dwattr $C$DW$129, DW_AT_name("MSG_NUM")
    1281                      .dwattr $C$DW$129, DW_AT_TI_symbol_name("_MSG_NUM")
    1282                      .dwattr $C$DW$129, DW_AT_bit_offset(0x08), DW_AT_bit_size(0x08)
    1283                      .dwattr $C$DW$129, DW_AT_data_member_location[DW_OP_plus_uconst 0x0]
    1284                      .dwattr $C$DW$129, DW_AT_accessibility(DW_ACCESS_public)
    1285              $C$DW$130       .dwtag  DW_TAG_member
    1286                      .dwattr $C$DW$130, DW_AT_type(*$C$DW$T$19)
    1287                      .dwattr $C$DW$130, DW_AT_name("rsvd1")
    1288                      .dwattr $C$DW$130, DW_AT_TI_symbol_name("_rsvd1")
    1289                      .dwattr $C$DW$130, DW_AT_bit_offset(0x01), DW_AT_bit_size(0x07)
    1290                      .dwattr $C$DW$130, DW_AT_data_member_location[DW_OP_plus_uconst 0x0]
TMS320C2000 Assembler PC v6.1.3 Tue Oct 01 15:28:07 2013

Tools Copyright (c) 1996-2012 Texas Instruments Incorporated
C:\Users\a0272466\AppData\Local\Temp\0414810                         PAGE   25

    1291                      .dwattr $C$DW$130, DW_AT_accessibility(DW_ACCESS_public)
    1292              $C$DW$131       .dwtag  DW_TAG_member
    1293                      .dwattr $C$DW$131, DW_AT_type(*$C$DW$T$19)
    1294                      .dwattr $C$DW$131, DW_AT_name("Busy")
    1295                      .dwattr $C$DW$131, DW_AT_TI_symbol_name("_Busy")
    1296                      .dwattr $C$DW$131, DW_AT_bit_offset(0x00), DW_AT_bit_size(0x01)
    1297                      .dwattr $C$DW$131, DW_AT_data_member_location[DW_OP_plus_uconst 0x0]
    1298                      .dwattr $C$DW$131, DW_AT_accessibility(DW_ACCESS_public)
    1299              $C$DW$132       .dwtag  DW_TAG_member
    1300                      .dwattr $C$DW$132, DW_AT_type(*$C$DW$T$19)
    1301                      .dwattr $C$DW$132, DW_AT_name("DATA_B")
    1302                      .dwattr $C$DW$132, DW_AT_TI_symbol_name("_DATA_B")
    1303                      .dwattr $C$DW$132, DW_AT_bit_offset(0x0f), DW_AT_bit_size(0x01)
    1304                      .dwattr $C$DW$132, DW_AT_data_member_location[DW_OP_plus_uconst 0x1]
    1305                      .dwattr $C$DW$132, DW_AT_accessibility(DW_ACCESS_public)
    1306              $C$DW$133       .dwtag  DW_TAG_member
    1307                      .dwattr $C$DW$133, DW_AT_type(*$C$DW$T$19)
    1308                      .dwattr $C$DW$133, DW_AT_name("DATA_A")
    1309                      .dwattr $C$DW$133, DW_AT_TI_symbol_name("_DATA_A")
    1310                      .dwattr $C$DW$133, DW_AT_bit_offset(0x0e), DW_AT_bit_size(0x01)
    1311                      .dwattr $C$DW$133, DW_AT_data_member_location[DW_OP_plus_uconst 0x1]
    1312                      .dwattr $C$DW$133, DW_AT_accessibility(DW_ACCESS_public)
    1313              $C$DW$134       .dwtag  DW_TAG_member
    1314                      .dwattr $C$DW$134, DW_AT_type(*$C$DW$T$19)
    1315                      .dwattr $C$DW$134, DW_AT_name("TXRQST")
    1316                      .dwattr $C$DW$134, DW_AT_TI_symbol_name("_TXRQST")
    1317                      .dwattr $C$DW$134, DW_AT_bit_offset(0x0d), DW_AT_bit_size(0x01)
    1318                      .dwattr $C$DW$134, DW_AT_data_member_location[DW_OP_plus_uconst 0x1]
    1319                      .dwattr $C$DW$134, DW_AT_accessibility(DW_ACCESS_public)
    1320              $C$DW$135       .dwtag  DW_TAG_member
    1321                      .dwattr $C$DW$135, DW_AT_type(*$C$DW$T$19)
    1322                      .dwattr $C$DW$135, DW_AT_name("ClrIntPnd")
    1323                      .dwattr $C$DW$135, DW_AT_TI_symbol_name("_ClrIntPnd")
    1324                      .dwattr $C$DW$135, DW_AT_bit_offset(0x0c), DW_AT_bit_size(0x01)
    1325                      .dwattr $C$DW$135, DW_AT_data_member_location[DW_OP_plus_uconst 0x1]
    1326                      .dwattr $C$DW$135, DW_AT_accessibility(DW_ACCESS_public)
    1327              $C$DW$136       .dwtag  DW_TAG_member
    1328                      .dwattr $C$DW$136, DW_AT_type(*$C$DW$T$19)
    1329                      .dwattr $C$DW$136, DW_AT_name("Control")
    1330                      .dwattr $C$DW$136, DW_AT_TI_symbol_name("_Control")
    1331                      .dwattr $C$DW$136, DW_AT_bit_offset(0x0b), DW_AT_bit_size(0x01)
    1332                      .dwattr $C$DW$136, DW_AT_data_member_location[DW_OP_plus_uconst 0x1]
    1333                      .dwattr $C$DW$136, DW_AT_accessibility(DW_ACCESS_public)
    1334              $C$DW$137       .dwtag  DW_TAG_member
    1335                      .dwattr $C$DW$137, DW_AT_type(*$C$DW$T$19)
    1336                      .dwattr $C$DW$137, DW_AT_name("Arb")
    1337                      .dwattr $C$DW$137, DW_AT_TI_symbol_name("_Arb")
    1338                      .dwattr $C$DW$137, DW_AT_bit_offset(0x0a), DW_AT_bit_size(0x01)
    1339                      .dwattr $C$DW$137, DW_AT_data_member_location[DW_OP_plus_uconst 0x1]
    1340                      .dwattr $C$DW$137, DW_AT_accessibility(DW_ACCESS_public)
    1341              $C$DW$138       .dwtag  DW_TAG_member
    1342                      .dwattr $C$DW$138, DW_AT_type(*$C$DW$T$19)
    1343                      .dwattr $C$DW$138, DW_AT_name("Mask")
    1344                      .dwattr $C$DW$138, DW_AT_TI_symbol_name("_Mask")
    1345                      .dwattr $C$DW$138, DW_AT_bit_offset(0x09), DW_AT_bit_size(0x01)
TMS320C2000 Assembler PC v6.1.3 Tue Oct 01 15:28:07 2013

Tools Copyright (c) 1996-2012 Texas Instruments Incorporated
C:\Users\a0272466\AppData\Local\Temp\0414810                         PAGE   26

    1346                      .dwattr $C$DW$138, DW_AT_data_member_location[DW_OP_plus_uconst 0x1]
    1347                      .dwattr $C$DW$138, DW_AT_accessibility(DW_ACCESS_public)
    1348              $C$DW$139       .dwtag  DW_TAG_member
    1349                      .dwattr $C$DW$139, DW_AT_type(*$C$DW$T$19)
    1350                      .dwattr $C$DW$139, DW_AT_name("DIR")
    1351                      .dwattr $C$DW$139, DW_AT_TI_symbol_name("_DIR")
    1352                      .dwattr $C$DW$139, DW_AT_bit_offset(0x08), DW_AT_bit_size(0x01)
    1353                      .dwattr $C$DW$139, DW_AT_data_member_location[DW_OP_plus_uconst 0x1]
    1354                      .dwattr $C$DW$139, DW_AT_accessibility(DW_ACCESS_public)
    1355              $C$DW$140       .dwtag  DW_TAG_member
    1356                      .dwattr $C$DW$140, DW_AT_type(*$C$DW$T$19)
    1357                      .dwattr $C$DW$140, DW_AT_name("rsvd2")
    1358                      .dwattr $C$DW$140, DW_AT_TI_symbol_name("_rsvd2")
    1359                      .dwattr $C$DW$140, DW_AT_bit_offset(0x00), DW_AT_bit_size(0x08)
    1360                      .dwattr $C$DW$140, DW_AT_data_member_location[DW_OP_plus_uconst 0x1]
    1361                      .dwattr $C$DW$140, DW_AT_accessibility(DW_ACCESS_public)
    1362                      .dwendtag $C$DW$T$41
    1363              
    1364              
    1365              $C$DW$T$42      .dwtag  DW_TAG_union_type
    1366                      .dwattr $C$DW$T$42, DW_AT_name("CAN_IF1CMD_REG")
    1367                      .dwattr $C$DW$T$42, DW_AT_byte_size(0x02)
    1368              $C$DW$141       .dwtag  DW_TAG_member
    1369                      .dwattr $C$DW$141, DW_AT_type(*$C$DW$T$21)
    1370                      .dwattr $C$DW$141, DW_AT_name("all")
    1371                      .dwattr $C$DW$141, DW_AT_TI_symbol_name("_all")
    1372                      .dwattr $C$DW$141, DW_AT_data_member_location[DW_OP_plus_uconst 0x0]
    1373                      .dwattr $C$DW$141, DW_AT_accessibility(DW_ACCESS_public)
    1374              $C$DW$142       .dwtag  DW_TAG_member
    1375                      .dwattr $C$DW$142, DW_AT_type(*$C$DW$T$41)
    1376                      .dwattr $C$DW$142, DW_AT_name("bit")
    1377                      .dwattr $C$DW$142, DW_AT_TI_symbol_name("_bit")
    1378                      .dwattr $C$DW$142, DW_AT_data_member_location[DW_OP_plus_uconst 0x0]
    1379                      .dwattr $C$DW$142, DW_AT_accessibility(DW_ACCESS_public)
    1380                      .dwendtag $C$DW$T$42
    1381              
    1382              
    1383              $C$DW$T$43      .dwtag  DW_TAG_structure_type
    1384                      .dwattr $C$DW$T$43, DW_AT_name("CAN_IF1DATA_BITS")
    1385                      .dwattr $C$DW$T$43, DW_AT_byte_size(0x02)
    1386              $C$DW$143       .dwtag  DW_TAG_member
    1387                      .dwattr $C$DW$143, DW_AT_type(*$C$DW$T$19)
    1388                      .dwattr $C$DW$143, DW_AT_name("Data_0")
    1389                      .dwattr $C$DW$143, DW_AT_TI_symbol_name("_Data_0")
    1390                      .dwattr $C$DW$143, DW_AT_bit_offset(0x08), DW_AT_bit_size(0x08)
    1391                      .dwattr $C$DW$143, DW_AT_data_member_location[DW_OP_plus_uconst 0x0]
    1392                      .dwattr $C$DW$143, DW_AT_accessibility(DW_ACCESS_public)
    1393              $C$DW$144       .dwtag  DW_TAG_member
    1394                      .dwattr $C$DW$144, DW_AT_type(*$C$DW$T$19)
    1395                      .dwattr $C$DW$144, DW_AT_name("Data_1")
    1396                      .dwattr $C$DW$144, DW_AT_TI_symbol_name("_Data_1")
    1397                      .dwattr $C$DW$144, DW_AT_bit_offset(0x00), DW_AT_bit_size(0x08)
    1398                      .dwattr $C$DW$144, DW_AT_data_member_location[DW_OP_plus_uconst 0x0]
    1399                      .dwattr $C$DW$144, DW_AT_accessibility(DW_ACCESS_public)
    1400              $C$DW$145       .dwtag  DW_TAG_member
TMS320C2000 Assembler PC v6.1.3 Tue Oct 01 15:28:07 2013

Tools Copyright (c) 1996-2012 Texas Instruments Incorporated
C:\Users\a0272466\AppData\Local\Temp\0414810                         PAGE   27

    1401                      .dwattr $C$DW$145, DW_AT_type(*$C$DW$T$19)
    1402                      .dwattr $C$DW$145, DW_AT_name("Data_2")
    1403                      .dwattr $C$DW$145, DW_AT_TI_symbol_name("_Data_2")
    1404                      .dwattr $C$DW$145, DW_AT_bit_offset(0x08), DW_AT_bit_size(0x08)
    1405                      .dwattr $C$DW$145, DW_AT_data_member_location[DW_OP_plus_uconst 0x1]
    1406                      .dwattr $C$DW$145, DW_AT_accessibility(DW_ACCESS_public)
    1407              $C$DW$146       .dwtag  DW_TAG_member
    1408                      .dwattr $C$DW$146, DW_AT_type(*$C$DW$T$19)
    1409                      .dwattr $C$DW$146, DW_AT_name("Data_3")
    1410                      .dwattr $C$DW$146, DW_AT_TI_symbol_name("_Data_3")
    1411                      .dwattr $C$DW$146, DW_AT_bit_offset(0x00), DW_AT_bit_size(0x08)
    1412                      .dwattr $C$DW$146, DW_AT_data_member_location[DW_OP_plus_uconst 0x1]
    1413                      .dwattr $C$DW$146, DW_AT_accessibility(DW_ACCESS_public)
    1414                      .dwendtag $C$DW$T$43
    1415              
    1416              
    1417              $C$DW$T$44      .dwtag  DW_TAG_union_type
    1418                      .dwattr $C$DW$T$44, DW_AT_name("CAN_IF1DATA_REG")
    1419                      .dwattr $C$DW$T$44, DW_AT_byte_size(0x02)
    1420              $C$DW$147       .dwtag  DW_TAG_member
    1421                      .dwattr $C$DW$147, DW_AT_type(*$C$DW$T$21)
    1422                      .dwattr $C$DW$147, DW_AT_name("all")
    1423                      .dwattr $C$DW$147, DW_AT_TI_symbol_name("_all")
    1424                      .dwattr $C$DW$147, DW_AT_data_member_location[DW_OP_plus_uconst 0x0]
    1425                      .dwattr $C$DW$147, DW_AT_accessibility(DW_ACCESS_public)
    1426              $C$DW$148       .dwtag  DW_TAG_member
    1427                      .dwattr $C$DW$148, DW_AT_type(*$C$DW$T$43)
    1428                      .dwattr $C$DW$148, DW_AT_name("bit")
    1429                      .dwattr $C$DW$148, DW_AT_TI_symbol_name("_bit")
    1430                      .dwattr $C$DW$148, DW_AT_data_member_location[DW_OP_plus_uconst 0x0]
    1431                      .dwattr $C$DW$148, DW_AT_accessibility(DW_ACCESS_public)
    1432                      .dwendtag $C$DW$T$44
    1433              
    1434              
    1435              $C$DW$T$45      .dwtag  DW_TAG_structure_type
    1436                      .dwattr $C$DW$T$45, DW_AT_name("CAN_IF1DATB_BITS")
    1437                      .dwattr $C$DW$T$45, DW_AT_byte_size(0x02)
    1438              $C$DW$149       .dwtag  DW_TAG_member
    1439                      .dwattr $C$DW$149, DW_AT_type(*$C$DW$T$19)
    1440                      .dwattr $C$DW$149, DW_AT_name("Data_4")
    1441                      .dwattr $C$DW$149, DW_AT_TI_symbol_name("_Data_4")
    1442                      .dwattr $C$DW$149, DW_AT_bit_offset(0x08), DW_AT_bit_size(0x08)
    1443                      .dwattr $C$DW$149, DW_AT_data_member_location[DW_OP_plus_uconst 0x0]
    1444                      .dwattr $C$DW$149, DW_AT_accessibility(DW_ACCESS_public)
    1445              $C$DW$150       .dwtag  DW_TAG_member
    1446                      .dwattr $C$DW$150, DW_AT_type(*$C$DW$T$19)
    1447                      .dwattr $C$DW$150, DW_AT_name("Data_5")
    1448                      .dwattr $C$DW$150, DW_AT_TI_symbol_name("_Data_5")
    1449                      .dwattr $C$DW$150, DW_AT_bit_offset(0x00), DW_AT_bit_size(0x08)
    1450                      .dwattr $C$DW$150, DW_AT_data_member_location[DW_OP_plus_uconst 0x0]
    1451                      .dwattr $C$DW$150, DW_AT_accessibility(DW_ACCESS_public)
    1452              $C$DW$151       .dwtag  DW_TAG_member
    1453                      .dwattr $C$DW$151, DW_AT_type(*$C$DW$T$19)
    1454                      .dwattr $C$DW$151, DW_AT_name("Data_6")
    1455                      .dwattr $C$DW$151, DW_AT_TI_symbol_name("_Data_6")
TMS320C2000 Assembler PC v6.1.3 Tue Oct 01 15:28:07 2013

Tools Copyright (c) 1996-2012 Texas Instruments Incorporated
C:\Users\a0272466\AppData\Local\Temp\0414810                         PAGE   28

    1456                      .dwattr $C$DW$151, DW_AT_bit_offset(0x08), DW_AT_bit_size(0x08)
    1457                      .dwattr $C$DW$151, DW_AT_data_member_location[DW_OP_plus_uconst 0x1]
    1458                      .dwattr $C$DW$151, DW_AT_accessibility(DW_ACCESS_public)
    1459              $C$DW$152       .dwtag  DW_TAG_member
    1460                      .dwattr $C$DW$152, DW_AT_type(*$C$DW$T$19)
    1461                      .dwattr $C$DW$152, DW_AT_name("Data_7")
    1462                      .dwattr $C$DW$152, DW_AT_TI_symbol_name("_Data_7")
    1463                      .dwattr $C$DW$152, DW_AT_bit_offset(0x00), DW_AT_bit_size(0x08)
    1464                      .dwattr $C$DW$152, DW_AT_data_member_location[DW_OP_plus_uconst 0x1]
    1465                      .dwattr $C$DW$152, DW_AT_accessibility(DW_ACCESS_public)
    1466                      .dwendtag $C$DW$T$45
    1467              
    1468              
    1469              $C$DW$T$46      .dwtag  DW_TAG_union_type
    1470                      .dwattr $C$DW$T$46, DW_AT_name("CAN_IF1DATB_REG")
    1471                      .dwattr $C$DW$T$46, DW_AT_byte_size(0x02)
    1472              $C$DW$153       .dwtag  DW_TAG_member
    1473                      .dwattr $C$DW$153, DW_AT_type(*$C$DW$T$21)
    1474                      .dwattr $C$DW$153, DW_AT_name("all")
    1475                      .dwattr $C$DW$153, DW_AT_TI_symbol_name("_all")
    1476                      .dwattr $C$DW$153, DW_AT_data_member_location[DW_OP_plus_uconst 0x0]
    1477                      .dwattr $C$DW$153, DW_AT_accessibility(DW_ACCESS_public)
    1478              $C$DW$154       .dwtag  DW_TAG_member
    1479                      .dwattr $C$DW$154, DW_AT_type(*$C$DW$T$45)
    1480                      .dwattr $C$DW$154, DW_AT_name("bit")
    1481                      .dwattr $C$DW$154, DW_AT_TI_symbol_name("_bit")
    1482                      .dwattr $C$DW$154, DW_AT_data_member_location[DW_OP_plus_uconst 0x0]
    1483                      .dwattr $C$DW$154, DW_AT_accessibility(DW_ACCESS_public)
    1484                      .dwendtag $C$DW$T$46
    1485              
    1486              
    1487              $C$DW$T$47      .dwtag  DW_TAG_structure_type
    1488                      .dwattr $C$DW$T$47, DW_AT_name("CAN_IF1MCTL_BITS")
    1489                      .dwattr $C$DW$T$47, DW_AT_byte_size(0x02)
    1490              $C$DW$155       .dwtag  DW_TAG_member
    1491                      .dwattr $C$DW$155, DW_AT_type(*$C$DW$T$19)
    1492                      .dwattr $C$DW$155, DW_AT_name("DLC")
    1493                      .dwattr $C$DW$155, DW_AT_TI_symbol_name("_DLC")
    1494                      .dwattr $C$DW$155, DW_AT_bit_offset(0x0c), DW_AT_bit_size(0x04)
    1495                      .dwattr $C$DW$155, DW_AT_data_member_location[DW_OP_plus_uconst 0x0]
    1496                      .dwattr $C$DW$155, DW_AT_accessibility(DW_ACCESS_public)
    1497              $C$DW$156       .dwtag  DW_TAG_member
    1498                      .dwattr $C$DW$156, DW_AT_type(*$C$DW$T$19)
    1499                      .dwattr $C$DW$156, DW_AT_name("rsvd1")
    1500                      .dwattr $C$DW$156, DW_AT_TI_symbol_name("_rsvd1")
    1501                      .dwattr $C$DW$156, DW_AT_bit_offset(0x09), DW_AT_bit_size(0x03)
    1502                      .dwattr $C$DW$156, DW_AT_data_member_location[DW_OP_plus_uconst 0x0]
    1503                      .dwattr $C$DW$156, DW_AT_accessibility(DW_ACCESS_public)
    1504              $C$DW$157       .dwtag  DW_TAG_member
    1505                      .dwattr $C$DW$157, DW_AT_type(*$C$DW$T$19)
    1506                      .dwattr $C$DW$157, DW_AT_name("EoB")
    1507                      .dwattr $C$DW$157, DW_AT_TI_symbol_name("_EoB")
    1508                      .dwattr $C$DW$157, DW_AT_bit_offset(0x08), DW_AT_bit_size(0x01)
    1509                      .dwattr $C$DW$157, DW_AT_data_member_location[DW_OP_plus_uconst 0x0]
    1510                      .dwattr $C$DW$157, DW_AT_accessibility(DW_ACCESS_public)
TMS320C2000 Assembler PC v6.1.3 Tue Oct 01 15:28:07 2013

Tools Copyright (c) 1996-2012 Texas Instruments Incorporated
C:\Users\a0272466\AppData\Local\Temp\0414810                         PAGE   29

    1511              $C$DW$158       .dwtag  DW_TAG_member
    1512                      .dwattr $C$DW$158, DW_AT_type(*$C$DW$T$19)
    1513                      .dwattr $C$DW$158, DW_AT_name("TxRqst")
    1514                      .dwattr $C$DW$158, DW_AT_TI_symbol_name("_TxRqst")
    1515                      .dwattr $C$DW$158, DW_AT_bit_offset(0x07), DW_AT_bit_size(0x01)
    1516                      .dwattr $C$DW$158, DW_AT_data_member_location[DW_OP_plus_uconst 0x0]
    1517                      .dwattr $C$DW$158, DW_AT_accessibility(DW_ACCESS_public)
    1518              $C$DW$159       .dwtag  DW_TAG_member
    1519                      .dwattr $C$DW$159, DW_AT_type(*$C$DW$T$19)
    1520                      .dwattr $C$DW$159, DW_AT_name("RmtEn")
    1521                      .dwattr $C$DW$159, DW_AT_TI_symbol_name("_RmtEn")
    1522                      .dwattr $C$DW$159, DW_AT_bit_offset(0x06), DW_AT_bit_size(0x01)
    1523                      .dwattr $C$DW$159, DW_AT_data_member_location[DW_OP_plus_uconst 0x0]
    1524                      .dwattr $C$DW$159, DW_AT_accessibility(DW_ACCESS_public)
    1525              $C$DW$160       .dwtag  DW_TAG_member
    1526                      .dwattr $C$DW$160, DW_AT_type(*$C$DW$T$19)
    1527                      .dwattr $C$DW$160, DW_AT_name("RxIE")
    1528                      .dwattr $C$DW$160, DW_AT_TI_symbol_name("_RxIE")
    1529                      .dwattr $C$DW$160, DW_AT_bit_offset(0x05), DW_AT_bit_size(0x01)
    1530                      .dwattr $C$DW$160, DW_AT_data_member_location[DW_OP_plus_uconst 0x0]
    1531                      .dwattr $C$DW$160, DW_AT_accessibility(DW_ACCESS_public)
    1532              $C$DW$161       .dwtag  DW_TAG_member
    1533                      .dwattr $C$DW$161, DW_AT_type(*$C$DW$T$19)
    1534                      .dwattr $C$DW$161, DW_AT_name("TxIE")
    1535                      .dwattr $C$DW$161, DW_AT_TI_symbol_name("_TxIE")
    1536                      .dwattr $C$DW$161, DW_AT_bit_offset(0x04), DW_AT_bit_size(0x01)
    1537                      .dwattr $C$DW$161, DW_AT_data_member_location[DW_OP_plus_uconst 0x0]
    1538                      .dwattr $C$DW$161, DW_AT_accessibility(DW_ACCESS_public)
    1539              $C$DW$162       .dwtag  DW_TAG_member
    1540                      .dwattr $C$DW$162, DW_AT_type(*$C$DW$T$19)
    1541                      .dwattr $C$DW$162, DW_AT_name("UMask")
    1542                      .dwattr $C$DW$162, DW_AT_TI_symbol_name("_UMask")
    1543                      .dwattr $C$DW$162, DW_AT_bit_offset(0x03), DW_AT_bit_size(0x01)
    1544                      .dwattr $C$DW$162, DW_AT_data_member_location[DW_OP_plus_uconst 0x0]
    1545                      .dwattr $C$DW$162, DW_AT_accessibility(DW_ACCESS_public)
    1546              $C$DW$163       .dwtag  DW_TAG_member
    1547                      .dwattr $C$DW$163, DW_AT_type(*$C$DW$T$19)
    1548                      .dwattr $C$DW$163, DW_AT_name("IntPnd")
    1549                      .dwattr $C$DW$163, DW_AT_TI_symbol_name("_IntPnd")
    1550                      .dwattr $C$DW$163, DW_AT_bit_offset(0x02), DW_AT_bit_size(0x01)
    1551                      .dwattr $C$DW$163, DW_AT_data_member_location[DW_OP_plus_uconst 0x0]
    1552                      .dwattr $C$DW$163, DW_AT_accessibility(DW_ACCESS_public)
    1553              $C$DW$164       .dwtag  DW_TAG_member
    1554                      .dwattr $C$DW$164, DW_AT_type(*$C$DW$T$19)
    1555                      .dwattr $C$DW$164, DW_AT_name("MsgLst")
    1556                      .dwattr $C$DW$164, DW_AT_TI_symbol_name("_MsgLst")
    1557                      .dwattr $C$DW$164, DW_AT_bit_offset(0x01), DW_AT_bit_size(0x01)
    1558                      .dwattr $C$DW$164, DW_AT_data_member_location[DW_OP_plus_uconst 0x0]
    1559                      .dwattr $C$DW$164, DW_AT_accessibility(DW_ACCESS_public)
    1560              $C$DW$165       .dwtag  DW_TAG_member
    1561                      .dwattr $C$DW$165, DW_AT_type(*$C$DW$T$19)
    1562                      .dwattr $C$DW$165, DW_AT_name("NewDat")
    1563                      .dwattr $C$DW$165, DW_AT_TI_symbol_name("_NewDat")
    1564                      .dwattr $C$DW$165, DW_AT_bit_offset(0x00), DW_AT_bit_size(0x01)
    1565                      .dwattr $C$DW$165, DW_AT_data_member_location[DW_OP_plus_uconst 0x0]
TMS320C2000 Assembler PC v6.1.3 Tue Oct 01 15:28:07 2013

Tools Copyright (c) 1996-2012 Texas Instruments Incorporated
C:\Users\a0272466\AppData\Local\Temp\0414810                         PAGE   30

    1566                      .dwattr $C$DW$165, DW_AT_accessibility(DW_ACCESS_public)
    1567              $C$DW$166       .dwtag  DW_TAG_member
    1568                      .dwattr $C$DW$166, DW_AT_type(*$C$DW$T$19)
    1569                      .dwattr $C$DW$166, DW_AT_name("rsvd2")
    1570                      .dwattr $C$DW$166, DW_AT_TI_symbol_name("_rsvd2")
    1571                      .dwattr $C$DW$166, DW_AT_bit_offset(0x00), DW_AT_bit_size(0x10)
    1572                      .dwattr $C$DW$166, DW_AT_data_member_location[DW_OP_plus_uconst 0x1]
    1573                      .dwattr $C$DW$166, DW_AT_accessibility(DW_ACCESS_public)
    1574                      .dwendtag $C$DW$T$47
    1575              
    1576              
    1577              $C$DW$T$48      .dwtag  DW_TAG_union_type
    1578                      .dwattr $C$DW$T$48, DW_AT_name("CAN_IF1MCTL_REG")
    1579                      .dwattr $C$DW$T$48, DW_AT_byte_size(0x02)
    1580              $C$DW$167       .dwtag  DW_TAG_member
    1581                      .dwattr $C$DW$167, DW_AT_type(*$C$DW$T$21)
    1582                      .dwattr $C$DW$167, DW_AT_name("all")
    1583                      .dwattr $C$DW$167, DW_AT_TI_symbol_name("_all")
    1584                      .dwattr $C$DW$167, DW_AT_data_member_location[DW_OP_plus_uconst 0x0]
    1585                      .dwattr $C$DW$167, DW_AT_accessibility(DW_ACCESS_public)
    1586              $C$DW$168       .dwtag  DW_TAG_member
    1587                      .dwattr $C$DW$168, DW_AT_type(*$C$DW$T$47)
    1588                      .dwattr $C$DW$168, DW_AT_name("bit")
    1589                      .dwattr $C$DW$168, DW_AT_TI_symbol_name("_bit")
    1590                      .dwattr $C$DW$168, DW_AT_data_member_location[DW_OP_plus_uconst 0x0]
    1591                      .dwattr $C$DW$168, DW_AT_accessibility(DW_ACCESS_public)
    1592                      .dwendtag $C$DW$T$48
    1593              
    1594              
    1595              $C$DW$T$49      .dwtag  DW_TAG_structure_type
    1596                      .dwattr $C$DW$T$49, DW_AT_name("CAN_IF1MSK_BITS")
    1597                      .dwattr $C$DW$T$49, DW_AT_byte_size(0x02)
    1598              $C$DW$169       .dwtag  DW_TAG_member
    1599                      .dwattr $C$DW$169, DW_AT_type(*$C$DW$T$21)
    1600                      .dwattr $C$DW$169, DW_AT_name("Msk")
    1601                      .dwattr $C$DW$169, DW_AT_TI_symbol_name("_Msk")
    1602                      .dwattr $C$DW$169, DW_AT_bit_offset(0x03), DW_AT_bit_size(0x1d)
    1603                      .dwattr $C$DW$169, DW_AT_data_member_location[DW_OP_plus_uconst 0x0]
    1604                      .dwattr $C$DW$169, DW_AT_accessibility(DW_ACCESS_public)
    1605              $C$DW$170       .dwtag  DW_TAG_member
    1606                      .dwattr $C$DW$170, DW_AT_type(*$C$DW$T$19)
    1607                      .dwattr $C$DW$170, DW_AT_name("rsvd1")
    1608                      .dwattr $C$DW$170, DW_AT_TI_symbol_name("_rsvd1")
    1609                      .dwattr $C$DW$170, DW_AT_bit_offset(0x02), DW_AT_bit_size(0x01)
    1610                      .dwattr $C$DW$170, DW_AT_data_member_location[DW_OP_plus_uconst 0x1]
    1611                      .dwattr $C$DW$170, DW_AT_accessibility(DW_ACCESS_public)
    1612              $C$DW$171       .dwtag  DW_TAG_member
    1613                      .dwattr $C$DW$171, DW_AT_type(*$C$DW$T$19)
    1614                      .dwattr $C$DW$171, DW_AT_name("MDir")
    1615                      .dwattr $C$DW$171, DW_AT_TI_symbol_name("_MDir")
    1616                      .dwattr $C$DW$171, DW_AT_bit_offset(0x01), DW_AT_bit_size(0x01)
    1617                      .dwattr $C$DW$171, DW_AT_data_member_location[DW_OP_plus_uconst 0x1]
    1618                      .dwattr $C$DW$171, DW_AT_accessibility(DW_ACCESS_public)
    1619              $C$DW$172       .dwtag  DW_TAG_member
    1620                      .dwattr $C$DW$172, DW_AT_type(*$C$DW$T$19)
TMS320C2000 Assembler PC v6.1.3 Tue Oct 01 15:28:07 2013

Tools Copyright (c) 1996-2012 Texas Instruments Incorporated
C:\Users\a0272466\AppData\Local\Temp\0414810                         PAGE   31

    1621                      .dwattr $C$DW$172, DW_AT_name("MXtd")
    1622                      .dwattr $C$DW$172, DW_AT_TI_symbol_name("_MXtd")
    1623                      .dwattr $C$DW$172, DW_AT_bit_offset(0x00), DW_AT_bit_size(0x01)
    1624                      .dwattr $C$DW$172, DW_AT_data_member_location[DW_OP_plus_uconst 0x1]
    1625                      .dwattr $C$DW$172, DW_AT_accessibility(DW_ACCESS_public)
    1626                      .dwendtag $C$DW$T$49
    1627              
    1628              
    1629              $C$DW$T$50      .dwtag  DW_TAG_union_type
    1630                      .dwattr $C$DW$T$50, DW_AT_name("CAN_IF1MSK_REG")
    1631                      .dwattr $C$DW$T$50, DW_AT_byte_size(0x02)
    1632              $C$DW$173       .dwtag  DW_TAG_member
    1633                      .dwattr $C$DW$173, DW_AT_type(*$C$DW$T$21)
    1634                      .dwattr $C$DW$173, DW_AT_name("all")
    1635                      .dwattr $C$DW$173, DW_AT_TI_symbol_name("_all")
    1636                      .dwattr $C$DW$173, DW_AT_data_member_location[DW_OP_plus_uconst 0x0]
    1637                      .dwattr $C$DW$173, DW_AT_accessibility(DW_ACCESS_public)
    1638              $C$DW$174       .dwtag  DW_TAG_member
    1639                      .dwattr $C$DW$174, DW_AT_type(*$C$DW$T$49)
    1640                      .dwattr $C$DW$174, DW_AT_name("bit")
    1641                      .dwattr $C$DW$174, DW_AT_TI_symbol_name("_bit")
    1642                      .dwattr $C$DW$174, DW_AT_data_member_location[DW_OP_plus_uconst 0x0]
    1643                      .dwattr $C$DW$174, DW_AT_accessibility(DW_ACCESS_public)
    1644                      .dwendtag $C$DW$T$50
    1645              
    1646              
    1647              $C$DW$T$51      .dwtag  DW_TAG_structure_type
    1648                      .dwattr $C$DW$T$51, DW_AT_name("CAN_IF2ARB_BITS")
    1649                      .dwattr $C$DW$T$51, DW_AT_byte_size(0x02)
    1650              $C$DW$175       .dwtag  DW_TAG_member
    1651                      .dwattr $C$DW$175, DW_AT_type(*$C$DW$T$21)
    1652                      .dwattr $C$DW$175, DW_AT_name("ID")
    1653                      .dwattr $C$DW$175, DW_AT_TI_symbol_name("_ID")
    1654                      .dwattr $C$DW$175, DW_AT_bit_offset(0x03), DW_AT_bit_size(0x1d)
    1655                      .dwattr $C$DW$175, DW_AT_data_member_location[DW_OP_plus_uconst 0x0]
    1656                      .dwattr $C$DW$175, DW_AT_accessibility(DW_ACCESS_public)
    1657              $C$DW$176       .dwtag  DW_TAG_member
    1658                      .dwattr $C$DW$176, DW_AT_type(*$C$DW$T$19)
    1659                      .dwattr $C$DW$176, DW_AT_name("Dir")
    1660                      .dwattr $C$DW$176, DW_AT_TI_symbol_name("_Dir")
    1661                      .dwattr $C$DW$176, DW_AT_bit_offset(0x02), DW_AT_bit_size(0x01)
    1662                      .dwattr $C$DW$176, DW_AT_data_member_location[DW_OP_plus_uconst 0x1]
    1663                      .dwattr $C$DW$176, DW_AT_accessibility(DW_ACCESS_public)
    1664              $C$DW$177       .dwtag  DW_TAG_member
    1665                      .dwattr $C$DW$177, DW_AT_type(*$C$DW$T$19)
    1666                      .dwattr $C$DW$177, DW_AT_name("Xtd")
    1667                      .dwattr $C$DW$177, DW_AT_TI_symbol_name("_Xtd")
    1668                      .dwattr $C$DW$177, DW_AT_bit_offset(0x01), DW_AT_bit_size(0x01)
    1669                      .dwattr $C$DW$177, DW_AT_data_member_location[DW_OP_plus_uconst 0x1]
    1670                      .dwattr $C$DW$177, DW_AT_accessibility(DW_ACCESS_public)
    1671              $C$DW$178       .dwtag  DW_TAG_member
    1672                      .dwattr $C$DW$178, DW_AT_type(*$C$DW$T$19)
    1673                      .dwattr $C$DW$178, DW_AT_name("MsgVal")
    1674                      .dwattr $C$DW$178, DW_AT_TI_symbol_name("_MsgVal")
    1675                      .dwattr $C$DW$178, DW_AT_bit_offset(0x00), DW_AT_bit_size(0x01)
TMS320C2000 Assembler PC v6.1.3 Tue Oct 01 15:28:07 2013

Tools Copyright (c) 1996-2012 Texas Instruments Incorporated
C:\Users\a0272466\AppData\Local\Temp\0414810                         PAGE   32

    1676                      .dwattr $C$DW$178, DW_AT_data_member_location[DW_OP_plus_uconst 0x1]
    1677                      .dwattr $C$DW$178, DW_AT_accessibility(DW_ACCESS_public)
    1678                      .dwendtag $C$DW$T$51
    1679              
    1680              
    1681              $C$DW$T$52      .dwtag  DW_TAG_union_type
    1682                      .dwattr $C$DW$T$52, DW_AT_name("CAN_IF2ARB_REG")
    1683                      .dwattr $C$DW$T$52, DW_AT_byte_size(0x02)
    1684              $C$DW$179       .dwtag  DW_TAG_member
    1685                      .dwattr $C$DW$179, DW_AT_type(*$C$DW$T$21)
    1686                      .dwattr $C$DW$179, DW_AT_name("all")
    1687                      .dwattr $C$DW$179, DW_AT_TI_symbol_name("_all")
    1688                      .dwattr $C$DW$179, DW_AT_data_member_location[DW_OP_plus_uconst 0x0]
    1689                      .dwattr $C$DW$179, DW_AT_accessibility(DW_ACCESS_public)
    1690              $C$DW$180       .dwtag  DW_TAG_member
    1691                      .dwattr $C$DW$180, DW_AT_type(*$C$DW$T$51)
    1692                      .dwattr $C$DW$180, DW_AT_name("bit")
    1693                      .dwattr $C$DW$180, DW_AT_TI_symbol_name("_bit")
    1694                      .dwattr $C$DW$180, DW_AT_data_member_location[DW_OP_plus_uconst 0x0]
    1695                      .dwattr $C$DW$180, DW_AT_accessibility(DW_ACCESS_public)
    1696                      .dwendtag $C$DW$T$52
    1697              
    1698              
    1699              $C$DW$T$53      .dwtag  DW_TAG_structure_type
    1700                      .dwattr $C$DW$T$53, DW_AT_name("CAN_IF2CMD_BITS")
    1701                      .dwattr $C$DW$T$53, DW_AT_byte_size(0x02)
    1702              $C$DW$181       .dwtag  DW_TAG_member
    1703                      .dwattr $C$DW$181, DW_AT_type(*$C$DW$T$19)
    1704                      .dwattr $C$DW$181, DW_AT_name("MSG_NUM")
    1705                      .dwattr $C$DW$181, DW_AT_TI_symbol_name("_MSG_NUM")
    1706                      .dwattr $C$DW$181, DW_AT_bit_offset(0x08), DW_AT_bit_size(0x08)
    1707                      .dwattr $C$DW$181, DW_AT_data_member_location[DW_OP_plus_uconst 0x0]
    1708                      .dwattr $C$DW$181, DW_AT_accessibility(DW_ACCESS_public)
    1709              $C$DW$182       .dwtag  DW_TAG_member
    1710                      .dwattr $C$DW$182, DW_AT_type(*$C$DW$T$19)
    1711                      .dwattr $C$DW$182, DW_AT_name("rsvd1")
    1712                      .dwattr $C$DW$182, DW_AT_TI_symbol_name("_rsvd1")
    1713                      .dwattr $C$DW$182, DW_AT_bit_offset(0x01), DW_AT_bit_size(0x07)
    1714                      .dwattr $C$DW$182, DW_AT_data_member_location[DW_OP_plus_uconst 0x0]
    1715                      .dwattr $C$DW$182, DW_AT_accessibility(DW_ACCESS_public)
    1716              $C$DW$183       .dwtag  DW_TAG_member
    1717                      .dwattr $C$DW$183, DW_AT_type(*$C$DW$T$19)
    1718                      .dwattr $C$DW$183, DW_AT_name("Busy")
    1719                      .dwattr $C$DW$183, DW_AT_TI_symbol_name("_Busy")
    1720                      .dwattr $C$DW$183, DW_AT_bit_offset(0x00), DW_AT_bit_size(0x01)
    1721                      .dwattr $C$DW$183, DW_AT_data_member_location[DW_OP_plus_uconst 0x0]
    1722                      .dwattr $C$DW$183, DW_AT_accessibility(DW_ACCESS_public)
    1723              $C$DW$184       .dwtag  DW_TAG_member
    1724                      .dwattr $C$DW$184, DW_AT_type(*$C$DW$T$19)
    1725                      .dwattr $C$DW$184, DW_AT_name("DATA_B")
    1726                      .dwattr $C$DW$184, DW_AT_TI_symbol_name("_DATA_B")
    1727                      .dwattr $C$DW$184, DW_AT_bit_offset(0x0f), DW_AT_bit_size(0x01)
    1728                      .dwattr $C$DW$184, DW_AT_data_member_location[DW_OP_plus_uconst 0x1]
    1729                      .dwattr $C$DW$184, DW_AT_accessibility(DW_ACCESS_public)
    1730              $C$DW$185       .dwtag  DW_TAG_member
TMS320C2000 Assembler PC v6.1.3 Tue Oct 01 15:28:07 2013

Tools Copyright (c) 1996-2012 Texas Instruments Incorporated
C:\Users\a0272466\AppData\Local\Temp\0414810                         PAGE   33

    1731                      .dwattr $C$DW$185, DW_AT_type(*$C$DW$T$19)
    1732                      .dwattr $C$DW$185, DW_AT_name("DATA_A")
    1733                      .dwattr $C$DW$185, DW_AT_TI_symbol_name("_DATA_A")
    1734                      .dwattr $C$DW$185, DW_AT_bit_offset(0x0e), DW_AT_bit_size(0x01)
    1735                      .dwattr $C$DW$185, DW_AT_data_member_location[DW_OP_plus_uconst 0x1]
    1736                      .dwattr $C$DW$185, DW_AT_accessibility(DW_ACCESS_public)
    1737              $C$DW$186       .dwtag  DW_TAG_member
    1738                      .dwattr $C$DW$186, DW_AT_type(*$C$DW$T$19)
    1739                      .dwattr $C$DW$186, DW_AT_name("TxRqst")
    1740                      .dwattr $C$DW$186, DW_AT_TI_symbol_name("_TxRqst")
    1741                      .dwattr $C$DW$186, DW_AT_bit_offset(0x0d), DW_AT_bit_size(0x01)
    1742                      .dwattr $C$DW$186, DW_AT_data_member_location[DW_OP_plus_uconst 0x1]
    1743                      .dwattr $C$DW$186, DW_AT_accessibility(DW_ACCESS_public)
    1744              $C$DW$187       .dwtag  DW_TAG_member
    1745                      .dwattr $C$DW$187, DW_AT_type(*$C$DW$T$19)
    1746                      .dwattr $C$DW$187, DW_AT_name("ClrIntPnd")
    1747                      .dwattr $C$DW$187, DW_AT_TI_symbol_name("_ClrIntPnd")
    1748                      .dwattr $C$DW$187, DW_AT_bit_offset(0x0c), DW_AT_bit_size(0x01)
    1749                      .dwattr $C$DW$187, DW_AT_data_member_location[DW_OP_plus_uconst 0x1]
    1750                      .dwattr $C$DW$187, DW_AT_accessibility(DW_ACCESS_public)
    1751              $C$DW$188       .dwtag  DW_TAG_member
    1752                      .dwattr $C$DW$188, DW_AT_type(*$C$DW$T$19)
    1753                      .dwattr $C$DW$188, DW_AT_name("Control")
    1754                      .dwattr $C$DW$188, DW_AT_TI_symbol_name("_Control")
    1755                      .dwattr $C$DW$188, DW_AT_bit_offset(0x0b), DW_AT_bit_size(0x01)
    1756                      .dwattr $C$DW$188, DW_AT_data_member_location[DW_OP_plus_uconst 0x1]
    1757                      .dwattr $C$DW$188, DW_AT_accessibility(DW_ACCESS_public)
    1758              $C$DW$189       .dwtag  DW_TAG_member
    1759                      .dwattr $C$DW$189, DW_AT_type(*$C$DW$T$19)
    1760                      .dwattr $C$DW$189, DW_AT_name("Arb")
    1761                      .dwattr $C$DW$189, DW_AT_TI_symbol_name("_Arb")
    1762                      .dwattr $C$DW$189, DW_AT_bit_offset(0x0a), DW_AT_bit_size(0x01)
    1763                      .dwattr $C$DW$189, DW_AT_data_member_location[DW_OP_plus_uconst 0x1]
    1764                      .dwattr $C$DW$189, DW_AT_accessibility(DW_ACCESS_public)
    1765              $C$DW$190       .dwtag  DW_TAG_member
    1766                      .dwattr $C$DW$190, DW_AT_type(*$C$DW$T$19)
    1767                      .dwattr $C$DW$190, DW_AT_name("Mask")
    1768                      .dwattr $C$DW$190, DW_AT_TI_symbol_name("_Mask")
    1769                      .dwattr $C$DW$190, DW_AT_bit_offset(0x09), DW_AT_bit_size(0x01)
    1770                      .dwattr $C$DW$190, DW_AT_data_member_location[DW_OP_plus_uconst 0x1]
    1771                      .dwattr $C$DW$190, DW_AT_accessibility(DW_ACCESS_public)
    1772              $C$DW$191       .dwtag  DW_TAG_member
    1773                      .dwattr $C$DW$191, DW_AT_type(*$C$DW$T$19)
    1774                      .dwattr $C$DW$191, DW_AT_name("DIR")
    1775                      .dwattr $C$DW$191, DW_AT_TI_symbol_name("_DIR")
    1776                      .dwattr $C$DW$191, DW_AT_bit_offset(0x08), DW_AT_bit_size(0x01)
    1777                      .dwattr $C$DW$191, DW_AT_data_member_location[DW_OP_plus_uconst 0x1]
    1778                      .dwattr $C$DW$191, DW_AT_accessibility(DW_ACCESS_public)
    1779              $C$DW$192       .dwtag  DW_TAG_member
    1780                      .dwattr $C$DW$192, DW_AT_type(*$C$DW$T$19)
    1781                      .dwattr $C$DW$192, DW_AT_name("rsvd2")
    1782                      .dwattr $C$DW$192, DW_AT_TI_symbol_name("_rsvd2")
    1783                      .dwattr $C$DW$192, DW_AT_bit_offset(0x00), DW_AT_bit_size(0x08)
    1784                      .dwattr $C$DW$192, DW_AT_data_member_location[DW_OP_plus_uconst 0x1]
    1785                      .dwattr $C$DW$192, DW_AT_accessibility(DW_ACCESS_public)
TMS320C2000 Assembler PC v6.1.3 Tue Oct 01 15:28:07 2013

Tools Copyright (c) 1996-2012 Texas Instruments Incorporated
C:\Users\a0272466\AppData\Local\Temp\0414810                         PAGE   34

    1786                      .dwendtag $C$DW$T$53
    1787              
    1788              
    1789              $C$DW$T$54      .dwtag  DW_TAG_union_type
    1790                      .dwattr $C$DW$T$54, DW_AT_name("CAN_IF2CMD_REG")
    1791                      .dwattr $C$DW$T$54, DW_AT_byte_size(0x02)
    1792              $C$DW$193       .dwtag  DW_TAG_member
    1793                      .dwattr $C$DW$193, DW_AT_type(*$C$DW$T$21)
    1794                      .dwattr $C$DW$193, DW_AT_name("all")
    1795                      .dwattr $C$DW$193, DW_AT_TI_symbol_name("_all")
    1796                      .dwattr $C$DW$193, DW_AT_data_member_location[DW_OP_plus_uconst 0x0]
    1797                      .dwattr $C$DW$193, DW_AT_accessibility(DW_ACCESS_public)
    1798              $C$DW$194       .dwtag  DW_TAG_member
    1799                      .dwattr $C$DW$194, DW_AT_type(*$C$DW$T$53)
    1800                      .dwattr $C$DW$194, DW_AT_name("bit")
    1801                      .dwattr $C$DW$194, DW_AT_TI_symbol_name("_bit")
    1802                      .dwattr $C$DW$194, DW_AT_data_member_location[DW_OP_plus_uconst 0x0]
    1803                      .dwattr $C$DW$194, DW_AT_accessibility(DW_ACCESS_public)
    1804                      .dwendtag $C$DW$T$54
    1805              
    1806              
    1807              $C$DW$T$55      .dwtag  DW_TAG_structure_type
    1808                      .dwattr $C$DW$T$55, DW_AT_name("CAN_IF2DATA_BITS")
    1809                      .dwattr $C$DW$T$55, DW_AT_byte_size(0x02)
    1810              $C$DW$195       .dwtag  DW_TAG_member
    1811                      .dwattr $C$DW$195, DW_AT_type(*$C$DW$T$19)
    1812                      .dwattr $C$DW$195, DW_AT_name("Data_0")
    1813                      .dwattr $C$DW$195, DW_AT_TI_symbol_name("_Data_0")
    1814                      .dwattr $C$DW$195, DW_AT_bit_offset(0x08), DW_AT_bit_size(0x08)
    1815                      .dwattr $C$DW$195, DW_AT_data_member_location[DW_OP_plus_uconst 0x0]
    1816                      .dwattr $C$DW$195, DW_AT_accessibility(DW_ACCESS_public)
    1817              $C$DW$196       .dwtag  DW_TAG_member
    1818                      .dwattr $C$DW$196, DW_AT_type(*$C$DW$T$19)
    1819                      .dwattr $C$DW$196, DW_AT_name("Data_1")
    1820                      .dwattr $C$DW$196, DW_AT_TI_symbol_name("_Data_1")
    1821                      .dwattr $C$DW$196, DW_AT_bit_offset(0x00), DW_AT_bit_size(0x08)
    1822                      .dwattr $C$DW$196, DW_AT_data_member_location[DW_OP_plus_uconst 0x0]
    1823                      .dwattr $C$DW$196, DW_AT_accessibility(DW_ACCESS_public)
    1824              $C$DW$197       .dwtag  DW_TAG_member
    1825                      .dwattr $C$DW$197, DW_AT_type(*$C$DW$T$19)
    1826                      .dwattr $C$DW$197, DW_AT_name("Data_2")
    1827                      .dwattr $C$DW$197, DW_AT_TI_symbol_name("_Data_2")
    1828                      .dwattr $C$DW$197, DW_AT_bit_offset(0x08), DW_AT_bit_size(0x08)
    1829                      .dwattr $C$DW$197, DW_AT_data_member_location[DW_OP_plus_uconst 0x1]
    1830                      .dwattr $C$DW$197, DW_AT_accessibility(DW_ACCESS_public)
    1831              $C$DW$198       .dwtag  DW_TAG_member
    1832                      .dwattr $C$DW$198, DW_AT_type(*$C$DW$T$19)
    1833                      .dwattr $C$DW$198, DW_AT_name("Data_3")
    1834                      .dwattr $C$DW$198, DW_AT_TI_symbol_name("_Data_3")
    1835                      .dwattr $C$DW$198, DW_AT_bit_offset(0x00), DW_AT_bit_size(0x08)
    1836                      .dwattr $C$DW$198, DW_AT_data_member_location[DW_OP_plus_uconst 0x1]
    1837                      .dwattr $C$DW$198, DW_AT_accessibility(DW_ACCESS_public)
    1838                      .dwendtag $C$DW$T$55
    1839              
    1840              
TMS320C2000 Assembler PC v6.1.3 Tue Oct 01 15:28:07 2013

Tools Copyright (c) 1996-2012 Texas Instruments Incorporated
C:\Users\a0272466\AppData\Local\Temp\0414810                         PAGE   35

    1841              $C$DW$T$56      .dwtag  DW_TAG_union_type
    1842                      .dwattr $C$DW$T$56, DW_AT_name("CAN_IF2DATA_REG")
    1843                      .dwattr $C$DW$T$56, DW_AT_byte_size(0x02)
    1844              $C$DW$199       .dwtag  DW_TAG_member
    1845                      .dwattr $C$DW$199, DW_AT_type(*$C$DW$T$21)
    1846                      .dwattr $C$DW$199, DW_AT_name("all")
    1847                      .dwattr $C$DW$199, DW_AT_TI_symbol_name("_all")
    1848                      .dwattr $C$DW$199, DW_AT_data_member_location[DW_OP_plus_uconst 0x0]
    1849                      .dwattr $C$DW$199, DW_AT_accessibility(DW_ACCESS_public)
    1850              $C$DW$200       .dwtag  DW_TAG_member
    1851                      .dwattr $C$DW$200, DW_AT_type(*$C$DW$T$55)
    1852                      .dwattr $C$DW$200, DW_AT_name("bit")
    1853                      .dwattr $C$DW$200, DW_AT_TI_symbol_name("_bit")
    1854                      .dwattr $C$DW$200, DW_AT_data_member_location[DW_OP_plus_uconst 0x0]
    1855                      .dwattr $C$DW$200, DW_AT_accessibility(DW_ACCESS_public)
    1856                      .dwendtag $C$DW$T$56
    1857              
    1858              
    1859              $C$DW$T$57      .dwtag  DW_TAG_structure_type
    1860                      .dwattr $C$DW$T$57, DW_AT_name("CAN_IF2DATB_BITS")
    1861                      .dwattr $C$DW$T$57, DW_AT_byte_size(0x02)
    1862              $C$DW$201       .dwtag  DW_TAG_member
    1863                      .dwattr $C$DW$201, DW_AT_type(*$C$DW$T$19)
    1864                      .dwattr $C$DW$201, DW_AT_name("Data_4")
    1865                      .dwattr $C$DW$201, DW_AT_TI_symbol_name("_Data_4")
    1866                      .dwattr $C$DW$201, DW_AT_bit_offset(0x08), DW_AT_bit_size(0x08)
    1867                      .dwattr $C$DW$201, DW_AT_data_member_location[DW_OP_plus_uconst 0x0]
    1868                      .dwattr $C$DW$201, DW_AT_accessibility(DW_ACCESS_public)
    1869              $C$DW$202       .dwtag  DW_TAG_member
    1870                      .dwattr $C$DW$202, DW_AT_type(*$C$DW$T$19)
    1871                      .dwattr $C$DW$202, DW_AT_name("Data_5")
    1872                      .dwattr $C$DW$202, DW_AT_TI_symbol_name("_Data_5")
    1873                      .dwattr $C$DW$202, DW_AT_bit_offset(0x00), DW_AT_bit_size(0x08)
    1874                      .dwattr $C$DW$202, DW_AT_data_member_location[DW_OP_plus_uconst 0x0]
    1875                      .dwattr $C$DW$202, DW_AT_accessibility(DW_ACCESS_public)
    1876              $C$DW$203       .dwtag  DW_TAG_member
    1877                      .dwattr $C$DW$203, DW_AT_type(*$C$DW$T$19)
    1878                      .dwattr $C$DW$203, DW_AT_name("Data_6")
    1879                      .dwattr $C$DW$203, DW_AT_TI_symbol_name("_Data_6")
    1880                      .dwattr $C$DW$203, DW_AT_bit_offset(0x08), DW_AT_bit_size(0x08)
    1881                      .dwattr $C$DW$203, DW_AT_data_member_location[DW_OP_plus_uconst 0x1]
    1882                      .dwattr $C$DW$203, DW_AT_accessibility(DW_ACCESS_public)
    1883              $C$DW$204       .dwtag  DW_TAG_member
    1884                      .dwattr $C$DW$204, DW_AT_type(*$C$DW$T$19)
    1885                      .dwattr $C$DW$204, DW_AT_name("Data_7")
    1886                      .dwattr $C$DW$204, DW_AT_TI_symbol_name("_Data_7")
    1887                      .dwattr $C$DW$204, DW_AT_bit_offset(0x00), DW_AT_bit_size(0x08)
    1888                      .dwattr $C$DW$204, DW_AT_data_member_location[DW_OP_plus_uconst 0x1]
    1889                      .dwattr $C$DW$204, DW_AT_accessibility(DW_ACCESS_public)
    1890                      .dwendtag $C$DW$T$57
    1891              
    1892              
    1893              $C$DW$T$58      .dwtag  DW_TAG_union_type
    1894                      .dwattr $C$DW$T$58, DW_AT_name("CAN_IF2DATB_REG")
    1895                      .dwattr $C$DW$T$58, DW_AT_byte_size(0x02)
TMS320C2000 Assembler PC v6.1.3 Tue Oct 01 15:28:07 2013

Tools Copyright (c) 1996-2012 Texas Instruments Incorporated
C:\Users\a0272466\AppData\Local\Temp\0414810                         PAGE   36

    1896              $C$DW$205       .dwtag  DW_TAG_member
    1897                      .dwattr $C$DW$205, DW_AT_type(*$C$DW$T$21)
    1898                      .dwattr $C$DW$205, DW_AT_name("all")
    1899                      .dwattr $C$DW$205, DW_AT_TI_symbol_name("_all")
    1900                      .dwattr $C$DW$205, DW_AT_data_member_location[DW_OP_plus_uconst 0x0]
    1901                      .dwattr $C$DW$205, DW_AT_accessibility(DW_ACCESS_public)
    1902              $C$DW$206       .dwtag  DW_TAG_member
    1903                      .dwattr $C$DW$206, DW_AT_type(*$C$DW$T$57)
    1904                      .dwattr $C$DW$206, DW_AT_name("bit")
    1905                      .dwattr $C$DW$206, DW_AT_TI_symbol_name("_bit")
    1906                      .dwattr $C$DW$206, DW_AT_data_member_location[DW_OP_plus_uconst 0x0]
    1907                      .dwattr $C$DW$206, DW_AT_accessibility(DW_ACCESS_public)
    1908                      .dwendtag $C$DW$T$58
    1909              
    1910              
    1911              $C$DW$T$59      .dwtag  DW_TAG_structure_type
    1912                      .dwattr $C$DW$T$59, DW_AT_name("CAN_IF2MCTL_BITS")
    1913                      .dwattr $C$DW$T$59, DW_AT_byte_size(0x02)
    1914              $C$DW$207       .dwtag  DW_TAG_member
    1915                      .dwattr $C$DW$207, DW_AT_type(*$C$DW$T$19)
    1916                      .dwattr $C$DW$207, DW_AT_name("DLC")
    1917                      .dwattr $C$DW$207, DW_AT_TI_symbol_name("_DLC")
    1918                      .dwattr $C$DW$207, DW_AT_bit_offset(0x0c), DW_AT_bit_size(0x04)
    1919                      .dwattr $C$DW$207, DW_AT_data_member_location[DW_OP_plus_uconst 0x0]
    1920                      .dwattr $C$DW$207, DW_AT_accessibility(DW_ACCESS_public)
    1921              $C$DW$208       .dwtag  DW_TAG_member
    1922                      .dwattr $C$DW$208, DW_AT_type(*$C$DW$T$19)
    1923                      .dwattr $C$DW$208, DW_AT_name("rsvd1")
    1924                      .dwattr $C$DW$208, DW_AT_TI_symbol_name("_rsvd1")
    1925                      .dwattr $C$DW$208, DW_AT_bit_offset(0x09), DW_AT_bit_size(0x03)
    1926                      .dwattr $C$DW$208, DW_AT_data_member_location[DW_OP_plus_uconst 0x0]
    1927                      .dwattr $C$DW$208, DW_AT_accessibility(DW_ACCESS_public)
    1928              $C$DW$209       .dwtag  DW_TAG_member
    1929                      .dwattr $C$DW$209, DW_AT_type(*$C$DW$T$19)
    1930                      .dwattr $C$DW$209, DW_AT_name("EoB")
    1931                      .dwattr $C$DW$209, DW_AT_TI_symbol_name("_EoB")
    1932                      .dwattr $C$DW$209, DW_AT_bit_offset(0x08), DW_AT_bit_size(0x01)
    1933                      .dwattr $C$DW$209, DW_AT_data_member_location[DW_OP_plus_uconst 0x0]
    1934                      .dwattr $C$DW$209, DW_AT_accessibility(DW_ACCESS_public)
    1935              $C$DW$210       .dwtag  DW_TAG_member
    1936                      .dwattr $C$DW$210, DW_AT_type(*$C$DW$T$19)
    1937                      .dwattr $C$DW$210, DW_AT_name("TxRqst")
    1938                      .dwattr $C$DW$210, DW_AT_TI_symbol_name("_TxRqst")
    1939                      .dwattr $C$DW$210, DW_AT_bit_offset(0x07), DW_AT_bit_size(0x01)
    1940                      .dwattr $C$DW$210, DW_AT_data_member_location[DW_OP_plus_uconst 0x0]
    1941                      .dwattr $C$DW$210, DW_AT_accessibility(DW_ACCESS_public)
    1942              $C$DW$211       .dwtag  DW_TAG_member
    1943                      .dwattr $C$DW$211, DW_AT_type(*$C$DW$T$19)
    1944                      .dwattr $C$DW$211, DW_AT_name("RmtEn")
    1945                      .dwattr $C$DW$211, DW_AT_TI_symbol_name("_RmtEn")
    1946                      .dwattr $C$DW$211, DW_AT_bit_offset(0x06), DW_AT_bit_size(0x01)
    1947                      .dwattr $C$DW$211, DW_AT_data_member_location[DW_OP_plus_uconst 0x0]
    1948                      .dwattr $C$DW$211, DW_AT_accessibility(DW_ACCESS_public)
    1949              $C$DW$212       .dwtag  DW_TAG_member
    1950                      .dwattr $C$DW$212, DW_AT_type(*$C$DW$T$19)
TMS320C2000 Assembler PC v6.1.3 Tue Oct 01 15:28:07 2013

Tools Copyright (c) 1996-2012 Texas Instruments Incorporated
C:\Users\a0272466\AppData\Local\Temp\0414810                         PAGE   37

    1951                      .dwattr $C$DW$212, DW_AT_name("RxIE")
    1952                      .dwattr $C$DW$212, DW_AT_TI_symbol_name("_RxIE")
    1953                      .dwattr $C$DW$212, DW_AT_bit_offset(0x05), DW_AT_bit_size(0x01)
    1954                      .dwattr $C$DW$212, DW_AT_data_member_location[DW_OP_plus_uconst 0x0]
    1955                      .dwattr $C$DW$212, DW_AT_accessibility(DW_ACCESS_public)
    1956              $C$DW$213       .dwtag  DW_TAG_member
    1957                      .dwattr $C$DW$213, DW_AT_type(*$C$DW$T$19)
    1958                      .dwattr $C$DW$213, DW_AT_name("TxIE")
    1959                      .dwattr $C$DW$213, DW_AT_TI_symbol_name("_TxIE")
    1960                      .dwattr $C$DW$213, DW_AT_bit_offset(0x04), DW_AT_bit_size(0x01)
    1961                      .dwattr $C$DW$213, DW_AT_data_member_location[DW_OP_plus_uconst 0x0]
    1962                      .dwattr $C$DW$213, DW_AT_accessibility(DW_ACCESS_public)
    1963              $C$DW$214       .dwtag  DW_TAG_member
    1964                      .dwattr $C$DW$214, DW_AT_type(*$C$DW$T$19)
    1965                      .dwattr $C$DW$214, DW_AT_name("UMask")
    1966                      .dwattr $C$DW$214, DW_AT_TI_symbol_name("_UMask")
    1967                      .dwattr $C$DW$214, DW_AT_bit_offset(0x03), DW_AT_bit_size(0x01)
    1968                      .dwattr $C$DW$214, DW_AT_data_member_location[DW_OP_plus_uconst 0x0]
    1969                      .dwattr $C$DW$214, DW_AT_accessibility(DW_ACCESS_public)
    1970              $C$DW$215       .dwtag  DW_TAG_member
    1971                      .dwattr $C$DW$215, DW_AT_type(*$C$DW$T$19)
    1972                      .dwattr $C$DW$215, DW_AT_name("IntPnd")
    1973                      .dwattr $C$DW$215, DW_AT_TI_symbol_name("_IntPnd")
    1974                      .dwattr $C$DW$215, DW_AT_bit_offset(0x02), DW_AT_bit_size(0x01)
    1975                      .dwattr $C$DW$215, DW_AT_data_member_location[DW_OP_plus_uconst 0x0]
    1976                      .dwattr $C$DW$215, DW_AT_accessibility(DW_ACCESS_public)
    1977              $C$DW$216       .dwtag  DW_TAG_member
    1978                      .dwattr $C$DW$216, DW_AT_type(*$C$DW$T$19)
    1979                      .dwattr $C$DW$216, DW_AT_name("MsgLst")
    1980                      .dwattr $C$DW$216, DW_AT_TI_symbol_name("_MsgLst")
    1981                      .dwattr $C$DW$216, DW_AT_bit_offset(0x01), DW_AT_bit_size(0x01)
    1982                      .dwattr $C$DW$216, DW_AT_data_member_location[DW_OP_plus_uconst 0x0]
    1983                      .dwattr $C$DW$216, DW_AT_accessibility(DW_ACCESS_public)
    1984              $C$DW$217       .dwtag  DW_TAG_member
    1985                      .dwattr $C$DW$217, DW_AT_type(*$C$DW$T$19)
    1986                      .dwattr $C$DW$217, DW_AT_name("NewDat")
    1987                      .dwattr $C$DW$217, DW_AT_TI_symbol_name("_NewDat")
    1988                      .dwattr $C$DW$217, DW_AT_bit_offset(0x00), DW_AT_bit_size(0x01)
    1989                      .dwattr $C$DW$217, DW_AT_data_member_location[DW_OP_plus_uconst 0x0]
    1990                      .dwattr $C$DW$217, DW_AT_accessibility(DW_ACCESS_public)
    1991              $C$DW$218       .dwtag  DW_TAG_member
    1992                      .dwattr $C$DW$218, DW_AT_type(*$C$DW$T$19)
    1993                      .dwattr $C$DW$218, DW_AT_name("rsvd2")
    1994                      .dwattr $C$DW$218, DW_AT_TI_symbol_name("_rsvd2")
    1995                      .dwattr $C$DW$218, DW_AT_bit_offset(0x00), DW_AT_bit_size(0x10)
    1996                      .dwattr $C$DW$218, DW_AT_data_member_location[DW_OP_plus_uconst 0x1]
    1997                      .dwattr $C$DW$218, DW_AT_accessibility(DW_ACCESS_public)
    1998                      .dwendtag $C$DW$T$59
    1999              
    2000              
    2001              $C$DW$T$60      .dwtag  DW_TAG_union_type
    2002                      .dwattr $C$DW$T$60, DW_AT_name("CAN_IF2MCTL_REG")
    2003                      .dwattr $C$DW$T$60, DW_AT_byte_size(0x02)
    2004              $C$DW$219       .dwtag  DW_TAG_member
    2005                      .dwattr $C$DW$219, DW_AT_type(*$C$DW$T$21)
TMS320C2000 Assembler PC v6.1.3 Tue Oct 01 15:28:07 2013

Tools Copyright (c) 1996-2012 Texas Instruments Incorporated
C:\Users\a0272466\AppData\Local\Temp\0414810                         PAGE   38

    2006                      .dwattr $C$DW$219, DW_AT_name("all")
    2007                      .dwattr $C$DW$219, DW_AT_TI_symbol_name("_all")
    2008                      .dwattr $C$DW$219, DW_AT_data_member_location[DW_OP_plus_uconst 0x0]
    2009                      .dwattr $C$DW$219, DW_AT_accessibility(DW_ACCESS_public)
    2010              $C$DW$220       .dwtag  DW_TAG_member
    2011                      .dwattr $C$DW$220, DW_AT_type(*$C$DW$T$59)
    2012                      .dwattr $C$DW$220, DW_AT_name("bit")
    2013                      .dwattr $C$DW$220, DW_AT_TI_symbol_name("_bit")
    2014                      .dwattr $C$DW$220, DW_AT_data_member_location[DW_OP_plus_uconst 0x0]
    2015                      .dwattr $C$DW$220, DW_AT_accessibility(DW_ACCESS_public)
    2016                      .dwendtag $C$DW$T$60
    2017              
    2018              
    2019              $C$DW$T$61      .dwtag  DW_TAG_structure_type
    2020                      .dwattr $C$DW$T$61, DW_AT_name("CAN_IF2MSK_BITS")
    2021                      .dwattr $C$DW$T$61, DW_AT_byte_size(0x02)
    2022              $C$DW$221       .dwtag  DW_TAG_member
    2023                      .dwattr $C$DW$221, DW_AT_type(*$C$DW$T$21)
    2024                      .dwattr $C$DW$221, DW_AT_name("Msk")
    2025                      .dwattr $C$DW$221, DW_AT_TI_symbol_name("_Msk")
    2026                      .dwattr $C$DW$221, DW_AT_bit_offset(0x03), DW_AT_bit_size(0x1d)
    2027                      .dwattr $C$DW$221, DW_AT_data_member_location[DW_OP_plus_uconst 0x0]
    2028                      .dwattr $C$DW$221, DW_AT_accessibility(DW_ACCESS_public)
    2029              $C$DW$222       .dwtag  DW_TAG_member
    2030                      .dwattr $C$DW$222, DW_AT_type(*$C$DW$T$19)
    2031                      .dwattr $C$DW$222, DW_AT_name("rsvd1")
    2032                      .dwattr $C$DW$222, DW_AT_TI_symbol_name("_rsvd1")
    2033                      .dwattr $C$DW$222, DW_AT_bit_offset(0x02), DW_AT_bit_size(0x01)
    2034                      .dwattr $C$DW$222, DW_AT_data_member_location[DW_OP_plus_uconst 0x1]
    2035                      .dwattr $C$DW$222, DW_AT_accessibility(DW_ACCESS_public)
    2036              $C$DW$223       .dwtag  DW_TAG_member
    2037                      .dwattr $C$DW$223, DW_AT_type(*$C$DW$T$19)
    2038                      .dwattr $C$DW$223, DW_AT_name("MDir")
    2039                      .dwattr $C$DW$223, DW_AT_TI_symbol_name("_MDir")
    2040                      .dwattr $C$DW$223, DW_AT_bit_offset(0x01), DW_AT_bit_size(0x01)
    2041                      .dwattr $C$DW$223, DW_AT_data_member_location[DW_OP_plus_uconst 0x1]
    2042                      .dwattr $C$DW$223, DW_AT_accessibility(DW_ACCESS_public)
    2043              $C$DW$224       .dwtag  DW_TAG_member
    2044                      .dwattr $C$DW$224, DW_AT_type(*$C$DW$T$19)
    2045                      .dwattr $C$DW$224, DW_AT_name("MXtd")
    2046                      .dwattr $C$DW$224, DW_AT_TI_symbol_name("_MXtd")
    2047                      .dwattr $C$DW$224, DW_AT_bit_offset(0x00), DW_AT_bit_size(0x01)
    2048                      .dwattr $C$DW$224, DW_AT_data_member_location[DW_OP_plus_uconst 0x1]
    2049                      .dwattr $C$DW$224, DW_AT_accessibility(DW_ACCESS_public)
    2050                      .dwendtag $C$DW$T$61
    2051              
    2052              
    2053              $C$DW$T$62      .dwtag  DW_TAG_union_type
    2054                      .dwattr $C$DW$T$62, DW_AT_name("CAN_IF2MSK_REG")
    2055                      .dwattr $C$DW$T$62, DW_AT_byte_size(0x02)
    2056              $C$DW$225       .dwtag  DW_TAG_member
    2057                      .dwattr $C$DW$225, DW_AT_type(*$C$DW$T$21)
    2058                      .dwattr $C$DW$225, DW_AT_name("all")
    2059                      .dwattr $C$DW$225, DW_AT_TI_symbol_name("_all")
    2060                      .dwattr $C$DW$225, DW_AT_data_member_location[DW_OP_plus_uconst 0x0]
TMS320C2000 Assembler PC v6.1.3 Tue Oct 01 15:28:07 2013

Tools Copyright (c) 1996-2012 Texas Instruments Incorporated
C:\Users\a0272466\AppData\Local\Temp\0414810                         PAGE   39

    2061                      .dwattr $C$DW$225, DW_AT_accessibility(DW_ACCESS_public)
    2062              $C$DW$226       .dwtag  DW_TAG_member
    2063                      .dwattr $C$DW$226, DW_AT_type(*$C$DW$T$61)
    2064                      .dwattr $C$DW$226, DW_AT_name("bit")
    2065                      .dwattr $C$DW$226, DW_AT_TI_symbol_name("_bit")
    2066                      .dwattr $C$DW$226, DW_AT_data_member_location[DW_OP_plus_uconst 0x0]
    2067                      .dwattr $C$DW$226, DW_AT_accessibility(DW_ACCESS_public)
    2068                      .dwendtag $C$DW$T$62
    2069              
    2070              
    2071              $C$DW$T$63      .dwtag  DW_TAG_structure_type
    2072                      .dwattr $C$DW$T$63, DW_AT_name("CAN_IF3ARB_BITS")
    2073                      .dwattr $C$DW$T$63, DW_AT_byte_size(0x02)
    2074              $C$DW$227       .dwtag  DW_TAG_member
    2075                      .dwattr $C$DW$227, DW_AT_type(*$C$DW$T$21)
    2076                      .dwattr $C$DW$227, DW_AT_name("ID")
    2077                      .dwattr $C$DW$227, DW_AT_TI_symbol_name("_ID")
    2078                      .dwattr $C$DW$227, DW_AT_bit_offset(0x03), DW_AT_bit_size(0x1d)
    2079                      .dwattr $C$DW$227, DW_AT_data_member_location[DW_OP_plus_uconst 0x0]
    2080                      .dwattr $C$DW$227, DW_AT_accessibility(DW_ACCESS_public)
    2081              $C$DW$228       .dwtag  DW_TAG_member
    2082                      .dwattr $C$DW$228, DW_AT_type(*$C$DW$T$19)
    2083                      .dwattr $C$DW$228, DW_AT_name("Dir")
    2084                      .dwattr $C$DW$228, DW_AT_TI_symbol_name("_Dir")
    2085                      .dwattr $C$DW$228, DW_AT_bit_offset(0x02), DW_AT_bit_size(0x01)
    2086                      .dwattr $C$DW$228, DW_AT_data_member_location[DW_OP_plus_uconst 0x1]
    2087                      .dwattr $C$DW$228, DW_AT_accessibility(DW_ACCESS_public)
    2088              $C$DW$229       .dwtag  DW_TAG_member
    2089                      .dwattr $C$DW$229, DW_AT_type(*$C$DW$T$19)
    2090                      .dwattr $C$DW$229, DW_AT_name("Xtd")
    2091                      .dwattr $C$DW$229, DW_AT_TI_symbol_name("_Xtd")
    2092                      .dwattr $C$DW$229, DW_AT_bit_offset(0x01), DW_AT_bit_size(0x01)
    2093                      .dwattr $C$DW$229, DW_AT_data_member_location[DW_OP_plus_uconst 0x1]
    2094                      .dwattr $C$DW$229, DW_AT_accessibility(DW_ACCESS_public)
    2095              $C$DW$230       .dwtag  DW_TAG_member
    2096                      .dwattr $C$DW$230, DW_AT_type(*$C$DW$T$19)
    2097                      .dwattr $C$DW$230, DW_AT_name("MsgVal")
    2098                      .dwattr $C$DW$230, DW_AT_TI_symbol_name("_MsgVal")
    2099                      .dwattr $C$DW$230, DW_AT_bit_offset(0x00), DW_AT_bit_size(0x01)
    2100                      .dwattr $C$DW$230, DW_AT_data_member_location[DW_OP_plus_uconst 0x1]
    2101                      .dwattr $C$DW$230, DW_AT_accessibility(DW_ACCESS_public)
    2102                      .dwendtag $C$DW$T$63
    2103              
    2104              
    2105              $C$DW$T$64      .dwtag  DW_TAG_union_type
    2106                      .dwattr $C$DW$T$64, DW_AT_name("CAN_IF3ARB_REG")
    2107                      .dwattr $C$DW$T$64, DW_AT_byte_size(0x02)
    2108              $C$DW$231       .dwtag  DW_TAG_member
    2109                      .dwattr $C$DW$231, DW_AT_type(*$C$DW$T$21)
    2110                      .dwattr $C$DW$231, DW_AT_name("all")
    2111                      .dwattr $C$DW$231, DW_AT_TI_symbol_name("_all")
    2112                      .dwattr $C$DW$231, DW_AT_data_member_location[DW_OP_plus_uconst 0x0]
    2113                      .dwattr $C$DW$231, DW_AT_accessibility(DW_ACCESS_public)
    2114              $C$DW$232       .dwtag  DW_TAG_member
    2115                      .dwattr $C$DW$232, DW_AT_type(*$C$DW$T$63)
TMS320C2000 Assembler PC v6.1.3 Tue Oct 01 15:28:07 2013

Tools Copyright (c) 1996-2012 Texas Instruments Incorporated
C:\Users\a0272466\AppData\Local\Temp\0414810                         PAGE   40

    2116                      .dwattr $C$DW$232, DW_AT_name("bit")
    2117                      .dwattr $C$DW$232, DW_AT_TI_symbol_name("_bit")
    2118                      .dwattr $C$DW$232, DW_AT_data_member_location[DW_OP_plus_uconst 0x0]
    2119                      .dwattr $C$DW$232, DW_AT_accessibility(DW_ACCESS_public)
    2120                      .dwendtag $C$DW$T$64
    2121              
    2122              
    2123              $C$DW$T$65      .dwtag  DW_TAG_structure_type
    2124                      .dwattr $C$DW$T$65, DW_AT_name("CAN_IF3DATA_BITS")
    2125                      .dwattr $C$DW$T$65, DW_AT_byte_size(0x02)
    2126              $C$DW$233       .dwtag  DW_TAG_member
    2127                      .dwattr $C$DW$233, DW_AT_type(*$C$DW$T$19)
    2128                      .dwattr $C$DW$233, DW_AT_name("Data_0")
    2129                      .dwattr $C$DW$233, DW_AT_TI_symbol_name("_Data_0")
    2130                      .dwattr $C$DW$233, DW_AT_bit_offset(0x08), DW_AT_bit_size(0x08)
    2131                      .dwattr $C$DW$233, DW_AT_data_member_location[DW_OP_plus_uconst 0x0]
    2132                      .dwattr $C$DW$233, DW_AT_accessibility(DW_ACCESS_public)
    2133              $C$DW$234       .dwtag  DW_TAG_member
    2134                      .dwattr $C$DW$234, DW_AT_type(*$C$DW$T$19)
    2135                      .dwattr $C$DW$234, DW_AT_name("Data_1")
    2136                      .dwattr $C$DW$234, DW_AT_TI_symbol_name("_Data_1")
    2137                      .dwattr $C$DW$234, DW_AT_bit_offset(0x00), DW_AT_bit_size(0x08)
    2138                      .dwattr $C$DW$234, DW_AT_data_member_location[DW_OP_plus_uconst 0x0]
    2139                      .dwattr $C$DW$234, DW_AT_accessibility(DW_ACCESS_public)
    2140              $C$DW$235       .dwtag  DW_TAG_member
    2141                      .dwattr $C$DW$235, DW_AT_type(*$C$DW$T$19)
    2142                      .dwattr $C$DW$235, DW_AT_name("Data_2")
    2143                      .dwattr $C$DW$235, DW_AT_TI_symbol_name("_Data_2")
    2144                      .dwattr $C$DW$235, DW_AT_bit_offset(0x08), DW_AT_bit_size(0x08)
    2145                      .dwattr $C$DW$235, DW_AT_data_member_location[DW_OP_plus_uconst 0x1]
    2146                      .dwattr $C$DW$235, DW_AT_accessibility(DW_ACCESS_public)
    2147              $C$DW$236       .dwtag  DW_TAG_member
    2148                      .dwattr $C$DW$236, DW_AT_type(*$C$DW$T$19)
    2149                      .dwattr $C$DW$236, DW_AT_name("Data_3")
    2150                      .dwattr $C$DW$236, DW_AT_TI_symbol_name("_Data_3")
    2151                      .dwattr $C$DW$236, DW_AT_bit_offset(0x00), DW_AT_bit_size(0x08)
    2152                      .dwattr $C$DW$236, DW_AT_data_member_location[DW_OP_plus_uconst 0x1]
    2153                      .dwattr $C$DW$236, DW_AT_accessibility(DW_ACCESS_public)
    2154                      .dwendtag $C$DW$T$65
    2155              
    2156              
    2157              $C$DW$T$66      .dwtag  DW_TAG_union_type
    2158                      .dwattr $C$DW$T$66, DW_AT_name("CAN_IF3DATA_REG")
    2159                      .dwattr $C$DW$T$66, DW_AT_byte_size(0x02)
    2160              $C$DW$237       .dwtag  DW_TAG_member
    2161                      .dwattr $C$DW$237, DW_AT_type(*$C$DW$T$21)
    2162                      .dwattr $C$DW$237, DW_AT_name("all")
    2163                      .dwattr $C$DW$237, DW_AT_TI_symbol_name("_all")
    2164                      .dwattr $C$DW$237, DW_AT_data_member_location[DW_OP_plus_uconst 0x0]
    2165                      .dwattr $C$DW$237, DW_AT_accessibility(DW_ACCESS_public)
    2166              $C$DW$238       .dwtag  DW_TAG_member
    2167                      .dwattr $C$DW$238, DW_AT_type(*$C$DW$T$65)
    2168                      .dwattr $C$DW$238, DW_AT_name("bit")
    2169                      .dwattr $C$DW$238, DW_AT_TI_symbol_name("_bit")
    2170                      .dwattr $C$DW$238, DW_AT_data_member_location[DW_OP_plus_uconst 0x0]
TMS320C2000 Assembler PC v6.1.3 Tue Oct 01 15:28:07 2013

Tools Copyright (c) 1996-2012 Texas Instruments Incorporated
C:\Users\a0272466\AppData\Local\Temp\0414810                         PAGE   41

    2171                      .dwattr $C$DW$238, DW_AT_accessibility(DW_ACCESS_public)
    2172                      .dwendtag $C$DW$T$66
    2173              
    2174              
    2175              $C$DW$T$67      .dwtag  DW_TAG_structure_type
    2176                      .dwattr $C$DW$T$67, DW_AT_name("CAN_IF3DATB_BITS")
    2177                      .dwattr $C$DW$T$67, DW_AT_byte_size(0x02)
    2178              $C$DW$239       .dwtag  DW_TAG_member
    2179                      .dwattr $C$DW$239, DW_AT_type(*$C$DW$T$19)
    2180                      .dwattr $C$DW$239, DW_AT_name("Data_4")
    2181                      .dwattr $C$DW$239, DW_AT_TI_symbol_name("_Data_4")
    2182                      .dwattr $C$DW$239, DW_AT_bit_offset(0x08), DW_AT_bit_size(0x08)
    2183                      .dwattr $C$DW$239, DW_AT_data_member_location[DW_OP_plus_uconst 0x0]
    2184                      .dwattr $C$DW$239, DW_AT_accessibility(DW_ACCESS_public)
    2185              $C$DW$240       .dwtag  DW_TAG_member
    2186                      .dwattr $C$DW$240, DW_AT_type(*$C$DW$T$19)
    2187                      .dwattr $C$DW$240, DW_AT_name("Data_5")
    2188                      .dwattr $C$DW$240, DW_AT_TI_symbol_name("_Data_5")
    2189                      .dwattr $C$DW$240, DW_AT_bit_offset(0x00), DW_AT_bit_size(0x08)
    2190                      .dwattr $C$DW$240, DW_AT_data_member_location[DW_OP_plus_uconst 0x0]
    2191                      .dwattr $C$DW$240, DW_AT_accessibility(DW_ACCESS_public)
    2192              $C$DW$241       .dwtag  DW_TAG_member
    2193                      .dwattr $C$DW$241, DW_AT_type(*$C$DW$T$19)
    2194                      .dwattr $C$DW$241, DW_AT_name("Data_6")
    2195                      .dwattr $C$DW$241, DW_AT_TI_symbol_name("_Data_6")
    2196                      .dwattr $C$DW$241, DW_AT_bit_offset(0x08), DW_AT_bit_size(0x08)
    2197                      .dwattr $C$DW$241, DW_AT_data_member_location[DW_OP_plus_uconst 0x1]
    2198                      .dwattr $C$DW$241, DW_AT_accessibility(DW_ACCESS_public)
    2199              $C$DW$242       .dwtag  DW_TAG_member
    2200                      .dwattr $C$DW$242, DW_AT_type(*$C$DW$T$19)
    2201                      .dwattr $C$DW$242, DW_AT_name("Data_7")
    2202                      .dwattr $C$DW$242, DW_AT_TI_symbol_name("_Data_7")
    2203                      .dwattr $C$DW$242, DW_AT_bit_offset(0x00), DW_AT_bit_size(0x08)
    2204                      .dwattr $C$DW$242, DW_AT_data_member_location[DW_OP_plus_uconst 0x1]
    2205                      .dwattr $C$DW$242, DW_AT_accessibility(DW_ACCESS_public)
    2206                      .dwendtag $C$DW$T$67
    2207              
    2208              
    2209              $C$DW$T$68      .dwtag  DW_TAG_union_type
    2210                      .dwattr $C$DW$T$68, DW_AT_name("CAN_IF3DATB_REG")
    2211                      .dwattr $C$DW$T$68, DW_AT_byte_size(0x02)
    2212              $C$DW$243       .dwtag  DW_TAG_member
    2213                      .dwattr $C$DW$243, DW_AT_type(*$C$DW$T$21)
    2214                      .dwattr $C$DW$243, DW_AT_name("all")
    2215                      .dwattr $C$DW$243, DW_AT_TI_symbol_name("_all")
    2216                      .dwattr $C$DW$243, DW_AT_data_member_location[DW_OP_plus_uconst 0x0]
    2217                      .dwattr $C$DW$243, DW_AT_accessibility(DW_ACCESS_public)
    2218              $C$DW$244       .dwtag  DW_TAG_member
    2219                      .dwattr $C$DW$244, DW_AT_type(*$C$DW$T$67)
    2220                      .dwattr $C$DW$244, DW_AT_name("bit")
    2221                      .dwattr $C$DW$244, DW_AT_TI_symbol_name("_bit")
    2222                      .dwattr $C$DW$244, DW_AT_data_member_location[DW_OP_plus_uconst 0x0]
    2223                      .dwattr $C$DW$244, DW_AT_accessibility(DW_ACCESS_public)
    2224                      .dwendtag $C$DW$T$68
    2225              
TMS320C2000 Assembler PC v6.1.3 Tue Oct 01 15:28:07 2013

Tools Copyright (c) 1996-2012 Texas Instruments Incorporated
C:\Users\a0272466\AppData\Local\Temp\0414810                         PAGE   42

    2226              
    2227              $C$DW$T$69      .dwtag  DW_TAG_structure_type
    2228                      .dwattr $C$DW$T$69, DW_AT_name("CAN_IF3MCTL_BITS")
    2229                      .dwattr $C$DW$T$69, DW_AT_byte_size(0x02)
    2230              $C$DW$245       .dwtag  DW_TAG_member
    2231                      .dwattr $C$DW$245, DW_AT_type(*$C$DW$T$19)
    2232                      .dwattr $C$DW$245, DW_AT_name("DLC")
    2233                      .dwattr $C$DW$245, DW_AT_TI_symbol_name("_DLC")
    2234                      .dwattr $C$DW$245, DW_AT_bit_offset(0x0c), DW_AT_bit_size(0x04)
    2235                      .dwattr $C$DW$245, DW_AT_data_member_location[DW_OP_plus_uconst 0x0]
    2236                      .dwattr $C$DW$245, DW_AT_accessibility(DW_ACCESS_public)
    2237              $C$DW$246       .dwtag  DW_TAG_member
    2238                      .dwattr $C$DW$246, DW_AT_type(*$C$DW$T$19)
    2239                      .dwattr $C$DW$246, DW_AT_name("rsvd1")
    2240                      .dwattr $C$DW$246, DW_AT_TI_symbol_name("_rsvd1")
    2241                      .dwattr $C$DW$246, DW_AT_bit_offset(0x09), DW_AT_bit_size(0x03)
    2242                      .dwattr $C$DW$246, DW_AT_data_member_location[DW_OP_plus_uconst 0x0]
    2243                      .dwattr $C$DW$246, DW_AT_accessibility(DW_ACCESS_public)
    2244              $C$DW$247       .dwtag  DW_TAG_member
    2245                      .dwattr $C$DW$247, DW_AT_type(*$C$DW$T$19)
    2246                      .dwattr $C$DW$247, DW_AT_name("EoB")
    2247                      .dwattr $C$DW$247, DW_AT_TI_symbol_name("_EoB")
    2248                      .dwattr $C$DW$247, DW_AT_bit_offset(0x08), DW_AT_bit_size(0x01)
    2249                      .dwattr $C$DW$247, DW_AT_data_member_location[DW_OP_plus_uconst 0x0]
    2250                      .dwattr $C$DW$247, DW_AT_accessibility(DW_ACCESS_public)
    2251              $C$DW$248       .dwtag  DW_TAG_member
    2252                      .dwattr $C$DW$248, DW_AT_type(*$C$DW$T$19)
    2253                      .dwattr $C$DW$248, DW_AT_name("TxRqst")
    2254                      .dwattr $C$DW$248, DW_AT_TI_symbol_name("_TxRqst")
    2255                      .dwattr $C$DW$248, DW_AT_bit_offset(0x07), DW_AT_bit_size(0x01)
    2256                      .dwattr $C$DW$248, DW_AT_data_member_location[DW_OP_plus_uconst 0x0]
    2257                      .dwattr $C$DW$248, DW_AT_accessibility(DW_ACCESS_public)
    2258              $C$DW$249       .dwtag  DW_TAG_member
    2259                      .dwattr $C$DW$249, DW_AT_type(*$C$DW$T$19)
    2260                      .dwattr $C$DW$249, DW_AT_name("RmtEn")
    2261                      .dwattr $C$DW$249, DW_AT_TI_symbol_name("_RmtEn")
    2262                      .dwattr $C$DW$249, DW_AT_bit_offset(0x06), DW_AT_bit_size(0x01)
    2263                      .dwattr $C$DW$249, DW_AT_data_member_location[DW_OP_plus_uconst 0x0]
    2264                      .dwattr $C$DW$249, DW_AT_accessibility(DW_ACCESS_public)
    2265              $C$DW$250       .dwtag  DW_TAG_member
    2266                      .dwattr $C$DW$250, DW_AT_type(*$C$DW$T$19)
    2267                      .dwattr $C$DW$250, DW_AT_name("RxIE")
    2268                      .dwattr $C$DW$250, DW_AT_TI_symbol_name("_RxIE")
    2269                      .dwattr $C$DW$250, DW_AT_bit_offset(0x05), DW_AT_bit_size(0x01)
    2270                      .dwattr $C$DW$250, DW_AT_data_member_location[DW_OP_plus_uconst 0x0]
    2271                      .dwattr $C$DW$250, DW_AT_accessibility(DW_ACCESS_public)
    2272              $C$DW$251       .dwtag  DW_TAG_member
    2273                      .dwattr $C$DW$251, DW_AT_type(*$C$DW$T$19)
    2274                      .dwattr $C$DW$251, DW_AT_name("TxIE")
    2275                      .dwattr $C$DW$251, DW_AT_TI_symbol_name("_TxIE")
    2276                      .dwattr $C$DW$251, DW_AT_bit_offset(0x04), DW_AT_bit_size(0x01)
    2277                      .dwattr $C$DW$251, DW_AT_data_member_location[DW_OP_plus_uconst 0x0]
    2278                      .dwattr $C$DW$251, DW_AT_accessibility(DW_ACCESS_public)
    2279              $C$DW$252       .dwtag  DW_TAG_member
    2280                      .dwattr $C$DW$252, DW_AT_type(*$C$DW$T$19)
TMS320C2000 Assembler PC v6.1.3 Tue Oct 01 15:28:07 2013

Tools Copyright (c) 1996-2012 Texas Instruments Incorporated
C:\Users\a0272466\AppData\Local\Temp\0414810                         PAGE   43

    2281                      .dwattr $C$DW$252, DW_AT_name("UMask")
    2282                      .dwattr $C$DW$252, DW_AT_TI_symbol_name("_UMask")
    2283                      .dwattr $C$DW$252, DW_AT_bit_offset(0x03), DW_AT_bit_size(0x01)
    2284                      .dwattr $C$DW$252, DW_AT_data_member_location[DW_OP_plus_uconst 0x0]
    2285                      .dwattr $C$DW$252, DW_AT_accessibility(DW_ACCESS_public)
    2286              $C$DW$253       .dwtag  DW_TAG_member
    2287                      .dwattr $C$DW$253, DW_AT_type(*$C$DW$T$19)
    2288                      .dwattr $C$DW$253, DW_AT_name("IntPnd")
    2289                      .dwattr $C$DW$253, DW_AT_TI_symbol_name("_IntPnd")
    2290                      .dwattr $C$DW$253, DW_AT_bit_offset(0x02), DW_AT_bit_size(0x01)
    2291                      .dwattr $C$DW$253, DW_AT_data_member_location[DW_OP_plus_uconst 0x0]
    2292                      .dwattr $C$DW$253, DW_AT_accessibility(DW_ACCESS_public)
    2293              $C$DW$254       .dwtag  DW_TAG_member
    2294                      .dwattr $C$DW$254, DW_AT_type(*$C$DW$T$19)
    2295                      .dwattr $C$DW$254, DW_AT_name("MsgLst")
    2296                      .dwattr $C$DW$254, DW_AT_TI_symbol_name("_MsgLst")
    2297                      .dwattr $C$DW$254, DW_AT_bit_offset(0x01), DW_AT_bit_size(0x01)
    2298                      .dwattr $C$DW$254, DW_AT_data_member_location[DW_OP_plus_uconst 0x0]
    2299                      .dwattr $C$DW$254, DW_AT_accessibility(DW_ACCESS_public)
    2300              $C$DW$255       .dwtag  DW_TAG_member
    2301                      .dwattr $C$DW$255, DW_AT_type(*$C$DW$T$19)
    2302                      .dwattr $C$DW$255, DW_AT_name("NewDat")
    2303                      .dwattr $C$DW$255, DW_AT_TI_symbol_name("_NewDat")
    2304                      .dwattr $C$DW$255, DW_AT_bit_offset(0x00), DW_AT_bit_size(0x01)
    2305                      .dwattr $C$DW$255, DW_AT_data_member_location[DW_OP_plus_uconst 0x0]
    2306                      .dwattr $C$DW$255, DW_AT_accessibility(DW_ACCESS_public)
    2307              $C$DW$256       .dwtag  DW_TAG_member
    2308                      .dwattr $C$DW$256, DW_AT_type(*$C$DW$T$19)
    2309                      .dwattr $C$DW$256, DW_AT_name("rsvd2")
    2310                      .dwattr $C$DW$256, DW_AT_TI_symbol_name("_rsvd2")
    2311                      .dwattr $C$DW$256, DW_AT_bit_offset(0x00), DW_AT_bit_size(0x10)
    2312                      .dwattr $C$DW$256, DW_AT_data_member_location[DW_OP_plus_uconst 0x1]
    2313                      .dwattr $C$DW$256, DW_AT_accessibility(DW_ACCESS_public)
    2314                      .dwendtag $C$DW$T$69
    2315              
    2316              
    2317              $C$DW$T$70      .dwtag  DW_TAG_union_type
    2318                      .dwattr $C$DW$T$70, DW_AT_name("CAN_IF3MCTL_REG")
    2319                      .dwattr $C$DW$T$70, DW_AT_byte_size(0x02)
    2320              $C$DW$257       .dwtag  DW_TAG_member
    2321                      .dwattr $C$DW$257, DW_AT_type(*$C$DW$T$21)
    2322                      .dwattr $C$DW$257, DW_AT_name("all")
    2323                      .dwattr $C$DW$257, DW_AT_TI_symbol_name("_all")
    2324                      .dwattr $C$DW$257, DW_AT_data_member_location[DW_OP_plus_uconst 0x0]
    2325                      .dwattr $C$DW$257, DW_AT_accessibility(DW_ACCESS_public)
    2326              $C$DW$258       .dwtag  DW_TAG_member
    2327                      .dwattr $C$DW$258, DW_AT_type(*$C$DW$T$69)
    2328                      .dwattr $C$DW$258, DW_AT_name("bit")
    2329                      .dwattr $C$DW$258, DW_AT_TI_symbol_name("_bit")
    2330                      .dwattr $C$DW$258, DW_AT_data_member_location[DW_OP_plus_uconst 0x0]
    2331                      .dwattr $C$DW$258, DW_AT_accessibility(DW_ACCESS_public)
    2332                      .dwendtag $C$DW$T$70
    2333              
    2334              
    2335              $C$DW$T$71      .dwtag  DW_TAG_structure_type
TMS320C2000 Assembler PC v6.1.3 Tue Oct 01 15:28:07 2013

Tools Copyright (c) 1996-2012 Texas Instruments Incorporated
C:\Users\a0272466\AppData\Local\Temp\0414810                         PAGE   44

    2336                      .dwattr $C$DW$T$71, DW_AT_name("CAN_IF3MSK_BITS")
    2337                      .dwattr $C$DW$T$71, DW_AT_byte_size(0x02)
    2338              $C$DW$259       .dwtag  DW_TAG_member
    2339                      .dwattr $C$DW$259, DW_AT_type(*$C$DW$T$21)
    2340                      .dwattr $C$DW$259, DW_AT_name("Msk")
    2341                      .dwattr $C$DW$259, DW_AT_TI_symbol_name("_Msk")
    2342                      .dwattr $C$DW$259, DW_AT_bit_offset(0x03), DW_AT_bit_size(0x1d)
    2343                      .dwattr $C$DW$259, DW_AT_data_member_location[DW_OP_plus_uconst 0x0]
    2344                      .dwattr $C$DW$259, DW_AT_accessibility(DW_ACCESS_public)
    2345              $C$DW$260       .dwtag  DW_TAG_member
    2346                      .dwattr $C$DW$260, DW_AT_type(*$C$DW$T$19)
    2347                      .dwattr $C$DW$260, DW_AT_name("rsvd1")
    2348                      .dwattr $C$DW$260, DW_AT_TI_symbol_name("_rsvd1")
    2349                      .dwattr $C$DW$260, DW_AT_bit_offset(0x02), DW_AT_bit_size(0x01)
    2350                      .dwattr $C$DW$260, DW_AT_data_member_location[DW_OP_plus_uconst 0x1]
    2351                      .dwattr $C$DW$260, DW_AT_accessibility(DW_ACCESS_public)
    2352              $C$DW$261       .dwtag  DW_TAG_member
    2353                      .dwattr $C$DW$261, DW_AT_type(*$C$DW$T$19)
    2354                      .dwattr $C$DW$261, DW_AT_name("MDir")
    2355                      .dwattr $C$DW$261, DW_AT_TI_symbol_name("_MDir")
    2356                      .dwattr $C$DW$261, DW_AT_bit_offset(0x01), DW_AT_bit_size(0x01)
    2357                      .dwattr $C$DW$261, DW_AT_data_member_location[DW_OP_plus_uconst 0x1]
    2358                      .dwattr $C$DW$261, DW_AT_accessibility(DW_ACCESS_public)
    2359              $C$DW$262       .dwtag  DW_TAG_member
    2360                      .dwattr $C$DW$262, DW_AT_type(*$C$DW$T$19)
    2361                      .dwattr $C$DW$262, DW_AT_name("MXtd")
    2362                      .dwattr $C$DW$262, DW_AT_TI_symbol_name("_MXtd")
    2363                      .dwattr $C$DW$262, DW_AT_bit_offset(0x00), DW_AT_bit_size(0x01)
    2364                      .dwattr $C$DW$262, DW_AT_data_member_location[DW_OP_plus_uconst 0x1]
    2365                      .dwattr $C$DW$262, DW_AT_accessibility(DW_ACCESS_public)
    2366                      .dwendtag $C$DW$T$71
    2367              
    2368              
    2369              $C$DW$T$72      .dwtag  DW_TAG_union_type
    2370                      .dwattr $C$DW$T$72, DW_AT_name("CAN_IF3MSK_REG")
    2371                      .dwattr $C$DW$T$72, DW_AT_byte_size(0x02)
    2372              $C$DW$263       .dwtag  DW_TAG_member
    2373                      .dwattr $C$DW$263, DW_AT_type(*$C$DW$T$21)
    2374                      .dwattr $C$DW$263, DW_AT_name("all")
    2375                      .dwattr $C$DW$263, DW_AT_TI_symbol_name("_all")
    2376                      .dwattr $C$DW$263, DW_AT_data_member_location[DW_OP_plus_uconst 0x0]
    2377                      .dwattr $C$DW$263, DW_AT_accessibility(DW_ACCESS_public)
    2378              $C$DW$264       .dwtag  DW_TAG_member
    2379                      .dwattr $C$DW$264, DW_AT_type(*$C$DW$T$71)
    2380                      .dwattr $C$DW$264, DW_AT_name("bit")
    2381                      .dwattr $C$DW$264, DW_AT_TI_symbol_name("_bit")
    2382                      .dwattr $C$DW$264, DW_AT_data_member_location[DW_OP_plus_uconst 0x0]
    2383                      .dwattr $C$DW$264, DW_AT_accessibility(DW_ACCESS_public)
    2384                      .dwendtag $C$DW$T$72
    2385              
    2386              
    2387              $C$DW$T$73      .dwtag  DW_TAG_structure_type
    2388                      .dwattr $C$DW$T$73, DW_AT_name("CAN_IF3OBS_BITS")
    2389                      .dwattr $C$DW$T$73, DW_AT_byte_size(0x02)
    2390              $C$DW$265       .dwtag  DW_TAG_member
TMS320C2000 Assembler PC v6.1.3 Tue Oct 01 15:28:07 2013

Tools Copyright (c) 1996-2012 Texas Instruments Incorporated
C:\Users\a0272466\AppData\Local\Temp\0414810                         PAGE   45

    2391                      .dwattr $C$DW$265, DW_AT_type(*$C$DW$T$19)
    2392                      .dwattr $C$DW$265, DW_AT_name("Mask")
    2393                      .dwattr $C$DW$265, DW_AT_TI_symbol_name("_Mask")
    2394                      .dwattr $C$DW$265, DW_AT_bit_offset(0x0f), DW_AT_bit_size(0x01)
    2395                      .dwattr $C$DW$265, DW_AT_data_member_location[DW_OP_plus_uconst 0x0]
    2396                      .dwattr $C$DW$265, DW_AT_accessibility(DW_ACCESS_public)
    2397              $C$DW$266       .dwtag  DW_TAG_member
    2398                      .dwattr $C$DW$266, DW_AT_type(*$C$DW$T$19)
    2399                      .dwattr $C$DW$266, DW_AT_name("Arb")
    2400                      .dwattr $C$DW$266, DW_AT_TI_symbol_name("_Arb")
    2401                      .dwattr $C$DW$266, DW_AT_bit_offset(0x0e), DW_AT_bit_size(0x01)
    2402                      .dwattr $C$DW$266, DW_AT_data_member_location[DW_OP_plus_uconst 0x0]
    2403                      .dwattr $C$DW$266, DW_AT_accessibility(DW_ACCESS_public)
    2404              $C$DW$267       .dwtag  DW_TAG_member
    2405                      .dwattr $C$DW$267, DW_AT_type(*$C$DW$T$19)
    2406                      .dwattr $C$DW$267, DW_AT_name("Ctrl")
    2407                      .dwattr $C$DW$267, DW_AT_TI_symbol_name("_Ctrl")
    2408                      .dwattr $C$DW$267, DW_AT_bit_offset(0x0d), DW_AT_bit_size(0x01)
    2409                      .dwattr $C$DW$267, DW_AT_data_member_location[DW_OP_plus_uconst 0x0]
    2410                      .dwattr $C$DW$267, DW_AT_accessibility(DW_ACCESS_public)
    2411              $C$DW$268       .dwtag  DW_TAG_member
    2412                      .dwattr $C$DW$268, DW_AT_type(*$C$DW$T$19)
    2413                      .dwattr $C$DW$268, DW_AT_name("Data_A")
    2414                      .dwattr $C$DW$268, DW_AT_TI_symbol_name("_Data_A")
    2415                      .dwattr $C$DW$268, DW_AT_bit_offset(0x0c), DW_AT_bit_size(0x01)
    2416                      .dwattr $C$DW$268, DW_AT_data_member_location[DW_OP_plus_uconst 0x0]
    2417                      .dwattr $C$DW$268, DW_AT_accessibility(DW_ACCESS_public)
    2418              $C$DW$269       .dwtag  DW_TAG_member
    2419                      .dwattr $C$DW$269, DW_AT_type(*$C$DW$T$19)
    2420                      .dwattr $C$DW$269, DW_AT_name("Data_B")
    2421                      .dwattr $C$DW$269, DW_AT_TI_symbol_name("_Data_B")
    2422                      .dwattr $C$DW$269, DW_AT_bit_offset(0x0b), DW_AT_bit_size(0x01)
    2423                      .dwattr $C$DW$269, DW_AT_data_member_location[DW_OP_plus_uconst 0x0]
    2424                      .dwattr $C$DW$269, DW_AT_accessibility(DW_ACCESS_public)
    2425              $C$DW$270       .dwtag  DW_TAG_member
    2426                      .dwattr $C$DW$270, DW_AT_type(*$C$DW$T$19)
    2427                      .dwattr $C$DW$270, DW_AT_name("rsvd1")
    2428                      .dwattr $C$DW$270, DW_AT_TI_symbol_name("_rsvd1")
    2429                      .dwattr $C$DW$270, DW_AT_bit_offset(0x08), DW_AT_bit_size(0x03)
    2430                      .dwattr $C$DW$270, DW_AT_data_member_location[DW_OP_plus_uconst 0x0]
    2431                      .dwattr $C$DW$270, DW_AT_accessibility(DW_ACCESS_public)
    2432              $C$DW$271       .dwtag  DW_TAG_member
    2433                      .dwattr $C$DW$271, DW_AT_type(*$C$DW$T$19)
    2434                      .dwattr $C$DW$271, DW_AT_name("IF3SM")
    2435                      .dwattr $C$DW$271, DW_AT_TI_symbol_name("_IF3SM")
    2436                      .dwattr $C$DW$271, DW_AT_bit_offset(0x07), DW_AT_bit_size(0x01)
    2437                      .dwattr $C$DW$271, DW_AT_data_member_location[DW_OP_plus_uconst 0x0]
    2438                      .dwattr $C$DW$271, DW_AT_accessibility(DW_ACCESS_public)
    2439              $C$DW$272       .dwtag  DW_TAG_member
    2440                      .dwattr $C$DW$272, DW_AT_type(*$C$DW$T$19)
    2441                      .dwattr $C$DW$272, DW_AT_name("IF3SA")
    2442                      .dwattr $C$DW$272, DW_AT_TI_symbol_name("_IF3SA")
    2443                      .dwattr $C$DW$272, DW_AT_bit_offset(0x06), DW_AT_bit_size(0x01)
    2444                      .dwattr $C$DW$272, DW_AT_data_member_location[DW_OP_plus_uconst 0x0]
    2445                      .dwattr $C$DW$272, DW_AT_accessibility(DW_ACCESS_public)
TMS320C2000 Assembler PC v6.1.3 Tue Oct 01 15:28:07 2013

Tools Copyright (c) 1996-2012 Texas Instruments Incorporated
C:\Users\a0272466\AppData\Local\Temp\0414810                         PAGE   46

    2446              $C$DW$273       .dwtag  DW_TAG_member
    2447                      .dwattr $C$DW$273, DW_AT_type(*$C$DW$T$19)
    2448                      .dwattr $C$DW$273, DW_AT_name("IF3SC")
    2449                      .dwattr $C$DW$273, DW_AT_TI_symbol_name("_IF3SC")
    2450                      .dwattr $C$DW$273, DW_AT_bit_offset(0x05), DW_AT_bit_size(0x01)
    2451                      .dwattr $C$DW$273, DW_AT_data_member_location[DW_OP_plus_uconst 0x0]
    2452                      .dwattr $C$DW$273, DW_AT_accessibility(DW_ACCESS_public)
    2453              $C$DW$274       .dwtag  DW_TAG_member
    2454                      .dwattr $C$DW$274, DW_AT_type(*$C$DW$T$19)
    2455                      .dwattr $C$DW$274, DW_AT_name("IF3SDA")
    2456                      .dwattr $C$DW$274, DW_AT_TI_symbol_name("_IF3SDA")
    2457                      .dwattr $C$DW$274, DW_AT_bit_offset(0x04), DW_AT_bit_size(0x01)
    2458                      .dwattr $C$DW$274, DW_AT_data_member_location[DW_OP_plus_uconst 0x0]
    2459                      .dwattr $C$DW$274, DW_AT_accessibility(DW_ACCESS_public)
    2460              $C$DW$275       .dwtag  DW_TAG_member
    2461                      .dwattr $C$DW$275, DW_AT_type(*$C$DW$T$19)
    2462                      .dwattr $C$DW$275, DW_AT_name("IF3SDB")
    2463                      .dwattr $C$DW$275, DW_AT_TI_symbol_name("_IF3SDB")
    2464                      .dwattr $C$DW$275, DW_AT_bit_offset(0x03), DW_AT_bit_size(0x01)
    2465                      .dwattr $C$DW$275, DW_AT_data_member_location[DW_OP_plus_uconst 0x0]
    2466                      .dwattr $C$DW$275, DW_AT_accessibility(DW_ACCESS_public)
    2467              $C$DW$276       .dwtag  DW_TAG_member
    2468                      .dwattr $C$DW$276, DW_AT_type(*$C$DW$T$19)
    2469                      .dwattr $C$DW$276, DW_AT_name("rsvd2")
    2470                      .dwattr $C$DW$276, DW_AT_TI_symbol_name("_rsvd2")
    2471                      .dwattr $C$DW$276, DW_AT_bit_offset(0x01), DW_AT_bit_size(0x02)
    2472                      .dwattr $C$DW$276, DW_AT_data_member_location[DW_OP_plus_uconst 0x0]
    2473                      .dwattr $C$DW$276, DW_AT_accessibility(DW_ACCESS_public)
    2474              $C$DW$277       .dwtag  DW_TAG_member
    2475                      .dwattr $C$DW$277, DW_AT_type(*$C$DW$T$19)
    2476                      .dwattr $C$DW$277, DW_AT_name("IF3Upd")
    2477                      .dwattr $C$DW$277, DW_AT_TI_symbol_name("_IF3Upd")
    2478                      .dwattr $C$DW$277, DW_AT_bit_offset(0x00), DW_AT_bit_size(0x01)
    2479                      .dwattr $C$DW$277, DW_AT_data_member_location[DW_OP_plus_uconst 0x0]
    2480                      .dwattr $C$DW$277, DW_AT_accessibility(DW_ACCESS_public)
    2481              $C$DW$278       .dwtag  DW_TAG_member
    2482                      .dwattr $C$DW$278, DW_AT_type(*$C$DW$T$19)
    2483                      .dwattr $C$DW$278, DW_AT_name("rsvd3")
    2484                      .dwattr $C$DW$278, DW_AT_TI_symbol_name("_rsvd3")
    2485                      .dwattr $C$DW$278, DW_AT_bit_offset(0x00), DW_AT_bit_size(0x10)
    2486                      .dwattr $C$DW$278, DW_AT_data_member_location[DW_OP_plus_uconst 0x1]
    2487                      .dwattr $C$DW$278, DW_AT_accessibility(DW_ACCESS_public)
    2488                      .dwendtag $C$DW$T$73
    2489              
    2490              
    2491              $C$DW$T$74      .dwtag  DW_TAG_union_type
    2492                      .dwattr $C$DW$T$74, DW_AT_name("CAN_IF3OBS_REG")
    2493                      .dwattr $C$DW$T$74, DW_AT_byte_size(0x02)
    2494              $C$DW$279       .dwtag  DW_TAG_member
    2495                      .dwattr $C$DW$279, DW_AT_type(*$C$DW$T$21)
    2496                      .dwattr $C$DW$279, DW_AT_name("all")
    2497                      .dwattr $C$DW$279, DW_AT_TI_symbol_name("_all")
    2498                      .dwattr $C$DW$279, DW_AT_data_member_location[DW_OP_plus_uconst 0x0]
    2499                      .dwattr $C$DW$279, DW_AT_accessibility(DW_ACCESS_public)
    2500              $C$DW$280       .dwtag  DW_TAG_member
TMS320C2000 Assembler PC v6.1.3 Tue Oct 01 15:28:07 2013

Tools Copyright (c) 1996-2012 Texas Instruments Incorporated
C:\Users\a0272466\AppData\Local\Temp\0414810                         PAGE   47

    2501                      .dwattr $C$DW$280, DW_AT_type(*$C$DW$T$73)
    2502                      .dwattr $C$DW$280, DW_AT_name("bit")
    2503                      .dwattr $C$DW$280, DW_AT_TI_symbol_name("_bit")
    2504                      .dwattr $C$DW$280, DW_AT_data_member_location[DW_OP_plus_uconst 0x0]
    2505                      .dwattr $C$DW$280, DW_AT_accessibility(DW_ACCESS_public)
    2506                      .dwendtag $C$DW$T$74
    2507              
    2508              
    2509              $C$DW$T$75      .dwtag  DW_TAG_structure_type
    2510                      .dwattr $C$DW$T$75, DW_AT_name("CAN_INT_BITS")
    2511                      .dwattr $C$DW$T$75, DW_AT_byte_size(0x02)
    2512              $C$DW$281       .dwtag  DW_TAG_member
    2513                      .dwattr $C$DW$281, DW_AT_type(*$C$DW$T$19)
    2514                      .dwattr $C$DW$281, DW_AT_name("INT0ID")
    2515                      .dwattr $C$DW$281, DW_AT_TI_symbol_name("_INT0ID")
    2516                      .dwattr $C$DW$281, DW_AT_bit_offset(0x00), DW_AT_bit_size(0x10)
    2517                      .dwattr $C$DW$281, DW_AT_data_member_location[DW_OP_plus_uconst 0x0]
    2518                      .dwattr $C$DW$281, DW_AT_accessibility(DW_ACCESS_public)
    2519              $C$DW$282       .dwtag  DW_TAG_member
    2520                      .dwattr $C$DW$282, DW_AT_type(*$C$DW$T$19)
    2521                      .dwattr $C$DW$282, DW_AT_name("INT1ID")
    2522                      .dwattr $C$DW$282, DW_AT_TI_symbol_name("_INT1ID")
    2523                      .dwattr $C$DW$282, DW_AT_bit_offset(0x08), DW_AT_bit_size(0x08)
    2524                      .dwattr $C$DW$282, DW_AT_data_member_location[DW_OP_plus_uconst 0x1]
    2525                      .dwattr $C$DW$282, DW_AT_accessibility(DW_ACCESS_public)
    2526              $C$DW$283       .dwtag  DW_TAG_member
    2527                      .dwattr $C$DW$283, DW_AT_type(*$C$DW$T$19)
    2528                      .dwattr $C$DW$283, DW_AT_name("rsvd1")
    2529                      .dwattr $C$DW$283, DW_AT_TI_symbol_name("_rsvd1")
    2530                      .dwattr $C$DW$283, DW_AT_bit_offset(0x00), DW_AT_bit_size(0x08)
    2531                      .dwattr $C$DW$283, DW_AT_data_member_location[DW_OP_plus_uconst 0x1]
    2532                      .dwattr $C$DW$283, DW_AT_accessibility(DW_ACCESS_public)
    2533                      .dwendtag $C$DW$T$75
    2534              
    2535              
    2536              $C$DW$T$76      .dwtag  DW_TAG_union_type
    2537                      .dwattr $C$DW$T$76, DW_AT_name("CAN_INT_REG")
    2538                      .dwattr $C$DW$T$76, DW_AT_byte_size(0x02)
    2539              $C$DW$284       .dwtag  DW_TAG_member
    2540                      .dwattr $C$DW$284, DW_AT_type(*$C$DW$T$21)
    2541                      .dwattr $C$DW$284, DW_AT_name("all")
    2542                      .dwattr $C$DW$284, DW_AT_TI_symbol_name("_all")
    2543                      .dwattr $C$DW$284, DW_AT_data_member_location[DW_OP_plus_uconst 0x0]
    2544                      .dwattr $C$DW$284, DW_AT_accessibility(DW_ACCESS_public)
    2545              $C$DW$285       .dwtag  DW_TAG_member
    2546                      .dwattr $C$DW$285, DW_AT_type(*$C$DW$T$75)
    2547                      .dwattr $C$DW$285, DW_AT_name("bit")
    2548                      .dwattr $C$DW$285, DW_AT_TI_symbol_name("_bit")
    2549                      .dwattr $C$DW$285, DW_AT_data_member_location[DW_OP_plus_uconst 0x0]
    2550                      .dwattr $C$DW$285, DW_AT_accessibility(DW_ACCESS_public)
    2551                      .dwendtag $C$DW$T$76
    2552              
    2553              
    2554              $C$DW$T$77      .dwtag  DW_TAG_structure_type
    2555                      .dwattr $C$DW$T$77, DW_AT_name("CAN_IO_CTL_RX_BITS")
TMS320C2000 Assembler PC v6.1.3 Tue Oct 01 15:28:07 2013

Tools Copyright (c) 1996-2012 Texas Instruments Incorporated
C:\Users\a0272466\AppData\Local\Temp\0414810                         PAGE   48

    2556                      .dwattr $C$DW$T$77, DW_AT_byte_size(0x02)
    2557              $C$DW$286       .dwtag  DW_TAG_member
    2558                      .dwattr $C$DW$286, DW_AT_type(*$C$DW$T$19)
    2559                      .dwattr $C$DW$286, DW_AT_name("In")
    2560                      .dwattr $C$DW$286, DW_AT_TI_symbol_name("_In")
    2561                      .dwattr $C$DW$286, DW_AT_bit_offset(0x0f), DW_AT_bit_size(0x01)
    2562                      .dwattr $C$DW$286, DW_AT_data_member_location[DW_OP_plus_uconst 0x0]
    2563                      .dwattr $C$DW$286, DW_AT_accessibility(DW_ACCESS_public)
    2564              $C$DW$287       .dwtag  DW_TAG_member
    2565                      .dwattr $C$DW$287, DW_AT_type(*$C$DW$T$19)
    2566                      .dwattr $C$DW$287, DW_AT_name("rsvd1")
    2567                      .dwattr $C$DW$287, DW_AT_TI_symbol_name("_rsvd1")
    2568                      .dwattr $C$DW$287, DW_AT_bit_offset(0x0d), DW_AT_bit_size(0x02)
    2569                      .dwattr $C$DW$287, DW_AT_data_member_location[DW_OP_plus_uconst 0x0]
    2570                      .dwattr $C$DW$287, DW_AT_accessibility(DW_ACCESS_public)
    2571              $C$DW$288       .dwtag  DW_TAG_member
    2572                      .dwattr $C$DW$288, DW_AT_type(*$C$DW$T$19)
    2573                      .dwattr $C$DW$288, DW_AT_name("Func")
    2574                      .dwattr $C$DW$288, DW_AT_TI_symbol_name("_Func")
    2575                      .dwattr $C$DW$288, DW_AT_bit_offset(0x0c), DW_AT_bit_size(0x01)
    2576                      .dwattr $C$DW$288, DW_AT_data_member_location[DW_OP_plus_uconst 0x0]
    2577                      .dwattr $C$DW$288, DW_AT_accessibility(DW_ACCESS_public)
    2578              $C$DW$289       .dwtag  DW_TAG_member
    2579                      .dwattr $C$DW$289, DW_AT_type(*$C$DW$T$19)
    2580                      .dwattr $C$DW$289, DW_AT_name("rsvd2")
    2581                      .dwattr $C$DW$289, DW_AT_TI_symbol_name("_rsvd2")
    2582                      .dwattr $C$DW$289, DW_AT_bit_offset(0x00), DW_AT_bit_size(0x0c)
    2583                      .dwattr $C$DW$289, DW_AT_data_member_location[DW_OP_plus_uconst 0x0]
    2584                      .dwattr $C$DW$289, DW_AT_accessibility(DW_ACCESS_public)
    2585              $C$DW$290       .dwtag  DW_TAG_member
    2586                      .dwattr $C$DW$290, DW_AT_type(*$C$DW$T$19)
    2587                      .dwattr $C$DW$290, DW_AT_name("rsvd3")
    2588                      .dwattr $C$DW$290, DW_AT_TI_symbol_name("_rsvd3")
    2589                      .dwattr $C$DW$290, DW_AT_bit_offset(0x00), DW_AT_bit_size(0x10)
    2590                      .dwattr $C$DW$290, DW_AT_data_member_location[DW_OP_plus_uconst 0x1]
    2591                      .dwattr $C$DW$290, DW_AT_accessibility(DW_ACCESS_public)
    2592                      .dwendtag $C$DW$T$77
    2593              
    2594              
    2595              $C$DW$T$78      .dwtag  DW_TAG_union_type
    2596                      .dwattr $C$DW$T$78, DW_AT_name("CAN_IO_CTL_RX_REG")
    2597                      .dwattr $C$DW$T$78, DW_AT_byte_size(0x02)
    2598              $C$DW$291       .dwtag  DW_TAG_member
    2599                      .dwattr $C$DW$291, DW_AT_type(*$C$DW$T$21)
    2600                      .dwattr $C$DW$291, DW_AT_name("all")
    2601                      .dwattr $C$DW$291, DW_AT_TI_symbol_name("_all")
    2602                      .dwattr $C$DW$291, DW_AT_data_member_location[DW_OP_plus_uconst 0x0]
    2603                      .dwattr $C$DW$291, DW_AT_accessibility(DW_ACCESS_public)
    2604              $C$DW$292       .dwtag  DW_TAG_member
    2605                      .dwattr $C$DW$292, DW_AT_type(*$C$DW$T$77)
    2606                      .dwattr $C$DW$292, DW_AT_name("bit")
    2607                      .dwattr $C$DW$292, DW_AT_TI_symbol_name("_bit")
    2608                      .dwattr $C$DW$292, DW_AT_data_member_location[DW_OP_plus_uconst 0x0]
    2609                      .dwattr $C$DW$292, DW_AT_accessibility(DW_ACCESS_public)
    2610                      .dwendtag $C$DW$T$78
TMS320C2000 Assembler PC v6.1.3 Tue Oct 01 15:28:07 2013

Tools Copyright (c) 1996-2012 Texas Instruments Incorporated
C:\Users\a0272466\AppData\Local\Temp\0414810                         PAGE   49

    2611              
    2612              
    2613              $C$DW$T$79      .dwtag  DW_TAG_structure_type
    2614                      .dwattr $C$DW$T$79, DW_AT_name("CAN_IO_CTL_TX_BITS")
    2615                      .dwattr $C$DW$T$79, DW_AT_byte_size(0x02)
    2616              $C$DW$293       .dwtag  DW_TAG_member
    2617                      .dwattr $C$DW$293, DW_AT_type(*$C$DW$T$19)
    2618                      .dwattr $C$DW$293, DW_AT_name("In")
    2619                      .dwattr $C$DW$293, DW_AT_TI_symbol_name("_In")
    2620                      .dwattr $C$DW$293, DW_AT_bit_offset(0x0f), DW_AT_bit_size(0x01)
    2621                      .dwattr $C$DW$293, DW_AT_data_member_location[DW_OP_plus_uconst 0x0]
    2622                      .dwattr $C$DW$293, DW_AT_accessibility(DW_ACCESS_public)
    2623              $C$DW$294       .dwtag  DW_TAG_member
    2624                      .dwattr $C$DW$294, DW_AT_type(*$C$DW$T$19)
    2625                      .dwattr $C$DW$294, DW_AT_name("rsvd1")
    2626                      .dwattr $C$DW$294, DW_AT_TI_symbol_name("_rsvd1")
    2627                      .dwattr $C$DW$294, DW_AT_bit_offset(0x0d), DW_AT_bit_size(0x02)
    2628                      .dwattr $C$DW$294, DW_AT_data_member_location[DW_OP_plus_uconst 0x0]
    2629                      .dwattr $C$DW$294, DW_AT_accessibility(DW_ACCESS_public)
    2630              $C$DW$295       .dwtag  DW_TAG_member
    2631                      .dwattr $C$DW$295, DW_AT_type(*$C$DW$T$19)
    2632                      .dwattr $C$DW$295, DW_AT_name("Func")
    2633                      .dwattr $C$DW$295, DW_AT_TI_symbol_name("_Func")
    2634                      .dwattr $C$DW$295, DW_AT_bit_offset(0x0c), DW_AT_bit_size(0x01)
    2635                      .dwattr $C$DW$295, DW_AT_data_member_location[DW_OP_plus_uconst 0x0]
    2636                      .dwattr $C$DW$295, DW_AT_accessibility(DW_ACCESS_public)
    2637              $C$DW$296       .dwtag  DW_TAG_member
    2638                      .dwattr $C$DW$296, DW_AT_type(*$C$DW$T$19)
    2639                      .dwattr $C$DW$296, DW_AT_name("rsvd2")
    2640                      .dwattr $C$DW$296, DW_AT_TI_symbol_name("_rsvd2")
    2641                      .dwattr $C$DW$296, DW_AT_bit_offset(0x00), DW_AT_bit_size(0x0c)
    2642                      .dwattr $C$DW$296, DW_AT_data_member_location[DW_OP_plus_uconst 0x0]
    2643                      .dwattr $C$DW$296, DW_AT_accessibility(DW_ACCESS_public)
    2644              $C$DW$297       .dwtag  DW_TAG_member
    2645                      .dwattr $C$DW$297, DW_AT_type(*$C$DW$T$19)
    2646                      .dwattr $C$DW$297, DW_AT_name("rsvd3")
    2647                      .dwattr $C$DW$297, DW_AT_TI_symbol_name("_rsvd3")
    2648                      .dwattr $C$DW$297, DW_AT_bit_offset(0x00), DW_AT_bit_size(0x10)
    2649                      .dwattr $C$DW$297, DW_AT_data_member_location[DW_OP_plus_uconst 0x1]
    2650                      .dwattr $C$DW$297, DW_AT_accessibility(DW_ACCESS_public)
    2651                      .dwendtag $C$DW$T$79
    2652              
    2653              
    2654              $C$DW$T$80      .dwtag  DW_TAG_union_type
    2655                      .dwattr $C$DW$T$80, DW_AT_name("CAN_IO_CTL_TX_REG")
    2656                      .dwattr $C$DW$T$80, DW_AT_byte_size(0x02)
    2657              $C$DW$298       .dwtag  DW_TAG_member
    2658                      .dwattr $C$DW$298, DW_AT_type(*$C$DW$T$21)
    2659                      .dwattr $C$DW$298, DW_AT_name("all")
    2660                      .dwattr $C$DW$298, DW_AT_TI_symbol_name("_all")
    2661                      .dwattr $C$DW$298, DW_AT_data_member_location[DW_OP_plus_uconst 0x0]
    2662                      .dwattr $C$DW$298, DW_AT_accessibility(DW_ACCESS_public)
    2663              $C$DW$299       .dwtag  DW_TAG_member
    2664                      .dwattr $C$DW$299, DW_AT_type(*$C$DW$T$79)
    2665                      .dwattr $C$DW$299, DW_AT_name("bit")
TMS320C2000 Assembler PC v6.1.3 Tue Oct 01 15:28:07 2013

Tools Copyright (c) 1996-2012 Texas Instruments Incorporated
C:\Users\a0272466\AppData\Local\Temp\0414810                         PAGE   50

    2666                      .dwattr $C$DW$299, DW_AT_TI_symbol_name("_bit")
    2667                      .dwattr $C$DW$299, DW_AT_data_member_location[DW_OP_plus_uconst 0x0]
    2668                      .dwattr $C$DW$299, DW_AT_accessibility(DW_ACCESS_public)
    2669                      .dwendtag $C$DW$T$80
    2670              
    2671              
    2672              $C$DW$T$81      .dwtag  DW_TAG_structure_type
    2673                      .dwattr $C$DW$T$81, DW_AT_name("CAN_IPEN_X_BITS")
    2674                      .dwattr $C$DW$T$81, DW_AT_byte_size(0x02)
    2675              $C$DW$300       .dwtag  DW_TAG_member
    2676                      .dwattr $C$DW$300, DW_AT_type(*$C$DW$T$19)
    2677                      .dwattr $C$DW$300, DW_AT_name("IntPndReg1")
    2678                      .dwattr $C$DW$300, DW_AT_TI_symbol_name("_IntPndReg1")
    2679                      .dwattr $C$DW$300, DW_AT_bit_offset(0x0e), DW_AT_bit_size(0x02)
    2680                      .dwattr $C$DW$300, DW_AT_data_member_location[DW_OP_plus_uconst 0x0]
    2681                      .dwattr $C$DW$300, DW_AT_accessibility(DW_ACCESS_public)
    2682              $C$DW$301       .dwtag  DW_TAG_member
    2683                      .dwattr $C$DW$301, DW_AT_type(*$C$DW$T$19)
    2684                      .dwattr $C$DW$301, DW_AT_name("IntPndReg2")
    2685                      .dwattr $C$DW$301, DW_AT_TI_symbol_name("_IntPndReg2")
    2686                      .dwattr $C$DW$301, DW_AT_bit_offset(0x0c), DW_AT_bit_size(0x02)
    2687                      .dwattr $C$DW$301, DW_AT_data_member_location[DW_OP_plus_uconst 0x0]
    2688                      .dwattr $C$DW$301, DW_AT_accessibility(DW_ACCESS_public)
    2689              $C$DW$302       .dwtag  DW_TAG_member
    2690                      .dwattr $C$DW$302, DW_AT_type(*$C$DW$T$19)
    2691                      .dwattr $C$DW$302, DW_AT_name("rsvd1")
    2692                      .dwattr $C$DW$302, DW_AT_TI_symbol_name("_rsvd1")
    2693                      .dwattr $C$DW$302, DW_AT_bit_offset(0x00), DW_AT_bit_size(0x0c)
    2694                      .dwattr $C$DW$302, DW_AT_data_member_location[DW_OP_plus_uconst 0x0]
    2695                      .dwattr $C$DW$302, DW_AT_accessibility(DW_ACCESS_public)
    2696              $C$DW$303       .dwtag  DW_TAG_member
    2697                      .dwattr $C$DW$303, DW_AT_type(*$C$DW$T$19)
    2698                      .dwattr $C$DW$303, DW_AT_name("rsvd2")
    2699                      .dwattr $C$DW$303, DW_AT_TI_symbol_name("_rsvd2")
    2700                      .dwattr $C$DW$303, DW_AT_bit_offset(0x00), DW_AT_bit_size(0x10)
    2701                      .dwattr $C$DW$303, DW_AT_data_member_location[DW_OP_plus_uconst 0x1]
    2702                      .dwattr $C$DW$303, DW_AT_accessibility(DW_ACCESS_public)
    2703                      .dwendtag $C$DW$T$81
    2704              
    2705              
    2706              $C$DW$T$82      .dwtag  DW_TAG_union_type
    2707                      .dwattr $C$DW$T$82, DW_AT_name("CAN_IPEN_X_REG")
    2708                      .dwattr $C$DW$T$82, DW_AT_byte_size(0x02)
    2709              $C$DW$304       .dwtag  DW_TAG_member
    2710                      .dwattr $C$DW$304, DW_AT_type(*$C$DW$T$21)
    2711                      .dwattr $C$DW$304, DW_AT_name("all")
    2712                      .dwattr $C$DW$304, DW_AT_TI_symbol_name("_all")
    2713                      .dwattr $C$DW$304, DW_AT_data_member_location[DW_OP_plus_uconst 0x0]
    2714                      .dwattr $C$DW$304, DW_AT_accessibility(DW_ACCESS_public)
    2715              $C$DW$305       .dwtag  DW_TAG_member
    2716                      .dwattr $C$DW$305, DW_AT_type(*$C$DW$T$81)
    2717                      .dwattr $C$DW$305, DW_AT_name("bit")
    2718                      .dwattr $C$DW$305, DW_AT_TI_symbol_name("_bit")
    2719                      .dwattr $C$DW$305, DW_AT_data_member_location[DW_OP_plus_uconst 0x0]
    2720                      .dwattr $C$DW$305, DW_AT_accessibility(DW_ACCESS_public)
TMS320C2000 Assembler PC v6.1.3 Tue Oct 01 15:28:07 2013

Tools Copyright (c) 1996-2012 Texas Instruments Incorporated
C:\Users\a0272466\AppData\Local\Temp\0414810                         PAGE   51

    2721                      .dwendtag $C$DW$T$82
    2722              
    2723              
    2724              $C$DW$T$83      .dwtag  DW_TAG_structure_type
    2725                      .dwattr $C$DW$T$83, DW_AT_name("CAN_MVAL_X_BITS")
    2726                      .dwattr $C$DW$T$83, DW_AT_byte_size(0x02)
    2727              $C$DW$306       .dwtag  DW_TAG_member
    2728                      .dwattr $C$DW$306, DW_AT_type(*$C$DW$T$19)
    2729                      .dwattr $C$DW$306, DW_AT_name("MsgValReg1")
    2730                      .dwattr $C$DW$306, DW_AT_TI_symbol_name("_MsgValReg1")
    2731                      .dwattr $C$DW$306, DW_AT_bit_offset(0x0e), DW_AT_bit_size(0x02)
    2732                      .dwattr $C$DW$306, DW_AT_data_member_location[DW_OP_plus_uconst 0x0]
    2733                      .dwattr $C$DW$306, DW_AT_accessibility(DW_ACCESS_public)
    2734              $C$DW$307       .dwtag  DW_TAG_member
    2735                      .dwattr $C$DW$307, DW_AT_type(*$C$DW$T$19)
    2736                      .dwattr $C$DW$307, DW_AT_name("MsgValReg2")
    2737                      .dwattr $C$DW$307, DW_AT_TI_symbol_name("_MsgValReg2")
    2738                      .dwattr $C$DW$307, DW_AT_bit_offset(0x0c), DW_AT_bit_size(0x02)
    2739                      .dwattr $C$DW$307, DW_AT_data_member_location[DW_OP_plus_uconst 0x0]
    2740                      .dwattr $C$DW$307, DW_AT_accessibility(DW_ACCESS_public)
    2741              $C$DW$308       .dwtag  DW_TAG_member
    2742                      .dwattr $C$DW$308, DW_AT_type(*$C$DW$T$19)
    2743                      .dwattr $C$DW$308, DW_AT_name("rsvd1")
    2744                      .dwattr $C$DW$308, DW_AT_TI_symbol_name("_rsvd1")
    2745                      .dwattr $C$DW$308, DW_AT_bit_offset(0x00), DW_AT_bit_size(0x0c)
    2746                      .dwattr $C$DW$308, DW_AT_data_member_location[DW_OP_plus_uconst 0x0]
    2747                      .dwattr $C$DW$308, DW_AT_accessibility(DW_ACCESS_public)
    2748              $C$DW$309       .dwtag  DW_TAG_member
    2749                      .dwattr $C$DW$309, DW_AT_type(*$C$DW$T$19)
    2750                      .dwattr $C$DW$309, DW_AT_name("rsvd2")
    2751                      .dwattr $C$DW$309, DW_AT_TI_symbol_name("_rsvd2")
    2752                      .dwattr $C$DW$309, DW_AT_bit_offset(0x00), DW_AT_bit_size(0x10)
    2753                      .dwattr $C$DW$309, DW_AT_data_member_location[DW_OP_plus_uconst 0x1]
    2754                      .dwattr $C$DW$309, DW_AT_accessibility(DW_ACCESS_public)
    2755                      .dwendtag $C$DW$T$83
    2756              
    2757              
    2758              $C$DW$T$84      .dwtag  DW_TAG_union_type
    2759                      .dwattr $C$DW$T$84, DW_AT_name("CAN_MVAL_X_REG")
    2760                      .dwattr $C$DW$T$84, DW_AT_byte_size(0x02)
    2761              $C$DW$310       .dwtag  DW_TAG_member
    2762                      .dwattr $C$DW$310, DW_AT_type(*$C$DW$T$21)
    2763                      .dwattr $C$DW$310, DW_AT_name("all")
    2764                      .dwattr $C$DW$310, DW_AT_TI_symbol_name("_all")
    2765                      .dwattr $C$DW$310, DW_AT_data_member_location[DW_OP_plus_uconst 0x0]
    2766                      .dwattr $C$DW$310, DW_AT_accessibility(DW_ACCESS_public)
    2767              $C$DW$311       .dwtag  DW_TAG_member
    2768                      .dwattr $C$DW$311, DW_AT_type(*$C$DW$T$83)
    2769                      .dwattr $C$DW$311, DW_AT_name("bit")
    2770                      .dwattr $C$DW$311, DW_AT_TI_symbol_name("_bit")
    2771                      .dwattr $C$DW$311, DW_AT_data_member_location[DW_OP_plus_uconst 0x0]
    2772                      .dwattr $C$DW$311, DW_AT_accessibility(DW_ACCESS_public)
    2773                      .dwendtag $C$DW$T$84
    2774              
    2775              
TMS320C2000 Assembler PC v6.1.3 Tue Oct 01 15:28:07 2013

Tools Copyright (c) 1996-2012 Texas Instruments Incorporated
C:\Users\a0272466\AppData\Local\Temp\0414810                         PAGE   52

    2776              $C$DW$T$85      .dwtag  DW_TAG_structure_type
    2777                      .dwattr $C$DW$T$85, DW_AT_name("CAN_NDAT_X_BITS")
    2778                      .dwattr $C$DW$T$85, DW_AT_byte_size(0x02)
    2779              $C$DW$312       .dwtag  DW_TAG_member
    2780                      .dwattr $C$DW$312, DW_AT_type(*$C$DW$T$19)
    2781                      .dwattr $C$DW$312, DW_AT_name("NewDatReg1")
    2782                      .dwattr $C$DW$312, DW_AT_TI_symbol_name("_NewDatReg1")
    2783                      .dwattr $C$DW$312, DW_AT_bit_offset(0x0e), DW_AT_bit_size(0x02)
    2784                      .dwattr $C$DW$312, DW_AT_data_member_location[DW_OP_plus_uconst 0x0]
    2785                      .dwattr $C$DW$312, DW_AT_accessibility(DW_ACCESS_public)
    2786              $C$DW$313       .dwtag  DW_TAG_member
    2787                      .dwattr $C$DW$313, DW_AT_type(*$C$DW$T$19)
    2788                      .dwattr $C$DW$313, DW_AT_name("NewDatReg2")
    2789                      .dwattr $C$DW$313, DW_AT_TI_symbol_name("_NewDatReg2")
    2790                      .dwattr $C$DW$313, DW_AT_bit_offset(0x0c), DW_AT_bit_size(0x02)
    2791                      .dwattr $C$DW$313, DW_AT_data_member_location[DW_OP_plus_uconst 0x0]
    2792                      .dwattr $C$DW$313, DW_AT_accessibility(DW_ACCESS_public)
    2793              $C$DW$314       .dwtag  DW_TAG_member
    2794                      .dwattr $C$DW$314, DW_AT_type(*$C$DW$T$19)
    2795                      .dwattr $C$DW$314, DW_AT_name("rsvd1")
    2796                      .dwattr $C$DW$314, DW_AT_TI_symbol_name("_rsvd1")
    2797                      .dwattr $C$DW$314, DW_AT_bit_offset(0x00), DW_AT_bit_size(0x0c)
    2798                      .dwattr $C$DW$314, DW_AT_data_member_location[DW_OP_plus_uconst 0x0]
    2799                      .dwattr $C$DW$314, DW_AT_accessibility(DW_ACCESS_public)
    2800              $C$DW$315       .dwtag  DW_TAG_member
    2801                      .dwattr $C$DW$315, DW_AT_type(*$C$DW$T$19)
    2802                      .dwattr $C$DW$315, DW_AT_name("rsvd2")
    2803                      .dwattr $C$DW$315, DW_AT_TI_symbol_name("_rsvd2")
    2804                      .dwattr $C$DW$315, DW_AT_bit_offset(0x00), DW_AT_bit_size(0x10)
    2805                      .dwattr $C$DW$315, DW_AT_data_member_location[DW_OP_plus_uconst 0x1]
    2806                      .dwattr $C$DW$315, DW_AT_accessibility(DW_ACCESS_public)
    2807                      .dwendtag $C$DW$T$85
    2808              
    2809              
    2810              $C$DW$T$86      .dwtag  DW_TAG_union_type
    2811                      .dwattr $C$DW$T$86, DW_AT_name("CAN_NDAT_X_REG")
    2812                      .dwattr $C$DW$T$86, DW_AT_byte_size(0x02)
    2813              $C$DW$316       .dwtag  DW_TAG_member
    2814                      .dwattr $C$DW$316, DW_AT_type(*$C$DW$T$21)
    2815                      .dwattr $C$DW$316, DW_AT_name("all")
    2816                      .dwattr $C$DW$316, DW_AT_TI_symbol_name("_all")
    2817                      .dwattr $C$DW$316, DW_AT_data_member_location[DW_OP_plus_uconst 0x0]
    2818                      .dwattr $C$DW$316, DW_AT_accessibility(DW_ACCESS_public)
    2819              $C$DW$317       .dwtag  DW_TAG_member
    2820                      .dwattr $C$DW$317, DW_AT_type(*$C$DW$T$85)
    2821                      .dwattr $C$DW$317, DW_AT_name("bit")
    2822                      .dwattr $C$DW$317, DW_AT_TI_symbol_name("_bit")
    2823                      .dwattr $C$DW$317, DW_AT_data_member_location[DW_OP_plus_uconst 0x0]
    2824                      .dwattr $C$DW$317, DW_AT_accessibility(DW_ACCESS_public)
    2825                      .dwendtag $C$DW$T$86
    2826              
    2827              
    2828              $C$DW$T$87      .dwtag  DW_TAG_structure_type
    2829                      .dwattr $C$DW$T$87, DW_AT_name("CAN_PERR_BITS")
    2830                      .dwattr $C$DW$T$87, DW_AT_byte_size(0x02)
TMS320C2000 Assembler PC v6.1.3 Tue Oct 01 15:28:07 2013

Tools Copyright (c) 1996-2012 Texas Instruments Incorporated
C:\Users\a0272466\AppData\Local\Temp\0414810                         PAGE   53

    2831              $C$DW$318       .dwtag  DW_TAG_member
    2832                      .dwattr $C$DW$318, DW_AT_type(*$C$DW$T$19)
    2833                      .dwattr $C$DW$318, DW_AT_name("MSG_NUM")
    2834                      .dwattr $C$DW$318, DW_AT_TI_symbol_name("_MSG_NUM")
    2835                      .dwattr $C$DW$318, DW_AT_bit_offset(0x08), DW_AT_bit_size(0x08)
    2836                      .dwattr $C$DW$318, DW_AT_data_member_location[DW_OP_plus_uconst 0x0]
    2837                      .dwattr $C$DW$318, DW_AT_accessibility(DW_ACCESS_public)
    2838              $C$DW$319       .dwtag  DW_TAG_member
    2839                      .dwattr $C$DW$319, DW_AT_type(*$C$DW$T$19)
    2840                      .dwattr $C$DW$319, DW_AT_name("WORD_NUM")
    2841                      .dwattr $C$DW$319, DW_AT_TI_symbol_name("_WORD_NUM")
    2842                      .dwattr $C$DW$319, DW_AT_bit_offset(0x05), DW_AT_bit_size(0x03)
    2843                      .dwattr $C$DW$319, DW_AT_data_member_location[DW_OP_plus_uconst 0x0]
    2844                      .dwattr $C$DW$319, DW_AT_accessibility(DW_ACCESS_public)
    2845              $C$DW$320       .dwtag  DW_TAG_member
    2846                      .dwattr $C$DW$320, DW_AT_type(*$C$DW$T$19)
    2847                      .dwattr $C$DW$320, DW_AT_name("rsvd1")
    2848                      .dwattr $C$DW$320, DW_AT_TI_symbol_name("_rsvd1")
    2849                      .dwattr $C$DW$320, DW_AT_bit_offset(0x00), DW_AT_bit_size(0x05)
    2850                      .dwattr $C$DW$320, DW_AT_data_member_location[DW_OP_plus_uconst 0x0]
    2851                      .dwattr $C$DW$320, DW_AT_accessibility(DW_ACCESS_public)
    2852              $C$DW$321       .dwtag  DW_TAG_member
    2853                      .dwattr $C$DW$321, DW_AT_type(*$C$DW$T$19)
    2854                      .dwattr $C$DW$321, DW_AT_name("rsvd2")
    2855                      .dwattr $C$DW$321, DW_AT_TI_symbol_name("_rsvd2")
    2856                      .dwattr $C$DW$321, DW_AT_bit_offset(0x00), DW_AT_bit_size(0x10)
    2857                      .dwattr $C$DW$321, DW_AT_data_member_location[DW_OP_plus_uconst 0x1]
    2858                      .dwattr $C$DW$321, DW_AT_accessibility(DW_ACCESS_public)
    2859                      .dwendtag $C$DW$T$87
    2860              
    2861              
    2862              $C$DW$T$88      .dwtag  DW_TAG_union_type
    2863                      .dwattr $C$DW$T$88, DW_AT_name("CAN_PERR_REG")
    2864                      .dwattr $C$DW$T$88, DW_AT_byte_size(0x02)
    2865              $C$DW$322       .dwtag  DW_TAG_member
    2866                      .dwattr $C$DW$322, DW_AT_type(*$C$DW$T$21)
    2867                      .dwattr $C$DW$322, DW_AT_name("all")
    2868                      .dwattr $C$DW$322, DW_AT_TI_symbol_name("_all")
    2869                      .dwattr $C$DW$322, DW_AT_data_member_location[DW_OP_plus_uconst 0x0]
    2870                      .dwattr $C$DW$322, DW_AT_accessibility(DW_ACCESS_public)
    2871              $C$DW$323       .dwtag  DW_TAG_member
    2872                      .dwattr $C$DW$323, DW_AT_type(*$C$DW$T$87)
    2873                      .dwattr $C$DW$323, DW_AT_name("bit")
    2874                      .dwattr $C$DW$323, DW_AT_TI_symbol_name("_bit")
    2875                      .dwattr $C$DW$323, DW_AT_data_member_location[DW_OP_plus_uconst 0x0]
    2876                      .dwattr $C$DW$323, DW_AT_accessibility(DW_ACCESS_public)
    2877                      .dwendtag $C$DW$T$88
    2878              
    2879              
    2880              $C$DW$T$89      .dwtag  DW_TAG_structure_type
    2881                      .dwattr $C$DW$T$89, DW_AT_name("CAN_RAM_INIT_BITS")
    2882                      .dwattr $C$DW$T$89, DW_AT_byte_size(0x02)
    2883              $C$DW$324       .dwtag  DW_TAG_member
    2884                      .dwattr $C$DW$324, DW_AT_type(*$C$DW$T$19)
    2885                      .dwattr $C$DW$324, DW_AT_name("KEY0")
TMS320C2000 Assembler PC v6.1.3 Tue Oct 01 15:28:07 2013

Tools Copyright (c) 1996-2012 Texas Instruments Incorporated
C:\Users\a0272466\AppData\Local\Temp\0414810                         PAGE   54

    2886                      .dwattr $C$DW$324, DW_AT_TI_symbol_name("_KEY0")
    2887                      .dwattr $C$DW$324, DW_AT_bit_offset(0x0f), DW_AT_bit_size(0x01)
    2888                      .dwattr $C$DW$324, DW_AT_data_member_location[DW_OP_plus_uconst 0x0]
    2889                      .dwattr $C$DW$324, DW_AT_accessibility(DW_ACCESS_public)
    2890              $C$DW$325       .dwtag  DW_TAG_member
    2891                      .dwattr $C$DW$325, DW_AT_type(*$C$DW$T$19)
    2892                      .dwattr $C$DW$325, DW_AT_name("KEY1")
    2893                      .dwattr $C$DW$325, DW_AT_TI_symbol_name("_KEY1")
    2894                      .dwattr $C$DW$325, DW_AT_bit_offset(0x0e), DW_AT_bit_size(0x01)
    2895                      .dwattr $C$DW$325, DW_AT_data_member_location[DW_OP_plus_uconst 0x0]
    2896                      .dwattr $C$DW$325, DW_AT_accessibility(DW_ACCESS_public)
    2897              $C$DW$326       .dwtag  DW_TAG_member
    2898                      .dwattr $C$DW$326, DW_AT_type(*$C$DW$T$19)
    2899                      .dwattr $C$DW$326, DW_AT_name("KEY2")
    2900                      .dwattr $C$DW$326, DW_AT_TI_symbol_name("_KEY2")
    2901                      .dwattr $C$DW$326, DW_AT_bit_offset(0x0d), DW_AT_bit_size(0x01)
    2902                      .dwattr $C$DW$326, DW_AT_data_member_location[DW_OP_plus_uconst 0x0]
    2903                      .dwattr $C$DW$326, DW_AT_accessibility(DW_ACCESS_public)
    2904              $C$DW$327       .dwtag  DW_TAG_member
    2905                      .dwattr $C$DW$327, DW_AT_type(*$C$DW$T$19)
    2906                      .dwattr $C$DW$327, DW_AT_name("KEY3")
    2907                      .dwattr $C$DW$327, DW_AT_TI_symbol_name("_KEY3")
    2908                      .dwattr $C$DW$327, DW_AT_bit_offset(0x0c), DW_AT_bit_size(0x01)
    2909                      .dwattr $C$DW$327, DW_AT_data_member_location[DW_OP_plus_uconst 0x0]
    2910                      .dwattr $C$DW$327, DW_AT_accessibility(DW_ACCESS_public)
    2911              $C$DW$328       .dwtag  DW_TAG_member
    2912                      .dwattr $C$DW$328, DW_AT_type(*$C$DW$T$19)
    2913                      .dwattr $C$DW$328, DW_AT_name("CAN_RAM_INIT")
    2914                      .dwattr $C$DW$328, DW_AT_TI_symbol_name("_CAN_RAM_INIT")
    2915                      .dwattr $C$DW$328, DW_AT_bit_offset(0x0b), DW_AT_bit_size(0x01)
    2916                      .dwattr $C$DW$328, DW_AT_data_member_location[DW_OP_plus_uconst 0x0]
    2917                      .dwattr $C$DW$328, DW_AT_accessibility(DW_ACCESS_public)
    2918              $C$DW$329       .dwtag  DW_TAG_member
    2919                      .dwattr $C$DW$329, DW_AT_type(*$C$DW$T$19)
    2920                      .dwattr $C$DW$329, DW_AT_name("RAM_INIT_DONE")
    2921                      .dwattr $C$DW$329, DW_AT_TI_symbol_name("_RAM_INIT_DONE")
    2922                      .dwattr $C$DW$329, DW_AT_bit_offset(0x0a), DW_AT_bit_size(0x01)
    2923                      .dwattr $C$DW$329, DW_AT_data_member_location[DW_OP_plus_uconst 0x0]
    2924                      .dwattr $C$DW$329, DW_AT_accessibility(DW_ACCESS_public)
    2925              $C$DW$330       .dwtag  DW_TAG_member
    2926                      .dwattr $C$DW$330, DW_AT_type(*$C$DW$T$19)
    2927                      .dwattr $C$DW$330, DW_AT_name("rsvd1")
    2928                      .dwattr $C$DW$330, DW_AT_TI_symbol_name("_rsvd1")
    2929                      .dwattr $C$DW$330, DW_AT_bit_offset(0x00), DW_AT_bit_size(0x0a)
    2930                      .dwattr $C$DW$330, DW_AT_data_member_location[DW_OP_plus_uconst 0x0]
    2931                      .dwattr $C$DW$330, DW_AT_accessibility(DW_ACCESS_public)
    2932              $C$DW$331       .dwtag  DW_TAG_member
    2933                      .dwattr $C$DW$331, DW_AT_type(*$C$DW$T$19)
    2934                      .dwattr $C$DW$331, DW_AT_name("rsvd2")
    2935                      .dwattr $C$DW$331, DW_AT_TI_symbol_name("_rsvd2")
    2936                      .dwattr $C$DW$331, DW_AT_bit_offset(0x00), DW_AT_bit_size(0x10)
    2937                      .dwattr $C$DW$331, DW_AT_data_member_location[DW_OP_plus_uconst 0x1]
    2938                      .dwattr $C$DW$331, DW_AT_accessibility(DW_ACCESS_public)
    2939                      .dwendtag $C$DW$T$89
    2940              
TMS320C2000 Assembler PC v6.1.3 Tue Oct 01 15:28:07 2013

Tools Copyright (c) 1996-2012 Texas Instruments Incorporated
C:\Users\a0272466\AppData\Local\Temp\0414810                         PAGE   55

    2941              
    2942              $C$DW$T$90      .dwtag  DW_TAG_union_type
    2943                      .dwattr $C$DW$T$90, DW_AT_name("CAN_RAM_INIT_REG")
    2944                      .dwattr $C$DW$T$90, DW_AT_byte_size(0x02)
    2945              $C$DW$332       .dwtag  DW_TAG_member
    2946                      .dwattr $C$DW$332, DW_AT_type(*$C$DW$T$21)
    2947                      .dwattr $C$DW$332, DW_AT_name("all")
    2948                      .dwattr $C$DW$332, DW_AT_TI_symbol_name("_all")
    2949                      .dwattr $C$DW$332, DW_AT_data_member_location[DW_OP_plus_uconst 0x0]
    2950                      .dwattr $C$DW$332, DW_AT_accessibility(DW_ACCESS_public)
    2951              $C$DW$333       .dwtag  DW_TAG_member
    2952                      .dwattr $C$DW$333, DW_AT_type(*$C$DW$T$89)
    2953                      .dwattr $C$DW$333, DW_AT_name("bit")
    2954                      .dwattr $C$DW$333, DW_AT_TI_symbol_name("_bit")
    2955                      .dwattr $C$DW$333, DW_AT_data_member_location[DW_OP_plus_uconst 0x0]
    2956                      .dwattr $C$DW$333, DW_AT_accessibility(DW_ACCESS_public)
    2957                      .dwendtag $C$DW$T$90
    2958              
    2959              
    2960              $C$DW$T$91      .dwtag  DW_TAG_structure_type
    2961                      .dwattr $C$DW$T$91, DW_AT_name("CAN_REL_BITS")
    2962                      .dwattr $C$DW$T$91, DW_AT_byte_size(0x02)
    2963              $C$DW$334       .dwtag  DW_TAG_member
    2964                      .dwattr $C$DW$334, DW_AT_type(*$C$DW$T$19)
    2965                      .dwattr $C$DW$334, DW_AT_name("DAY")
    2966                      .dwattr $C$DW$334, DW_AT_TI_symbol_name("_DAY")
    2967                      .dwattr $C$DW$334, DW_AT_bit_offset(0x08), DW_AT_bit_size(0x08)
    2968                      .dwattr $C$DW$334, DW_AT_data_member_location[DW_OP_plus_uconst 0x0]
    2969                      .dwattr $C$DW$334, DW_AT_accessibility(DW_ACCESS_public)
    2970              $C$DW$335       .dwtag  DW_TAG_member
    2971                      .dwattr $C$DW$335, DW_AT_type(*$C$DW$T$19)
    2972                      .dwattr $C$DW$335, DW_AT_name("MON")
    2973                      .dwattr $C$DW$335, DW_AT_TI_symbol_name("_MON")
    2974                      .dwattr $C$DW$335, DW_AT_bit_offset(0x00), DW_AT_bit_size(0x08)
    2975                      .dwattr $C$DW$335, DW_AT_data_member_location[DW_OP_plus_uconst 0x0]
    2976                      .dwattr $C$DW$335, DW_AT_accessibility(DW_ACCESS_public)
    2977              $C$DW$336       .dwtag  DW_TAG_member
    2978                      .dwattr $C$DW$336, DW_AT_type(*$C$DW$T$19)
    2979                      .dwattr $C$DW$336, DW_AT_name("YEAR")
    2980                      .dwattr $C$DW$336, DW_AT_TI_symbol_name("_YEAR")
    2981                      .dwattr $C$DW$336, DW_AT_bit_offset(0x0c), DW_AT_bit_size(0x04)
    2982                      .dwattr $C$DW$336, DW_AT_data_member_location[DW_OP_plus_uconst 0x1]
    2983                      .dwattr $C$DW$336, DW_AT_accessibility(DW_ACCESS_public)
    2984              $C$DW$337       .dwtag  DW_TAG_member
    2985                      .dwattr $C$DW$337, DW_AT_type(*$C$DW$T$19)
    2986                      .dwattr $C$DW$337, DW_AT_name("SUBSTEP")
    2987                      .dwattr $C$DW$337, DW_AT_TI_symbol_name("_SUBSTEP")
    2988                      .dwattr $C$DW$337, DW_AT_bit_offset(0x08), DW_AT_bit_size(0x04)
    2989                      .dwattr $C$DW$337, DW_AT_data_member_location[DW_OP_plus_uconst 0x1]
    2990                      .dwattr $C$DW$337, DW_AT_accessibility(DW_ACCESS_public)
    2991              $C$DW$338       .dwtag  DW_TAG_member
    2992                      .dwattr $C$DW$338, DW_AT_type(*$C$DW$T$19)
    2993                      .dwattr $C$DW$338, DW_AT_name("STEP")
    2994                      .dwattr $C$DW$338, DW_AT_TI_symbol_name("_STEP")
    2995                      .dwattr $C$DW$338, DW_AT_bit_offset(0x04), DW_AT_bit_size(0x04)
TMS320C2000 Assembler PC v6.1.3 Tue Oct 01 15:28:07 2013

Tools Copyright (c) 1996-2012 Texas Instruments Incorporated
C:\Users\a0272466\AppData\Local\Temp\0414810                         PAGE   56

    2996                      .dwattr $C$DW$338, DW_AT_data_member_location[DW_OP_plus_uconst 0x1]
    2997                      .dwattr $C$DW$338, DW_AT_accessibility(DW_ACCESS_public)
    2998              $C$DW$339       .dwtag  DW_TAG_member
    2999                      .dwattr $C$DW$339, DW_AT_type(*$C$DW$T$19)
    3000                      .dwattr $C$DW$339, DW_AT_name("REL")
    3001                      .dwattr $C$DW$339, DW_AT_TI_symbol_name("_REL")
    3002                      .dwattr $C$DW$339, DW_AT_bit_offset(0x00), DW_AT_bit_size(0x04)
    3003                      .dwattr $C$DW$339, DW_AT_data_member_location[DW_OP_plus_uconst 0x1]
    3004                      .dwattr $C$DW$339, DW_AT_accessibility(DW_ACCESS_public)
    3005                      .dwendtag $C$DW$T$91
    3006              
    3007              
    3008              $C$DW$T$92      .dwtag  DW_TAG_union_type
    3009                      .dwattr $C$DW$T$92, DW_AT_name("CAN_REL_REG")
    3010                      .dwattr $C$DW$T$92, DW_AT_byte_size(0x02)
    3011              $C$DW$340       .dwtag  DW_TAG_member
    3012                      .dwattr $C$DW$340, DW_AT_type(*$C$DW$T$21)
    3013                      .dwattr $C$DW$340, DW_AT_name("all")
    3014                      .dwattr $C$DW$340, DW_AT_TI_symbol_name("_all")
    3015                      .dwattr $C$DW$340, DW_AT_data_member_location[DW_OP_plus_uconst 0x0]
    3016                      .dwattr $C$DW$340, DW_AT_accessibility(DW_ACCESS_public)
    3017              $C$DW$341       .dwtag  DW_TAG_member
    3018                      .dwattr $C$DW$341, DW_AT_type(*$C$DW$T$91)
    3019                      .dwattr $C$DW$341, DW_AT_name("bit")
    3020                      .dwattr $C$DW$341, DW_AT_TI_symbol_name("_bit")
    3021                      .dwattr $C$DW$341, DW_AT_data_member_location[DW_OP_plus_uconst 0x0]
    3022                      .dwattr $C$DW$341, DW_AT_accessibility(DW_ACCESS_public)
    3023                      .dwendtag $C$DW$T$92
    3024              
    3025              
    3026              $C$DW$T$93      .dwtag  DW_TAG_structure_type
    3027                      .dwattr $C$DW$T$93, DW_AT_name("CAN_TEST_BITS")
    3028                      .dwattr $C$DW$T$93, DW_AT_byte_size(0x02)
    3029              $C$DW$342       .dwtag  DW_TAG_member
    3030                      .dwattr $C$DW$342, DW_AT_type(*$C$DW$T$19)
    3031                      .dwattr $C$DW$342, DW_AT_name("rsvd1")
    3032                      .dwattr $C$DW$342, DW_AT_TI_symbol_name("_rsvd1")
    3033                      .dwattr $C$DW$342, DW_AT_bit_offset(0x0d), DW_AT_bit_size(0x03)
    3034                      .dwattr $C$DW$342, DW_AT_data_member_location[DW_OP_plus_uconst 0x0]
    3035                      .dwattr $C$DW$342, DW_AT_accessibility(DW_ACCESS_public)
    3036              $C$DW$343       .dwtag  DW_TAG_member
    3037                      .dwattr $C$DW$343, DW_AT_type(*$C$DW$T$19)
    3038                      .dwattr $C$DW$343, DW_AT_name("SILENT")
    3039                      .dwattr $C$DW$343, DW_AT_TI_symbol_name("_SILENT")
    3040                      .dwattr $C$DW$343, DW_AT_bit_offset(0x0c), DW_AT_bit_size(0x01)
    3041                      .dwattr $C$DW$343, DW_AT_data_member_location[DW_OP_plus_uconst 0x0]
    3042                      .dwattr $C$DW$343, DW_AT_accessibility(DW_ACCESS_public)
    3043              $C$DW$344       .dwtag  DW_TAG_member
    3044                      .dwattr $C$DW$344, DW_AT_type(*$C$DW$T$19)
    3045                      .dwattr $C$DW$344, DW_AT_name("LBACK")
    3046                      .dwattr $C$DW$344, DW_AT_TI_symbol_name("_LBACK")
    3047                      .dwattr $C$DW$344, DW_AT_bit_offset(0x0b), DW_AT_bit_size(0x01)
    3048                      .dwattr $C$DW$344, DW_AT_data_member_location[DW_OP_plus_uconst 0x0]
    3049                      .dwattr $C$DW$344, DW_AT_accessibility(DW_ACCESS_public)
    3050              $C$DW$345       .dwtag  DW_TAG_member
TMS320C2000 Assembler PC v6.1.3 Tue Oct 01 15:28:07 2013

Tools Copyright (c) 1996-2012 Texas Instruments Incorporated
C:\Users\a0272466\AppData\Local\Temp\0414810                         PAGE   57

    3051                      .dwattr $C$DW$345, DW_AT_type(*$C$DW$T$19)
    3052                      .dwattr $C$DW$345, DW_AT_name("TX")
    3053                      .dwattr $C$DW$345, DW_AT_TI_symbol_name("_TX")
    3054                      .dwattr $C$DW$345, DW_AT_bit_offset(0x09), DW_AT_bit_size(0x02)
    3055                      .dwattr $C$DW$345, DW_AT_data_member_location[DW_OP_plus_uconst 0x0]
    3056                      .dwattr $C$DW$345, DW_AT_accessibility(DW_ACCESS_public)
    3057              $C$DW$346       .dwtag  DW_TAG_member
    3058                      .dwattr $C$DW$346, DW_AT_type(*$C$DW$T$19)
    3059                      .dwattr $C$DW$346, DW_AT_name("RX")
    3060                      .dwattr $C$DW$346, DW_AT_TI_symbol_name("_RX")
    3061                      .dwattr $C$DW$346, DW_AT_bit_offset(0x08), DW_AT_bit_size(0x01)
    3062                      .dwattr $C$DW$346, DW_AT_data_member_location[DW_OP_plus_uconst 0x0]
    3063                      .dwattr $C$DW$346, DW_AT_accessibility(DW_ACCESS_public)
    3064              $C$DW$347       .dwtag  DW_TAG_member
    3065                      .dwattr $C$DW$347, DW_AT_type(*$C$DW$T$19)
    3066                      .dwattr $C$DW$347, DW_AT_name("EXL")
    3067                      .dwattr $C$DW$347, DW_AT_TI_symbol_name("_EXL")
    3068                      .dwattr $C$DW$347, DW_AT_bit_offset(0x07), DW_AT_bit_size(0x01)
    3069                      .dwattr $C$DW$347, DW_AT_data_member_location[DW_OP_plus_uconst 0x0]
    3070                      .dwattr $C$DW$347, DW_AT_accessibility(DW_ACCESS_public)
    3071              $C$DW$348       .dwtag  DW_TAG_member
    3072                      .dwattr $C$DW$348, DW_AT_type(*$C$DW$T$19)
    3073                      .dwattr $C$DW$348, DW_AT_name("RDA")
    3074                      .dwattr $C$DW$348, DW_AT_TI_symbol_name("_RDA")
    3075                      .dwattr $C$DW$348, DW_AT_bit_offset(0x06), DW_AT_bit_size(0x01)
    3076                      .dwattr $C$DW$348, DW_AT_data_member_location[DW_OP_plus_uconst 0x0]
    3077                      .dwattr $C$DW$348, DW_AT_accessibility(DW_ACCESS_public)
    3078              $C$DW$349       .dwtag  DW_TAG_member
    3079                      .dwattr $C$DW$349, DW_AT_type(*$C$DW$T$19)
    3080                      .dwattr $C$DW$349, DW_AT_name("rsvd2")
    3081                      .dwattr $C$DW$349, DW_AT_TI_symbol_name("_rsvd2")
    3082                      .dwattr $C$DW$349, DW_AT_bit_offset(0x00), DW_AT_bit_size(0x06)
    3083                      .dwattr $C$DW$349, DW_AT_data_member_location[DW_OP_plus_uconst 0x0]
    3084                      .dwattr $C$DW$349, DW_AT_accessibility(DW_ACCESS_public)
    3085              $C$DW$350       .dwtag  DW_TAG_member
    3086                      .dwattr $C$DW$350, DW_AT_type(*$C$DW$T$19)
    3087                      .dwattr $C$DW$350, DW_AT_name("rsvd3")
    3088                      .dwattr $C$DW$350, DW_AT_TI_symbol_name("_rsvd3")
    3089                      .dwattr $C$DW$350, DW_AT_bit_offset(0x00), DW_AT_bit_size(0x10)
    3090                      .dwattr $C$DW$350, DW_AT_data_member_location[DW_OP_plus_uconst 0x1]
    3091                      .dwattr $C$DW$350, DW_AT_accessibility(DW_ACCESS_public)
    3092                      .dwendtag $C$DW$T$93
    3093              
    3094              
    3095              $C$DW$T$94      .dwtag  DW_TAG_union_type
    3096                      .dwattr $C$DW$T$94, DW_AT_name("CAN_TEST_REG")
    3097                      .dwattr $C$DW$T$94, DW_AT_byte_size(0x02)
    3098              $C$DW$351       .dwtag  DW_TAG_member
    3099                      .dwattr $C$DW$351, DW_AT_type(*$C$DW$T$21)
    3100                      .dwattr $C$DW$351, DW_AT_name("all")
    3101                      .dwattr $C$DW$351, DW_AT_TI_symbol_name("_all")
    3102                      .dwattr $C$DW$351, DW_AT_data_member_location[DW_OP_plus_uconst 0x0]
    3103                      .dwattr $C$DW$351, DW_AT_accessibility(DW_ACCESS_public)
    3104              $C$DW$352       .dwtag  DW_TAG_member
    3105                      .dwattr $C$DW$352, DW_AT_type(*$C$DW$T$93)
TMS320C2000 Assembler PC v6.1.3 Tue Oct 01 15:28:07 2013

Tools Copyright (c) 1996-2012 Texas Instruments Incorporated
C:\Users\a0272466\AppData\Local\Temp\0414810                         PAGE   58

    3106                      .dwattr $C$DW$352, DW_AT_name("bit")
    3107                      .dwattr $C$DW$352, DW_AT_TI_symbol_name("_bit")
    3108                      .dwattr $C$DW$352, DW_AT_data_member_location[DW_OP_plus_uconst 0x0]
    3109                      .dwattr $C$DW$352, DW_AT_accessibility(DW_ACCESS_public)
    3110                      .dwendtag $C$DW$T$94
    3111              
    3112              
    3113              $C$DW$T$95      .dwtag  DW_TAG_structure_type
    3114                      .dwattr $C$DW$T$95, DW_AT_name("CAN_TXRQ_X_BITS")
    3115                      .dwattr $C$DW$T$95, DW_AT_byte_size(0x02)
    3116              $C$DW$353       .dwtag  DW_TAG_member
    3117                      .dwattr $C$DW$353, DW_AT_type(*$C$DW$T$19)
    3118                      .dwattr $C$DW$353, DW_AT_name("TxRqstReg1")
    3119                      .dwattr $C$DW$353, DW_AT_TI_symbol_name("_TxRqstReg1")
    3120                      .dwattr $C$DW$353, DW_AT_bit_offset(0x0e), DW_AT_bit_size(0x02)
    3121                      .dwattr $C$DW$353, DW_AT_data_member_location[DW_OP_plus_uconst 0x0]
    3122                      .dwattr $C$DW$353, DW_AT_accessibility(DW_ACCESS_public)
    3123              $C$DW$354       .dwtag  DW_TAG_member
    3124                      .dwattr $C$DW$354, DW_AT_type(*$C$DW$T$19)
    3125                      .dwattr $C$DW$354, DW_AT_name("TxRqstReg2")
    3126                      .dwattr $C$DW$354, DW_AT_TI_symbol_name("_TxRqstReg2")
    3127                      .dwattr $C$DW$354, DW_AT_bit_offset(0x0c), DW_AT_bit_size(0x02)
    3128                      .dwattr $C$DW$354, DW_AT_data_member_location[DW_OP_plus_uconst 0x0]
    3129                      .dwattr $C$DW$354, DW_AT_accessibility(DW_ACCESS_public)
    3130              $C$DW$355       .dwtag  DW_TAG_member
    3131                      .dwattr $C$DW$355, DW_AT_type(*$C$DW$T$19)
    3132                      .dwattr $C$DW$355, DW_AT_name("rsvd1")
    3133                      .dwattr $C$DW$355, DW_AT_TI_symbol_name("_rsvd1")
    3134                      .dwattr $C$DW$355, DW_AT_bit_offset(0x00), DW_AT_bit_size(0x0c)
    3135                      .dwattr $C$DW$355, DW_AT_data_member_location[DW_OP_plus_uconst 0x0]
    3136                      .dwattr $C$DW$355, DW_AT_accessibility(DW_ACCESS_public)
    3137              $C$DW$356       .dwtag  DW_TAG_member
    3138                      .dwattr $C$DW$356, DW_AT_type(*$C$DW$T$19)
    3139                      .dwattr $C$DW$356, DW_AT_name("rsvd2")
    3140                      .dwattr $C$DW$356, DW_AT_TI_symbol_name("_rsvd2")
    3141                      .dwattr $C$DW$356, DW_AT_bit_offset(0x00), DW_AT_bit_size(0x10)
    3142                      .dwattr $C$DW$356, DW_AT_data_member_location[DW_OP_plus_uconst 0x1]
    3143                      .dwattr $C$DW$356, DW_AT_accessibility(DW_ACCESS_public)
    3144                      .dwendtag $C$DW$T$95
    3145              
    3146              
    3147              $C$DW$T$96      .dwtag  DW_TAG_union_type
    3148                      .dwattr $C$DW$T$96, DW_AT_name("CAN_TXRQ_X_REG")
    3149                      .dwattr $C$DW$T$96, DW_AT_byte_size(0x02)
    3150              $C$DW$357       .dwtag  DW_TAG_member
    3151                      .dwattr $C$DW$357, DW_AT_type(*$C$DW$T$21)
    3152                      .dwattr $C$DW$357, DW_AT_name("all")
    3153                      .dwattr $C$DW$357, DW_AT_TI_symbol_name("_all")
    3154                      .dwattr $C$DW$357, DW_AT_data_member_location[DW_OP_plus_uconst 0x0]
    3155                      .dwattr $C$DW$357, DW_AT_accessibility(DW_ACCESS_public)
    3156              $C$DW$358       .dwtag  DW_TAG_member
    3157                      .dwattr $C$DW$358, DW_AT_type(*$C$DW$T$95)
    3158                      .dwattr $C$DW$358, DW_AT_name("bit")
    3159                      .dwattr $C$DW$358, DW_AT_TI_symbol_name("_bit")
    3160                      .dwattr $C$DW$358, DW_AT_data_member_location[DW_OP_plus_uconst 0x0]
TMS320C2000 Assembler PC v6.1.3 Tue Oct 01 15:28:07 2013

Tools Copyright (c) 1996-2012 Texas Instruments Incorporated
C:\Users\a0272466\AppData\Local\Temp\0414810                         PAGE   59

    3161                      .dwattr $C$DW$358, DW_AT_accessibility(DW_ACCESS_public)
    3162                      .dwendtag $C$DW$T$96
    3163              
    3164              
    3165              $C$DW$T$97      .dwtag  DW_TAG_structure_type
    3166                      .dwattr $C$DW$T$97, DW_AT_name("CCR_BITS")
    3167                      .dwattr $C$DW$T$97, DW_AT_byte_size(0x02)
    3168              $C$DW$359       .dwtag  DW_TAG_member
    3169                      .dwattr $C$DW$359, DW_AT_type(*$C$DW$T$19)
    3170                      .dwattr $C$DW$359, DW_AT_name("VMAPS")
    3171                      .dwattr $C$DW$359, DW_AT_TI_symbol_name("_VMAPS")
