TMS320C2000 Assembler PC v6.1.3 Thu Jan 30 10:32:22 2014

Tools Copyright (c) 1996-2012 Texas Instruments Incorporated
C:\Users\a0272466\AppData\Local\Temp\0608410                         PAGE    1

       1              ;***************************************************************
       2              ;* TMS320C2000 C/C++ Codegen                         PC v6.1.3 *
       3              ;* Date/Time created: Thu Jan 30 10:32:21 2014                 *
       4              ;***************************************************************
       5                      .compiler_opts --float_support=fpu32 --hll_source=on --mem_model:code=flat --mem_model:data=large --o
       6        0002  FP      .set    XAR2
       7              
       8              $C$DW$CU        .dwtag  DW_TAG_compile_unit
       9                      .dwattr $C$DW$CU, DW_AT_name("C:/work/grepos/bootrom/Boot_ROM/F2837x_bootROM-REVB/F2837x_bootROM_dev/
      10                      .dwattr $C$DW$CU, DW_AT_producer("TMS320C2000 C/C++ Codegen PC v6.1.3 Copyright (c) 1996-2012 Texas I
      11                      .dwattr $C$DW$CU, DW_AT_TI_version(0x01)
      12                      .dwattr $C$DW$CU, DW_AT_comp_dir("C:\work\grepos\bootrom\Boot_ROM\F2837x_bootROM-REVB\F2837x_bootROM_
      13              
      14              $C$DW$1 .dwtag  DW_TAG_subprogram, DW_AT_name("ReadReservedFn")
      15                      .dwattr $C$DW$1, DW_AT_TI_symbol_name("_ReadReservedFn")
      16                      .dwattr $C$DW$1, DW_AT_declaration
      17                      .dwattr $C$DW$1, DW_AT_external
      18              
      19              $C$DW$2 .dwtag  DW_TAG_subprogram, DW_AT_name("CopyData")
      20                      .dwattr $C$DW$2, DW_AT_TI_symbol_name("_CopyData")
      21                      .dwattr $C$DW$2, DW_AT_declaration
      22                      .dwattr $C$DW$2, DW_AT_external
      23              $C$DW$3 .dwtag  DW_TAG_variable, DW_AT_name("GetWordData")
      24                      .dwattr $C$DW$3, DW_AT_TI_symbol_name("_GetWordData")
      25                      .dwattr $C$DW$3, DW_AT_type(*$C$DW$T$84)
      26                      .dwattr $C$DW$3, DW_AT_declaration
      27                      .dwattr $C$DW$3, DW_AT_external
      28              
      29              $C$DW$4 .dwtag  DW_TAG_subprogram, DW_AT_name("GetLongData")
      30                      .dwattr $C$DW$4, DW_AT_TI_symbol_name("_GetLongData")
      31                      .dwattr $C$DW$4, DW_AT_type(*$C$DW$T$21)
      32                      .dwattr $C$DW$4, DW_AT_declaration
      33                      .dwattr $C$DW$4, DW_AT_external
      34              $C$DW$5 .dwtag  DW_TAG_variable, DW_AT_name("GpioDataRegs")
      35                      .dwattr $C$DW$5, DW_AT_TI_symbol_name("_GpioDataRegs")
      36                      .dwattr $C$DW$5, DW_AT_type(*$C$DW$T$77)
      37                      .dwattr $C$DW$5, DW_AT_declaration
      38                      .dwattr $C$DW$5, DW_AT_external
      39              ;       C:\ti\ccsv5\tools\compiler\c2000_6.1.3\bin\ac2000.exe -@C:\\Users\\a0272466\\AppData\\Local\\Temp\\06
      40 00000000               .sect   ".text"
      41                      .global _Parallel_Boot
      42              
      43              $C$DW$6 .dwtag  DW_TAG_subprogram, DW_AT_name("Parallel_Boot")
      44                      .dwattr $C$DW$6, DW_AT_low_pc(_Parallel_Boot)
      45                      .dwattr $C$DW$6, DW_AT_high_pc(0x00)
      46                      .dwattr $C$DW$6, DW_AT_TI_symbol_name("_Parallel_Boot")
      47                      .dwattr $C$DW$6, DW_AT_external
      48                      .dwattr $C$DW$6, DW_AT_type(*$C$DW$T$21)
      49                      .dwattr $C$DW$6, DW_AT_TI_begin_file("C:/work/grepos/bootrom/Boot_ROM/F2837x_bootROM-REVB/F2837x_boot
      50                      .dwattr $C$DW$6, DW_AT_TI_begin_line(0x41)
      51                      .dwattr $C$DW$6, DW_AT_TI_begin_column(0x08)
      52                      .dwattr $C$DW$6, DW_AT_TI_max_frame_size(-6)
      53                      .dwpsn  file "C:/work/grepos/bootrom/Boot_ROM/F2837x_bootROM-REVB/F2837x_bootROM_dev/F2837x_bootROM/c
      54              
      55                      .dwfde $C$DW$CIE, _Parallel_Boot
TMS320C2000 Assembler PC v6.1.3 Thu Jan 30 10:32:22 2014

Tools Copyright (c) 1996-2012 Texas Instruments Incorporated
C:\Users\a0272466\AppData\Local\Temp\0608410                         PAGE    2

      56              
      57              ;***************************************************************
      58              ;* FNAME: _Parallel_Boot                FR SIZE:   4           *
      59              ;*                                                             *
      60              ;* FUNCTION ENVIRONMENT                                        *
      61              ;*                                                             *
      62              ;* FUNCTION PROPERTIES                                         *
      63              ;*                            0 Parameter,  3 Auto,  0 SOE     *
      64              ;***************************************************************
      65              
      66 00000000       _Parallel_Boot:
      67                      .dwcfi  cfa_offset, -2
      68                      .dwcfi  save_reg_to_mem, 26, 0
      69                      .dwcfi  save_reg_to_reg, 78, 26
      70 00000000 FE04          ADDB      SP,#4                 ; [CPU_U] 
      71                      .dwcfi  cfa_offset, -6
      72              $C$DW$7 .dwtag  DW_TAG_variable, DW_AT_name("EntryAddr")
      73                      .dwattr $C$DW$7, DW_AT_TI_symbol_name("_EntryAddr")
      74                      .dwattr $C$DW$7, DW_AT_type(*$C$DW$T$21)
      75                      .dwattr $C$DW$7, DW_AT_location[DW_OP_breg20 -2]
      76              $C$DW$8 .dwtag  DW_TAG_variable, DW_AT_name("wordData")
      77                      .dwattr $C$DW$8, DW_AT_TI_symbol_name("_wordData")
      78                      .dwattr $C$DW$8, DW_AT_type(*$C$DW$T$19)
      79                      .dwattr $C$DW$8, DW_AT_location[DW_OP_breg20 -3]
      80                      .dwpsn  file "C:/work/grepos/bootrom/Boot_ROM/F2837x_bootROM-REVB/F2837x_bootROM_dev/F2837x_bootROM/c
      81 00000001 8F00'         MOVL      XAR4,#_Parallel_GetWordData_8bit ; [CPU_U] |76| 
         00000002 001A 
      82 00000003 761F!         MOVW      DP,#_GetWordData      ; [CPU_U] 
         00000004 0000 
      83 00000005 A800!         MOVL      @_GetWordData,XAR4    ; [CPU_] |76| 
      84                      .dwpsn  file "C:/work/grepos/bootrom/Boot_ROM/F2837x_bootROM-REVB/F2837x_bootROM_dev/F2837x_bootROM/c
      85 00000006 C500!         MOVL      XAR7,@_GetWordData    ; [CPU_] |77| 
      86              $C$DW$9 .dwtag  DW_TAG_TI_branch
      87                      .dwattr $C$DW$9, DW_AT_low_pc(0x00)
      88                      .dwattr $C$DW$9, DW_AT_TI_call
      89                      .dwattr $C$DW$9, DW_AT_TI_indirect
      90 00000007 3E67          LCR       *XAR7                 ; [CPU_] |77| 
      91                      ; call occurs [XAR7] ; [] |77| 
      92 00000008 9643          MOV       *-SP[3],AL            ; [CPU_] |77| 
      93                      .dwpsn  file "C:/work/grepos/bootrom/Boot_ROM/F2837x_bootROM-REVB/F2837x_bootROM_dev/F2837x_bootROM/c
      94 00000009 1BA9          CMP       AL,#2218              ; [CPU_] |78| 
         0000000a 08AA 
      95 0000000b EC04          BF        $C$L1,EQ              ; [CPU_] |78| 
      96                      ; branchcc occurs ; [] |78| 
      97                      .dwpsn  file "C:/work/grepos/bootrom/Boot_ROM/F2837x_bootROM-REVB/F2837x_bootROM_dev/F2837x_bootROM/c
      98 0000000c 8F08          MOVL      XAR4,#524288          ; [CPU_U] |78| 
         0000000d 0000 
      99 0000000e 6F09          B         $C$L2,UNC             ; [CPU_] |78| 
     100                      ; branch occurs ; [] |78| 
     101 0000000f       $C$L1:    
     102                      .dwpsn  file "C:/work/grepos/bootrom/Boot_ROM/F2837x_bootROM-REVB/F2837x_bootROM_dev/F2837x_bootROM/c
     103              $C$DW$10        .dwtag  DW_TAG_TI_branch
     104                      .dwattr $C$DW$10, DW_AT_low_pc(0x00)
     105                      .dwattr $C$DW$10, DW_AT_name("_ReadReservedFn")
     106                      .dwattr $C$DW$10, DW_AT_TI_call
TMS320C2000 Assembler PC v6.1.3 Thu Jan 30 10:32:22 2014

Tools Copyright (c) 1996-2012 Texas Instruments Incorporated
C:\Users\a0272466\AppData\Local\Temp\0608410                         PAGE    3

     107 0000000f 7640!         LCR       #_ReadReservedFn      ; [CPU_] |80| 
         00000010 0000 
     108                      ; call occurs [#_ReadReservedFn] ; [] |80| 
     109                      .dwpsn  file "C:/work/grepos/bootrom/Boot_ROM/F2837x_bootROM-REVB/F2837x_bootROM_dev/F2837x_bootROM/c
     110              $C$DW$11        .dwtag  DW_TAG_TI_branch
     111                      .dwattr $C$DW$11, DW_AT_low_pc(0x00)
     112                      .dwattr $C$DW$11, DW_AT_name("_GetLongData")
     113                      .dwattr $C$DW$11, DW_AT_TI_call
     114 00000011 7640!         LCR       #_GetLongData         ; [CPU_] |82| 
         00000012 0000 
     115                      ; call occurs [#_GetLongData] ; [] |82| 
     116 00000013 1E42          MOVL      *-SP[2],ACC           ; [CPU_] |82| 
     117                      .dwpsn  file "C:/work/grepos/bootrom/Boot_ROM/F2837x_bootROM-REVB/F2837x_bootROM_dev/F2837x_bootROM/c
     118              $C$DW$12        .dwtag  DW_TAG_TI_branch
     119                      .dwattr $C$DW$12, DW_AT_low_pc(0x00)
     120                      .dwattr $C$DW$12, DW_AT_name("_CopyData")
     121                      .dwattr $C$DW$12, DW_AT_TI_call
     122 00000014 7640!         LCR       #_CopyData            ; [CPU_] |84| 
         00000015 0000 
     123                      ; call occurs [#_CopyData] ; [] |84| 
     124                      .dwpsn  file "C:/work/grepos/bootrom/Boot_ROM/F2837x_bootROM-REVB/F2837x_bootROM_dev/F2837x_bootROM/c
     125 00000016 8A42          MOVL      XAR4,*-SP[2]          ; [CPU_] |86| 
     126 00000017       $C$L2:    
     127                      .dwpsn  file "C:/work/grepos/bootrom/Boot_ROM/F2837x_bootROM-REVB/F2837x_bootROM_dev/F2837x_bootROM/c
     128 00000017 A8A9          MOVL      ACC,XAR4              ; [CPU_] |86| 
     129 00000018 FE84          SUBB      SP,#4                 ; [CPU_U] |86| 
     130                      .dwcfi  cfa_offset, -2
     131              $C$DW$13        .dwtag  DW_TAG_TI_branch
     132                      .dwattr $C$DW$13, DW_AT_low_pc(0x00)
     133                      .dwattr $C$DW$13, DW_AT_TI_return
     134 00000019 0006          LRETR     ; [CPU_] 
     135                      ; return occurs ; [] 
     136                      .dwattr $C$DW$6, DW_AT_TI_end_file("C:/work/grepos/bootrom/Boot_ROM/F2837x_bootROM-REVB/F2837x_bootRO
     137                      .dwattr $C$DW$6, DW_AT_TI_end_line(0x58)
     138                      .dwattr $C$DW$6, DW_AT_TI_end_column(0x01)
     139                      .dwendentry
     140                      .dwendtag $C$DW$6
     141              
     142 0000001a               .sect   ".text"
     143                      .global _Parallel_GetWordData_8bit
     144              
     145              $C$DW$14        .dwtag  DW_TAG_subprogram, DW_AT_name("Parallel_GetWordData_8bit")
     146                      .dwattr $C$DW$14, DW_AT_low_pc(_Parallel_GetWordData_8bit)
     147                      .dwattr $C$DW$14, DW_AT_high_pc(0x00)
     148                      .dwattr $C$DW$14, DW_AT_TI_symbol_name("_Parallel_GetWordData_8bit")
     149                      .dwattr $C$DW$14, DW_AT_external
     150                      .dwattr $C$DW$14, DW_AT_type(*$C$DW$T$19)
     151                      .dwattr $C$DW$14, DW_AT_TI_begin_file("C:/work/grepos/bootrom/Boot_ROM/F2837x_bootROM-REVB/F2837x_boo
     152                      .dwattr $C$DW$14, DW_AT_TI_begin_line(0x65)
     153                      .dwattr $C$DW$14, DW_AT_TI_begin_column(0x08)
     154                      .dwattr $C$DW$14, DW_AT_TI_max_frame_size(-4)
     155                      .dwpsn  file "C:/work/grepos/bootrom/Boot_ROM/F2837x_bootROM-REVB/F2837x_bootROM_dev/F2837x_bootROM/c
     156              
     157                      .dwfde $C$DW$CIE, _Parallel_GetWordData_8bit
     158              
TMS320C2000 Assembler PC v6.1.3 Thu Jan 30 10:32:22 2014

Tools Copyright (c) 1996-2012 Texas Instruments Incorporated
C:\Users\a0272466\AppData\Local\Temp\0608410                         PAGE    4

     159              ;***************************************************************
     160              ;* FNAME: _Parallel_GetWordData_8bit    FR SIZE:   2           *
     161              ;*                                                             *
     162              ;* FUNCTION ENVIRONMENT                                        *
     163              ;*                                                             *
     164              ;* FUNCTION PROPERTIES                                         *
     165              ;*                            0 Parameter,  1 Auto,  0 SOE     *
     166              ;***************************************************************
     167              
     168 0000001a       _Parallel_GetWordData_8bit:
     169                      .dwcfi  cfa_offset, -2
     170                      .dwcfi  save_reg_to_mem, 26, 0
     171                      .dwcfi  save_reg_to_reg, 78, 26
     172 0000001a FE02          ADDB      SP,#2                 ; [CPU_U] 
     173                      .dwcfi  cfa_offset, -4
     174              $C$DW$15        .dwtag  DW_TAG_variable, DW_AT_name("wordData")
     175                      .dwattr $C$DW$15, DW_AT_TI_symbol_name("_wordData")
     176                      .dwattr $C$DW$15, DW_AT_type(*$C$DW$T$19)
     177                      .dwattr $C$DW$15, DW_AT_location[DW_OP_breg20 -1]
     178                      .dwpsn  file "C:/work/grepos/bootrom/Boot_ROM/F2837x_bootROM-REVB/F2837x_bootROM_dev/F2837x_bootROM/c
     179 0000001b 761F!         MOVW      DP,#_GpioDataRegs+20  ; [CPU_U] 
         0000001c 0000 
     180 0000001d 1A14!         OR        @_GpioDataRegs+20,#0x0020 ; [CPU_] |110| 
         0000001e 0020 
     181                      .dwpsn  file "C:/work/grepos/bootrom/Boot_ROM/F2837x_bootROM-REVB/F2837x_bootROM_dev/F2837x_bootROM/c
     182 0000001f       $C$L3:    
     183 0000001f       $C$DW$L$_Parallel_GetWordData_8bit$2$B:
     184                      .dwpsn  file "C:/work/grepos/bootrom/Boot_ROM/F2837x_bootROM-REVB/F2837x_bootROM_dev/F2837x_bootROM/c
     185 0000001f 4610!         TBIT      @_GpioDataRegs+16,#6  ; [CPU_] |111| 
     186 00000020 EEFF          BF        $C$L3,TC              ; [CPU_] |111| 
     187                      ; branchcc occurs ; [] |111| 
     188 00000021       $C$DW$L$_Parallel_GetWordData_8bit$2$E:
     189                      .dwpsn  file "C:/work/grepos/bootrom/Boot_ROM/F2837x_bootROM-REVB/F2837x_bootROM_dev/F2837x_bootROM/c
     190 00000021 0608!         MOVL      ACC,@_GpioDataRegs+8  ; [CPU_] |113| 
     191 00000022 28AC          MOV       T,#24                 ; [CPU_] |113| 
         00000023 0018 
     192 00000024 5608          AND       ACC,#64512 << 16      ; [CPU_] |113| 
         00000025 FC00 
     193 00000026 5622          LSRL      ACC,T                 ; [CPU_] |113| 
     194 00000027 9310!         MOV       AH,@_GpioDataRegs+16  ; [CPU_] |113| 
     195 00000028 9101          ANDB      AH,#0x01              ; [CPU_] |113| 
     196 00000029 FF90          LSL       AH,1                  ; [CPU_] |113| 
     197 0000002a CBA9          OR        AH,AL                 ; [CPU_] |113| 
     198 0000002b CC10!         AND       AL,@_GpioDataRegs+16,#0x0002 ; [CPU_] |113| 
         0000002c 0002 
     199 0000002d FFC0          LSR       AL,1                  ; [CPU_] |113| 
     200 0000002e CAA8          OR        AL,AH                 ; [CPU_] |113| 
     201 0000002f 9641          MOV       *-SP[1],AL            ; [CPU_] |113| 
     202                      .dwpsn  file "C:/work/grepos/bootrom/Boot_ROM/F2837x_bootROM-REVB/F2837x_bootROM_dev/F2837x_bootROM/c
     203 00000030 1A12!         OR        @_GpioDataRegs+18,#0x0020 ; [CPU_] |119| 
         00000031 0020 
     204                      .dwpsn  file "C:/work/grepos/bootrom/Boot_ROM/F2837x_bootROM-REVB/F2837x_bootROM_dev/F2837x_bootROM/c
     205 00000032       $C$L4:    
     206 00000032       $C$DW$L$_Parallel_GetWordData_8bit$4$B:
     207                      .dwpsn  file "C:/work/grepos/bootrom/Boot_ROM/F2837x_bootROM-REVB/F2837x_bootROM_dev/F2837x_bootROM/c
TMS320C2000 Assembler PC v6.1.3 Thu Jan 30 10:32:22 2014

Tools Copyright (c) 1996-2012 Texas Instruments Incorporated
C:\Users\a0272466\AppData\Local\Temp\0608410                         PAGE    5

     208 00000032 CC10!         AND       AL,@_GpioDataRegs+16,#0x0040 ; [CPU_] |120| 
         00000033 0040 
     209 00000034 FFC5          LSR       AL,6                  ; [CPU_] |120| 
     210 00000035 5201          CMPB      AL,#1                 ; [CPU_] |120| 
     211 00000036 EDFC          BF        $C$L4,NEQ             ; [CPU_] |120| 
     212                      ; branchcc occurs ; [] |120| 
     213 00000037       $C$DW$L$_Parallel_GetWordData_8bit$4$E:
     214                      .dwpsn  file "C:/work/grepos/bootrom/Boot_ROM/F2837x_bootROM-REVB/F2837x_bootROM_dev/F2837x_bootROM/c
     215 00000037 1841          AND       *-SP[1],#0x00ff       ; [CPU_] |123| 
         00000038 00FF 
     216                      .dwpsn  file "C:/work/grepos/bootrom/Boot_ROM/F2837x_bootROM-REVB/F2837x_bootROM_dev/F2837x_bootROM/c
     217 00000039 1A14!         OR        @_GpioDataRegs+20,#0x0020 ; [CPU_] |129| 
         0000003a 0020 
     218                      .dwpsn  file "C:/work/grepos/bootrom/Boot_ROM/F2837x_bootROM-REVB/F2837x_bootROM_dev/F2837x_bootROM/c
     219 0000003b       $C$L5:    
     220 0000003b       $C$DW$L$_Parallel_GetWordData_8bit$6$B:
     221                      .dwpsn  file "C:/work/grepos/bootrom/Boot_ROM/F2837x_bootROM-REVB/F2837x_bootROM_dev/F2837x_bootROM/c
     222 0000003b 4610!         TBIT      @_GpioDataRegs+16,#6  ; [CPU_] |130| 
     223 0000003c EEFF          BF        $C$L5,TC              ; [CPU_] |130| 
     224                      ; branchcc occurs ; [] |130| 
     225 0000003d       $C$DW$L$_Parallel_GetWordData_8bit$6$E:
     226                      .dwpsn  file "C:/work/grepos/bootrom/Boot_ROM/F2837x_bootROM-REVB/F2837x_bootROM_dev/F2837x_bootROM/c
     227 0000003d 0608!         MOVL      ACC,@_GpioDataRegs+8  ; [CPU_] |132| 
     228 0000003e 5608          AND       ACC,#64512 << 16      ; [CPU_] |132| 
         0000003f FC00 
     229 00000040 5622          LSRL      ACC,T                 ; [CPU_] |132| 
     230 00000041 9310!         MOV       AH,@_GpioDataRegs+16  ; [CPU_] |132| 
     231 00000042 9101          ANDB      AH,#0x01              ; [CPU_] |132| 
     232 00000043 FF90          LSL       AH,1                  ; [CPU_] |132| 
     233 00000044 CBA9          OR        AH,AL                 ; [CPU_] |132| 
     234 00000045 CC10!         AND       AL,@_GpioDataRegs+16,#0x0002 ; [CPU_] |132| 
         00000046 0002 
     235 00000047 FFC0          LSR       AL,1                  ; [CPU_] |132| 
     236 00000048 CAA8          OR        AL,AH                 ; [CPU_] |132| 
     237 00000049 5603          MOV       ACC,AL << #8          ; [CPU_] |132| 
         0000004a 08A9 
     238 0000004b 9841          OR        *-SP[1],AL            ; [CPU_] |132| 
     239                      .dwpsn  file "C:/work/grepos/bootrom/Boot_ROM/F2837x_bootROM-REVB/F2837x_bootROM_dev/F2837x_bootROM/c
     240 0000004c 1A12!         OR        @_GpioDataRegs+18,#0x0020 ; [CPU_] |138| 
         0000004d 0020 
     241                      .dwpsn  file "C:/work/grepos/bootrom/Boot_ROM/F2837x_bootROM-REVB/F2837x_bootROM_dev/F2837x_bootROM/c
     242 0000004e       $C$L6:    
     243 0000004e       $C$DW$L$_Parallel_GetWordData_8bit$8$B:
     244                      .dwpsn  file "C:/work/grepos/bootrom/Boot_ROM/F2837x_bootROM-REVB/F2837x_bootROM_dev/F2837x_bootROM/c
     245 0000004e CC10!         AND       AL,@_GpioDataRegs+16,#0x0040 ; [CPU_] |139| 
         0000004f 0040 
     246 00000050 FFC5          LSR       AL,6                  ; [CPU_] |139| 
     247 00000051 5201          CMPB      AL,#1                 ; [CPU_] |139| 
     248 00000052 EDFC          BF        $C$L6,NEQ             ; [CPU_] |139| 
     249                      ; branchcc occurs ; [] |139| 
     250 00000053       $C$DW$L$_Parallel_GetWordData_8bit$8$E:
     251                      .dwpsn  file "C:/work/grepos/bootrom/Boot_ROM/F2837x_bootROM-REVB/F2837x_bootROM_dev/F2837x_bootROM/c
     252 00000053 9241          MOV       AL,*-SP[1]            ; [CPU_] |141| 
     253                      .dwpsn  file "C:/work/grepos/bootrom/Boot_ROM/F2837x_bootROM-REVB/F2837x_bootROM_dev/F2837x_bootROM/c
     254 00000054 FE82          SUBB      SP,#2                 ; [CPU_U] 
TMS320C2000 Assembler PC v6.1.3 Thu Jan 30 10:32:22 2014

Tools Copyright (c) 1996-2012 Texas Instruments Incorporated
C:\Users\a0272466\AppData\Local\Temp\0608410                         PAGE    6

     255                      .dwcfi  cfa_offset, -2
     256              $C$DW$16        .dwtag  DW_TAG_TI_branch
     257                      .dwattr $C$DW$16, DW_AT_low_pc(0x00)
     258                      .dwattr $C$DW$16, DW_AT_TI_return
     259 00000055 0006          LRETR     ; [CPU_] 
     260                      ; return occurs ; [] 
     261              
     262              $C$DW$17        .dwtag  DW_TAG_TI_loop
     263                      .dwattr $C$DW$17, DW_AT_name("C:\\Users\\a0272466\\AppData\\Local\\Temp\\0608410:$C$L6:1:1391099542")
     264                      .dwattr $C$DW$17, DW_AT_TI_begin_file("C:/work/grepos/bootrom/Boot_ROM/F2837x_bootROM-REVB/F2837x_boo
     265                      .dwattr $C$DW$17, DW_AT_TI_begin_line(0x8b)
     266                      .dwattr $C$DW$17, DW_AT_TI_end_line(0x8b)
     267              $C$DW$18        .dwtag  DW_TAG_TI_loop_range
     268                      .dwattr $C$DW$18, DW_AT_low_pc($C$DW$L$_Parallel_GetWordData_8bit$8$B)
     269                      .dwattr $C$DW$18, DW_AT_high_pc($C$DW$L$_Parallel_GetWordData_8bit$8$E)
     270                      .dwendtag $C$DW$17
     271              
     272              
     273              $C$DW$19        .dwtag  DW_TAG_TI_loop
     274                      .dwattr $C$DW$19, DW_AT_name("C:\\Users\\a0272466\\AppData\\Local\\Temp\\0608410:$C$L5:1:1391099542")
     275                      .dwattr $C$DW$19, DW_AT_TI_begin_file("C:/work/grepos/bootrom/Boot_ROM/F2837x_bootROM-REVB/F2837x_boo
     276                      .dwattr $C$DW$19, DW_AT_TI_begin_line(0x82)
     277                      .dwattr $C$DW$19, DW_AT_TI_end_line(0x82)
     278              $C$DW$20        .dwtag  DW_TAG_TI_loop_range
     279                      .dwattr $C$DW$20, DW_AT_low_pc($C$DW$L$_Parallel_GetWordData_8bit$6$B)
     280                      .dwattr $C$DW$20, DW_AT_high_pc($C$DW$L$_Parallel_GetWordData_8bit$6$E)
     281                      .dwendtag $C$DW$19
     282              
     283              
     284              $C$DW$21        .dwtag  DW_TAG_TI_loop
     285                      .dwattr $C$DW$21, DW_AT_name("C:\\Users\\a0272466\\AppData\\Local\\Temp\\0608410:$C$L4:1:1391099542")
     286                      .dwattr $C$DW$21, DW_AT_TI_begin_file("C:/work/grepos/bootrom/Boot_ROM/F2837x_bootROM-REVB/F2837x_boo
     287                      .dwattr $C$DW$21, DW_AT_TI_begin_line(0x78)
     288                      .dwattr $C$DW$21, DW_AT_TI_end_line(0x78)
     289              $C$DW$22        .dwtag  DW_TAG_TI_loop_range
     290                      .dwattr $C$DW$22, DW_AT_low_pc($C$DW$L$_Parallel_GetWordData_8bit$4$B)
     291                      .dwattr $C$DW$22, DW_AT_high_pc($C$DW$L$_Parallel_GetWordData_8bit$4$E)
     292                      .dwendtag $C$DW$21
     293              
     294              
     295              $C$DW$23        .dwtag  DW_TAG_TI_loop
     296                      .dwattr $C$DW$23, DW_AT_name("C:\\Users\\a0272466\\AppData\\Local\\Temp\\0608410:$C$L3:1:1391099542")
     297                      .dwattr $C$DW$23, DW_AT_TI_begin_file("C:/work/grepos/bootrom/Boot_ROM/F2837x_bootROM-REVB/F2837x_boo
     298                      .dwattr $C$DW$23, DW_AT_TI_begin_line(0x6f)
     299                      .dwattr $C$DW$23, DW_AT_TI_end_line(0x6f)
     300              $C$DW$24        .dwtag  DW_TAG_TI_loop_range
     301                      .dwattr $C$DW$24, DW_AT_low_pc($C$DW$L$_Parallel_GetWordData_8bit$2$B)
     302                      .dwattr $C$DW$24, DW_AT_high_pc($C$DW$L$_Parallel_GetWordData_8bit$2$E)
     303                      .dwendtag $C$DW$23
     304              
     305                      .dwattr $C$DW$14, DW_AT_TI_end_file("C:/work/grepos/bootrom/Boot_ROM/F2837x_bootROM-REVB/F2837x_bootR
     306                      .dwattr $C$DW$14, DW_AT_TI_end_line(0x8e)
     307                      .dwattr $C$DW$14, DW_AT_TI_end_column(0x01)
     308                      .dwendentry
     309                      .dwendtag $C$DW$14
TMS320C2000 Assembler PC v6.1.3 Thu Jan 30 10:32:22 2014

Tools Copyright (c) 1996-2012 Texas Instruments Incorporated
C:\Users\a0272466\AppData\Local\Temp\0608410                         PAGE    7

     310              
     311              ;**************************************************************
     312              ;* UNDEFINED EXTERNAL REFERENCES                              *
     313              ;**************************************************************
     314                      .global _ReadReservedFn
     315                      .global _CopyData
     316                      .global _GetWordData
     317                      .global _GetLongData
     318                      .global _GpioDataRegs
     319              
     320              ;***************************************************************
     321              ;* TYPE INFORMATION                                            *
     322              ;***************************************************************
     323              
     324              $C$DW$T$20      .dwtag  DW_TAG_structure_type
     325                      .dwattr $C$DW$T$20, DW_AT_name("GPACLEAR_BITS")
     326                      .dwattr $C$DW$T$20, DW_AT_byte_size(0x02)
     327              $C$DW$25        .dwtag  DW_TAG_member
     328                      .dwattr $C$DW$25, DW_AT_type(*$C$DW$T$19)
     329                      .dwattr $C$DW$25, DW_AT_name("GPIO0")
     330                      .dwattr $C$DW$25, DW_AT_TI_symbol_name("_GPIO0")
     331                      .dwattr $C$DW$25, DW_AT_bit_offset(0x0f), DW_AT_bit_size(0x01)
     332                      .dwattr $C$DW$25, DW_AT_data_member_location[DW_OP_plus_uconst 0x0]
     333                      .dwattr $C$DW$25, DW_AT_accessibility(DW_ACCESS_public)
     334              $C$DW$26        .dwtag  DW_TAG_member
     335                      .dwattr $C$DW$26, DW_AT_type(*$C$DW$T$19)
     336                      .dwattr $C$DW$26, DW_AT_name("GPIO1")
     337                      .dwattr $C$DW$26, DW_AT_TI_symbol_name("_GPIO1")
     338                      .dwattr $C$DW$26, DW_AT_bit_offset(0x0e), DW_AT_bit_size(0x01)
     339                      .dwattr $C$DW$26, DW_AT_data_member_location[DW_OP_plus_uconst 0x0]
     340                      .dwattr $C$DW$26, DW_AT_accessibility(DW_ACCESS_public)
     341              $C$DW$27        .dwtag  DW_TAG_member
     342                      .dwattr $C$DW$27, DW_AT_type(*$C$DW$T$19)
     343                      .dwattr $C$DW$27, DW_AT_name("GPIO2")
     344                      .dwattr $C$DW$27, DW_AT_TI_symbol_name("_GPIO2")
     345                      .dwattr $C$DW$27, DW_AT_bit_offset(0x0d), DW_AT_bit_size(0x01)
     346                      .dwattr $C$DW$27, DW_AT_data_member_location[DW_OP_plus_uconst 0x0]
     347                      .dwattr $C$DW$27, DW_AT_accessibility(DW_ACCESS_public)
     348              $C$DW$28        .dwtag  DW_TAG_member
     349                      .dwattr $C$DW$28, DW_AT_type(*$C$DW$T$19)
     350                      .dwattr $C$DW$28, DW_AT_name("GPIO3")
     351                      .dwattr $C$DW$28, DW_AT_TI_symbol_name("_GPIO3")
     352                      .dwattr $C$DW$28, DW_AT_bit_offset(0x0c), DW_AT_bit_size(0x01)
     353                      .dwattr $C$DW$28, DW_AT_data_member_location[DW_OP_plus_uconst 0x0]
     354                      .dwattr $C$DW$28, DW_AT_accessibility(DW_ACCESS_public)
     355              $C$DW$29        .dwtag  DW_TAG_member
     356                      .dwattr $C$DW$29, DW_AT_type(*$C$DW$T$19)
     357                      .dwattr $C$DW$29, DW_AT_name("GPIO4")
     358                      .dwattr $C$DW$29, DW_AT_TI_symbol_name("_GPIO4")
     359                      .dwattr $C$DW$29, DW_AT_bit_offset(0x0b), DW_AT_bit_size(0x01)
     360                      .dwattr $C$DW$29, DW_AT_data_member_location[DW_OP_plus_uconst 0x0]
     361                      .dwattr $C$DW$29, DW_AT_accessibility(DW_ACCESS_public)
     362              $C$DW$30        .dwtag  DW_TAG_member
     363                      .dwattr $C$DW$30, DW_AT_type(*$C$DW$T$19)
     364                      .dwattr $C$DW$30, DW_AT_name("GPIO5")
TMS320C2000 Assembler PC v6.1.3 Thu Jan 30 10:32:22 2014

Tools Copyright (c) 1996-2012 Texas Instruments Incorporated
C:\Users\a0272466\AppData\Local\Temp\0608410                         PAGE    8

     365                      .dwattr $C$DW$30, DW_AT_TI_symbol_name("_GPIO5")
     366                      .dwattr $C$DW$30, DW_AT_bit_offset(0x0a), DW_AT_bit_size(0x01)
     367                      .dwattr $C$DW$30, DW_AT_data_member_location[DW_OP_plus_uconst 0x0]
     368                      .dwattr $C$DW$30, DW_AT_accessibility(DW_ACCESS_public)
     369              $C$DW$31        .dwtag  DW_TAG_member
     370                      .dwattr $C$DW$31, DW_AT_type(*$C$DW$T$19)
     371                      .dwattr $C$DW$31, DW_AT_name("GPIO6")
     372                      .dwattr $C$DW$31, DW_AT_TI_symbol_name("_GPIO6")
     373                      .dwattr $C$DW$31, DW_AT_bit_offset(0x09), DW_AT_bit_size(0x01)
     374                      .dwattr $C$DW$31, DW_AT_data_member_location[DW_OP_plus_uconst 0x0]
     375                      .dwattr $C$DW$31, DW_AT_accessibility(DW_ACCESS_public)
     376              $C$DW$32        .dwtag  DW_TAG_member
     377                      .dwattr $C$DW$32, DW_AT_type(*$C$DW$T$19)
     378                      .dwattr $C$DW$32, DW_AT_name("GPIO7")
     379                      .dwattr $C$DW$32, DW_AT_TI_symbol_name("_GPIO7")
     380                      .dwattr $C$DW$32, DW_AT_bit_offset(0x08), DW_AT_bit_size(0x01)
     381                      .dwattr $C$DW$32, DW_AT_data_member_location[DW_OP_plus_uconst 0x0]
     382                      .dwattr $C$DW$32, DW_AT_accessibility(DW_ACCESS_public)
     383              $C$DW$33        .dwtag  DW_TAG_member
     384                      .dwattr $C$DW$33, DW_AT_type(*$C$DW$T$19)
     385                      .dwattr $C$DW$33, DW_AT_name("GPIO8")
     386                      .dwattr $C$DW$33, DW_AT_TI_symbol_name("_GPIO8")
     387                      .dwattr $C$DW$33, DW_AT_bit_offset(0x07), DW_AT_bit_size(0x01)
     388                      .dwattr $C$DW$33, DW_AT_data_member_location[DW_OP_plus_uconst 0x0]
     389                      .dwattr $C$DW$33, DW_AT_accessibility(DW_ACCESS_public)
     390              $C$DW$34        .dwtag  DW_TAG_member
     391                      .dwattr $C$DW$34, DW_AT_type(*$C$DW$T$19)
     392                      .dwattr $C$DW$34, DW_AT_name("GPIO9")
     393                      .dwattr $C$DW$34, DW_AT_TI_symbol_name("_GPIO9")
     394                      .dwattr $C$DW$34, DW_AT_bit_offset(0x06), DW_AT_bit_size(0x01)
     395                      .dwattr $C$DW$34, DW_AT_data_member_location[DW_OP_plus_uconst 0x0]
     396                      .dwattr $C$DW$34, DW_AT_accessibility(DW_ACCESS_public)
     397              $C$DW$35        .dwtag  DW_TAG_member
     398                      .dwattr $C$DW$35, DW_AT_type(*$C$DW$T$19)
     399                      .dwattr $C$DW$35, DW_AT_name("GPIO10")
     400                      .dwattr $C$DW$35, DW_AT_TI_symbol_name("_GPIO10")
     401                      .dwattr $C$DW$35, DW_AT_bit_offset(0x05), DW_AT_bit_size(0x01)
     402                      .dwattr $C$DW$35, DW_AT_data_member_location[DW_OP_plus_uconst 0x0]
     403                      .dwattr $C$DW$35, DW_AT_accessibility(DW_ACCESS_public)
     404              $C$DW$36        .dwtag  DW_TAG_member
     405                      .dwattr $C$DW$36, DW_AT_type(*$C$DW$T$19)
     406                      .dwattr $C$DW$36, DW_AT_name("GPIO11")
     407                      .dwattr $C$DW$36, DW_AT_TI_symbol_name("_GPIO11")
     408                      .dwattr $C$DW$36, DW_AT_bit_offset(0x04), DW_AT_bit_size(0x01)
     409                      .dwattr $C$DW$36, DW_AT_data_member_location[DW_OP_plus_uconst 0x0]
     410                      .dwattr $C$DW$36, DW_AT_accessibility(DW_ACCESS_public)
     411              $C$DW$37        .dwtag  DW_TAG_member
     412                      .dwattr $C$DW$37, DW_AT_type(*$C$DW$T$19)
     413                      .dwattr $C$DW$37, DW_AT_name("GPIO12")
     414                      .dwattr $C$DW$37, DW_AT_TI_symbol_name("_GPIO12")
     415                      .dwattr $C$DW$37, DW_AT_bit_offset(0x03), DW_AT_bit_size(0x01)
     416                      .dwattr $C$DW$37, DW_AT_data_member_location[DW_OP_plus_uconst 0x0]
     417                      .dwattr $C$DW$37, DW_AT_accessibility(DW_ACCESS_public)
     418              $C$DW$38        .dwtag  DW_TAG_member
     419                      .dwattr $C$DW$38, DW_AT_type(*$C$DW$T$19)
TMS320C2000 Assembler PC v6.1.3 Thu Jan 30 10:32:22 2014

Tools Copyright (c) 1996-2012 Texas Instruments Incorporated
C:\Users\a0272466\AppData\Local\Temp\0608410                         PAGE    9

     420                      .dwattr $C$DW$38, DW_AT_name("GPIO13")
     421                      .dwattr $C$DW$38, DW_AT_TI_symbol_name("_GPIO13")
     422                      .dwattr $C$DW$38, DW_AT_bit_offset(0x02), DW_AT_bit_size(0x01)
     423                      .dwattr $C$DW$38, DW_AT_data_member_location[DW_OP_plus_uconst 0x0]
     424                      .dwattr $C$DW$38, DW_AT_accessibility(DW_ACCESS_public)
     425              $C$DW$39        .dwtag  DW_TAG_member
     426                      .dwattr $C$DW$39, DW_AT_type(*$C$DW$T$19)
     427                      .dwattr $C$DW$39, DW_AT_name("GPIO14")
     428                      .dwattr $C$DW$39, DW_AT_TI_symbol_name("_GPIO14")
     429                      .dwattr $C$DW$39, DW_AT_bit_offset(0x01), DW_AT_bit_size(0x01)
     430                      .dwattr $C$DW$39, DW_AT_data_member_location[DW_OP_plus_uconst 0x0]
     431                      .dwattr $C$DW$39, DW_AT_accessibility(DW_ACCESS_public)
     432              $C$DW$40        .dwtag  DW_TAG_member
     433                      .dwattr $C$DW$40, DW_AT_type(*$C$DW$T$19)
     434                      .dwattr $C$DW$40, DW_AT_name("GPIO15")
     435                      .dwattr $C$DW$40, DW_AT_TI_symbol_name("_GPIO15")
     436                      .dwattr $C$DW$40, DW_AT_bit_offset(0x00), DW_AT_bit_size(0x01)
     437                      .dwattr $C$DW$40, DW_AT_data_member_location[DW_OP_plus_uconst 0x0]
     438                      .dwattr $C$DW$40, DW_AT_accessibility(DW_ACCESS_public)
     439              $C$DW$41        .dwtag  DW_TAG_member
     440                      .dwattr $C$DW$41, DW_AT_type(*$C$DW$T$19)
     441                      .dwattr $C$DW$41, DW_AT_name("GPIO16")
     442                      .dwattr $C$DW$41, DW_AT_TI_symbol_name("_GPIO16")
     443                      .dwattr $C$DW$41, DW_AT_bit_offset(0x0f), DW_AT_bit_size(0x01)
     444                      .dwattr $C$DW$41, DW_AT_data_member_location[DW_OP_plus_uconst 0x1]
     445                      .dwattr $C$DW$41, DW_AT_accessibility(DW_ACCESS_public)
     446              $C$DW$42        .dwtag  DW_TAG_member
     447                      .dwattr $C$DW$42, DW_AT_type(*$C$DW$T$19)
     448                      .dwattr $C$DW$42, DW_AT_name("GPIO17")
     449                      .dwattr $C$DW$42, DW_AT_TI_symbol_name("_GPIO17")
     450                      .dwattr $C$DW$42, DW_AT_bit_offset(0x0e), DW_AT_bit_size(0x01)
     451                      .dwattr $C$DW$42, DW_AT_data_member_location[DW_OP_plus_uconst 0x1]
     452                      .dwattr $C$DW$42, DW_AT_accessibility(DW_ACCESS_public)
     453              $C$DW$43        .dwtag  DW_TAG_member
     454                      .dwattr $C$DW$43, DW_AT_type(*$C$DW$T$19)
     455                      .dwattr $C$DW$43, DW_AT_name("GPIO18")
     456                      .dwattr $C$DW$43, DW_AT_TI_symbol_name("_GPIO18")
     457                      .dwattr $C$DW$43, DW_AT_bit_offset(0x0d), DW_AT_bit_size(0x01)
     458                      .dwattr $C$DW$43, DW_AT_data_member_location[DW_OP_plus_uconst 0x1]
     459                      .dwattr $C$DW$43, DW_AT_accessibility(DW_ACCESS_public)
     460              $C$DW$44        .dwtag  DW_TAG_member
     461                      .dwattr $C$DW$44, DW_AT_type(*$C$DW$T$19)
     462                      .dwattr $C$DW$44, DW_AT_name("GPIO19")
     463                      .dwattr $C$DW$44, DW_AT_TI_symbol_name("_GPIO19")
     464                      .dwattr $C$DW$44, DW_AT_bit_offset(0x0c), DW_AT_bit_size(0x01)
     465                      .dwattr $C$DW$44, DW_AT_data_member_location[DW_OP_plus_uconst 0x1]
     466                      .dwattr $C$DW$44, DW_AT_accessibility(DW_ACCESS_public)
     467              $C$DW$45        .dwtag  DW_TAG_member
     468                      .dwattr $C$DW$45, DW_AT_type(*$C$DW$T$19)
     469                      .dwattr $C$DW$45, DW_AT_name("GPIO20")
     470                      .dwattr $C$DW$45, DW_AT_TI_symbol_name("_GPIO20")
     471                      .dwattr $C$DW$45, DW_AT_bit_offset(0x0b), DW_AT_bit_size(0x01)
     472                      .dwattr $C$DW$45, DW_AT_data_member_location[DW_OP_plus_uconst 0x1]
     473                      .dwattr $C$DW$45, DW_AT_accessibility(DW_ACCESS_public)
     474              $C$DW$46        .dwtag  DW_TAG_member
TMS320C2000 Assembler PC v6.1.3 Thu Jan 30 10:32:22 2014

Tools Copyright (c) 1996-2012 Texas Instruments Incorporated
C:\Users\a0272466\AppData\Local\Temp\0608410                         PAGE   10

     475                      .dwattr $C$DW$46, DW_AT_type(*$C$DW$T$19)
     476                      .dwattr $C$DW$46, DW_AT_name("GPIO21")
     477                      .dwattr $C$DW$46, DW_AT_TI_symbol_name("_GPIO21")
     478                      .dwattr $C$DW$46, DW_AT_bit_offset(0x0a), DW_AT_bit_size(0x01)
     479                      .dwattr $C$DW$46, DW_AT_data_member_location[DW_OP_plus_uconst 0x1]
     480                      .dwattr $C$DW$46, DW_AT_accessibility(DW_ACCESS_public)
     481              $C$DW$47        .dwtag  DW_TAG_member
     482                      .dwattr $C$DW$47, DW_AT_type(*$C$DW$T$19)
     483                      .dwattr $C$DW$47, DW_AT_name("GPIO22")
     484                      .dwattr $C$DW$47, DW_AT_TI_symbol_name("_GPIO22")
     485                      .dwattr $C$DW$47, DW_AT_bit_offset(0x09), DW_AT_bit_size(0x01)
     486                      .dwattr $C$DW$47, DW_AT_data_member_location[DW_OP_plus_uconst 0x1]
     487                      .dwattr $C$DW$47, DW_AT_accessibility(DW_ACCESS_public)
     488              $C$DW$48        .dwtag  DW_TAG_member
     489                      .dwattr $C$DW$48, DW_AT_type(*$C$DW$T$19)
     490                      .dwattr $C$DW$48, DW_AT_name("GPIO23")
     491                      .dwattr $C$DW$48, DW_AT_TI_symbol_name("_GPIO23")
     492                      .dwattr $C$DW$48, DW_AT_bit_offset(0x08), DW_AT_bit_size(0x01)
     493                      .dwattr $C$DW$48, DW_AT_data_member_location[DW_OP_plus_uconst 0x1]
     494                      .dwattr $C$DW$48, DW_AT_accessibility(DW_ACCESS_public)
     495              $C$DW$49        .dwtag  DW_TAG_member
     496                      .dwattr $C$DW$49, DW_AT_type(*$C$DW$T$19)
     497                      .dwattr $C$DW$49, DW_AT_name("GPIO24")
     498                      .dwattr $C$DW$49, DW_AT_TI_symbol_name("_GPIO24")
     499                      .dwattr $C$DW$49, DW_AT_bit_offset(0x07), DW_AT_bit_size(0x01)
     500                      .dwattr $C$DW$49, DW_AT_data_member_location[DW_OP_plus_uconst 0x1]
     501                      .dwattr $C$DW$49, DW_AT_accessibility(DW_ACCESS_public)
     502              $C$DW$50        .dwtag  DW_TAG_member
     503                      .dwattr $C$DW$50, DW_AT_type(*$C$DW$T$19)
     504                      .dwattr $C$DW$50, DW_AT_name("GPIO25")
     505                      .dwattr $C$DW$50, DW_AT_TI_symbol_name("_GPIO25")
     506                      .dwattr $C$DW$50, DW_AT_bit_offset(0x06), DW_AT_bit_size(0x01)
     507                      .dwattr $C$DW$50, DW_AT_data_member_location[DW_OP_plus_uconst 0x1]
     508                      .dwattr $C$DW$50, DW_AT_accessibility(DW_ACCESS_public)
     509              $C$DW$51        .dwtag  DW_TAG_member
     510                      .dwattr $C$DW$51, DW_AT_type(*$C$DW$T$19)
     511                      .dwattr $C$DW$51, DW_AT_name("GPIO26")
     512                      .dwattr $C$DW$51, DW_AT_TI_symbol_name("_GPIO26")
     513                      .dwattr $C$DW$51, DW_AT_bit_offset(0x05), DW_AT_bit_size(0x01)
     514                      .dwattr $C$DW$51, DW_AT_data_member_location[DW_OP_plus_uconst 0x1]
     515                      .dwattr $C$DW$51, DW_AT_accessibility(DW_ACCESS_public)
     516              $C$DW$52        .dwtag  DW_TAG_member
     517                      .dwattr $C$DW$52, DW_AT_type(*$C$DW$T$19)
     518                      .dwattr $C$DW$52, DW_AT_name("GPIO27")
     519                      .dwattr $C$DW$52, DW_AT_TI_symbol_name("_GPIO27")
     520                      .dwattr $C$DW$52, DW_AT_bit_offset(0x04), DW_AT_bit_size(0x01)
     521                      .dwattr $C$DW$52, DW_AT_data_member_location[DW_OP_plus_uconst 0x1]
     522                      .dwattr $C$DW$52, DW_AT_accessibility(DW_ACCESS_public)
     523              $C$DW$53        .dwtag  DW_TAG_member
     524                      .dwattr $C$DW$53, DW_AT_type(*$C$DW$T$19)
     525                      .dwattr $C$DW$53, DW_AT_name("GPIO28")
     526                      .dwattr $C$DW$53, DW_AT_TI_symbol_name("_GPIO28")
     527                      .dwattr $C$DW$53, DW_AT_bit_offset(0x03), DW_AT_bit_size(0x01)
     528                      .dwattr $C$DW$53, DW_AT_data_member_location[DW_OP_plus_uconst 0x1]
     529                      .dwattr $C$DW$53, DW_AT_accessibility(DW_ACCESS_public)
TMS320C2000 Assembler PC v6.1.3 Thu Jan 30 10:32:22 2014

Tools Copyright (c) 1996-2012 Texas Instruments Incorporated
C:\Users\a0272466\AppData\Local\Temp\0608410                         PAGE   11

     530              $C$DW$54        .dwtag  DW_TAG_member
     531                      .dwattr $C$DW$54, DW_AT_type(*$C$DW$T$19)
     532                      .dwattr $C$DW$54, DW_AT_name("GPIO29")
     533                      .dwattr $C$DW$54, DW_AT_TI_symbol_name("_GPIO29")
     534                      .dwattr $C$DW$54, DW_AT_bit_offset(0x02), DW_AT_bit_size(0x01)
     535                      .dwattr $C$DW$54, DW_AT_data_member_location[DW_OP_plus_uconst 0x1]
     536                      .dwattr $C$DW$54, DW_AT_accessibility(DW_ACCESS_public)
     537              $C$DW$55        .dwtag  DW_TAG_member
     538                      .dwattr $C$DW$55, DW_AT_type(*$C$DW$T$19)
     539                      .dwattr $C$DW$55, DW_AT_name("GPIO30")
     540                      .dwattr $C$DW$55, DW_AT_TI_symbol_name("_GPIO30")
     541                      .dwattr $C$DW$55, DW_AT_bit_offset(0x01), DW_AT_bit_size(0x01)
     542                      .dwattr $C$DW$55, DW_AT_data_member_location[DW_OP_plus_uconst 0x1]
     543                      .dwattr $C$DW$55, DW_AT_accessibility(DW_ACCESS_public)
     544              $C$DW$56        .dwtag  DW_TAG_member
     545                      .dwattr $C$DW$56, DW_AT_type(*$C$DW$T$19)
     546                      .dwattr $C$DW$56, DW_AT_name("GPIO31")
     547                      .dwattr $C$DW$56, DW_AT_TI_symbol_name("_GPIO31")
     548                      .dwattr $C$DW$56, DW_AT_bit_offset(0x00), DW_AT_bit_size(0x01)
     549                      .dwattr $C$DW$56, DW_AT_data_member_location[DW_OP_plus_uconst 0x1]
     550                      .dwattr $C$DW$56, DW_AT_accessibility(DW_ACCESS_public)
     551                      .dwendtag $C$DW$T$20
     552              
     553              
     554              $C$DW$T$22      .dwtag  DW_TAG_union_type
     555                      .dwattr $C$DW$T$22, DW_AT_name("GPACLEAR_REG")
     556                      .dwattr $C$DW$T$22, DW_AT_byte_size(0x02)
     557              $C$DW$57        .dwtag  DW_TAG_member
     558                      .dwattr $C$DW$57, DW_AT_type(*$C$DW$T$21)
     559                      .dwattr $C$DW$57, DW_AT_name("all")
     560                      .dwattr $C$DW$57, DW_AT_TI_symbol_name("_all")
     561                      .dwattr $C$DW$57, DW_AT_data_member_location[DW_OP_plus_uconst 0x0]
     562                      .dwattr $C$DW$57, DW_AT_accessibility(DW_ACCESS_public)
     563              $C$DW$58        .dwtag  DW_TAG_member
     564                      .dwattr $C$DW$58, DW_AT_type(*$C$DW$T$20)
     565                      .dwattr $C$DW$58, DW_AT_name("bit")
     566                      .dwattr $C$DW$58, DW_AT_TI_symbol_name("_bit")
     567                      .dwattr $C$DW$58, DW_AT_data_member_location[DW_OP_plus_uconst 0x0]
     568                      .dwattr $C$DW$58, DW_AT_accessibility(DW_ACCESS_public)
     569                      .dwendtag $C$DW$T$22
     570              
     571              
     572              $C$DW$T$23      .dwtag  DW_TAG_structure_type
     573                      .dwattr $C$DW$T$23, DW_AT_name("GPADAT_BITS")
     574                      .dwattr $C$DW$T$23, DW_AT_byte_size(0x02)
     575              $C$DW$59        .dwtag  DW_TAG_member
     576                      .dwattr $C$DW$59, DW_AT_type(*$C$DW$T$19)
     577                      .dwattr $C$DW$59, DW_AT_name("GPIO0")
     578                      .dwattr $C$DW$59, DW_AT_TI_symbol_name("_GPIO0")
     579                      .dwattr $C$DW$59, DW_AT_bit_offset(0x0f), DW_AT_bit_size(0x01)
     580                      .dwattr $C$DW$59, DW_AT_data_member_location[DW_OP_plus_uconst 0x0]
     581                      .dwattr $C$DW$59, DW_AT_accessibility(DW_ACCESS_public)
     582              $C$DW$60        .dwtag  DW_TAG_member
     583                      .dwattr $C$DW$60, DW_AT_type(*$C$DW$T$19)
     584                      .dwattr $C$DW$60, DW_AT_name("GPIO1")
TMS320C2000 Assembler PC v6.1.3 Thu Jan 30 10:32:22 2014

Tools Copyright (c) 1996-2012 Texas Instruments Incorporated
C:\Users\a0272466\AppData\Local\Temp\0608410                         PAGE   12

     585                      .dwattr $C$DW$60, DW_AT_TI_symbol_name("_GPIO1")
     586                      .dwattr $C$DW$60, DW_AT_bit_offset(0x0e), DW_AT_bit_size(0x01)
     587                      .dwattr $C$DW$60, DW_AT_data_member_location[DW_OP_plus_uconst 0x0]
     588                      .dwattr $C$DW$60, DW_AT_accessibility(DW_ACCESS_public)
     589              $C$DW$61        .dwtag  DW_TAG_member
     590                      .dwattr $C$DW$61, DW_AT_type(*$C$DW$T$19)
     591                      .dwattr $C$DW$61, DW_AT_name("GPIO2")
     592                      .dwattr $C$DW$61, DW_AT_TI_symbol_name("_GPIO2")
     593                      .dwattr $C$DW$61, DW_AT_bit_offset(0x0d), DW_AT_bit_size(0x01)
     594                      .dwattr $C$DW$61, DW_AT_data_member_location[DW_OP_plus_uconst 0x0]
     595                      .dwattr $C$DW$61, DW_AT_accessibility(DW_ACCESS_public)
     596              $C$DW$62        .dwtag  DW_TAG_member
     597                      .dwattr $C$DW$62, DW_AT_type(*$C$DW$T$19)
     598                      .dwattr $C$DW$62, DW_AT_name("GPIO3")
     599                      .dwattr $C$DW$62, DW_AT_TI_symbol_name("_GPIO3")
     600                      .dwattr $C$DW$62, DW_AT_bit_offset(0x0c), DW_AT_bit_size(0x01)
     601                      .dwattr $C$DW$62, DW_AT_data_member_location[DW_OP_plus_uconst 0x0]
     602                      .dwattr $C$DW$62, DW_AT_accessibility(DW_ACCESS_public)
     603              $C$DW$63        .dwtag  DW_TAG_member
     604                      .dwattr $C$DW$63, DW_AT_type(*$C$DW$T$19)
     605                      .dwattr $C$DW$63, DW_AT_name("GPIO4")
     606                      .dwattr $C$DW$63, DW_AT_TI_symbol_name("_GPIO4")
     607                      .dwattr $C$DW$63, DW_AT_bit_offset(0x0b), DW_AT_bit_size(0x01)
     608                      .dwattr $C$DW$63, DW_AT_data_member_location[DW_OP_plus_uconst 0x0]
     609                      .dwattr $C$DW$63, DW_AT_accessibility(DW_ACCESS_public)
     610              $C$DW$64        .dwtag  DW_TAG_member
     611                      .dwattr $C$DW$64, DW_AT_type(*$C$DW$T$19)
     612                      .dwattr $C$DW$64, DW_AT_name("GPIO5")
     613                      .dwattr $C$DW$64, DW_AT_TI_symbol_name("_GPIO5")
     614                      .dwattr $C$DW$64, DW_AT_bit_offset(0x0a), DW_AT_bit_size(0x01)
     615                      .dwattr $C$DW$64, DW_AT_data_member_location[DW_OP_plus_uconst 0x0]
     616                      .dwattr $C$DW$64, DW_AT_accessibility(DW_ACCESS_public)
     617              $C$DW$65        .dwtag  DW_TAG_member
     618                      .dwattr $C$DW$65, DW_AT_type(*$C$DW$T$19)
     619                      .dwattr $C$DW$65, DW_AT_name("GPIO6")
     620                      .dwattr $C$DW$65, DW_AT_TI_symbol_name("_GPIO6")
     621                      .dwattr $C$DW$65, DW_AT_bit_offset(0x09), DW_AT_bit_size(0x01)
     622                      .dwattr $C$DW$65, DW_AT_data_member_location[DW_OP_plus_uconst 0x0]
     623                      .dwattr $C$DW$65, DW_AT_accessibility(DW_ACCESS_public)
     624              $C$DW$66        .dwtag  DW_TAG_member
     625                      .dwattr $C$DW$66, DW_AT_type(*$C$DW$T$19)
     626                      .dwattr $C$DW$66, DW_AT_name("GPIO7")
     627                      .dwattr $C$DW$66, DW_AT_TI_symbol_name("_GPIO7")
     628                      .dwattr $C$DW$66, DW_AT_bit_offset(0x08), DW_AT_bit_size(0x01)
     629                      .dwattr $C$DW$66, DW_AT_data_member_location[DW_OP_plus_uconst 0x0]
     630                      .dwattr $C$DW$66, DW_AT_accessibility(DW_ACCESS_public)
     631              $C$DW$67        .dwtag  DW_TAG_member
     632                      .dwattr $C$DW$67, DW_AT_type(*$C$DW$T$19)
     633                      .dwattr $C$DW$67, DW_AT_name("GPIO8")
     634                      .dwattr $C$DW$67, DW_AT_TI_symbol_name("_GPIO8")
     635                      .dwattr $C$DW$67, DW_AT_bit_offset(0x07), DW_AT_bit_size(0x01)
     636                      .dwattr $C$DW$67, DW_AT_data_member_location[DW_OP_plus_uconst 0x0]
     637                      .dwattr $C$DW$67, DW_AT_accessibility(DW_ACCESS_public)
     638              $C$DW$68        .dwtag  DW_TAG_member
     639                      .dwattr $C$DW$68, DW_AT_type(*$C$DW$T$19)
TMS320C2000 Assembler PC v6.1.3 Thu Jan 30 10:32:22 2014

Tools Copyright (c) 1996-2012 Texas Instruments Incorporated
C:\Users\a0272466\AppData\Local\Temp\0608410                         PAGE   13

     640                      .dwattr $C$DW$68, DW_AT_name("GPIO9")
     641                      .dwattr $C$DW$68, DW_AT_TI_symbol_name("_GPIO9")
     642                      .dwattr $C$DW$68, DW_AT_bit_offset(0x06), DW_AT_bit_size(0x01)
     643                      .dwattr $C$DW$68, DW_AT_data_member_location[DW_OP_plus_uconst 0x0]
     644                      .dwattr $C$DW$68, DW_AT_accessibility(DW_ACCESS_public)
     645              $C$DW$69        .dwtag  DW_TAG_member
     646                      .dwattr $C$DW$69, DW_AT_type(*$C$DW$T$19)
     647                      .dwattr $C$DW$69, DW_AT_name("GPIO10")
     648                      .dwattr $C$DW$69, DW_AT_TI_symbol_name("_GPIO10")
     649                      .dwattr $C$DW$69, DW_AT_bit_offset(0x05), DW_AT_bit_size(0x01)
     650                      .dwattr $C$DW$69, DW_AT_data_member_location[DW_OP_plus_uconst 0x0]
     651                      .dwattr $C$DW$69, DW_AT_accessibility(DW_ACCESS_public)
     652              $C$DW$70        .dwtag  DW_TAG_member
     653                      .dwattr $C$DW$70, DW_AT_type(*$C$DW$T$19)
     654                      .dwattr $C$DW$70, DW_AT_name("GPIO11")
     655                      .dwattr $C$DW$70, DW_AT_TI_symbol_name("_GPIO11")
     656                      .dwattr $C$DW$70, DW_AT_bit_offset(0x04), DW_AT_bit_size(0x01)
     657                      .dwattr $C$DW$70, DW_AT_data_member_location[DW_OP_plus_uconst 0x0]
     658                      .dwattr $C$DW$70, DW_AT_accessibility(DW_ACCESS_public)
     659              $C$DW$71        .dwtag  DW_TAG_member
     660                      .dwattr $C$DW$71, DW_AT_type(*$C$DW$T$19)
     661                      .dwattr $C$DW$71, DW_AT_name("GPIO12")
     662                      .dwattr $C$DW$71, DW_AT_TI_symbol_name("_GPIO12")
     663                      .dwattr $C$DW$71, DW_AT_bit_offset(0x03), DW_AT_bit_size(0x01)
     664                      .dwattr $C$DW$71, DW_AT_data_member_location[DW_OP_plus_uconst 0x0]
     665                      .dwattr $C$DW$71, DW_AT_accessibility(DW_ACCESS_public)
     666              $C$DW$72        .dwtag  DW_TAG_member
     667                      .dwattr $C$DW$72, DW_AT_type(*$C$DW$T$19)
     668                      .dwattr $C$DW$72, DW_AT_name("GPIO13")
     669                      .dwattr $C$DW$72, DW_AT_TI_symbol_name("_GPIO13")
     670                      .dwattr $C$DW$72, DW_AT_bit_offset(0x02), DW_AT_bit_size(0x01)
     671                      .dwattr $C$DW$72, DW_AT_data_member_location[DW_OP_plus_uconst 0x0]
     672                      .dwattr $C$DW$72, DW_AT_accessibility(DW_ACCESS_public)
     673              $C$DW$73        .dwtag  DW_TAG_member
     674                      .dwattr $C$DW$73, DW_AT_type(*$C$DW$T$19)
     675                      .dwattr $C$DW$73, DW_AT_name("GPIO14")
     676                      .dwattr $C$DW$73, DW_AT_TI_symbol_name("_GPIO14")
     677                      .dwattr $C$DW$73, DW_AT_bit_offset(0x01), DW_AT_bit_size(0x01)
     678                      .dwattr $C$DW$73, DW_AT_data_member_location[DW_OP_plus_uconst 0x0]
     679                      .dwattr $C$DW$73, DW_AT_accessibility(DW_ACCESS_public)
     680              $C$DW$74        .dwtag  DW_TAG_member
     681                      .dwattr $C$DW$74, DW_AT_type(*$C$DW$T$19)
     682                      .dwattr $C$DW$74, DW_AT_name("GPIO15")
     683                      .dwattr $C$DW$74, DW_AT_TI_symbol_name("_GPIO15")
     684                      .dwattr $C$DW$74, DW_AT_bit_offset(0x00), DW_AT_bit_size(0x01)
     685                      .dwattr $C$DW$74, DW_AT_data_member_location[DW_OP_plus_uconst 0x0]
     686                      .dwattr $C$DW$74, DW_AT_accessibility(DW_ACCESS_public)
     687              $C$DW$75        .dwtag  DW_TAG_member
     688                      .dwattr $C$DW$75, DW_AT_type(*$C$DW$T$19)
     689                      .dwattr $C$DW$75, DW_AT_name("GPIO16")
     690                      .dwattr $C$DW$75, DW_AT_TI_symbol_name("_GPIO16")
     691                      .dwattr $C$DW$75, DW_AT_bit_offset(0x0f), DW_AT_bit_size(0x01)
     692                      .dwattr $C$DW$75, DW_AT_data_member_location[DW_OP_plus_uconst 0x1]
     693                      .dwattr $C$DW$75, DW_AT_accessibility(DW_ACCESS_public)
     694              $C$DW$76        .dwtag  DW_TAG_member
TMS320C2000 Assembler PC v6.1.3 Thu Jan 30 10:32:22 2014

Tools Copyright (c) 1996-2012 Texas Instruments Incorporated
C:\Users\a0272466\AppData\Local\Temp\0608410                         PAGE   14

     695                      .dwattr $C$DW$76, DW_AT_type(*$C$DW$T$19)
     696                      .dwattr $C$DW$76, DW_AT_name("GPIO17")
     697                      .dwattr $C$DW$76, DW_AT_TI_symbol_name("_GPIO17")
     698                      .dwattr $C$DW$76, DW_AT_bit_offset(0x0e), DW_AT_bit_size(0x01)
     699                      .dwattr $C$DW$76, DW_AT_data_member_location[DW_OP_plus_uconst 0x1]
     700                      .dwattr $C$DW$76, DW_AT_accessibility(DW_ACCESS_public)
     701              $C$DW$77        .dwtag  DW_TAG_member
     702                      .dwattr $C$DW$77, DW_AT_type(*$C$DW$T$19)
     703                      .dwattr $C$DW$77, DW_AT_name("GPIO18")
     704                      .dwattr $C$DW$77, DW_AT_TI_symbol_name("_GPIO18")
     705                      .dwattr $C$DW$77, DW_AT_bit_offset(0x0d), DW_AT_bit_size(0x01)
     706                      .dwattr $C$DW$77, DW_AT_data_member_location[DW_OP_plus_uconst 0x1]
     707                      .dwattr $C$DW$77, DW_AT_accessibility(DW_ACCESS_public)
     708              $C$DW$78        .dwtag  DW_TAG_member
     709                      .dwattr $C$DW$78, DW_AT_type(*$C$DW$T$19)
     710                      .dwattr $C$DW$78, DW_AT_name("GPIO19")
     711                      .dwattr $C$DW$78, DW_AT_TI_symbol_name("_GPIO19")
     712                      .dwattr $C$DW$78, DW_AT_bit_offset(0x0c), DW_AT_bit_size(0x01)
     713                      .dwattr $C$DW$78, DW_AT_data_member_location[DW_OP_plus_uconst 0x1]
     714                      .dwattr $C$DW$78, DW_AT_accessibility(DW_ACCESS_public)
     715              $C$DW$79        .dwtag  DW_TAG_member
     716                      .dwattr $C$DW$79, DW_AT_type(*$C$DW$T$19)
     717                      .dwattr $C$DW$79, DW_AT_name("GPIO20")
     718                      .dwattr $C$DW$79, DW_AT_TI_symbol_name("_GPIO20")
     719                      .dwattr $C$DW$79, DW_AT_bit_offset(0x0b), DW_AT_bit_size(0x01)
     720                      .dwattr $C$DW$79, DW_AT_data_member_location[DW_OP_plus_uconst 0x1]
     721                      .dwattr $C$DW$79, DW_AT_accessibility(DW_ACCESS_public)
     722              $C$DW$80        .dwtag  DW_TAG_member
     723                      .dwattr $C$DW$80, DW_AT_type(*$C$DW$T$19)
     724                      .dwattr $C$DW$80, DW_AT_name("GPIO21")
     725                      .dwattr $C$DW$80, DW_AT_TI_symbol_name("_GPIO21")
     726                      .dwattr $C$DW$80, DW_AT_bit_offset(0x0a), DW_AT_bit_size(0x01)
     727                      .dwattr $C$DW$80, DW_AT_data_member_location[DW_OP_plus_uconst 0x1]
     728                      .dwattr $C$DW$80, DW_AT_accessibility(DW_ACCESS_public)
     729              $C$DW$81        .dwtag  DW_TAG_member
     730                      .dwattr $C$DW$81, DW_AT_type(*$C$DW$T$19)
     731                      .dwattr $C$DW$81, DW_AT_name("GPIO22")
     732                      .dwattr $C$DW$81, DW_AT_TI_symbol_name("_GPIO22")
     733                      .dwattr $C$DW$81, DW_AT_bit_offset(0x09), DW_AT_bit_size(0x01)
     734                      .dwattr $C$DW$81, DW_AT_data_member_location[DW_OP_plus_uconst 0x1]
     735                      .dwattr $C$DW$81, DW_AT_accessibility(DW_ACCESS_public)
     736              $C$DW$82        .dwtag  DW_TAG_member
     737                      .dwattr $C$DW$82, DW_AT_type(*$C$DW$T$19)
     738                      .dwattr $C$DW$82, DW_AT_name("GPIO23")
     739                      .dwattr $C$DW$82, DW_AT_TI_symbol_name("_GPIO23")
     740                      .dwattr $C$DW$82, DW_AT_bit_offset(0x08), DW_AT_bit_size(0x01)
     741                      .dwattr $C$DW$82, DW_AT_data_member_location[DW_OP_plus_uconst 0x1]
     742                      .dwattr $C$DW$82, DW_AT_accessibility(DW_ACCESS_public)
     743              $C$DW$83        .dwtag  DW_TAG_member
     744                      .dwattr $C$DW$83, DW_AT_type(*$C$DW$T$19)
     745                      .dwattr $C$DW$83, DW_AT_name("GPIO24")
     746                      .dwattr $C$DW$83, DW_AT_TI_symbol_name("_GPIO24")
     747                      .dwattr $C$DW$83, DW_AT_bit_offset(0x07), DW_AT_bit_size(0x01)
     748                      .dwattr $C$DW$83, DW_AT_data_member_location[DW_OP_plus_uconst 0x1]
     749                      .dwattr $C$DW$83, DW_AT_accessibility(DW_ACCESS_public)
TMS320C2000 Assembler PC v6.1.3 Thu Jan 30 10:32:22 2014

Tools Copyright (c) 1996-2012 Texas Instruments Incorporated
C:\Users\a0272466\AppData\Local\Temp\0608410                         PAGE   15

     750              $C$DW$84        .dwtag  DW_TAG_member
     751                      .dwattr $C$DW$84, DW_AT_type(*$C$DW$T$19)
     752                      .dwattr $C$DW$84, DW_AT_name("GPIO25")
     753                      .dwattr $C$DW$84, DW_AT_TI_symbol_name("_GPIO25")
     754                      .dwattr $C$DW$84, DW_AT_bit_offset(0x06), DW_AT_bit_size(0x01)
     755                      .dwattr $C$DW$84, DW_AT_data_member_location[DW_OP_plus_uconst 0x1]
     756                      .dwattr $C$DW$84, DW_AT_accessibility(DW_ACCESS_public)
     757              $C$DW$85        .dwtag  DW_TAG_member
     758                      .dwattr $C$DW$85, DW_AT_type(*$C$DW$T$19)
     759                      .dwattr $C$DW$85, DW_AT_name("GPIO26")
     760                      .dwattr $C$DW$85, DW_AT_TI_symbol_name("_GPIO26")
     761                      .dwattr $C$DW$85, DW_AT_bit_offset(0x05), DW_AT_bit_size(0x01)
     762                      .dwattr $C$DW$85, DW_AT_data_member_location[DW_OP_plus_uconst 0x1]
     763                      .dwattr $C$DW$85, DW_AT_accessibility(DW_ACCESS_public)
     764              $C$DW$86        .dwtag  DW_TAG_member
     765                      .dwattr $C$DW$86, DW_AT_type(*$C$DW$T$19)
     766                      .dwattr $C$DW$86, DW_AT_name("GPIO27")
     767                      .dwattr $C$DW$86, DW_AT_TI_symbol_name("_GPIO27")
     768                      .dwattr $C$DW$86, DW_AT_bit_offset(0x04), DW_AT_bit_size(0x01)
     769                      .dwattr $C$DW$86, DW_AT_data_member_location[DW_OP_plus_uconst 0x1]
     770                      .dwattr $C$DW$86, DW_AT_accessibility(DW_ACCESS_public)
     771              $C$DW$87        .dwtag  DW_TAG_member
     772                      .dwattr $C$DW$87, DW_AT_type(*$C$DW$T$19)
     773                      .dwattr $C$DW$87, DW_AT_name("GPIO28")
     774                      .dwattr $C$DW$87, DW_AT_TI_symbol_name("_GPIO28")
     775                      .dwattr $C$DW$87, DW_AT_bit_offset(0x03), DW_AT_bit_size(0x01)
     776                      .dwattr $C$DW$87, DW_AT_data_member_location[DW_OP_plus_uconst 0x1]
     777                      .dwattr $C$DW$87, DW_AT_accessibility(DW_ACCESS_public)
     778              $C$DW$88        .dwtag  DW_TAG_member
     779                      .dwattr $C$DW$88, DW_AT_type(*$C$DW$T$19)
     780                      .dwattr $C$DW$88, DW_AT_name("GPIO29")
     781                      .dwattr $C$DW$88, DW_AT_TI_symbol_name("_GPIO29")
     782                      .dwattr $C$DW$88, DW_AT_bit_offset(0x02), DW_AT_bit_size(0x01)
     783                      .dwattr $C$DW$88, DW_AT_data_member_location[DW_OP_plus_uconst 0x1]
     784                      .dwattr $C$DW$88, DW_AT_accessibility(DW_ACCESS_public)
     785              $C$DW$89        .dwtag  DW_TAG_member
     786                      .dwattr $C$DW$89, DW_AT_type(*$C$DW$T$19)
     787                      .dwattr $C$DW$89, DW_AT_name("GPIO30")
     788                      .dwattr $C$DW$89, DW_AT_TI_symbol_name("_GPIO30")
     789                      .dwattr $C$DW$89, DW_AT_bit_offset(0x01), DW_AT_bit_size(0x01)
     790                      .dwattr $C$DW$89, DW_AT_data_member_location[DW_OP_plus_uconst 0x1]
     791                      .dwattr $C$DW$89, DW_AT_accessibility(DW_ACCESS_public)
     792              $C$DW$90        .dwtag  DW_TAG_member
     793                      .dwattr $C$DW$90, DW_AT_type(*$C$DW$T$19)
     794                      .dwattr $C$DW$90, DW_AT_name("GPIO31")
     795                      .dwattr $C$DW$90, DW_AT_TI_symbol_name("_GPIO31")
     796                      .dwattr $C$DW$90, DW_AT_bit_offset(0x00), DW_AT_bit_size(0x01)
     797                      .dwattr $C$DW$90, DW_AT_data_member_location[DW_OP_plus_uconst 0x1]
     798                      .dwattr $C$DW$90, DW_AT_accessibility(DW_ACCESS_public)
     799                      .dwendtag $C$DW$T$23
     800              
     801              
     802              $C$DW$T$24      .dwtag  DW_TAG_union_type
     803                      .dwattr $C$DW$T$24, DW_AT_name("GPADAT_REG")
     804                      .dwattr $C$DW$T$24, DW_AT_byte_size(0x02)
TMS320C2000 Assembler PC v6.1.3 Thu Jan 30 10:32:22 2014

Tools Copyright (c) 1996-2012 Texas Instruments Incorporated
C:\Users\a0272466\AppData\Local\Temp\0608410                         PAGE   16

     805              $C$DW$91        .dwtag  DW_TAG_member
     806                      .dwattr $C$DW$91, DW_AT_type(*$C$DW$T$21)
     807                      .dwattr $C$DW$91, DW_AT_name("all")
     808                      .dwattr $C$DW$91, DW_AT_TI_symbol_name("_all")
     809                      .dwattr $C$DW$91, DW_AT_data_member_location[DW_OP_plus_uconst 0x0]
     810                      .dwattr $C$DW$91, DW_AT_accessibility(DW_ACCESS_public)
     811              $C$DW$92        .dwtag  DW_TAG_member
     812                      .dwattr $C$DW$92, DW_AT_type(*$C$DW$T$23)
     813                      .dwattr $C$DW$92, DW_AT_name("bit")
     814                      .dwattr $C$DW$92, DW_AT_TI_symbol_name("_bit")
     815                      .dwattr $C$DW$92, DW_AT_data_member_location[DW_OP_plus_uconst 0x0]
     816                      .dwattr $C$DW$92, DW_AT_accessibility(DW_ACCESS_public)
     817                      .dwendtag $C$DW$T$24
     818              
     819              
     820              $C$DW$T$25      .dwtag  DW_TAG_structure_type
     821                      .dwattr $C$DW$T$25, DW_AT_name("GPASET_BITS")
     822                      .dwattr $C$DW$T$25, DW_AT_byte_size(0x02)
     823              $C$DW$93        .dwtag  DW_TAG_member
     824                      .dwattr $C$DW$93, DW_AT_type(*$C$DW$T$19)
     825                      .dwattr $C$DW$93, DW_AT_name("GPIO0")
     826                      .dwattr $C$DW$93, DW_AT_TI_symbol_name("_GPIO0")
     827                      .dwattr $C$DW$93, DW_AT_bit_offset(0x0f), DW_AT_bit_size(0x01)
     828                      .dwattr $C$DW$93, DW_AT_data_member_location[DW_OP_plus_uconst 0x0]
     829                      .dwattr $C$DW$93, DW_AT_accessibility(DW_ACCESS_public)
     830              $C$DW$94        .dwtag  DW_TAG_member
     831                      .dwattr $C$DW$94, DW_AT_type(*$C$DW$T$19)
     832                      .dwattr $C$DW$94, DW_AT_name("GPIO1")
     833                      .dwattr $C$DW$94, DW_AT_TI_symbol_name("_GPIO1")
     834                      .dwattr $C$DW$94, DW_AT_bit_offset(0x0e), DW_AT_bit_size(0x01)
     835                      .dwattr $C$DW$94, DW_AT_data_member_location[DW_OP_plus_uconst 0x0]
     836                      .dwattr $C$DW$94, DW_AT_accessibility(DW_ACCESS_public)
     837              $C$DW$95        .dwtag  DW_TAG_member
     838                      .dwattr $C$DW$95, DW_AT_type(*$C$DW$T$19)
     839                      .dwattr $C$DW$95, DW_AT_name("GPIO2")
     840                      .dwattr $C$DW$95, DW_AT_TI_symbol_name("_GPIO2")
     841                      .dwattr $C$DW$95, DW_AT_bit_offset(0x0d), DW_AT_bit_size(0x01)
     842                      .dwattr $C$DW$95, DW_AT_data_member_location[DW_OP_plus_uconst 0x0]
     843                      .dwattr $C$DW$95, DW_AT_accessibility(DW_ACCESS_public)
     844              $C$DW$96        .dwtag  DW_TAG_member
     845                      .dwattr $C$DW$96, DW_AT_type(*$C$DW$T$19)
     846                      .dwattr $C$DW$96, DW_AT_name("GPIO3")
     847                      .dwattr $C$DW$96, DW_AT_TI_symbol_name("_GPIO3")
     848                      .dwattr $C$DW$96, DW_AT_bit_offset(0x0c), DW_AT_bit_size(0x01)
     849                      .dwattr $C$DW$96, DW_AT_data_member_location[DW_OP_plus_uconst 0x0]
     850                      .dwattr $C$DW$96, DW_AT_accessibility(DW_ACCESS_public)
     851              $C$DW$97        .dwtag  DW_TAG_member
     852                      .dwattr $C$DW$97, DW_AT_type(*$C$DW$T$19)
     853                      .dwattr $C$DW$97, DW_AT_name("GPIO4")
     854                      .dwattr $C$DW$97, DW_AT_TI_symbol_name("_GPIO4")
     855                      .dwattr $C$DW$97, DW_AT_bit_offset(0x0b), DW_AT_bit_size(0x01)
     856                      .dwattr $C$DW$97, DW_AT_data_member_location[DW_OP_plus_uconst 0x0]
     857                      .dwattr $C$DW$97, DW_AT_accessibility(DW_ACCESS_public)
     858              $C$DW$98        .dwtag  DW_TAG_member
     859                      .dwattr $C$DW$98, DW_AT_type(*$C$DW$T$19)
TMS320C2000 Assembler PC v6.1.3 Thu Jan 30 10:32:22 2014

Tools Copyright (c) 1996-2012 Texas Instruments Incorporated
C:\Users\a0272466\AppData\Local\Temp\0608410                         PAGE   17

     860                      .dwattr $C$DW$98, DW_AT_name("GPIO5")
     861                      .dwattr $C$DW$98, DW_AT_TI_symbol_name("_GPIO5")
     862                      .dwattr $C$DW$98, DW_AT_bit_offset(0x0a), DW_AT_bit_size(0x01)
     863                      .dwattr $C$DW$98, DW_AT_data_member_location[DW_OP_plus_uconst 0x0]
     864                      .dwattr $C$DW$98, DW_AT_accessibility(DW_ACCESS_public)
     865              $C$DW$99        .dwtag  DW_TAG_member
     866                      .dwattr $C$DW$99, DW_AT_type(*$C$DW$T$19)
     867                      .dwattr $C$DW$99, DW_AT_name("GPIO6")
     868                      .dwattr $C$DW$99, DW_AT_TI_symbol_name("_GPIO6")
     869                      .dwattr $C$DW$99, DW_AT_bit_offset(0x09), DW_AT_bit_size(0x01)
     870                      .dwattr $C$DW$99, DW_AT_data_member_location[DW_OP_plus_uconst 0x0]
     871                      .dwattr $C$DW$99, DW_AT_accessibility(DW_ACCESS_public)
     872              $C$DW$100       .dwtag  DW_TAG_member
     873                      .dwattr $C$DW$100, DW_AT_type(*$C$DW$T$19)
     874                      .dwattr $C$DW$100, DW_AT_name("GPIO7")
     875                      .dwattr $C$DW$100, DW_AT_TI_symbol_name("_GPIO7")
     876                      .dwattr $C$DW$100, DW_AT_bit_offset(0x08), DW_AT_bit_size(0x01)
     877                      .dwattr $C$DW$100, DW_AT_data_member_location[DW_OP_plus_uconst 0x0]
     878                      .dwattr $C$DW$100, DW_AT_accessibility(DW_ACCESS_public)
     879              $C$DW$101       .dwtag  DW_TAG_member
     880                      .dwattr $C$DW$101, DW_AT_type(*$C$DW$T$19)
     881                      .dwattr $C$DW$101, DW_AT_name("GPIO8")
     882                      .dwattr $C$DW$101, DW_AT_TI_symbol_name("_GPIO8")
     883                      .dwattr $C$DW$101, DW_AT_bit_offset(0x07), DW_AT_bit_size(0x01)
     884                      .dwattr $C$DW$101, DW_AT_data_member_location[DW_OP_plus_uconst 0x0]
     885                      .dwattr $C$DW$101, DW_AT_accessibility(DW_ACCESS_public)
     886              $C$DW$102       .dwtag  DW_TAG_member
     887                      .dwattr $C$DW$102, DW_AT_type(*$C$DW$T$19)
     888                      .dwattr $C$DW$102, DW_AT_name("GPIO9")
     889                      .dwattr $C$DW$102, DW_AT_TI_symbol_name("_GPIO9")
     890                      .dwattr $C$DW$102, DW_AT_bit_offset(0x06), DW_AT_bit_size(0x01)
     891                      .dwattr $C$DW$102, DW_AT_data_member_location[DW_OP_plus_uconst 0x0]
     892                      .dwattr $C$DW$102, DW_AT_accessibility(DW_ACCESS_public)
     893              $C$DW$103       .dwtag  DW_TAG_member
     894                      .dwattr $C$DW$103, DW_AT_type(*$C$DW$T$19)
     895                      .dwattr $C$DW$103, DW_AT_name("GPIO10")
     896                      .dwattr $C$DW$103, DW_AT_TI_symbol_name("_GPIO10")
     897                      .dwattr $C$DW$103, DW_AT_bit_offset(0x05), DW_AT_bit_size(0x01)
     898                      .dwattr $C$DW$103, DW_AT_data_member_location[DW_OP_plus_uconst 0x0]
     899                      .dwattr $C$DW$103, DW_AT_accessibility(DW_ACCESS_public)
     900              $C$DW$104       .dwtag  DW_TAG_member
     901                      .dwattr $C$DW$104, DW_AT_type(*$C$DW$T$19)
     902                      .dwattr $C$DW$104, DW_AT_name("GPIO11")
     903                      .dwattr $C$DW$104, DW_AT_TI_symbol_name("_GPIO11")
     904                      .dwattr $C$DW$104, DW_AT_bit_offset(0x04), DW_AT_bit_size(0x01)
     905                      .dwattr $C$DW$104, DW_AT_data_member_location[DW_OP_plus_uconst 0x0]
     906                      .dwattr $C$DW$104, DW_AT_accessibility(DW_ACCESS_public)
     907              $C$DW$105       .dwtag  DW_TAG_member
     908                      .dwattr $C$DW$105, DW_AT_type(*$C$DW$T$19)
     909                      .dwattr $C$DW$105, DW_AT_name("GPIO12")
     910                      .dwattr $C$DW$105, DW_AT_TI_symbol_name("_GPIO12")
     911                      .dwattr $C$DW$105, DW_AT_bit_offset(0x03), DW_AT_bit_size(0x01)
     912                      .dwattr $C$DW$105, DW_AT_data_member_location[DW_OP_plus_uconst 0x0]
     913                      .dwattr $C$DW$105, DW_AT_accessibility(DW_ACCESS_public)
     914              $C$DW$106       .dwtag  DW_TAG_member
TMS320C2000 Assembler PC v6.1.3 Thu Jan 30 10:32:22 2014

Tools Copyright (c) 1996-2012 Texas Instruments Incorporated
C:\Users\a0272466\AppData\Local\Temp\0608410                         PAGE   18

     915                      .dwattr $C$DW$106, DW_AT_type(*$C$DW$T$19)
     916                      .dwattr $C$DW$106, DW_AT_name("GPIO13")
     917                      .dwattr $C$DW$106, DW_AT_TI_symbol_name("_GPIO13")
     918                      .dwattr $C$DW$106, DW_AT_bit_offset(0x02), DW_AT_bit_size(0x01)
     919                      .dwattr $C$DW$106, DW_AT_data_member_location[DW_OP_plus_uconst 0x0]
     920                      .dwattr $C$DW$106, DW_AT_accessibility(DW_ACCESS_public)
     921              $C$DW$107       .dwtag  DW_TAG_member
     922                      .dwattr $C$DW$107, DW_AT_type(*$C$DW$T$19)
     923                      .dwattr $C$DW$107, DW_AT_name("GPIO14")
     924                      .dwattr $C$DW$107, DW_AT_TI_symbol_name("_GPIO14")
     925                      .dwattr $C$DW$107, DW_AT_bit_offset(0x01), DW_AT_bit_size(0x01)
     926                      .dwattr $C$DW$107, DW_AT_data_member_location[DW_OP_plus_uconst 0x0]
     927                      .dwattr $C$DW$107, DW_AT_accessibility(DW_ACCESS_public)
     928              $C$DW$108       .dwtag  DW_TAG_member
     929                      .dwattr $C$DW$108, DW_AT_type(*$C$DW$T$19)
     930                      .dwattr $C$DW$108, DW_AT_name("GPIO15")
     931                      .dwattr $C$DW$108, DW_AT_TI_symbol_name("_GPIO15")
     932                      .dwattr $C$DW$108, DW_AT_bit_offset(0x00), DW_AT_bit_size(0x01)
     933                      .dwattr $C$DW$108, DW_AT_data_member_location[DW_OP_plus_uconst 0x0]
     934                      .dwattr $C$DW$108, DW_AT_accessibility(DW_ACCESS_public)
     935              $C$DW$109       .dwtag  DW_TAG_member
     936                      .dwattr $C$DW$109, DW_AT_type(*$C$DW$T$19)
     937                      .dwattr $C$DW$109, DW_AT_name("GPIO16")
     938                      .dwattr $C$DW$109, DW_AT_TI_symbol_name("_GPIO16")
     939                      .dwattr $C$DW$109, DW_AT_bit_offset(0x0f), DW_AT_bit_size(0x01)
     940                      .dwattr $C$DW$109, DW_AT_data_member_location[DW_OP_plus_uconst 0x1]
     941                      .dwattr $C$DW$109, DW_AT_accessibility(DW_ACCESS_public)
     942              $C$DW$110       .dwtag  DW_TAG_member
     943                      .dwattr $C$DW$110, DW_AT_type(*$C$DW$T$19)
     944                      .dwattr $C$DW$110, DW_AT_name("GPIO17")
     945                      .dwattr $C$DW$110, DW_AT_TI_symbol_name("_GPIO17")
     946                      .dwattr $C$DW$110, DW_AT_bit_offset(0x0e), DW_AT_bit_size(0x01)
     947                      .dwattr $C$DW$110, DW_AT_data_member_location[DW_OP_plus_uconst 0x1]
     948                      .dwattr $C$DW$110, DW_AT_accessibility(DW_ACCESS_public)
     949              $C$DW$111       .dwtag  DW_TAG_member
     950                      .dwattr $C$DW$111, DW_AT_type(*$C$DW$T$19)
     951                      .dwattr $C$DW$111, DW_AT_name("GPIO18")
     952                      .dwattr $C$DW$111, DW_AT_TI_symbol_name("_GPIO18")
     953                      .dwattr $C$DW$111, DW_AT_bit_offset(0x0d), DW_AT_bit_size(0x01)
     954                      .dwattr $C$DW$111, DW_AT_data_member_location[DW_OP_plus_uconst 0x1]
     955                      .dwattr $C$DW$111, DW_AT_accessibility(DW_ACCESS_public)
     956              $C$DW$112       .dwtag  DW_TAG_member
     957                      .dwattr $C$DW$112, DW_AT_type(*$C$DW$T$19)
     958                      .dwattr $C$DW$112, DW_AT_name("GPIO19")
     959                      .dwattr $C$DW$112, DW_AT_TI_symbol_name("_GPIO19")
     960                      .dwattr $C$DW$112, DW_AT_bit_offset(0x0c), DW_AT_bit_size(0x01)
     961                      .dwattr $C$DW$112, DW_AT_data_member_location[DW_OP_plus_uconst 0x1]
     962                      .dwattr $C$DW$112, DW_AT_accessibility(DW_ACCESS_public)
     963              $C$DW$113       .dwtag  DW_TAG_member
     964                      .dwattr $C$DW$113, DW_AT_type(*$C$DW$T$19)
     965                      .dwattr $C$DW$113, DW_AT_name("GPIO20")
     966                      .dwattr $C$DW$113, DW_AT_TI_symbol_name("_GPIO20")
     967                      .dwattr $C$DW$113, DW_AT_bit_offset(0x0b), DW_AT_bit_size(0x01)
     968                      .dwattr $C$DW$113, DW_AT_data_member_location[DW_OP_plus_uconst 0x1]
     969                      .dwattr $C$DW$113, DW_AT_accessibility(DW_ACCESS_public)
TMS320C2000 Assembler PC v6.1.3 Thu Jan 30 10:32:22 2014

Tools Copyright (c) 1996-2012 Texas Instruments Incorporated
C:\Users\a0272466\AppData\Local\Temp\0608410                         PAGE   19

     970              $C$DW$114       .dwtag  DW_TAG_member
     971                      .dwattr $C$DW$114, DW_AT_type(*$C$DW$T$19)
     972                      .dwattr $C$DW$114, DW_AT_name("GPIO21")
     973                      .dwattr $C$DW$114, DW_AT_TI_symbol_name("_GPIO21")
     974                      .dwattr $C$DW$114, DW_AT_bit_offset(0x0a), DW_AT_bit_size(0x01)
     975                      .dwattr $C$DW$114, DW_AT_data_member_location[DW_OP_plus_uconst 0x1]
     976                      .dwattr $C$DW$114, DW_AT_accessibility(DW_ACCESS_public)
     977              $C$DW$115       .dwtag  DW_TAG_member
     978                      .dwattr $C$DW$115, DW_AT_type(*$C$DW$T$19)
     979                      .dwattr $C$DW$115, DW_AT_name("GPIO22")
     980                      .dwattr $C$DW$115, DW_AT_TI_symbol_name("_GPIO22")
     981                      .dwattr $C$DW$115, DW_AT_bit_offset(0x09), DW_AT_bit_size(0x01)
     982                      .dwattr $C$DW$115, DW_AT_data_member_location[DW_OP_plus_uconst 0x1]
     983                      .dwattr $C$DW$115, DW_AT_accessibility(DW_ACCESS_public)
     984              $C$DW$116       .dwtag  DW_TAG_member
     985                      .dwattr $C$DW$116, DW_AT_type(*$C$DW$T$19)
     986                      .dwattr $C$DW$116, DW_AT_name("GPIO23")
     987                      .dwattr $C$DW$116, DW_AT_TI_symbol_name("_GPIO23")
     988                      .dwattr $C$DW$116, DW_AT_bit_offset(0x08), DW_AT_bit_size(0x01)
     989                      .dwattr $C$DW$116, DW_AT_data_member_location[DW_OP_plus_uconst 0x1]
     990                      .dwattr $C$DW$116, DW_AT_accessibility(DW_ACCESS_public)
     991              $C$DW$117       .dwtag  DW_TAG_member
     992                      .dwattr $C$DW$117, DW_AT_type(*$C$DW$T$19)
     993                      .dwattr $C$DW$117, DW_AT_name("GPIO24")
     994                      .dwattr $C$DW$117, DW_AT_TI_symbol_name("_GPIO24")
     995                      .dwattr $C$DW$117, DW_AT_bit_offset(0x07), DW_AT_bit_size(0x01)
     996                      .dwattr $C$DW$117, DW_AT_data_member_location[DW_OP_plus_uconst 0x1]
     997                      .dwattr $C$DW$117, DW_AT_accessibility(DW_ACCESS_public)
     998              $C$DW$118       .dwtag  DW_TAG_member
     999                      .dwattr $C$DW$118, DW_AT_type(*$C$DW$T$19)
    1000                      .dwattr $C$DW$118, DW_AT_name("GPIO25")
    1001                      .dwattr $C$DW$118, DW_AT_TI_symbol_name("_GPIO25")
    1002                      .dwattr $C$DW$118, DW_AT_bit_offset(0x06), DW_AT_bit_size(0x01)
    1003                      .dwattr $C$DW$118, DW_AT_data_member_location[DW_OP_plus_uconst 0x1]
    1004                      .dwattr $C$DW$118, DW_AT_accessibility(DW_ACCESS_public)
    1005              $C$DW$119       .dwtag  DW_TAG_member
    1006                      .dwattr $C$DW$119, DW_AT_type(*$C$DW$T$19)
    1007                      .dwattr $C$DW$119, DW_AT_name("GPIO26")
    1008                      .dwattr $C$DW$119, DW_AT_TI_symbol_name("_GPIO26")
    1009                      .dwattr $C$DW$119, DW_AT_bit_offset(0x05), DW_AT_bit_size(0x01)
    1010                      .dwattr $C$DW$119, DW_AT_data_member_location[DW_OP_plus_uconst 0x1]
    1011                      .dwattr $C$DW$119, DW_AT_accessibility(DW_ACCESS_public)
    1012              $C$DW$120       .dwtag  DW_TAG_member
    1013                      .dwattr $C$DW$120, DW_AT_type(*$C$DW$T$19)
    1014                      .dwattr $C$DW$120, DW_AT_name("GPIO27")
    1015                      .dwattr $C$DW$120, DW_AT_TI_symbol_name("_GPIO27")
    1016                      .dwattr $C$DW$120, DW_AT_bit_offset(0x04), DW_AT_bit_size(0x01)
    1017                      .dwattr $C$DW$120, DW_AT_data_member_location[DW_OP_plus_uconst 0x1]
    1018                      .dwattr $C$DW$120, DW_AT_accessibility(DW_ACCESS_public)
    1019              $C$DW$121       .dwtag  DW_TAG_member
    1020                      .dwattr $C$DW$121, DW_AT_type(*$C$DW$T$19)
    1021                      .dwattr $C$DW$121, DW_AT_name("GPIO28")
    1022                      .dwattr $C$DW$121, DW_AT_TI_symbol_name("_GPIO28")
    1023                      .dwattr $C$DW$121, DW_AT_bit_offset(0x03), DW_AT_bit_size(0x01)
    1024                      .dwattr $C$DW$121, DW_AT_data_member_location[DW_OP_plus_uconst 0x1]
TMS320C2000 Assembler PC v6.1.3 Thu Jan 30 10:32:22 2014

Tools Copyright (c) 1996-2012 Texas Instruments Incorporated
C:\Users\a0272466\AppData\Local\Temp\0608410                         PAGE   20

    1025                      .dwattr $C$DW$121, DW_AT_accessibility(DW_ACCESS_public)
    1026              $C$DW$122       .dwtag  DW_TAG_member
    1027                      .dwattr $C$DW$122, DW_AT_type(*$C$DW$T$19)
    1028                      .dwattr $C$DW$122, DW_AT_name("GPIO29")
    1029                      .dwattr $C$DW$122, DW_AT_TI_symbol_name("_GPIO29")
    1030                      .dwattr $C$DW$122, DW_AT_bit_offset(0x02), DW_AT_bit_size(0x01)
    1031                      .dwattr $C$DW$122, DW_AT_data_member_location[DW_OP_plus_uconst 0x1]
    1032                      .dwattr $C$DW$122, DW_AT_accessibility(DW_ACCESS_public)
    1033              $C$DW$123       .dwtag  DW_TAG_member
    1034                      .dwattr $C$DW$123, DW_AT_type(*$C$DW$T$19)
    1035                      .dwattr $C$DW$123, DW_AT_name("GPIO30")
    1036                      .dwattr $C$DW$123, DW_AT_TI_symbol_name("_GPIO30")
    1037                      .dwattr $C$DW$123, DW_AT_bit_offset(0x01), DW_AT_bit_size(0x01)
    1038                      .dwattr $C$DW$123, DW_AT_data_member_location[DW_OP_plus_uconst 0x1]
    1039                      .dwattr $C$DW$123, DW_AT_accessibility(DW_ACCESS_public)
    1040              $C$DW$124       .dwtag  DW_TAG_member
    1041                      .dwattr $C$DW$124, DW_AT_type(*$C$DW$T$19)
    1042                      .dwattr $C$DW$124, DW_AT_name("GPIO31")
    1043                      .dwattr $C$DW$124, DW_AT_TI_symbol_name("_GPIO31")
    1044                      .dwattr $C$DW$124, DW_AT_bit_offset(0x00), DW_AT_bit_size(0x01)
    1045                      .dwattr $C$DW$124, DW_AT_data_member_location[DW_OP_plus_uconst 0x1]
    1046                      .dwattr $C$DW$124, DW_AT_accessibility(DW_ACCESS_public)
    1047                      .dwendtag $C$DW$T$25
    1048              
    1049              
    1050              $C$DW$T$26      .dwtag  DW_TAG_union_type
    1051                      .dwattr $C$DW$T$26, DW_AT_name("GPASET_REG")
    1052                      .dwattr $C$DW$T$26, DW_AT_byte_size(0x02)
    1053              $C$DW$125       .dwtag  DW_TAG_member
    1054                      .dwattr $C$DW$125, DW_AT_type(*$C$DW$T$21)
    1055                      .dwattr $C$DW$125, DW_AT_name("all")
    1056                      .dwattr $C$DW$125, DW_AT_TI_symbol_name("_all")
    1057                      .dwattr $C$DW$125, DW_AT_data_member_location[DW_OP_plus_uconst 0x0]
    1058                      .dwattr $C$DW$125, DW_AT_accessibility(DW_ACCESS_public)
    1059              $C$DW$126       .dwtag  DW_TAG_member
    1060                      .dwattr $C$DW$126, DW_AT_type(*$C$DW$T$25)
    1061                      .dwattr $C$DW$126, DW_AT_name("bit")
    1062                      .dwattr $C$DW$126, DW_AT_TI_symbol_name("_bit")
    1063                      .dwattr $C$DW$126, DW_AT_data_member_location[DW_OP_plus_uconst 0x0]
    1064                      .dwattr $C$DW$126, DW_AT_accessibility(DW_ACCESS_public)
    1065                      .dwendtag $C$DW$T$26
    1066              
    1067              
    1068              $C$DW$T$27      .dwtag  DW_TAG_structure_type
    1069                      .dwattr $C$DW$T$27, DW_AT_name("GPATOGGLE_BITS")
    1070                      .dwattr $C$DW$T$27, DW_AT_byte_size(0x02)
    1071              $C$DW$127       .dwtag  DW_TAG_member
    1072                      .dwattr $C$DW$127, DW_AT_type(*$C$DW$T$19)
    1073                      .dwattr $C$DW$127, DW_AT_name("GPIO0")
    1074                      .dwattr $C$DW$127, DW_AT_TI_symbol_name("_GPIO0")
    1075                      .dwattr $C$DW$127, DW_AT_bit_offset(0x0f), DW_AT_bit_size(0x01)
    1076                      .dwattr $C$DW$127, DW_AT_data_member_location[DW_OP_plus_uconst 0x0]
    1077                      .dwattr $C$DW$127, DW_AT_accessibility(DW_ACCESS_public)
    1078              $C$DW$128       .dwtag  DW_TAG_member
    1079                      .dwattr $C$DW$128, DW_AT_type(*$C$DW$T$19)
TMS320C2000 Assembler PC v6.1.3 Thu Jan 30 10:32:22 2014

Tools Copyright (c) 1996-2012 Texas Instruments Incorporated
C:\Users\a0272466\AppData\Local\Temp\0608410                         PAGE   21

    1080                      .dwattr $C$DW$128, DW_AT_name("GPIO1")
    1081                      .dwattr $C$DW$128, DW_AT_TI_symbol_name("_GPIO1")
    1082                      .dwattr $C$DW$128, DW_AT_bit_offset(0x0e), DW_AT_bit_size(0x01)
    1083                      .dwattr $C$DW$128, DW_AT_data_member_location[DW_OP_plus_uconst 0x0]
    1084                      .dwattr $C$DW$128, DW_AT_accessibility(DW_ACCESS_public)
    1085              $C$DW$129       .dwtag  DW_TAG_member
    1086                      .dwattr $C$DW$129, DW_AT_type(*$C$DW$T$19)
    1087                      .dwattr $C$DW$129, DW_AT_name("GPIO2")
    1088                      .dwattr $C$DW$129, DW_AT_TI_symbol_name("_GPIO2")
    1089                      .dwattr $C$DW$129, DW_AT_bit_offset(0x0d), DW_AT_bit_size(0x01)
    1090                      .dwattr $C$DW$129, DW_AT_data_member_location[DW_OP_plus_uconst 0x0]
    1091                      .dwattr $C$DW$129, DW_AT_accessibility(DW_ACCESS_public)
    1092              $C$DW$130       .dwtag  DW_TAG_member
    1093                      .dwattr $C$DW$130, DW_AT_type(*$C$DW$T$19)
    1094                      .dwattr $C$DW$130, DW_AT_name("GPIO3")
    1095                      .dwattr $C$DW$130, DW_AT_TI_symbol_name("_GPIO3")
    1096                      .dwattr $C$DW$130, DW_AT_bit_offset(0x0c), DW_AT_bit_size(0x01)
    1097                      .dwattr $C$DW$130, DW_AT_data_member_location[DW_OP_plus_uconst 0x0]
    1098                      .dwattr $C$DW$130, DW_AT_accessibility(DW_ACCESS_public)
    1099              $C$DW$131       .dwtag  DW_TAG_member
    1100                      .dwattr $C$DW$131, DW_AT_type(*$C$DW$T$19)
    1101                      .dwattr $C$DW$131, DW_AT_name("GPIO4")
    1102                      .dwattr $C$DW$131, DW_AT_TI_symbol_name("_GPIO4")
    1103                      .dwattr $C$DW$131, DW_AT_bit_offset(0x0b), DW_AT_bit_size(0x01)
    1104                      .dwattr $C$DW$131, DW_AT_data_member_location[DW_OP_plus_uconst 0x0]
    1105                      .dwattr $C$DW$131, DW_AT_accessibility(DW_ACCESS_public)
    1106              $C$DW$132       .dwtag  DW_TAG_member
    1107                      .dwattr $C$DW$132, DW_AT_type(*$C$DW$T$19)
    1108                      .dwattr $C$DW$132, DW_AT_name("GPIO5")
    1109                      .dwattr $C$DW$132, DW_AT_TI_symbol_name("_GPIO5")
    1110                      .dwattr $C$DW$132, DW_AT_bit_offset(0x0a), DW_AT_bit_size(0x01)
    1111                      .dwattr $C$DW$132, DW_AT_data_member_location[DW_OP_plus_uconst 0x0]
    1112                      .dwattr $C$DW$132, DW_AT_accessibility(DW_ACCESS_public)
    1113              $C$DW$133       .dwtag  DW_TAG_member
    1114                      .dwattr $C$DW$133, DW_AT_type(*$C$DW$T$19)
    1115                      .dwattr $C$DW$133, DW_AT_name("GPIO6")
    1116                      .dwattr $C$DW$133, DW_AT_TI_symbol_name("_GPIO6")
    1117                      .dwattr $C$DW$133, DW_AT_bit_offset(0x09), DW_AT_bit_size(0x01)
    1118                      .dwattr $C$DW$133, DW_AT_data_member_location[DW_OP_plus_uconst 0x0]
    1119                      .dwattr $C$DW$133, DW_AT_accessibility(DW_ACCESS_public)
    1120              $C$DW$134       .dwtag  DW_TAG_member
    1121                      .dwattr $C$DW$134, DW_AT_type(*$C$DW$T$19)
    1122                      .dwattr $C$DW$134, DW_AT_name("GPIO7")
    1123                      .dwattr $C$DW$134, DW_AT_TI_symbol_name("_GPIO7")
    1124                      .dwattr $C$DW$134, DW_AT_bit_offset(0x08), DW_AT_bit_size(0x01)
    1125                      .dwattr $C$DW$134, DW_AT_data_member_location[DW_OP_plus_uconst 0x0]
    1126                      .dwattr $C$DW$134, DW_AT_accessibility(DW_ACCESS_public)
    1127              $C$DW$135       .dwtag  DW_TAG_member
    1128                      .dwattr $C$DW$135, DW_AT_type(*$C$DW$T$19)
    1129                      .dwattr $C$DW$135, DW_AT_name("GPIO8")
    1130                      .dwattr $C$DW$135, DW_AT_TI_symbol_name("_GPIO8")
    1131                      .dwattr $C$DW$135, DW_AT_bit_offset(0x07), DW_AT_bit_size(0x01)
    1132                      .dwattr $C$DW$135, DW_AT_data_member_location[DW_OP_plus_uconst 0x0]
    1133                      .dwattr $C$DW$135, DW_AT_accessibility(DW_ACCESS_public)
    1134              $C$DW$136       .dwtag  DW_TAG_member
TMS320C2000 Assembler PC v6.1.3 Thu Jan 30 10:32:22 2014

Tools Copyright (c) 1996-2012 Texas Instruments Incorporated
C:\Users\a0272466\AppData\Local\Temp\0608410                         PAGE   22

    1135                      .dwattr $C$DW$136, DW_AT_type(*$C$DW$T$19)
    1136                      .dwattr $C$DW$136, DW_AT_name("GPIO9")
    1137                      .dwattr $C$DW$136, DW_AT_TI_symbol_name("_GPIO9")
    1138                      .dwattr $C$DW$136, DW_AT_bit_offset(0x06), DW_AT_bit_size(0x01)
    1139                      .dwattr $C$DW$136, DW_AT_data_member_location[DW_OP_plus_uconst 0x0]
    1140                      .dwattr $C$DW$136, DW_AT_accessibility(DW_ACCESS_public)
    1141              $C$DW$137       .dwtag  DW_TAG_member
    1142                      .dwattr $C$DW$137, DW_AT_type(*$C$DW$T$19)
    1143                      .dwattr $C$DW$137, DW_AT_name("GPIO10")
    1144                      .dwattr $C$DW$137, DW_AT_TI_symbol_name("_GPIO10")
    1145                      .dwattr $C$DW$137, DW_AT_bit_offset(0x05), DW_AT_bit_size(0x01)
    1146                      .dwattr $C$DW$137, DW_AT_data_member_location[DW_OP_plus_uconst 0x0]
    1147                      .dwattr $C$DW$137, DW_AT_accessibility(DW_ACCESS_public)
    1148              $C$DW$138       .dwtag  DW_TAG_member
    1149                      .dwattr $C$DW$138, DW_AT_type(*$C$DW$T$19)
    1150                      .dwattr $C$DW$138, DW_AT_name("GPIO11")
    1151                      .dwattr $C$DW$138, DW_AT_TI_symbol_name("_GPIO11")
    1152                      .dwattr $C$DW$138, DW_AT_bit_offset(0x04), DW_AT_bit_size(0x01)
    1153                      .dwattr $C$DW$138, DW_AT_data_member_location[DW_OP_plus_uconst 0x0]
    1154                      .dwattr $C$DW$138, DW_AT_accessibility(DW_ACCESS_public)
    1155              $C$DW$139       .dwtag  DW_TAG_member
    1156                      .dwattr $C$DW$139, DW_AT_type(*$C$DW$T$19)
    1157                      .dwattr $C$DW$139, DW_AT_name("GPIO12")
    1158                      .dwattr $C$DW$139, DW_AT_TI_symbol_name("_GPIO12")
    1159                      .dwattr $C$DW$139, DW_AT_bit_offset(0x03), DW_AT_bit_size(0x01)
    1160                      .dwattr $C$DW$139, DW_AT_data_member_location[DW_OP_plus_uconst 0x0]
    1161                      .dwattr $C$DW$139, DW_AT_accessibility(DW_ACCESS_public)
    1162              $C$DW$140       .dwtag  DW_TAG_member
    1163                      .dwattr $C$DW$140, DW_AT_type(*$C$DW$T$19)
    1164                      .dwattr $C$DW$140, DW_AT_name("GPIO13")
    1165                      .dwattr $C$DW$140, DW_AT_TI_symbol_name("_GPIO13")
    1166                      .dwattr $C$DW$140, DW_AT_bit_offset(0x02), DW_AT_bit_size(0x01)
    1167                      .dwattr $C$DW$140, DW_AT_data_member_location[DW_OP_plus_uconst 0x0]
    1168                      .dwattr $C$DW$140, DW_AT_accessibility(DW_ACCESS_public)
    1169              $C$DW$141       .dwtag  DW_TAG_member
    1170                      .dwattr $C$DW$141, DW_AT_type(*$C$DW$T$19)
    1171                      .dwattr $C$DW$141, DW_AT_name("GPIO14")
    1172                      .dwattr $C$DW$141, DW_AT_TI_symbol_name("_GPIO14")
    1173                      .dwattr $C$DW$141, DW_AT_bit_offset(0x01), DW_AT_bit_size(0x01)
    1174                      .dwattr $C$DW$141, DW_AT_data_member_location[DW_OP_plus_uconst 0x0]
    1175                      .dwattr $C$DW$141, DW_AT_accessibility(DW_ACCESS_public)
    1176              $C$DW$142       .dwtag  DW_TAG_member
    1177                      .dwattr $C$DW$142, DW_AT_type(*$C$DW$T$19)
    1178                      .dwattr $C$DW$142, DW_AT_name("GPIO15")
    1179                      .dwattr $C$DW$142, DW_AT_TI_symbol_name("_GPIO15")
    1180                      .dwattr $C$DW$142, DW_AT_bit_offset(0x00), DW_AT_bit_size(0x01)
    1181                      .dwattr $C$DW$142, DW_AT_data_member_location[DW_OP_plus_uconst 0x0]
    1182                      .dwattr $C$DW$142, DW_AT_accessibility(DW_ACCESS_public)
    1183              $C$DW$143       .dwtag  DW_TAG_member
    1184                      .dwattr $C$DW$143, DW_AT_type(*$C$DW$T$19)
    1185                      .dwattr $C$DW$143, DW_AT_name("GPIO16")
    1186                      .dwattr $C$DW$143, DW_AT_TI_symbol_name("_GPIO16")
    1187                      .dwattr $C$DW$143, DW_AT_bit_offset(0x0f), DW_AT_bit_size(0x01)
    1188                      .dwattr $C$DW$143, DW_AT_data_member_location[DW_OP_plus_uconst 0x1]
    1189                      .dwattr $C$DW$143, DW_AT_accessibility(DW_ACCESS_public)
TMS320C2000 Assembler PC v6.1.3 Thu Jan 30 10:32:22 2014

Tools Copyright (c) 1996-2012 Texas Instruments Incorporated
C:\Users\a0272466\AppData\Local\Temp\0608410                         PAGE   23

    1190              $C$DW$144       .dwtag  DW_TAG_member
    1191                      .dwattr $C$DW$144, DW_AT_type(*$C$DW$T$19)
    1192                      .dwattr $C$DW$144, DW_AT_name("GPIO17")
    1193                      .dwattr $C$DW$144, DW_AT_TI_symbol_name("_GPIO17")
    1194                      .dwattr $C$DW$144, DW_AT_bit_offset(0x0e), DW_AT_bit_size(0x01)
    1195                      .dwattr $C$DW$144, DW_AT_data_member_location[DW_OP_plus_uconst 0x1]
    1196                      .dwattr $C$DW$144, DW_AT_accessibility(DW_ACCESS_public)
    1197              $C$DW$145       .dwtag  DW_TAG_member
    1198                      .dwattr $C$DW$145, DW_AT_type(*$C$DW$T$19)
    1199                      .dwattr $C$DW$145, DW_AT_name("GPIO18")
    1200                      .dwattr $C$DW$145, DW_AT_TI_symbol_name("_GPIO18")
    1201                      .dwattr $C$DW$145, DW_AT_bit_offset(0x0d), DW_AT_bit_size(0x01)
    1202                      .dwattr $C$DW$145, DW_AT_data_member_location[DW_OP_plus_uconst 0x1]
    1203                      .dwattr $C$DW$145, DW_AT_accessibility(DW_ACCESS_public)
    1204              $C$DW$146       .dwtag  DW_TAG_member
    1205                      .dwattr $C$DW$146, DW_AT_type(*$C$DW$T$19)
    1206                      .dwattr $C$DW$146, DW_AT_name("GPIO19")
    1207                      .dwattr $C$DW$146, DW_AT_TI_symbol_name("_GPIO19")
    1208                      .dwattr $C$DW$146, DW_AT_bit_offset(0x0c), DW_AT_bit_size(0x01)
    1209                      .dwattr $C$DW$146, DW_AT_data_member_location[DW_OP_plus_uconst 0x1]
    1210                      .dwattr $C$DW$146, DW_AT_accessibility(DW_ACCESS_public)
    1211              $C$DW$147       .dwtag  DW_TAG_member
    1212                      .dwattr $C$DW$147, DW_AT_type(*$C$DW$T$19)
    1213                      .dwattr $C$DW$147, DW_AT_name("GPIO20")
    1214                      .dwattr $C$DW$147, DW_AT_TI_symbol_name("_GPIO20")
    1215                      .dwattr $C$DW$147, DW_AT_bit_offset(0x0b), DW_AT_bit_size(0x01)
    1216                      .dwattr $C$DW$147, DW_AT_data_member_location[DW_OP_plus_uconst 0x1]
    1217                      .dwattr $C$DW$147, DW_AT_accessibility(DW_ACCESS_public)
    1218              $C$DW$148       .dwtag  DW_TAG_member
    1219                      .dwattr $C$DW$148, DW_AT_type(*$C$DW$T$19)
    1220                      .dwattr $C$DW$148, DW_AT_name("GPIO21")
    1221                      .dwattr $C$DW$148, DW_AT_TI_symbol_name("_GPIO21")
    1222                      .dwattr $C$DW$148, DW_AT_bit_offset(0x0a), DW_AT_bit_size(0x01)
    1223                      .dwattr $C$DW$148, DW_AT_data_member_location[DW_OP_plus_uconst 0x1]
    1224                      .dwattr $C$DW$148, DW_AT_accessibility(DW_ACCESS_public)
    1225              $C$DW$149       .dwtag  DW_TAG_member
    1226                      .dwattr $C$DW$149, DW_AT_type(*$C$DW$T$19)
    1227                      .dwattr $C$DW$149, DW_AT_name("GPIO22")
    1228                      .dwattr $C$DW$149, DW_AT_TI_symbol_name("_GPIO22")
    1229                      .dwattr $C$DW$149, DW_AT_bit_offset(0x09), DW_AT_bit_size(0x01)
    1230                      .dwattr $C$DW$149, DW_AT_data_member_location[DW_OP_plus_uconst 0x1]
    1231                      .dwattr $C$DW$149, DW_AT_accessibility(DW_ACCESS_public)
    1232              $C$DW$150       .dwtag  DW_TAG_member
    1233                      .dwattr $C$DW$150, DW_AT_type(*$C$DW$T$19)
    1234                      .dwattr $C$DW$150, DW_AT_name("GPIO23")
    1235                      .dwattr $C$DW$150, DW_AT_TI_symbol_name("_GPIO23")
    1236                      .dwattr $C$DW$150, DW_AT_bit_offset(0x08), DW_AT_bit_size(0x01)
    1237                      .dwattr $C$DW$150, DW_AT_data_member_location[DW_OP_plus_uconst 0x1]
    1238                      .dwattr $C$DW$150, DW_AT_accessibility(DW_ACCESS_public)
    1239              $C$DW$151       .dwtag  DW_TAG_member
    1240                      .dwattr $C$DW$151, DW_AT_type(*$C$DW$T$19)
    1241                      .dwattr $C$DW$151, DW_AT_name("GPIO24")
    1242                      .dwattr $C$DW$151, DW_AT_TI_symbol_name("_GPIO24")
    1243                      .dwattr $C$DW$151, DW_AT_bit_offset(0x07), DW_AT_bit_size(0x01)
    1244                      .dwattr $C$DW$151, DW_AT_data_member_location[DW_OP_plus_uconst 0x1]
TMS320C2000 Assembler PC v6.1.3 Thu Jan 30 10:32:22 2014

Tools Copyright (c) 1996-2012 Texas Instruments Incorporated
C:\Users\a0272466\AppData\Local\Temp\0608410                         PAGE   24

    1245                      .dwattr $C$DW$151, DW_AT_accessibility(DW_ACCESS_public)
    1246              $C$DW$152       .dwtag  DW_TAG_member
    1247                      .dwattr $C$DW$152, DW_AT_type(*$C$DW$T$19)
    1248                      .dwattr $C$DW$152, DW_AT_name("GPIO25")
    1249                      .dwattr $C$DW$152, DW_AT_TI_symbol_name("_GPIO25")
    1250                      .dwattr $C$DW$152, DW_AT_bit_offset(0x06), DW_AT_bit_size(0x01)
    1251                      .dwattr $C$DW$152, DW_AT_data_member_location[DW_OP_plus_uconst 0x1]
    1252                      .dwattr $C$DW$152, DW_AT_accessibility(DW_ACCESS_public)
    1253              $C$DW$153       .dwtag  DW_TAG_member
    1254                      .dwattr $C$DW$153, DW_AT_type(*$C$DW$T$19)
    1255                      .dwattr $C$DW$153, DW_AT_name("GPIO26")
    1256                      .dwattr $C$DW$153, DW_AT_TI_symbol_name("_GPIO26")
    1257                      .dwattr $C$DW$153, DW_AT_bit_offset(0x05), DW_AT_bit_size(0x01)
    1258                      .dwattr $C$DW$153, DW_AT_data_member_location[DW_OP_plus_uconst 0x1]
    1259                      .dwattr $C$DW$153, DW_AT_accessibility(DW_ACCESS_public)
    1260              $C$DW$154       .dwtag  DW_TAG_member
    1261                      .dwattr $C$DW$154, DW_AT_type(*$C$DW$T$19)
    1262                      .dwattr $C$DW$154, DW_AT_name("GPIO27")
    1263                      .dwattr $C$DW$154, DW_AT_TI_symbol_name("_GPIO27")
    1264                      .dwattr $C$DW$154, DW_AT_bit_offset(0x04), DW_AT_bit_size(0x01)
    1265                      .dwattr $C$DW$154, DW_AT_data_member_location[DW_OP_plus_uconst 0x1]
    1266                      .dwattr $C$DW$154, DW_AT_accessibility(DW_ACCESS_public)
    1267              $C$DW$155       .dwtag  DW_TAG_member
    1268                      .dwattr $C$DW$155, DW_AT_type(*$C$DW$T$19)
    1269                      .dwattr $C$DW$155, DW_AT_name("GPIO28")
    1270                      .dwattr $C$DW$155, DW_AT_TI_symbol_name("_GPIO28")
    1271                      .dwattr $C$DW$155, DW_AT_bit_offset(0x03), DW_AT_bit_size(0x01)
    1272                      .dwattr $C$DW$155, DW_AT_data_member_location[DW_OP_plus_uconst 0x1]
    1273                      .dwattr $C$DW$155, DW_AT_accessibility(DW_ACCESS_public)
    1274              $C$DW$156       .dwtag  DW_TAG_member
    1275                      .dwattr $C$DW$156, DW_AT_type(*$C$DW$T$19)
    1276                      .dwattr $C$DW$156, DW_AT_name("GPIO29")
    1277                      .dwattr $C$DW$156, DW_AT_TI_symbol_name("_GPIO29")
    1278                      .dwattr $C$DW$156, DW_AT_bit_offset(0x02), DW_AT_bit_size(0x01)
    1279                      .dwattr $C$DW$156, DW_AT_data_member_location[DW_OP_plus_uconst 0x1]
    1280                      .dwattr $C$DW$156, DW_AT_accessibility(DW_ACCESS_public)
    1281              $C$DW$157       .dwtag  DW_TAG_member
    1282                      .dwattr $C$DW$157, DW_AT_type(*$C$DW$T$19)
    1283                      .dwattr $C$DW$157, DW_AT_name("GPIO30")
    1284                      .dwattr $C$DW$157, DW_AT_TI_symbol_name("_GPIO30")
    1285                      .dwattr $C$DW$157, DW_AT_bit_offset(0x01), DW_AT_bit_size(0x01)
    1286                      .dwattr $C$DW$157, DW_AT_data_member_location[DW_OP_plus_uconst 0x1]
    1287                      .dwattr $C$DW$157, DW_AT_accessibility(DW_ACCESS_public)
    1288              $C$DW$158       .dwtag  DW_TAG_member
    1289                      .dwattr $C$DW$158, DW_AT_type(*$C$DW$T$19)
    1290                      .dwattr $C$DW$158, DW_AT_name("GPIO31")
    1291                      .dwattr $C$DW$158, DW_AT_TI_symbol_name("_GPIO31")
    1292                      .dwattr $C$DW$158, DW_AT_bit_offset(0x00), DW_AT_bit_size(0x01)
    1293                      .dwattr $C$DW$158, DW_AT_data_member_location[DW_OP_plus_uconst 0x1]
    1294                      .dwattr $C$DW$158, DW_AT_accessibility(DW_ACCESS_public)
    1295                      .dwendtag $C$DW$T$27
    1296              
    1297              
    1298              $C$DW$T$28      .dwtag  DW_TAG_union_type
    1299                      .dwattr $C$DW$T$28, DW_AT_name("GPATOGGLE_REG")
TMS320C2000 Assembler PC v6.1.3 Thu Jan 30 10:32:22 2014

Tools Copyright (c) 1996-2012 Texas Instruments Incorporated
C:\Users\a0272466\AppData\Local\Temp\0608410                         PAGE   25

    1300                      .dwattr $C$DW$T$28, DW_AT_byte_size(0x02)
    1301              $C$DW$159       .dwtag  DW_TAG_member
    1302                      .dwattr $C$DW$159, DW_AT_type(*$C$DW$T$21)
    1303                      .dwattr $C$DW$159, DW_AT_name("all")
    1304                      .dwattr $C$DW$159, DW_AT_TI_symbol_name("_all")
    1305                      .dwattr $C$DW$159, DW_AT_data_member_location[DW_OP_plus_uconst 0x0]
    1306                      .dwattr $C$DW$159, DW_AT_accessibility(DW_ACCESS_public)
    1307              $C$DW$160       .dwtag  DW_TAG_member
    1308                      .dwattr $C$DW$160, DW_AT_type(*$C$DW$T$27)
    1309                      .dwattr $C$DW$160, DW_AT_name("bit")
    1310                      .dwattr $C$DW$160, DW_AT_TI_symbol_name("_bit")
    1311                      .dwattr $C$DW$160, DW_AT_data_member_location[DW_OP_plus_uconst 0x0]
    1312                      .dwattr $C$DW$160, DW_AT_accessibility(DW_ACCESS_public)
    1313                      .dwendtag $C$DW$T$28
    1314              
    1315              
    1316              $C$DW$T$29      .dwtag  DW_TAG_structure_type
    1317                      .dwattr $C$DW$T$29, DW_AT_name("GPBCLEAR_BITS")
    1318                      .dwattr $C$DW$T$29, DW_AT_byte_size(0x02)
    1319              $C$DW$161       .dwtag  DW_TAG_member
    1320                      .dwattr $C$DW$161, DW_AT_type(*$C$DW$T$19)
    1321                      .dwattr $C$DW$161, DW_AT_name("GPIO32")
    1322                      .dwattr $C$DW$161, DW_AT_TI_symbol_name("_GPIO32")
    1323                      .dwattr $C$DW$161, DW_AT_bit_offset(0x0f), DW_AT_bit_size(0x01)
    1324                      .dwattr $C$DW$161, DW_AT_data_member_location[DW_OP_plus_uconst 0x0]
    1325                      .dwattr $C$DW$161, DW_AT_accessibility(DW_ACCESS_public)
    1326              $C$DW$162       .dwtag  DW_TAG_member
    1327                      .dwattr $C$DW$162, DW_AT_type(*$C$DW$T$19)
    1328                      .dwattr $C$DW$162, DW_AT_name("GPIO33")
    1329                      .dwattr $C$DW$162, DW_AT_TI_symbol_name("_GPIO33")
    1330                      .dwattr $C$DW$162, DW_AT_bit_offset(0x0e), DW_AT_bit_size(0x01)
    1331                      .dwattr $C$DW$162, DW_AT_data_member_location[DW_OP_plus_uconst 0x0]
    1332                      .dwattr $C$DW$162, DW_AT_accessibility(DW_ACCESS_public)
    1333              $C$DW$163       .dwtag  DW_TAG_member
    1334                      .dwattr $C$DW$163, DW_AT_type(*$C$DW$T$19)
    1335                      .dwattr $C$DW$163, DW_AT_name("GPIO34")
    1336                      .dwattr $C$DW$163, DW_AT_TI_symbol_name("_GPIO34")
    1337                      .dwattr $C$DW$163, DW_AT_bit_offset(0x0d), DW_AT_bit_size(0x01)
    1338                      .dwattr $C$DW$163, DW_AT_data_member_location[DW_OP_plus_uconst 0x0]
    1339                      .dwattr $C$DW$163, DW_AT_accessibility(DW_ACCESS_public)
    1340              $C$DW$164       .dwtag  DW_TAG_member
    1341                      .dwattr $C$DW$164, DW_AT_type(*$C$DW$T$19)
    1342                      .dwattr $C$DW$164, DW_AT_name("GPIO35")
    1343                      .dwattr $C$DW$164, DW_AT_TI_symbol_name("_GPIO35")
    1344                      .dwattr $C$DW$164, DW_AT_bit_offset(0x0c), DW_AT_bit_size(0x01)
    1345                      .dwattr $C$DW$164, DW_AT_data_member_location[DW_OP_plus_uconst 0x0]
    1346                      .dwattr $C$DW$164, DW_AT_accessibility(DW_ACCESS_public)
    1347              $C$DW$165       .dwtag  DW_TAG_member
    1348                      .dwattr $C$DW$165, DW_AT_type(*$C$DW$T$19)
    1349                      .dwattr $C$DW$165, DW_AT_name("GPIO36")
    1350                      .dwattr $C$DW$165, DW_AT_TI_symbol_name("_GPIO36")
    1351                      .dwattr $C$DW$165, DW_AT_bit_offset(0x0b), DW_AT_bit_size(0x01)
    1352                      .dwattr $C$DW$165, DW_AT_data_member_location[DW_OP_plus_uconst 0x0]
    1353                      .dwattr $C$DW$165, DW_AT_accessibility(DW_ACCESS_public)
    1354              $C$DW$166       .dwtag  DW_TAG_member
TMS320C2000 Assembler PC v6.1.3 Thu Jan 30 10:32:22 2014

Tools Copyright (c) 1996-2012 Texas Instruments Incorporated
C:\Users\a0272466\AppData\Local\Temp\0608410                         PAGE   26

    1355                      .dwattr $C$DW$166, DW_AT_type(*$C$DW$T$19)
    1356                      .dwattr $C$DW$166, DW_AT_name("GPIO37")
    1357                      .dwattr $C$DW$166, DW_AT_TI_symbol_name("_GPIO37")
    1358                      .dwattr $C$DW$166, DW_AT_bit_offset(0x0a), DW_AT_bit_size(0x01)
    1359                      .dwattr $C$DW$166, DW_AT_data_member_location[DW_OP_plus_uconst 0x0]
    1360                      .dwattr $C$DW$166, DW_AT_accessibility(DW_ACCESS_public)
    1361              $C$DW$167       .dwtag  DW_TAG_member
    1362                      .dwattr $C$DW$167, DW_AT_type(*$C$DW$T$19)
    1363                      .dwattr $C$DW$167, DW_AT_name("GPIO38")
    1364                      .dwattr $C$DW$167, DW_AT_TI_symbol_name("_GPIO38")
    1365                      .dwattr $C$DW$167, DW_AT_bit_offset(0x09), DW_AT_bit_size(0x01)
    1366                      .dwattr $C$DW$167, DW_AT_data_member_location[DW_OP_plus_uconst 0x0]
    1367                      .dwattr $C$DW$167, DW_AT_accessibility(DW_ACCESS_public)
    1368              $C$DW$168       .dwtag  DW_TAG_member
    1369                      .dwattr $C$DW$168, DW_AT_type(*$C$DW$T$19)
    1370                      .dwattr $C$DW$168, DW_AT_name("GPIO39")
    1371                      .dwattr $C$DW$168, DW_AT_TI_symbol_name("_GPIO39")
    1372                      .dwattr $C$DW$168, DW_AT_bit_offset(0x08), DW_AT_bit_size(0x01)
    1373                      .dwattr $C$DW$168, DW_AT_data_member_location[DW_OP_plus_uconst 0x0]
    1374                      .dwattr $C$DW$168, DW_AT_accessibility(DW_ACCESS_public)
    1375              $C$DW$169       .dwtag  DW_TAG_member
    1376                      .dwattr $C$DW$169, DW_AT_type(*$C$DW$T$19)
    1377                      .dwattr $C$DW$169, DW_AT_name("GPIO40")
    1378                      .dwattr $C$DW$169, DW_AT_TI_symbol_name("_GPIO40")
    1379                      .dwattr $C$DW$169, DW_AT_bit_offset(0x07), DW_AT_bit_size(0x01)
    1380                      .dwattr $C$DW$169, DW_AT_data_member_location[DW_OP_plus_uconst 0x0]
    1381                      .dwattr $C$DW$169, DW_AT_accessibility(DW_ACCESS_public)
    1382              $C$DW$170       .dwtag  DW_TAG_member
    1383                      .dwattr $C$DW$170, DW_AT_type(*$C$DW$T$19)
    1384                      .dwattr $C$DW$170, DW_AT_name("GPIO41")
    1385                      .dwattr $C$DW$170, DW_AT_TI_symbol_name("_GPIO41")
    1386                      .dwattr $C$DW$170, DW_AT_bit_offset(0x06), DW_AT_bit_size(0x01)
    1387                      .dwattr $C$DW$170, DW_AT_data_member_location[DW_OP_plus_uconst 0x0]
    1388                      .dwattr $C$DW$170, DW_AT_accessibility(DW_ACCESS_public)
    1389              $C$DW$171       .dwtag  DW_TAG_member
    1390                      .dwattr $C$DW$171, DW_AT_type(*$C$DW$T$19)
    1391                      .dwattr $C$DW$171, DW_AT_name("GPIO42")
    1392                      .dwattr $C$DW$171, DW_AT_TI_symbol_name("_GPIO42")
    1393                      .dwattr $C$DW$171, DW_AT_bit_offset(0x05), DW_AT_bit_size(0x01)
    1394                      .dwattr $C$DW$171, DW_AT_data_member_location[DW_OP_plus_uconst 0x0]
    1395                      .dwattr $C$DW$171, DW_AT_accessibility(DW_ACCESS_public)
    1396              $C$DW$172       .dwtag  DW_TAG_member
    1397                      .dwattr $C$DW$172, DW_AT_type(*$C$DW$T$19)
    1398                      .dwattr $C$DW$172, DW_AT_name("GPIO43")
    1399                      .dwattr $C$DW$172, DW_AT_TI_symbol_name("_GPIO43")
    1400                      .dwattr $C$DW$172, DW_AT_bit_offset(0x04), DW_AT_bit_size(0x01)
    1401                      .dwattr $C$DW$172, DW_AT_data_member_location[DW_OP_plus_uconst 0x0]
    1402                      .dwattr $C$DW$172, DW_AT_accessibility(DW_ACCESS_public)
    1403              $C$DW$173       .dwtag  DW_TAG_member
    1404                      .dwattr $C$DW$173, DW_AT_type(*$C$DW$T$19)
    1405                      .dwattr $C$DW$173, DW_AT_name("GPIO44")
    1406                      .dwattr $C$DW$173, DW_AT_TI_symbol_name("_GPIO44")
    1407                      .dwattr $C$DW$173, DW_AT_bit_offset(0x03), DW_AT_bit_size(0x01)
    1408                      .dwattr $C$DW$173, DW_AT_data_member_location[DW_OP_plus_uconst 0x0]
    1409                      .dwattr $C$DW$173, DW_AT_accessibility(DW_ACCESS_public)
TMS320C2000 Assembler PC v6.1.3 Thu Jan 30 10:32:22 2014

Tools Copyright (c) 1996-2012 Texas Instruments Incorporated
C:\Users\a0272466\AppData\Local\Temp\0608410                         PAGE   27

    1410              $C$DW$174       .dwtag  DW_TAG_member
    1411                      .dwattr $C$DW$174, DW_AT_type(*$C$DW$T$19)
    1412                      .dwattr $C$DW$174, DW_AT_name("GPIO45")
    1413                      .dwattr $C$DW$174, DW_AT_TI_symbol_name("_GPIO45")
    1414                      .dwattr $C$DW$174, DW_AT_bit_offset(0x02), DW_AT_bit_size(0x01)
    1415                      .dwattr $C$DW$174, DW_AT_data_member_location[DW_OP_plus_uconst 0x0]
    1416                      .dwattr $C$DW$174, DW_AT_accessibility(DW_ACCESS_public)
    1417              $C$DW$175       .dwtag  DW_TAG_member
    1418                      .dwattr $C$DW$175, DW_AT_type(*$C$DW$T$19)
    1419                      .dwattr $C$DW$175, DW_AT_name("GPIO46")
    1420                      .dwattr $C$DW$175, DW_AT_TI_symbol_name("_GPIO46")
    1421                      .dwattr $C$DW$175, DW_AT_bit_offset(0x01), DW_AT_bit_size(0x01)
    1422                      .dwattr $C$DW$175, DW_AT_data_member_location[DW_OP_plus_uconst 0x0]
    1423                      .dwattr $C$DW$175, DW_AT_accessibility(DW_ACCESS_public)
    1424              $C$DW$176       .dwtag  DW_TAG_member
    1425                      .dwattr $C$DW$176, DW_AT_type(*$C$DW$T$19)
    1426                      .dwattr $C$DW$176, DW_AT_name("GPIO47")
    1427                      .dwattr $C$DW$176, DW_AT_TI_symbol_name("_GPIO47")
    1428                      .dwattr $C$DW$176, DW_AT_bit_offset(0x00), DW_AT_bit_size(0x01)
    1429                      .dwattr $C$DW$176, DW_AT_data_member_location[DW_OP_plus_uconst 0x0]
    1430                      .dwattr $C$DW$176, DW_AT_accessibility(DW_ACCESS_public)
    1431              $C$DW$177       .dwtag  DW_TAG_member
    1432                      .dwattr $C$DW$177, DW_AT_type(*$C$DW$T$19)
    1433                      .dwattr $C$DW$177, DW_AT_name("GPIO48")
    1434                      .dwattr $C$DW$177, DW_AT_TI_symbol_name("_GPIO48")
    1435                      .dwattr $C$DW$177, DW_AT_bit_offset(0x0f), DW_AT_bit_size(0x01)
    1436                      .dwattr $C$DW$177, DW_AT_data_member_location[DW_OP_plus_uconst 0x1]
    1437                      .dwattr $C$DW$177, DW_AT_accessibility(DW_ACCESS_public)
    1438              $C$DW$178       .dwtag  DW_TAG_member
    1439                      .dwattr $C$DW$178, DW_AT_type(*$C$DW$T$19)
    1440                      .dwattr $C$DW$178, DW_AT_name("GPIO49")
    1441                      .dwattr $C$DW$178, DW_AT_TI_symbol_name("_GPIO49")
    1442                      .dwattr $C$DW$178, DW_AT_bit_offset(0x0e), DW_AT_bit_size(0x01)
    1443                      .dwattr $C$DW$178, DW_AT_data_member_location[DW_OP_plus_uconst 0x1]
    1444                      .dwattr $C$DW$178, DW_AT_accessibility(DW_ACCESS_public)
    1445              $C$DW$179       .dwtag  DW_TAG_member
    1446                      .dwattr $C$DW$179, DW_AT_type(*$C$DW$T$19)
    1447                      .dwattr $C$DW$179, DW_AT_name("GPIO50")
    1448                      .dwattr $C$DW$179, DW_AT_TI_symbol_name("_GPIO50")
    1449                      .dwattr $C$DW$179, DW_AT_bit_offset(0x0d), DW_AT_bit_size(0x01)
    1450                      .dwattr $C$DW$179, DW_AT_data_member_location[DW_OP_plus_uconst 0x1]
    1451                      .dwattr $C$DW$179, DW_AT_accessibility(DW_ACCESS_public)
    1452              $C$DW$180       .dwtag  DW_TAG_member
    1453                      .dwattr $C$DW$180, DW_AT_type(*$C$DW$T$19)
    1454                      .dwattr $C$DW$180, DW_AT_name("GPIO51")
    1455                      .dwattr $C$DW$180, DW_AT_TI_symbol_name("_GPIO51")
    1456                      .dwattr $C$DW$180, DW_AT_bit_offset(0x0c), DW_AT_bit_size(0x01)
    1457                      .dwattr $C$DW$180, DW_AT_data_member_location[DW_OP_plus_uconst 0x1]
    1458                      .dwattr $C$DW$180, DW_AT_accessibility(DW_ACCESS_public)
    1459              $C$DW$181       .dwtag  DW_TAG_member
    1460                      .dwattr $C$DW$181, DW_AT_type(*$C$DW$T$19)
    1461                      .dwattr $C$DW$181, DW_AT_name("GPIO52")
    1462                      .dwattr $C$DW$181, DW_AT_TI_symbol_name("_GPIO52")
    1463                      .dwattr $C$DW$181, DW_AT_bit_offset(0x0b), DW_AT_bit_size(0x01)
    1464                      .dwattr $C$DW$181, DW_AT_data_member_location[DW_OP_plus_uconst 0x1]
TMS320C2000 Assembler PC v6.1.3 Thu Jan 30 10:32:22 2014

Tools Copyright (c) 1996-2012 Texas Instruments Incorporated
C:\Users\a0272466\AppData\Local\Temp\0608410                         PAGE   28

    1465                      .dwattr $C$DW$181, DW_AT_accessibility(DW_ACCESS_public)
    1466              $C$DW$182       .dwtag  DW_TAG_member
    1467                      .dwattr $C$DW$182, DW_AT_type(*$C$DW$T$19)
    1468                      .dwattr $C$DW$182, DW_AT_name("GPIO53")
    1469                      .dwattr $C$DW$182, DW_AT_TI_symbol_name("_GPIO53")
    1470                      .dwattr $C$DW$182, DW_AT_bit_offset(0x0a), DW_AT_bit_size(0x01)
    1471                      .dwattr $C$DW$182, DW_AT_data_member_location[DW_OP_plus_uconst 0x1]
    1472                      .dwattr $C$DW$182, DW_AT_accessibility(DW_ACCESS_public)
    1473              $C$DW$183       .dwtag  DW_TAG_member
    1474                      .dwattr $C$DW$183, DW_AT_type(*$C$DW$T$19)
    1475                      .dwattr $C$DW$183, DW_AT_name("GPIO54")
    1476                      .dwattr $C$DW$183, DW_AT_TI_symbol_name("_GPIO54")
    1477                      .dwattr $C$DW$183, DW_AT_bit_offset(0x09), DW_AT_bit_size(0x01)
    1478                      .dwattr $C$DW$183, DW_AT_data_member_location[DW_OP_plus_uconst 0x1]
    1479                      .dwattr $C$DW$183, DW_AT_accessibility(DW_ACCESS_public)
    1480              $C$DW$184       .dwtag  DW_TAG_member
    1481                      .dwattr $C$DW$184, DW_AT_type(*$C$DW$T$19)
    1482                      .dwattr $C$DW$184, DW_AT_name("GPIO55")
    1483                      .dwattr $C$DW$184, DW_AT_TI_symbol_name("_GPIO55")
    1484                      .dwattr $C$DW$184, DW_AT_bit_offset(0x08), DW_AT_bit_size(0x01)
    1485                      .dwattr $C$DW$184, DW_AT_data_member_location[DW_OP_plus_uconst 0x1]
    1486                      .dwattr $C$DW$184, DW_AT_accessibility(DW_ACCESS_public)
    1487              $C$DW$185       .dwtag  DW_TAG_member
    1488                      .dwattr $C$DW$185, DW_AT_type(*$C$DW$T$19)
    1489                      .dwattr $C$DW$185, DW_AT_name("GPIO56")
    1490                      .dwattr $C$DW$185, DW_AT_TI_symbol_name("_GPIO56")
    1491                      .dwattr $C$DW$185, DW_AT_bit_offset(0x07), DW_AT_bit_size(0x01)
    1492                      .dwattr $C$DW$185, DW_AT_data_member_location[DW_OP_plus_uconst 0x1]
    1493                      .dwattr $C$DW$185, DW_AT_accessibility(DW_ACCESS_public)
    1494              $C$DW$186       .dwtag  DW_TAG_member
    1495                      .dwattr $C$DW$186, DW_AT_type(*$C$DW$T$19)
    1496                      .dwattr $C$DW$186, DW_AT_name("GPIO57")
    1497                      .dwattr $C$DW$186, DW_AT_TI_symbol_name("_GPIO57")
    1498                      .dwattr $C$DW$186, DW_AT_bit_offset(0x06), DW_AT_bit_size(0x01)
    1499                      .dwattr $C$DW$186, DW_AT_data_member_location[DW_OP_plus_uconst 0x1]
    1500                      .dwattr $C$DW$186, DW_AT_accessibility(DW_ACCESS_public)
    1501              $C$DW$187       .dwtag  DW_TAG_member
    1502                      .dwattr $C$DW$187, DW_AT_type(*$C$DW$T$19)
    1503                      .dwattr $C$DW$187, DW_AT_name("GPIO58")
    1504                      .dwattr $C$DW$187, DW_AT_TI_symbol_name("_GPIO58")
    1505                      .dwattr $C$DW$187, DW_AT_bit_offset(0x05), DW_AT_bit_size(0x01)
    1506                      .dwattr $C$DW$187, DW_AT_data_member_location[DW_OP_plus_uconst 0x1]
    1507                      .dwattr $C$DW$187, DW_AT_accessibility(DW_ACCESS_public)
    1508              $C$DW$188       .dwtag  DW_TAG_member
    1509                      .dwattr $C$DW$188, DW_AT_type(*$C$DW$T$19)
    1510                      .dwattr $C$DW$188, DW_AT_name("GPIO59")
    1511                      .dwattr $C$DW$188, DW_AT_TI_symbol_name("_GPIO59")
    1512                      .dwattr $C$DW$188, DW_AT_bit_offset(0x04), DW_AT_bit_size(0x01)
    1513                      .dwattr $C$DW$188, DW_AT_data_member_location[DW_OP_plus_uconst 0x1]
    1514                      .dwattr $C$DW$188, DW_AT_accessibility(DW_ACCESS_public)
    1515              $C$DW$189       .dwtag  DW_TAG_member
    1516                      .dwattr $C$DW$189, DW_AT_type(*$C$DW$T$19)
    1517                      .dwattr $C$DW$189, DW_AT_name("GPIO60")
    1518                      .dwattr $C$DW$189, DW_AT_TI_symbol_name("_GPIO60")
    1519                      .dwattr $C$DW$189, DW_AT_bit_offset(0x03), DW_AT_bit_size(0x01)
TMS320C2000 Assembler PC v6.1.3 Thu Jan 30 10:32:22 2014

Tools Copyright (c) 1996-2012 Texas Instruments Incorporated
C:\Users\a0272466\AppData\Local\Temp\0608410                         PAGE   29

    1520                      .dwattr $C$DW$189, DW_AT_data_member_location[DW_OP_plus_uconst 0x1]
    1521                      .dwattr $C$DW$189, DW_AT_accessibility(DW_ACCESS_public)
    1522              $C$DW$190       .dwtag  DW_TAG_member
    1523                      .dwattr $C$DW$190, DW_AT_type(*$C$DW$T$19)
    1524                      .dwattr $C$DW$190, DW_AT_name("GPIO61")
    1525                      .dwattr $C$DW$190, DW_AT_TI_symbol_name("_GPIO61")
    1526                      .dwattr $C$DW$190, DW_AT_bit_offset(0x02), DW_AT_bit_size(0x01)
    1527                      .dwattr $C$DW$190, DW_AT_data_member_location[DW_OP_plus_uconst 0x1]
    1528                      .dwattr $C$DW$190, DW_AT_accessibility(DW_ACCESS_public)
    1529              $C$DW$191       .dwtag  DW_TAG_member
    1530                      .dwattr $C$DW$191, DW_AT_type(*$C$DW$T$19)
    1531                      .dwattr $C$DW$191, DW_AT_name("GPIO62")
    1532                      .dwattr $C$DW$191, DW_AT_TI_symbol_name("_GPIO62")
    1533                      .dwattr $C$DW$191, DW_AT_bit_offset(0x01), DW_AT_bit_size(0x01)
    1534                      .dwattr $C$DW$191, DW_AT_data_member_location[DW_OP_plus_uconst 0x1]
    1535                      .dwattr $C$DW$191, DW_AT_accessibility(DW_ACCESS_public)
    1536              $C$DW$192       .dwtag  DW_TAG_member
    1537                      .dwattr $C$DW$192, DW_AT_type(*$C$DW$T$19)
    1538                      .dwattr $C$DW$192, DW_AT_name("GPIO63")
    1539                      .dwattr $C$DW$192, DW_AT_TI_symbol_name("_GPIO63")
    1540                      .dwattr $C$DW$192, DW_AT_bit_offset(0x00), DW_AT_bit_size(0x01)
    1541                      .dwattr $C$DW$192, DW_AT_data_member_location[DW_OP_plus_uconst 0x1]
    1542                      .dwattr $C$DW$192, DW_AT_accessibility(DW_ACCESS_public)
    1543                      .dwendtag $C$DW$T$29
    1544              
    1545              
    1546              $C$DW$T$30      .dwtag  DW_TAG_union_type
    1547                      .dwattr $C$DW$T$30, DW_AT_name("GPBCLEAR_REG")
    1548                      .dwattr $C$DW$T$30, DW_AT_byte_size(0x02)
    1549              $C$DW$193       .dwtag  DW_TAG_member
    1550                      .dwattr $C$DW$193, DW_AT_type(*$C$DW$T$21)
    1551                      .dwattr $C$DW$193, DW_AT_name("all")
    1552                      .dwattr $C$DW$193, DW_AT_TI_symbol_name("_all")
    1553                      .dwattr $C$DW$193, DW_AT_data_member_location[DW_OP_plus_uconst 0x0]
    1554                      .dwattr $C$DW$193, DW_AT_accessibility(DW_ACCESS_public)
    1555              $C$DW$194       .dwtag  DW_TAG_member
    1556                      .dwattr $C$DW$194, DW_AT_type(*$C$DW$T$29)
    1557                      .dwattr $C$DW$194, DW_AT_name("bit")
    1558                      .dwattr $C$DW$194, DW_AT_TI_symbol_name("_bit")
    1559                      .dwattr $C$DW$194, DW_AT_data_member_location[DW_OP_plus_uconst 0x0]
    1560                      .dwattr $C$DW$194, DW_AT_accessibility(DW_ACCESS_public)
    1561                      .dwendtag $C$DW$T$30
    1562              
    1563              
    1564              $C$DW$T$31      .dwtag  DW_TAG_structure_type
    1565                      .dwattr $C$DW$T$31, DW_AT_name("GPBDAT_BITS")
    1566                      .dwattr $C$DW$T$31, DW_AT_byte_size(0x02)
    1567              $C$DW$195       .dwtag  DW_TAG_member
    1568                      .dwattr $C$DW$195, DW_AT_type(*$C$DW$T$19)
    1569                      .dwattr $C$DW$195, DW_AT_name("GPIO32")
    1570                      .dwattr $C$DW$195, DW_AT_TI_symbol_name("_GPIO32")
    1571                      .dwattr $C$DW$195, DW_AT_bit_offset(0x0f), DW_AT_bit_size(0x01)
    1572                      .dwattr $C$DW$195, DW_AT_data_member_location[DW_OP_plus_uconst 0x0]
    1573                      .dwattr $C$DW$195, DW_AT_accessibility(DW_ACCESS_public)
    1574              $C$DW$196       .dwtag  DW_TAG_member
TMS320C2000 Assembler PC v6.1.3 Thu Jan 30 10:32:22 2014

Tools Copyright (c) 1996-2012 Texas Instruments Incorporated
C:\Users\a0272466\AppData\Local\Temp\0608410                         PAGE   30

    1575                      .dwattr $C$DW$196, DW_AT_type(*$C$DW$T$19)
    1576                      .dwattr $C$DW$196, DW_AT_name("GPIO33")
    1577                      .dwattr $C$DW$196, DW_AT_TI_symbol_name("_GPIO33")
    1578                      .dwattr $C$DW$196, DW_AT_bit_offset(0x0e), DW_AT_bit_size(0x01)
    1579                      .dwattr $C$DW$196, DW_AT_data_member_location[DW_OP_plus_uconst 0x0]
    1580                      .dwattr $C$DW$196, DW_AT_accessibility(DW_ACCESS_public)
    1581              $C$DW$197       .dwtag  DW_TAG_member
    1582                      .dwattr $C$DW$197, DW_AT_type(*$C$DW$T$19)
    1583                      .dwattr $C$DW$197, DW_AT_name("GPIO34")
    1584                      .dwattr $C$DW$197, DW_AT_TI_symbol_name("_GPIO34")
    1585                      .dwattr $C$DW$197, DW_AT_bit_offset(0x0d), DW_AT_bit_size(0x01)
    1586                      .dwattr $C$DW$197, DW_AT_data_member_location[DW_OP_plus_uconst 0x0]
    1587                      .dwattr $C$DW$197, DW_AT_accessibility(DW_ACCESS_public)
    1588              $C$DW$198       .dwtag  DW_TAG_member
    1589                      .dwattr $C$DW$198, DW_AT_type(*$C$DW$T$19)
    1590                      .dwattr $C$DW$198, DW_AT_name("GPIO35")
    1591                      .dwattr $C$DW$198, DW_AT_TI_symbol_name("_GPIO35")
    1592                      .dwattr $C$DW$198, DW_AT_bit_offset(0x0c), DW_AT_bit_size(0x01)
    1593                      .dwattr $C$DW$198, DW_AT_data_member_location[DW_OP_plus_uconst 0x0]
    1594                      .dwattr $C$DW$198, DW_AT_accessibility(DW_ACCESS_public)
    1595              $C$DW$199       .dwtag  DW_TAG_member
    1596                      .dwattr $C$DW$199, DW_AT_type(*$C$DW$T$19)
    1597                      .dwattr $C$DW$199, DW_AT_name("GPIO36")
    1598                      .dwattr $C$DW$199, DW_AT_TI_symbol_name("_GPIO36")
    1599                      .dwattr $C$DW$199, DW_AT_bit_offset(0x0b), DW_AT_bit_size(0x01)
    1600                      .dwattr $C$DW$199, DW_AT_data_member_location[DW_OP_plus_uconst 0x0]
    1601                      .dwattr $C$DW$199, DW_AT_accessibility(DW_ACCESS_public)
    1602              $C$DW$200       .dwtag  DW_TAG_member
    1603                      .dwattr $C$DW$200, DW_AT_type(*$C$DW$T$19)
    1604                      .dwattr $C$DW$200, DW_AT_name("GPIO37")
    1605                      .dwattr $C$DW$200, DW_AT_TI_symbol_name("_GPIO37")
    1606                      .dwattr $C$DW$200, DW_AT_bit_offset(0x0a), DW_AT_bit_size(0x01)
    1607                      .dwattr $C$DW$200, DW_AT_data_member_location[DW_OP_plus_uconst 0x0]
    1608                      .dwattr $C$DW$200, DW_AT_accessibility(DW_ACCESS_public)
    1609              $C$DW$201       .dwtag  DW_TAG_member
    1610                      .dwattr $C$DW$201, DW_AT_type(*$C$DW$T$19)
    1611                      .dwattr $C$DW$201, DW_AT_name("GPIO38")
    1612                      .dwattr $C$DW$201, DW_AT_TI_symbol_name("_GPIO38")
    1613                      .dwattr $C$DW$201, DW_AT_bit_offset(0x09), DW_AT_bit_size(0x01)
    1614                      .dwattr $C$DW$201, DW_AT_data_member_location[DW_OP_plus_uconst 0x0]
    1615                      .dwattr $C$DW$201, DW_AT_accessibility(DW_ACCESS_public)
    1616              $C$DW$202       .dwtag  DW_TAG_member
    1617                      .dwattr $C$DW$202, DW_AT_type(*$C$DW$T$19)
    1618                      .dwattr $C$DW$202, DW_AT_name("GPIO39")
    1619                      .dwattr $C$DW$202, DW_AT_TI_symbol_name("_GPIO39")
    1620                      .dwattr $C$DW$202, DW_AT_bit_offset(0x08), DW_AT_bit_size(0x01)
    1621                      .dwattr $C$DW$202, DW_AT_data_member_location[DW_OP_plus_uconst 0x0]
    1622                      .dwattr $C$DW$202, DW_AT_accessibility(DW_ACCESS_public)
    1623              $C$DW$203       .dwtag  DW_TAG_member
    1624                      .dwattr $C$DW$203, DW_AT_type(*$C$DW$T$19)
    1625                      .dwattr $C$DW$203, DW_AT_name("GPIO40")
    1626                      .dwattr $C$DW$203, DW_AT_TI_symbol_name("_GPIO40")
    1627                      .dwattr $C$DW$203, DW_AT_bit_offset(0x07), DW_AT_bit_size(0x01)
    1628                      .dwattr $C$DW$203, DW_AT_data_member_location[DW_OP_plus_uconst 0x0]
    1629                      .dwattr $C$DW$203, DW_AT_accessibility(DW_ACCESS_public)
TMS320C2000 Assembler PC v6.1.3 Thu Jan 30 10:32:22 2014

Tools Copyright (c) 1996-2012 Texas Instruments Incorporated
C:\Users\a0272466\AppData\Local\Temp\0608410                         PAGE   31

    1630              $C$DW$204       .dwtag  DW_TAG_member
    1631                      .dwattr $C$DW$204, DW_AT_type(*$C$DW$T$19)
    1632                      .dwattr $C$DW$204, DW_AT_name("GPIO41")
    1633                      .dwattr $C$DW$204, DW_AT_TI_symbol_name("_GPIO41")
    1634                      .dwattr $C$DW$204, DW_AT_bit_offset(0x06), DW_AT_bit_size(0x01)
    1635                      .dwattr $C$DW$204, DW_AT_data_member_location[DW_OP_plus_uconst 0x0]
    1636                      .dwattr $C$DW$204, DW_AT_accessibility(DW_ACCESS_public)
    1637              $C$DW$205       .dwtag  DW_TAG_member
    1638                      .dwattr $C$DW$205, DW_AT_type(*$C$DW$T$19)
    1639                      .dwattr $C$DW$205, DW_AT_name("GPIO42")
    1640                      .dwattr $C$DW$205, DW_AT_TI_symbol_name("_GPIO42")
    1641                      .dwattr $C$DW$205, DW_AT_bit_offset(0x05), DW_AT_bit_size(0x01)
    1642                      .dwattr $C$DW$205, DW_AT_data_member_location[DW_OP_plus_uconst 0x0]
    1643                      .dwattr $C$DW$205, DW_AT_accessibility(DW_ACCESS_public)
    1644              $C$DW$206       .dwtag  DW_TAG_member
    1645                      .dwattr $C$DW$206, DW_AT_type(*$C$DW$T$19)
    1646                      .dwattr $C$DW$206, DW_AT_name("GPIO43")
    1647                      .dwattr $C$DW$206, DW_AT_TI_symbol_name("_GPIO43")
    1648                      .dwattr $C$DW$206, DW_AT_bit_offset(0x04), DW_AT_bit_size(0x01)
    1649                      .dwattr $C$DW$206, DW_AT_data_member_location[DW_OP_plus_uconst 0x0]
    1650                      .dwattr $C$DW$206, DW_AT_accessibility(DW_ACCESS_public)
    1651              $C$DW$207       .dwtag  DW_TAG_member
    1652                      .dwattr $C$DW$207, DW_AT_type(*$C$DW$T$19)
    1653                      .dwattr $C$DW$207, DW_AT_name("GPIO44")
    1654                      .dwattr $C$DW$207, DW_AT_TI_symbol_name("_GPIO44")
    1655                      .dwattr $C$DW$207, DW_AT_bit_offset(0x03), DW_AT_bit_size(0x01)
    1656                      .dwattr $C$DW$207, DW_AT_data_member_location[DW_OP_plus_uconst 0x0]
    1657                      .dwattr $C$DW$207, DW_AT_accessibility(DW_ACCESS_public)
    1658              $C$DW$208       .dwtag  DW_TAG_member
    1659                      .dwattr $C$DW$208, DW_AT_type(*$C$DW$T$19)
    1660                      .dwattr $C$DW$208, DW_AT_name("GPIO45")
    1661                      .dwattr $C$DW$208, DW_AT_TI_symbol_name("_GPIO45")
    1662                      .dwattr $C$DW$208, DW_AT_bit_offset(0x02), DW_AT_bit_size(0x01)
    1663                      .dwattr $C$DW$208, DW_AT_data_member_location[DW_OP_plus_uconst 0x0]
    1664                      .dwattr $C$DW$208, DW_AT_accessibility(DW_ACCESS_public)
    1665              $C$DW$209       .dwtag  DW_TAG_member
    1666                      .dwattr $C$DW$209, DW_AT_type(*$C$DW$T$19)
    1667                      .dwattr $C$DW$209, DW_AT_name("GPIO46")
    1668                      .dwattr $C$DW$209, DW_AT_TI_symbol_name("_GPIO46")
    1669                      .dwattr $C$DW$209, DW_AT_bit_offset(0x01), DW_AT_bit_size(0x01)
    1670                      .dwattr $C$DW$209, DW_AT_data_member_location[DW_OP_plus_uconst 0x0]
    1671                      .dwattr $C$DW$209, DW_AT_accessibility(DW_ACCESS_public)
    1672              $C$DW$210       .dwtag  DW_TAG_member
    1673                      .dwattr $C$DW$210, DW_AT_type(*$C$DW$T$19)
    1674                      .dwattr $C$DW$210, DW_AT_name("GPIO47")
    1675                      .dwattr $C$DW$210, DW_AT_TI_symbol_name("_GPIO47")
    1676                      .dwattr $C$DW$210, DW_AT_bit_offset(0x00), DW_AT_bit_size(0x01)
    1677                      .dwattr $C$DW$210, DW_AT_data_member_location[DW_OP_plus_uconst 0x0]
    1678                      .dwattr $C$DW$210, DW_AT_accessibility(DW_ACCESS_public)
    1679              $C$DW$211       .dwtag  DW_TAG_member
    1680                      .dwattr $C$DW$211, DW_AT_type(*$C$DW$T$19)
    1681                      .dwattr $C$DW$211, DW_AT_name("GPIO48")
    1682                      .dwattr $C$DW$211, DW_AT_TI_symbol_name("_GPIO48")
    1683                      .dwattr $C$DW$211, DW_AT_bit_offset(0x0f), DW_AT_bit_size(0x01)
    1684                      .dwattr $C$DW$211, DW_AT_data_member_location[DW_OP_plus_uconst 0x1]
TMS320C2000 Assembler PC v6.1.3 Thu Jan 30 10:32:22 2014

Tools Copyright (c) 1996-2012 Texas Instruments Incorporated
C:\Users\a0272466\AppData\Local\Temp\0608410                         PAGE   32

    1685                      .dwattr $C$DW$211, DW_AT_accessibility(DW_ACCESS_public)
    1686              $C$DW$212       .dwtag  DW_TAG_member
    1687                      .dwattr $C$DW$212, DW_AT_type(*$C$DW$T$19)
    1688                      .dwattr $C$DW$212, DW_AT_name("GPIO49")
    1689                      .dwattr $C$DW$212, DW_AT_TI_symbol_name("_GPIO49")
    1690                      .dwattr $C$DW$212, DW_AT_bit_offset(0x0e), DW_AT_bit_size(0x01)
    1691                      .dwattr $C$DW$212, DW_AT_data_member_location[DW_OP_plus_uconst 0x1]
    1692                      .dwattr $C$DW$212, DW_AT_accessibility(DW_ACCESS_public)
    1693              $C$DW$213       .dwtag  DW_TAG_member
    1694                      .dwattr $C$DW$213, DW_AT_type(*$C$DW$T$19)
    1695                      .dwattr $C$DW$213, DW_AT_name("GPIO50")
    1696                      .dwattr $C$DW$213, DW_AT_TI_symbol_name("_GPIO50")
    1697                      .dwattr $C$DW$213, DW_AT_bit_offset(0x0d), DW_AT_bit_size(0x01)
    1698                      .dwattr $C$DW$213, DW_AT_data_member_location[DW_OP_plus_uconst 0x1]
    1699                      .dwattr $C$DW$213, DW_AT_accessibility(DW_ACCESS_public)
    1700              $C$DW$214       .dwtag  DW_TAG_member
    1701                      .dwattr $C$DW$214, DW_AT_type(*$C$DW$T$19)
    1702                      .dwattr $C$DW$214, DW_AT_name("GPIO51")
    1703                      .dwattr $C$DW$214, DW_AT_TI_symbol_name("_GPIO51")
    1704                      .dwattr $C$DW$214, DW_AT_bit_offset(0x0c), DW_AT_bit_size(0x01)
    1705                      .dwattr $C$DW$214, DW_AT_data_member_location[DW_OP_plus_uconst 0x1]
    1706                      .dwattr $C$DW$214, DW_AT_accessibility(DW_ACCESS_public)
    1707              $C$DW$215       .dwtag  DW_TAG_member
    1708                      .dwattr $C$DW$215, DW_AT_type(*$C$DW$T$19)
    1709                      .dwattr $C$DW$215, DW_AT_name("GPIO52")
    1710                      .dwattr $C$DW$215, DW_AT_TI_symbol_name("_GPIO52")
    1711                      .dwattr $C$DW$215, DW_AT_bit_offset(0x0b), DW_AT_bit_size(0x01)
    1712                      .dwattr $C$DW$215, DW_AT_data_member_location[DW_OP_plus_uconst 0x1]
    1713                      .dwattr $C$DW$215, DW_AT_accessibility(DW_ACCESS_public)
    1714              $C$DW$216       .dwtag  DW_TAG_member
    1715                      .dwattr $C$DW$216, DW_AT_type(*$C$DW$T$19)
    1716                      .dwattr $C$DW$216, DW_AT_name("GPIO53")
    1717                      .dwattr $C$DW$216, DW_AT_TI_symbol_name("_GPIO53")
    1718                      .dwattr $C$DW$216, DW_AT_bit_offset(0x0a), DW_AT_bit_size(0x01)
    1719                      .dwattr $C$DW$216, DW_AT_data_member_location[DW_OP_plus_uconst 0x1]
    1720                      .dwattr $C$DW$216, DW_AT_accessibility(DW_ACCESS_public)
    1721              $C$DW$217       .dwtag  DW_TAG_member
    1722                      .dwattr $C$DW$217, DW_AT_type(*$C$DW$T$19)
    1723                      .dwattr $C$DW$217, DW_AT_name("GPIO54")
    1724                      .dwattr $C$DW$217, DW_AT_TI_symbol_name("_GPIO54")
    1725                      .dwattr $C$DW$217, DW_AT_bit_offset(0x09), DW_AT_bit_size(0x01)
    1726                      .dwattr $C$DW$217, DW_AT_data_member_location[DW_OP_plus_uconst 0x1]
    1727                      .dwattr $C$DW$217, DW_AT_accessibility(DW_ACCESS_public)
    1728              $C$DW$218       .dwtag  DW_TAG_member
    1729                      .dwattr $C$DW$218, DW_AT_type(*$C$DW$T$19)
    1730                      .dwattr $C$DW$218, DW_AT_name("GPIO55")
    1731                      .dwattr $C$DW$218, DW_AT_TI_symbol_name("_GPIO55")
    1732                      .dwattr $C$DW$218, DW_AT_bit_offset(0x08), DW_AT_bit_size(0x01)
    1733                      .dwattr $C$DW$218, DW_AT_data_member_location[DW_OP_plus_uconst 0x1]
    1734                      .dwattr $C$DW$218, DW_AT_accessibility(DW_ACCESS_public)
    1735              $C$DW$219       .dwtag  DW_TAG_member
    1736                      .dwattr $C$DW$219, DW_AT_type(*$C$DW$T$19)
    1737                      .dwattr $C$DW$219, DW_AT_name("GPIO56")
    1738                      .dwattr $C$DW$219, DW_AT_TI_symbol_name("_GPIO56")
    1739                      .dwattr $C$DW$219, DW_AT_bit_offset(0x07), DW_AT_bit_size(0x01)
TMS320C2000 Assembler PC v6.1.3 Thu Jan 30 10:32:22 2014

Tools Copyright (c) 1996-2012 Texas Instruments Incorporated
C:\Users\a0272466\AppData\Local\Temp\0608410                         PAGE   33

    1740                      .dwattr $C$DW$219, DW_AT_data_member_location[DW_OP_plus_uconst 0x1]
    1741                      .dwattr $C$DW$219, DW_AT_accessibility(DW_ACCESS_public)
    1742              $C$DW$220       .dwtag  DW_TAG_member
    1743                      .dwattr $C$DW$220, DW_AT_type(*$C$DW$T$19)
    1744                      .dwattr $C$DW$220, DW_AT_name("GPIO57")
    1745                      .dwattr $C$DW$220, DW_AT_TI_symbol_name("_GPIO57")
    1746                      .dwattr $C$DW$220, DW_AT_bit_offset(0x06), DW_AT_bit_size(0x01)
    1747                      .dwattr $C$DW$220, DW_AT_data_member_location[DW_OP_plus_uconst 0x1]
    1748                      .dwattr $C$DW$220, DW_AT_accessibility(DW_ACCESS_public)
    1749              $C$DW$221       .dwtag  DW_TAG_member
    1750                      .dwattr $C$DW$221, DW_AT_type(*$C$DW$T$19)
    1751                      .dwattr $C$DW$221, DW_AT_name("GPIO58")
    1752                      .dwattr $C$DW$221, DW_AT_TI_symbol_name("_GPIO58")
    1753                      .dwattr $C$DW$221, DW_AT_bit_offset(0x05), DW_AT_bit_size(0x01)
    1754                      .dwattr $C$DW$221, DW_AT_data_member_location[DW_OP_plus_uconst 0x1]
    1755                      .dwattr $C$DW$221, DW_AT_accessibility(DW_ACCESS_public)
    1756              $C$DW$222       .dwtag  DW_TAG_member
    1757                      .dwattr $C$DW$222, DW_AT_type(*$C$DW$T$19)
    1758                      .dwattr $C$DW$222, DW_AT_name("GPIO59")
    1759                      .dwattr $C$DW$222, DW_AT_TI_symbol_name("_GPIO59")
    1760                      .dwattr $C$DW$222, DW_AT_bit_offset(0x04), DW_AT_bit_size(0x01)
    1761                      .dwattr $C$DW$222, DW_AT_data_member_location[DW_OP_plus_uconst 0x1]
    1762                      .dwattr $C$DW$222, DW_AT_accessibility(DW_ACCESS_public)
    1763              $C$DW$223       .dwtag  DW_TAG_member
    1764                      .dwattr $C$DW$223, DW_AT_type(*$C$DW$T$19)
    1765                      .dwattr $C$DW$223, DW_AT_name("GPIO60")
    1766                      .dwattr $C$DW$223, DW_AT_TI_symbol_name("_GPIO60")
    1767                      .dwattr $C$DW$223, DW_AT_bit_offset(0x03), DW_AT_bit_size(0x01)
    1768                      .dwattr $C$DW$223, DW_AT_data_member_location[DW_OP_plus_uconst 0x1]
    1769                      .dwattr $C$DW$223, DW_AT_accessibility(DW_ACCESS_public)
    1770              $C$DW$224       .dwtag  DW_TAG_member
    1771                      .dwattr $C$DW$224, DW_AT_type(*$C$DW$T$19)
    1772                      .dwattr $C$DW$224, DW_AT_name("GPIO61")
    1773                      .dwattr $C$DW$224, DW_AT_TI_symbol_name("_GPIO61")
    1774                      .dwattr $C$DW$224, DW_AT_bit_offset(0x02), DW_AT_bit_size(0x01)
    1775                      .dwattr $C$DW$224, DW_AT_data_member_location[DW_OP_plus_uconst 0x1]
    1776                      .dwattr $C$DW$224, DW_AT_accessibility(DW_ACCESS_public)
    1777              $C$DW$225       .dwtag  DW_TAG_member
    1778                      .dwattr $C$DW$225, DW_AT_type(*$C$DW$T$19)
    1779                      .dwattr $C$DW$225, DW_AT_name("GPIO62")
    1780                      .dwattr $C$DW$225, DW_AT_TI_symbol_name("_GPIO62")
    1781                      .dwattr $C$DW$225, DW_AT_bit_offset(0x01), DW_AT_bit_size(0x01)
    1782                      .dwattr $C$DW$225, DW_AT_data_member_location[DW_OP_plus_uconst 0x1]
    1783                      .dwattr $C$DW$225, DW_AT_accessibility(DW_ACCESS_public)
    1784              $C$DW$226       .dwtag  DW_TAG_member
    1785                      .dwattr $C$DW$226, DW_AT_type(*$C$DW$T$19)
    1786                      .dwattr $C$DW$226, DW_AT_name("GPIO63")
    1787                      .dwattr $C$DW$226, DW_AT_TI_symbol_name("_GPIO63")
    1788                      .dwattr $C$DW$226, DW_AT_bit_offset(0x00), DW_AT_bit_size(0x01)
    1789                      .dwattr $C$DW$226, DW_AT_data_member_location[DW_OP_plus_uconst 0x1]
    1790                      .dwattr $C$DW$226, DW_AT_accessibility(DW_ACCESS_public)
    1791                      .dwendtag $C$DW$T$31
    1792              
    1793              
    1794              $C$DW$T$32      .dwtag  DW_TAG_union_type
TMS320C2000 Assembler PC v6.1.3 Thu Jan 30 10:32:22 2014

Tools Copyright (c) 1996-2012 Texas Instruments Incorporated
C:\Users\a0272466\AppData\Local\Temp\0608410                         PAGE   34

    1795                      .dwattr $C$DW$T$32, DW_AT_name("GPBDAT_REG")
    1796                      .dwattr $C$DW$T$32, DW_AT_byte_size(0x02)
    1797              $C$DW$227       .dwtag  DW_TAG_member
    1798                      .dwattr $C$DW$227, DW_AT_type(*$C$DW$T$21)
    1799                      .dwattr $C$DW$227, DW_AT_name("all")
    1800                      .dwattr $C$DW$227, DW_AT_TI_symbol_name("_all")
    1801                      .dwattr $C$DW$227, DW_AT_data_member_location[DW_OP_plus_uconst 0x0]
    1802                      .dwattr $C$DW$227, DW_AT_accessibility(DW_ACCESS_public)
    1803              $C$DW$228       .dwtag  DW_TAG_member
    1804                      .dwattr $C$DW$228, DW_AT_type(*$C$DW$T$31)
    1805                      .dwattr $C$DW$228, DW_AT_name("bit")
    1806                      .dwattr $C$DW$228, DW_AT_TI_symbol_name("_bit")
    1807                      .dwattr $C$DW$228, DW_AT_data_member_location[DW_OP_plus_uconst 0x0]
    1808                      .dwattr $C$DW$228, DW_AT_accessibility(DW_ACCESS_public)
    1809                      .dwendtag $C$DW$T$32
    1810              
    1811              
    1812              $C$DW$T$33      .dwtag  DW_TAG_structure_type
    1813                      .dwattr $C$DW$T$33, DW_AT_name("GPBSET_BITS")
    1814                      .dwattr $C$DW$T$33, DW_AT_byte_size(0x02)
    1815              $C$DW$229       .dwtag  DW_TAG_member
    1816                      .dwattr $C$DW$229, DW_AT_type(*$C$DW$T$19)
    1817                      .dwattr $C$DW$229, DW_AT_name("GPIO32")
    1818                      .dwattr $C$DW$229, DW_AT_TI_symbol_name("_GPIO32")
    1819                      .dwattr $C$DW$229, DW_AT_bit_offset(0x0f), DW_AT_bit_size(0x01)
    1820                      .dwattr $C$DW$229, DW_AT_data_member_location[DW_OP_plus_uconst 0x0]
    1821                      .dwattr $C$DW$229, DW_AT_accessibility(DW_ACCESS_public)
    1822              $C$DW$230       .dwtag  DW_TAG_member
    1823                      .dwattr $C$DW$230, DW_AT_type(*$C$DW$T$19)
    1824                      .dwattr $C$DW$230, DW_AT_name("GPIO33")
    1825                      .dwattr $C$DW$230, DW_AT_TI_symbol_name("_GPIO33")
    1826                      .dwattr $C$DW$230, DW_AT_bit_offset(0x0e), DW_AT_bit_size(0x01)
    1827                      .dwattr $C$DW$230, DW_AT_data_member_location[DW_OP_plus_uconst 0x0]
    1828                      .dwattr $C$DW$230, DW_AT_accessibility(DW_ACCESS_public)
    1829              $C$DW$231       .dwtag  DW_TAG_member
    1830                      .dwattr $C$DW$231, DW_AT_type(*$C$DW$T$19)
    1831                      .dwattr $C$DW$231, DW_AT_name("GPIO34")
    1832                      .dwattr $C$DW$231, DW_AT_TI_symbol_name("_GPIO34")
    1833                      .dwattr $C$DW$231, DW_AT_bit_offset(0x0d), DW_AT_bit_size(0x01)
    1834                      .dwattr $C$DW$231, DW_AT_data_member_location[DW_OP_plus_uconst 0x0]
    1835                      .dwattr $C$DW$231, DW_AT_accessibility(DW_ACCESS_public)
    1836              $C$DW$232       .dwtag  DW_TAG_member
    1837                      .dwattr $C$DW$232, DW_AT_type(*$C$DW$T$19)
    1838                      .dwattr $C$DW$232, DW_AT_name("GPIO35")
    1839                      .dwattr $C$DW$232, DW_AT_TI_symbol_name("_GPIO35")
    1840                      .dwattr $C$DW$232, DW_AT_bit_offset(0x0c), DW_AT_bit_size(0x01)
    1841                      .dwattr $C$DW$232, DW_AT_data_member_location[DW_OP_plus_uconst 0x0]
    1842                      .dwattr $C$DW$232, DW_AT_accessibility(DW_ACCESS_public)
    1843              $C$DW$233       .dwtag  DW_TAG_member
    1844                      .dwattr $C$DW$233, DW_AT_type(*$C$DW$T$19)
    1845                      .dwattr $C$DW$233, DW_AT_name("GPIO36")
    1846                      .dwattr $C$DW$233, DW_AT_TI_symbol_name("_GPIO36")
    1847                      .dwattr $C$DW$233, DW_AT_bit_offset(0x0b), DW_AT_bit_size(0x01)
    1848                      .dwattr $C$DW$233, DW_AT_data_member_location[DW_OP_plus_uconst 0x0]
    1849                      .dwattr $C$DW$233, DW_AT_accessibility(DW_ACCESS_public)
TMS320C2000 Assembler PC v6.1.3 Thu Jan 30 10:32:22 2014

Tools Copyright (c) 1996-2012 Texas Instruments Incorporated
C:\Users\a0272466\AppData\Local\Temp\0608410                         PAGE   35

    1850              $C$DW$234       .dwtag  DW_TAG_member
    1851                      .dwattr $C$DW$234, DW_AT_type(*$C$DW$T$19)
    1852                      .dwattr $C$DW$234, DW_AT_name("GPIO37")
    1853                      .dwattr $C$DW$234, DW_AT_TI_symbol_name("_GPIO37")
    1854                      .dwattr $C$DW$234, DW_AT_bit_offset(0x0a), DW_AT_bit_size(0x01)
    1855                      .dwattr $C$DW$234, DW_AT_data_member_location[DW_OP_plus_uconst 0x0]
    1856                      .dwattr $C$DW$234, DW_AT_accessibility(DW_ACCESS_public)
    1857              $C$DW$235       .dwtag  DW_TAG_member
    1858                      .dwattr $C$DW$235, DW_AT_type(*$C$DW$T$19)
    1859                      .dwattr $C$DW$235, DW_AT_name("GPIO38")
    1860                      .dwattr $C$DW$235, DW_AT_TI_symbol_name("_GPIO38")
    1861                      .dwattr $C$DW$235, DW_AT_bit_offset(0x09), DW_AT_bit_size(0x01)
    1862                      .dwattr $C$DW$235, DW_AT_data_member_location[DW_OP_plus_uconst 0x0]
    1863                      .dwattr $C$DW$235, DW_AT_accessibility(DW_ACCESS_public)
    1864              $C$DW$236       .dwtag  DW_TAG_member
    1865                      .dwattr $C$DW$236, DW_AT_type(*$C$DW$T$19)
    1866                      .dwattr $C$DW$236, DW_AT_name("GPIO39")
    1867                      .dwattr $C$DW$236, DW_AT_TI_symbol_name("_GPIO39")
    1868                      .dwattr $C$DW$236, DW_AT_bit_offset(0x08), DW_AT_bit_size(0x01)
    1869                      .dwattr $C$DW$236, DW_AT_data_member_location[DW_OP_plus_uconst 0x0]
    1870                      .dwattr $C$DW$236, DW_AT_accessibility(DW_ACCESS_public)
    1871              $C$DW$237       .dwtag  DW_TAG_member
    1872                      .dwattr $C$DW$237, DW_AT_type(*$C$DW$T$19)
    1873                      .dwattr $C$DW$237, DW_AT_name("GPIO40")
    1874                      .dwattr $C$DW$237, DW_AT_TI_symbol_name("_GPIO40")
    1875                      .dwattr $C$DW$237, DW_AT_bit_offset(0x07), DW_AT_bit_size(0x01)
    1876                      .dwattr $C$DW$237, DW_AT_data_member_location[DW_OP_plus_uconst 0x0]
    1877                      .dwattr $C$DW$237, DW_AT_accessibility(DW_ACCESS_public)
    1878              $C$DW$238       .dwtag  DW_TAG_member
    1879                      .dwattr $C$DW$238, DW_AT_type(*$C$DW$T$19)
    1880                      .dwattr $C$DW$238, DW_AT_name("GPIO41")
    1881                      .dwattr $C$DW$238, DW_AT_TI_symbol_name("_GPIO41")
    1882                      .dwattr $C$DW$238, DW_AT_bit_offset(0x06), DW_AT_bit_size(0x01)
    1883                      .dwattr $C$DW$238, DW_AT_data_member_location[DW_OP_plus_uconst 0x0]
    1884                      .dwattr $C$DW$238, DW_AT_accessibility(DW_ACCESS_public)
    1885              $C$DW$239       .dwtag  DW_TAG_member
    1886                      .dwattr $C$DW$239, DW_AT_type(*$C$DW$T$19)
    1887                      .dwattr $C$DW$239, DW_AT_name("GPIO42")
    1888                      .dwattr $C$DW$239, DW_AT_TI_symbol_name("_GPIO42")
    1889                      .dwattr $C$DW$239, DW_AT_bit_offset(0x05), DW_AT_bit_size(0x01)
    1890                      .dwattr $C$DW$239, DW_AT_data_member_location[DW_OP_plus_uconst 0x0]
    1891                      .dwattr $C$DW$239, DW_AT_accessibility(DW_ACCESS_public)
    1892              $C$DW$240       .dwtag  DW_TAG_member
    1893                      .dwattr $C$DW$240, DW_AT_type(*$C$DW$T$19)
    1894                      .dwattr $C$DW$240, DW_AT_name("GPIO43")
    1895                      .dwattr $C$DW$240, DW_AT_TI_symbol_name("_GPIO43")
    1896                      .dwattr $C$DW$240, DW_AT_bit_offset(0x04), DW_AT_bit_size(0x01)
    1897                      .dwattr $C$DW$240, DW_AT_data_member_location[DW_OP_plus_uconst 0x0]
    1898                      .dwattr $C$DW$240, DW_AT_accessibility(DW_ACCESS_public)
    1899              $C$DW$241       .dwtag  DW_TAG_member
    1900                      .dwattr $C$DW$241, DW_AT_type(*$C$DW$T$19)
    1901                      .dwattr $C$DW$241, DW_AT_name("GPIO44")
    1902                      .dwattr $C$DW$241, DW_AT_TI_symbol_name("_GPIO44")
    1903                      .dwattr $C$DW$241, DW_AT_bit_offset(0x03), DW_AT_bit_size(0x01)
    1904                      .dwattr $C$DW$241, DW_AT_data_member_location[DW_OP_plus_uconst 0x0]
TMS320C2000 Assembler PC v6.1.3 Thu Jan 30 10:32:22 2014

Tools Copyright (c) 1996-2012 Texas Instruments Incorporated
C:\Users\a0272466\AppData\Local\Temp\0608410                         PAGE   36

    1905                      .dwattr $C$DW$241, DW_AT_accessibility(DW_ACCESS_public)
    1906              $C$DW$242       .dwtag  DW_TAG_member
    1907                      .dwattr $C$DW$242, DW_AT_type(*$C$DW$T$19)
    1908                      .dwattr $C$DW$242, DW_AT_name("GPIO45")
    1909                      .dwattr $C$DW$242, DW_AT_TI_symbol_name("_GPIO45")
    1910                      .dwattr $C$DW$242, DW_AT_bit_offset(0x02), DW_AT_bit_size(0x01)
    1911                      .dwattr $C$DW$242, DW_AT_data_member_location[DW_OP_plus_uconst 0x0]
    1912                      .dwattr $C$DW$242, DW_AT_accessibility(DW_ACCESS_public)
    1913              $C$DW$243       .dwtag  DW_TAG_member
    1914                      .dwattr $C$DW$243, DW_AT_type(*$C$DW$T$19)
    1915                      .dwattr $C$DW$243, DW_AT_name("GPIO46")
    1916                      .dwattr $C$DW$243, DW_AT_TI_symbol_name("_GPIO46")
    1917                      .dwattr $C$DW$243, DW_AT_bit_offset(0x01), DW_AT_bit_size(0x01)
    1918                      .dwattr $C$DW$243, DW_AT_data_member_location[DW_OP_plus_uconst 0x0]
    1919                      .dwattr $C$DW$243, DW_AT_accessibility(DW_ACCESS_public)
    1920              $C$DW$244       .dwtag  DW_TAG_member
    1921                      .dwattr $C$DW$244, DW_AT_type(*$C$DW$T$19)
    1922                      .dwattr $C$DW$244, DW_AT_name("GPIO47")
    1923                      .dwattr $C$DW$244, DW_AT_TI_symbol_name("_GPIO47")
    1924                      .dwattr $C$DW$244, DW_AT_bit_offset(0x00), DW_AT_bit_size(0x01)
    1925                      .dwattr $C$DW$244, DW_AT_data_member_location[DW_OP_plus_uconst 0x0]
    1926                      .dwattr $C$DW$244, DW_AT_accessibility(DW_ACCESS_public)
    1927              $C$DW$245       .dwtag  DW_TAG_member
    1928                      .dwattr $C$DW$245, DW_AT_type(*$C$DW$T$19)
    1929                      .dwattr $C$DW$245, DW_AT_name("GPIO48")
    1930                      .dwattr $C$DW$245, DW_AT_TI_symbol_name("_GPIO48")
    1931                      .dwattr $C$DW$245, DW_AT_bit_offset(0x0f), DW_AT_bit_size(0x01)
    1932                      .dwattr $C$DW$245, DW_AT_data_member_location[DW_OP_plus_uconst 0x1]
    1933                      .dwattr $C$DW$245, DW_AT_accessibility(DW_ACCESS_public)
    1934              $C$DW$246       .dwtag  DW_TAG_member
    1935                      .dwattr $C$DW$246, DW_AT_type(*$C$DW$T$19)
    1936                      .dwattr $C$DW$246, DW_AT_name("GPIO49")
    1937                      .dwattr $C$DW$246, DW_AT_TI_symbol_name("_GPIO49")
    1938                      .dwattr $C$DW$246, DW_AT_bit_offset(0x0e), DW_AT_bit_size(0x01)
    1939                      .dwattr $C$DW$246, DW_AT_data_member_location[DW_OP_plus_uconst 0x1]
    1940                      .dwattr $C$DW$246, DW_AT_accessibility(DW_ACCESS_public)
    1941              $C$DW$247       .dwtag  DW_TAG_member
    1942                      .dwattr $C$DW$247, DW_AT_type(*$C$DW$T$19)
    1943                      .dwattr $C$DW$247, DW_AT_name("GPIO50")
    1944                      .dwattr $C$DW$247, DW_AT_TI_symbol_name("_GPIO50")
    1945                      .dwattr $C$DW$247, DW_AT_bit_offset(0x0d), DW_AT_bit_size(0x01)
    1946                      .dwattr $C$DW$247, DW_AT_data_member_location[DW_OP_plus_uconst 0x1]
    1947                      .dwattr $C$DW$247, DW_AT_accessibility(DW_ACCESS_public)
    1948              $C$DW$248       .dwtag  DW_TAG_member
    1949                      .dwattr $C$DW$248, DW_AT_type(*$C$DW$T$19)
    1950                      .dwattr $C$DW$248, DW_AT_name("GPIO51")
    1951                      .dwattr $C$DW$248, DW_AT_TI_symbol_name("_GPIO51")
    1952                      .dwattr $C$DW$248, DW_AT_bit_offset(0x0c), DW_AT_bit_size(0x01)
    1953                      .dwattr $C$DW$248, DW_AT_data_member_location[DW_OP_plus_uconst 0x1]
    1954                      .dwattr $C$DW$248, DW_AT_accessibility(DW_ACCESS_public)
    1955              $C$DW$249       .dwtag  DW_TAG_member
    1956                      .dwattr $C$DW$249, DW_AT_type(*$C$DW$T$19)
    1957                      .dwattr $C$DW$249, DW_AT_name("GPIO52")
    1958                      .dwattr $C$DW$249, DW_AT_TI_symbol_name("_GPIO52")
    1959                      .dwattr $C$DW$249, DW_AT_bit_offset(0x0b), DW_AT_bit_size(0x01)
TMS320C2000 Assembler PC v6.1.3 Thu Jan 30 10:32:22 2014

Tools Copyright (c) 1996-2012 Texas Instruments Incorporated
C:\Users\a0272466\AppData\Local\Temp\0608410                         PAGE   37

    1960                      .dwattr $C$DW$249, DW_AT_data_member_location[DW_OP_plus_uconst 0x1]
    1961                      .dwattr $C$DW$249, DW_AT_accessibility(DW_ACCESS_public)
    1962              $C$DW$250       .dwtag  DW_TAG_member
    1963                      .dwattr $C$DW$250, DW_AT_type(*$C$DW$T$19)
    1964                      .dwattr $C$DW$250, DW_AT_name("GPIO53")
    1965                      .dwattr $C$DW$250, DW_AT_TI_symbol_name("_GPIO53")
    1966                      .dwattr $C$DW$250, DW_AT_bit_offset(0x0a), DW_AT_bit_size(0x01)
    1967                      .dwattr $C$DW$250, DW_AT_data_member_location[DW_OP_plus_uconst 0x1]
    1968                      .dwattr $C$DW$250, DW_AT_accessibility(DW_ACCESS_public)
    1969              $C$DW$251       .dwtag  DW_TAG_member
    1970                      .dwattr $C$DW$251, DW_AT_type(*$C$DW$T$19)
    1971                      .dwattr $C$DW$251, DW_AT_name("GPIO54")
    1972                      .dwattr $C$DW$251, DW_AT_TI_symbol_name("_GPIO54")
    1973                      .dwattr $C$DW$251, DW_AT_bit_offset(0x09), DW_AT_bit_size(0x01)
    1974                      .dwattr $C$DW$251, DW_AT_data_member_location[DW_OP_plus_uconst 0x1]
    1975                      .dwattr $C$DW$251, DW_AT_accessibility(DW_ACCESS_public)
    1976              $C$DW$252       .dwtag  DW_TAG_member
    1977                      .dwattr $C$DW$252, DW_AT_type(*$C$DW$T$19)
    1978                      .dwattr $C$DW$252, DW_AT_name("GPIO55")
    1979                      .dwattr $C$DW$252, DW_AT_TI_symbol_name("_GPIO55")
    1980                      .dwattr $C$DW$252, DW_AT_bit_offset(0x08), DW_AT_bit_size(0x01)
    1981                      .dwattr $C$DW$252, DW_AT_data_member_location[DW_OP_plus_uconst 0x1]
    1982                      .dwattr $C$DW$252, DW_AT_accessibility(DW_ACCESS_public)
    1983              $C$DW$253       .dwtag  DW_TAG_member
    1984                      .dwattr $C$DW$253, DW_AT_type(*$C$DW$T$19)
    1985                      .dwattr $C$DW$253, DW_AT_name("GPIO56")
    1986                      .dwattr $C$DW$253, DW_AT_TI_symbol_name("_GPIO56")
    1987                      .dwattr $C$DW$253, DW_AT_bit_offset(0x07), DW_AT_bit_size(0x01)
    1988                      .dwattr $C$DW$253, DW_AT_data_member_location[DW_OP_plus_uconst 0x1]
    1989                      .dwattr $C$DW$253, DW_AT_accessibility(DW_ACCESS_public)
    1990              $C$DW$254       .dwtag  DW_TAG_member
    1991                      .dwattr $C$DW$254, DW_AT_type(*$C$DW$T$19)
    1992                      .dwattr $C$DW$254, DW_AT_name("GPIO57")
    1993                      .dwattr $C$DW$254, DW_AT_TI_symbol_name("_GPIO57")
    1994                      .dwattr $C$DW$254, DW_AT_bit_offset(0x06), DW_AT_bit_size(0x01)
    1995                      .dwattr $C$DW$254, DW_AT_data_member_location[DW_OP_plus_uconst 0x1]
    1996                      .dwattr $C$DW$254, DW_AT_accessibility(DW_ACCESS_public)
    1997              $C$DW$255       .dwtag  DW_TAG_member
    1998                      .dwattr $C$DW$255, DW_AT_type(*$C$DW$T$19)
    1999                      .dwattr $C$DW$255, DW_AT_name("GPIO58")
    2000                      .dwattr $C$DW$255, DW_AT_TI_symbol_name("_GPIO58")
    2001                      .dwattr $C$DW$255, DW_AT_bit_offset(0x05), DW_AT_bit_size(0x01)
    2002                      .dwattr $C$DW$255, DW_AT_data_member_location[DW_OP_plus_uconst 0x1]
    2003                      .dwattr $C$DW$255, DW_AT_accessibility(DW_ACCESS_public)
    2004              $C$DW$256       .dwtag  DW_TAG_member
    2005                      .dwattr $C$DW$256, DW_AT_type(*$C$DW$T$19)
    2006                      .dwattr $C$DW$256, DW_AT_name("GPIO59")
    2007                      .dwattr $C$DW$256, DW_AT_TI_symbol_name("_GPIO59")
    2008                      .dwattr $C$DW$256, DW_AT_bit_offset(0x04), DW_AT_bit_size(0x01)
    2009                      .dwattr $C$DW$256, DW_AT_data_member_location[DW_OP_plus_uconst 0x1]
    2010                      .dwattr $C$DW$256, DW_AT_accessibility(DW_ACCESS_public)
    2011              $C$DW$257       .dwtag  DW_TAG_member
    2012                      .dwattr $C$DW$257, DW_AT_type(*$C$DW$T$19)
    2013                      .dwattr $C$DW$257, DW_AT_name("GPIO60")
    2014                      .dwattr $C$DW$257, DW_AT_TI_symbol_name("_GPIO60")
TMS320C2000 Assembler PC v6.1.3 Thu Jan 30 10:32:22 2014

Tools Copyright (c) 1996-2012 Texas Instruments Incorporated
C:\Users\a0272466\AppData\Local\Temp\0608410                         PAGE   38

    2015                      .dwattr $C$DW$257, DW_AT_bit_offset(0x03), DW_AT_bit_size(0x01)
    2016                      .dwattr $C$DW$257, DW_AT_data_member_location[DW_OP_plus_uconst 0x1]
    2017                      .dwattr $C$DW$257, DW_AT_accessibility(DW_ACCESS_public)
    2018              $C$DW$258       .dwtag  DW_TAG_member
    2019                      .dwattr $C$DW$258, DW_AT_type(*$C$DW$T$19)
    2020                      .dwattr $C$DW$258, DW_AT_name("GPIO61")
    2021                      .dwattr $C$DW$258, DW_AT_TI_symbol_name("_GPIO61")
    2022                      .dwattr $C$DW$258, DW_AT_bit_offset(0x02), DW_AT_bit_size(0x01)
    2023                      .dwattr $C$DW$258, DW_AT_data_member_location[DW_OP_plus_uconst 0x1]
    2024                      .dwattr $C$DW$258, DW_AT_accessibility(DW_ACCESS_public)
    2025              $C$DW$259       .dwtag  DW_TAG_member
    2026                      .dwattr $C$DW$259, DW_AT_type(*$C$DW$T$19)
    2027                      .dwattr $C$DW$259, DW_AT_name("GPIO62")
    2028                      .dwattr $C$DW$259, DW_AT_TI_symbol_name("_GPIO62")
    2029                      .dwattr $C$DW$259, DW_AT_bit_offset(0x01), DW_AT_bit_size(0x01)
    2030                      .dwattr $C$DW$259, DW_AT_data_member_location[DW_OP_plus_uconst 0x1]
    2031                      .dwattr $C$DW$259, DW_AT_accessibility(DW_ACCESS_public)
    2032              $C$DW$260       .dwtag  DW_TAG_member
    2033                      .dwattr $C$DW$260, DW_AT_type(*$C$DW$T$19)
    2034                      .dwattr $C$DW$260, DW_AT_name("GPIO63")
    2035                      .dwattr $C$DW$260, DW_AT_TI_symbol_name("_GPIO63")
    2036                      .dwattr $C$DW$260, DW_AT_bit_offset(0x00), DW_AT_bit_size(0x01)
    2037                      .dwattr $C$DW$260, DW_AT_data_member_location[DW_OP_plus_uconst 0x1]
    2038                      .dwattr $C$DW$260, DW_AT_accessibility(DW_ACCESS_public)
    2039                      .dwendtag $C$DW$T$33
    2040              
    2041              
    2042              $C$DW$T$34      .dwtag  DW_TAG_union_type
    2043                      .dwattr $C$DW$T$34, DW_AT_name("GPBSET_REG")
    2044                      .dwattr $C$DW$T$34, DW_AT_byte_size(0x02)
    2045              $C$DW$261       .dwtag  DW_TAG_member
    2046                      .dwattr $C$DW$261, DW_AT_type(*$C$DW$T$21)
    2047                      .dwattr $C$DW$261, DW_AT_name("all")
    2048                      .dwattr $C$DW$261, DW_AT_TI_symbol_name("_all")
    2049                      .dwattr $C$DW$261, DW_AT_data_member_location[DW_OP_plus_uconst 0x0]
    2050                      .dwattr $C$DW$261, DW_AT_accessibility(DW_ACCESS_public)
    2051              $C$DW$262       .dwtag  DW_TAG_member
    2052                      .dwattr $C$DW$262, DW_AT_type(*$C$DW$T$33)
    2053                      .dwattr $C$DW$262, DW_AT_name("bit")
    2054                      .dwattr $C$DW$262, DW_AT_TI_symbol_name("_bit")
    2055                      .dwattr $C$DW$262, DW_AT_data_member_location[DW_OP_plus_uconst 0x0]
    2056                      .dwattr $C$DW$262, DW_AT_accessibility(DW_ACCESS_public)
    2057                      .dwendtag $C$DW$T$34
    2058              
    2059              
    2060              $C$DW$T$35      .dwtag  DW_TAG_structure_type
    2061                      .dwattr $C$DW$T$35, DW_AT_name("GPBTOGGLE_BITS")
    2062                      .dwattr $C$DW$T$35, DW_AT_byte_size(0x02)
    2063              $C$DW$263       .dwtag  DW_TAG_member
    2064                      .dwattr $C$DW$263, DW_AT_type(*$C$DW$T$19)
    2065                      .dwattr $C$DW$263, DW_AT_name("GPIO32")
    2066                      .dwattr $C$DW$263, DW_AT_TI_symbol_name("_GPIO32")
    2067                      .dwattr $C$DW$263, DW_AT_bit_offset(0x0f), DW_AT_bit_size(0x01)
    2068                      .dwattr $C$DW$263, DW_AT_data_member_location[DW_OP_plus_uconst 0x0]
    2069                      .dwattr $C$DW$263, DW_AT_accessibility(DW_ACCESS_public)
TMS320C2000 Assembler PC v6.1.3 Thu Jan 30 10:32:22 2014

Tools Copyright (c) 1996-2012 Texas Instruments Incorporated
C:\Users\a0272466\AppData\Local\Temp\0608410                         PAGE   39

    2070              $C$DW$264       .dwtag  DW_TAG_member
    2071                      .dwattr $C$DW$264, DW_AT_type(*$C$DW$T$19)
    2072                      .dwattr $C$DW$264, DW_AT_name("GPIO33")
    2073                      .dwattr $C$DW$264, DW_AT_TI_symbol_name("_GPIO33")
    2074                      .dwattr $C$DW$264, DW_AT_bit_offset(0x0e), DW_AT_bit_size(0x01)
    2075                      .dwattr $C$DW$264, DW_AT_data_member_location[DW_OP_plus_uconst 0x0]
    2076                      .dwattr $C$DW$264, DW_AT_accessibility(DW_ACCESS_public)
    2077              $C$DW$265       .dwtag  DW_TAG_member
    2078                      .dwattr $C$DW$265, DW_AT_type(*$C$DW$T$19)
    2079                      .dwattr $C$DW$265, DW_AT_name("GPIO34")
    2080                      .dwattr $C$DW$265, DW_AT_TI_symbol_name("_GPIO34")
    2081                      .dwattr $C$DW$265, DW_AT_bit_offset(0x0d), DW_AT_bit_size(0x01)
    2082                      .dwattr $C$DW$265, DW_AT_data_member_location[DW_OP_plus_uconst 0x0]
    2083                      .dwattr $C$DW$265, DW_AT_accessibility(DW_ACCESS_public)
    2084              $C$DW$266       .dwtag  DW_TAG_member
    2085                      .dwattr $C$DW$266, DW_AT_type(*$C$DW$T$19)
    2086                      .dwattr $C$DW$266, DW_AT_name("GPIO35")
    2087                      .dwattr $C$DW$266, DW_AT_TI_symbol_name("_GPIO35")
    2088                      .dwattr $C$DW$266, DW_AT_bit_offset(0x0c), DW_AT_bit_size(0x01)
    2089                      .dwattr $C$DW$266, DW_AT_data_member_location[DW_OP_plus_uconst 0x0]
    2090                      .dwattr $C$DW$266, DW_AT_accessibility(DW_ACCESS_public)
    2091              $C$DW$267       .dwtag  DW_TAG_member
    2092                      .dwattr $C$DW$267, DW_AT_type(*$C$DW$T$19)
    2093                      .dwattr $C$DW$267, DW_AT_name("GPIO36")
    2094                      .dwattr $C$DW$267, DW_AT_TI_symbol_name("_GPIO36")
    2095                      .dwattr $C$DW$267, DW_AT_bit_offset(0x0b), DW_AT_bit_size(0x01)
    2096                      .dwattr $C$DW$267, DW_AT_data_member_location[DW_OP_plus_uconst 0x0]
    2097                      .dwattr $C$DW$267, DW_AT_accessibility(DW_ACCESS_public)
    2098              $C$DW$268       .dwtag  DW_TAG_member
    2099                      .dwattr $C$DW$268, DW_AT_type(*$C$DW$T$19)
    2100                      .dwattr $C$DW$268, DW_AT_name("GPIO37")
    2101                      .dwattr $C$DW$268, DW_AT_TI_symbol_name("_GPIO37")
    2102                      .dwattr $C$DW$268, DW_AT_bit_offset(0x0a), DW_AT_bit_size(0x01)
    2103                      .dwattr $C$DW$268, DW_AT_data_member_location[DW_OP_plus_uconst 0x0]
    2104                      .dwattr $C$DW$268, DW_AT_accessibility(DW_ACCESS_public)
    2105              $C$DW$269       .dwtag  DW_TAG_member
    2106                      .dwattr $C$DW$269, DW_AT_type(*$C$DW$T$19)
    2107                      .dwattr $C$DW$269, DW_AT_name("GPIO38")
    2108                      .dwattr $C$DW$269, DW_AT_TI_symbol_name("_GPIO38")
    2109                      .dwattr $C$DW$269, DW_AT_bit_offset(0x09), DW_AT_bit_size(0x01)
    2110                      .dwattr $C$DW$269, DW_AT_data_member_location[DW_OP_plus_uconst 0x0]
    2111                      .dwattr $C$DW$269, DW_AT_accessibility(DW_ACCESS_public)
    2112              $C$DW$270       .dwtag  DW_TAG_member
    2113                      .dwattr $C$DW$270, DW_AT_type(*$C$DW$T$19)
    2114                      .dwattr $C$DW$270, DW_AT_name("GPIO39")
    2115                      .dwattr $C$DW$270, DW_AT_TI_symbol_name("_GPIO39")
    2116                      .dwattr $C$DW$270, DW_AT_bit_offset(0x08), DW_AT_bit_size(0x01)
    2117                      .dwattr $C$DW$270, DW_AT_data_member_location[DW_OP_plus_uconst 0x0]
    2118                      .dwattr $C$DW$270, DW_AT_accessibility(DW_ACCESS_public)
    2119              $C$DW$271       .dwtag  DW_TAG_member
    2120                      .dwattr $C$DW$271, DW_AT_type(*$C$DW$T$19)
    2121                      .dwattr $C$DW$271, DW_AT_name("GPIO40")
    2122                      .dwattr $C$DW$271, DW_AT_TI_symbol_name("_GPIO40")
    2123                      .dwattr $C$DW$271, DW_AT_bit_offset(0x07), DW_AT_bit_size(0x01)
    2124                      .dwattr $C$DW$271, DW_AT_data_member_location[DW_OP_plus_uconst 0x0]
TMS320C2000 Assembler PC v6.1.3 Thu Jan 30 10:32:22 2014

Tools Copyright (c) 1996-2012 Texas Instruments Incorporated
C:\Users\a0272466\AppData\Local\Temp\0608410                         PAGE   40

    2125                      .dwattr $C$DW$271, DW_AT_accessibility(DW_ACCESS_public)
    2126              $C$DW$272       .dwtag  DW_TAG_member
    2127                      .dwattr $C$DW$272, DW_AT_type(*$C$DW$T$19)
    2128                      .dwattr $C$DW$272, DW_AT_name("GPIO41")
    2129                      .dwattr $C$DW$272, DW_AT_TI_symbol_name("_GPIO41")
    2130                      .dwattr $C$DW$272, DW_AT_bit_offset(0x06), DW_AT_bit_size(0x01)
    2131                      .dwattr $C$DW$272, DW_AT_data_member_location[DW_OP_plus_uconst 0x0]
    2132                      .dwattr $C$DW$272, DW_AT_accessibility(DW_ACCESS_public)
    2133              $C$DW$273       .dwtag  DW_TAG_member
    2134                      .dwattr $C$DW$273, DW_AT_type(*$C$DW$T$19)
    2135                      .dwattr $C$DW$273, DW_AT_name("GPIO42")
    2136                      .dwattr $C$DW$273, DW_AT_TI_symbol_name("_GPIO42")
    2137                      .dwattr $C$DW$273, DW_AT_bit_offset(0x05), DW_AT_bit_size(0x01)
    2138                      .dwattr $C$DW$273, DW_AT_data_member_location[DW_OP_plus_uconst 0x0]
    2139                      .dwattr $C$DW$273, DW_AT_accessibility(DW_ACCESS_public)
    2140              $C$DW$274       .dwtag  DW_TAG_member
    2141                      .dwattr $C$DW$274, DW_AT_type(*$C$DW$T$19)
    2142                      .dwattr $C$DW$274, DW_AT_name("GPIO43")
    2143                      .dwattr $C$DW$274, DW_AT_TI_symbol_name("_GPIO43")
    2144                      .dwattr $C$DW$274, DW_AT_bit_offset(0x04), DW_AT_bit_size(0x01)
    2145                      .dwattr $C$DW$274, DW_AT_data_member_location[DW_OP_plus_uconst 0x0]
    2146                      .dwattr $C$DW$274, DW_AT_accessibility(DW_ACCESS_public)
    2147              $C$DW$275       .dwtag  DW_TAG_member
    2148                      .dwattr $C$DW$275, DW_AT_type(*$C$DW$T$19)
    2149                      .dwattr $C$DW$275, DW_AT_name("GPIO44")
    2150                      .dwattr $C$DW$275, DW_AT_TI_symbol_name("_GPIO44")
    2151                      .dwattr $C$DW$275, DW_AT_bit_offset(0x03), DW_AT_bit_size(0x01)
    2152                      .dwattr $C$DW$275, DW_AT_data_member_location[DW_OP_plus_uconst 0x0]
    2153                      .dwattr $C$DW$275, DW_AT_accessibility(DW_ACCESS_public)
    2154              $C$DW$276       .dwtag  DW_TAG_member
    2155                      .dwattr $C$DW$276, DW_AT_type(*$C$DW$T$19)
    2156                      .dwattr $C$DW$276, DW_AT_name("GPIO45")
    2157                      .dwattr $C$DW$276, DW_AT_TI_symbol_name("_GPIO45")
    2158                      .dwattr $C$DW$276, DW_AT_bit_offset(0x02), DW_AT_bit_size(0x01)
    2159                      .dwattr $C$DW$276, DW_AT_data_member_location[DW_OP_plus_uconst 0x0]
    2160                      .dwattr $C$DW$276, DW_AT_accessibility(DW_ACCESS_public)
    2161              $C$DW$277       .dwtag  DW_TAG_member
    2162                      .dwattr $C$DW$277, DW_AT_type(*$C$DW$T$19)
    2163                      .dwattr $C$DW$277, DW_AT_name("GPIO46")
    2164                      .dwattr $C$DW$277, DW_AT_TI_symbol_name("_GPIO46")
    2165                      .dwattr $C$DW$277, DW_AT_bit_offset(0x01), DW_AT_bit_size(0x01)
    2166                      .dwattr $C$DW$277, DW_AT_data_member_location[DW_OP_plus_uconst 0x0]
    2167                      .dwattr $C$DW$277, DW_AT_accessibility(DW_ACCESS_public)
    2168              $C$DW$278       .dwtag  DW_TAG_member
    2169                      .dwattr $C$DW$278, DW_AT_type(*$C$DW$T$19)
    2170                      .dwattr $C$DW$278, DW_AT_name("GPIO47")
    2171                      .dwattr $C$DW$278, DW_AT_TI_symbol_name("_GPIO47")
    2172                      .dwattr $C$DW$278, DW_AT_bit_offset(0x00), DW_AT_bit_size(0x01)
    2173                      .dwattr $C$DW$278, DW_AT_data_member_location[DW_OP_plus_uconst 0x0]
    2174                      .dwattr $C$DW$278, DW_AT_accessibility(DW_ACCESS_public)
    2175              $C$DW$279       .dwtag  DW_TAG_member
    2176                      .dwattr $C$DW$279, DW_AT_type(*$C$DW$T$19)
    2177                      .dwattr $C$DW$279, DW_AT_name("GPIO48")
    2178                      .dwattr $C$DW$279, DW_AT_TI_symbol_name("_GPIO48")
    2179                      .dwattr $C$DW$279, DW_AT_bit_offset(0x0f), DW_AT_bit_size(0x01)
TMS320C2000 Assembler PC v6.1.3 Thu Jan 30 10:32:22 2014

Tools Copyright (c) 1996-2012 Texas Instruments Incorporated
C:\Users\a0272466\AppData\Local\Temp\0608410                         PAGE   41

    2180                      .dwattr $C$DW$279, DW_AT_data_member_location[DW_OP_plus_uconst 0x1]
    2181                      .dwattr $C$DW$279, DW_AT_accessibility(DW_ACCESS_public)
    2182              $C$DW$280       .dwtag  DW_TAG_member
    2183                      .dwattr $C$DW$280, DW_AT_type(*$C$DW$T$19)
    2184                      .dwattr $C$DW$280, DW_AT_name("GPIO49")
    2185                      .dwattr $C$DW$280, DW_AT_TI_symbol_name("_GPIO49")
    2186                      .dwattr $C$DW$280, DW_AT_bit_offset(0x0e), DW_AT_bit_size(0x01)
    2187                      .dwattr $C$DW$280, DW_AT_data_member_location[DW_OP_plus_uconst 0x1]
    2188                      .dwattr $C$DW$280, DW_AT_accessibility(DW_ACCESS_public)
    2189              $C$DW$281       .dwtag  DW_TAG_member
    2190                      .dwattr $C$DW$281, DW_AT_type(*$C$DW$T$19)
    2191                      .dwattr $C$DW$281, DW_AT_name("GPIO50")
    2192                      .dwattr $C$DW$281, DW_AT_TI_symbol_name("_GPIO50")
    2193                      .dwattr $C$DW$281, DW_AT_bit_offset(0x0d), DW_AT_bit_size(0x01)
    2194                      .dwattr $C$DW$281, DW_AT_data_member_location[DW_OP_plus_uconst 0x1]
    2195                      .dwattr $C$DW$281, DW_AT_accessibility(DW_ACCESS_public)
    2196              $C$DW$282       .dwtag  DW_TAG_member
    2197                      .dwattr $C$DW$282, DW_AT_type(*$C$DW$T$19)
    2198                      .dwattr $C$DW$282, DW_AT_name("GPIO51")
    2199                      .dwattr $C$DW$282, DW_AT_TI_symbol_name("_GPIO51")
    2200                      .dwattr $C$DW$282, DW_AT_bit_offset(0x0c), DW_AT_bit_size(0x01)
    2201                      .dwattr $C$DW$282, DW_AT_data_member_location[DW_OP_plus_uconst 0x1]
    2202                      .dwattr $C$DW$282, DW_AT_accessibility(DW_ACCESS_public)
    2203              $C$DW$283       .dwtag  DW_TAG_member
    2204                      .dwattr $C$DW$283, DW_AT_type(*$C$DW$T$19)
    2205                      .dwattr $C$DW$283, DW_AT_name("GPIO52")
    2206                      .dwattr $C$DW$283, DW_AT_TI_symbol_name("_GPIO52")
    2207                      .dwattr $C$DW$283, DW_AT_bit_offset(0x0b), DW_AT_bit_size(0x01)
    2208                      .dwattr $C$DW$283, DW_AT_data_member_location[DW_OP_plus_uconst 0x1]
    2209                      .dwattr $C$DW$283, DW_AT_accessibility(DW_ACCESS_public)
    2210              $C$DW$284       .dwtag  DW_TAG_member
    2211                      .dwattr $C$DW$284, DW_AT_type(*$C$DW$T$19)
    2212                      .dwattr $C$DW$284, DW_AT_name("GPIO53")
    2213                      .dwattr $C$DW$284, DW_AT_TI_symbol_name("_GPIO53")
    2214                      .dwattr $C$DW$284, DW_AT_bit_offset(0x0a), DW_AT_bit_size(0x01)
    2215                      .dwattr $C$DW$284, DW_AT_data_member_location[DW_OP_plus_uconst 0x1]
    2216                      .dwattr $C$DW$284, DW_AT_accessibility(DW_ACCESS_public)
    2217              $C$DW$285       .dwtag  DW_TAG_member
    2218                      .dwattr $C$DW$285, DW_AT_type(*$C$DW$T$19)
    2219                      .dwattr $C$DW$285, DW_AT_name("GPIO54")
    2220                      .dwattr $C$DW$285, DW_AT_TI_symbol_name("_GPIO54")
    2221                      .dwattr $C$DW$285, DW_AT_bit_offset(0x09), DW_AT_bit_size(0x01)
    2222                      .dwattr $C$DW$285, DW_AT_data_member_location[DW_OP_plus_uconst 0x1]
    2223                      .dwattr $C$DW$285, DW_AT_accessibility(DW_ACCESS_public)
    2224              $C$DW$286       .dwtag  DW_TAG_member
    2225                      .dwattr $C$DW$286, DW_AT_type(*$C$DW$T$19)
    2226                      .dwattr $C$DW$286, DW_AT_name("GPIO55")
    2227                      .dwattr $C$DW$286, DW_AT_TI_symbol_name("_GPIO55")
    2228                      .dwattr $C$DW$286, DW_AT_bit_offset(0x08), DW_AT_bit_size(0x01)
    2229                      .dwattr $C$DW$286, DW_AT_data_member_location[DW_OP_plus_uconst 0x1]
    2230                      .dwattr $C$DW$286, DW_AT_accessibility(DW_ACCESS_public)
    2231              $C$DW$287       .dwtag  DW_TAG_member
    2232                      .dwattr $C$DW$287, DW_AT_type(*$C$DW$T$19)
    2233                      .dwattr $C$DW$287, DW_AT_name("GPIO56")
    2234                      .dwattr $C$DW$287, DW_AT_TI_symbol_name("_GPIO56")
TMS320C2000 Assembler PC v6.1.3 Thu Jan 30 10:32:22 2014

Tools Copyright (c) 1996-2012 Texas Instruments Incorporated
C:\Users\a0272466\AppData\Local\Temp\0608410                         PAGE   42

    2235                      .dwattr $C$DW$287, DW_AT_bit_offset(0x07), DW_AT_bit_size(0x01)
    2236                      .dwattr $C$DW$287, DW_AT_data_member_location[DW_OP_plus_uconst 0x1]
    2237                      .dwattr $C$DW$287, DW_AT_accessibility(DW_ACCESS_public)
    2238              $C$DW$288       .dwtag  DW_TAG_member
    2239                      .dwattr $C$DW$288, DW_AT_type(*$C$DW$T$19)
    2240                      .dwattr $C$DW$288, DW_AT_name("GPIO57")
    2241                      .dwattr $C$DW$288, DW_AT_TI_symbol_name("_GPIO57")
    2242                      .dwattr $C$DW$288, DW_AT_bit_offset(0x06), DW_AT_bit_size(0x01)
    2243                      .dwattr $C$DW$288, DW_AT_data_member_location[DW_OP_plus_uconst 0x1]
    2244                      .dwattr $C$DW$288, DW_AT_accessibility(DW_ACCESS_public)
    2245              $C$DW$289       .dwtag  DW_TAG_member
    2246                      .dwattr $C$DW$289, DW_AT_type(*$C$DW$T$19)
    2247                      .dwattr $C$DW$289, DW_AT_name("GPIO58")
    2248                      .dwattr $C$DW$289, DW_AT_TI_symbol_name("_GPIO58")
    2249                      .dwattr $C$DW$289, DW_AT_bit_offset(0x05), DW_AT_bit_size(0x01)
    2250                      .dwattr $C$DW$289, DW_AT_data_member_location[DW_OP_plus_uconst 0x1]
    2251                      .dwattr $C$DW$289, DW_AT_accessibility(DW_ACCESS_public)
    2252              $C$DW$290       .dwtag  DW_TAG_member
    2253                      .dwattr $C$DW$290, DW_AT_type(*$C$DW$T$19)
    2254                      .dwattr $C$DW$290, DW_AT_name("GPIO59")
    2255                      .dwattr $C$DW$290, DW_AT_TI_symbol_name("_GPIO59")
    2256                      .dwattr $C$DW$290, DW_AT_bit_offset(0x04), DW_AT_bit_size(0x01)
    2257                      .dwattr $C$DW$290, DW_AT_data_member_location[DW_OP_plus_uconst 0x1]
    2258                      .dwattr $C$DW$290, DW_AT_accessibility(DW_ACCESS_public)
    2259              $C$DW$291       .dwtag  DW_TAG_member
    2260                      .dwattr $C$DW$291, DW_AT_type(*$C$DW$T$19)
    2261                      .dwattr $C$DW$291, DW_AT_name("GPIO60")
    2262                      .dwattr $C$DW$291, DW_AT_TI_symbol_name("_GPIO60")
    2263                      .dwattr $C$DW$291, DW_AT_bit_offset(0x03), DW_AT_bit_size(0x01)
    2264                      .dwattr $C$DW$291, DW_AT_data_member_location[DW_OP_plus_uconst 0x1]
    2265                      .dwattr $C$DW$291, DW_AT_accessibility(DW_ACCESS_public)
    2266              $C$DW$292       .dwtag  DW_TAG_member
    2267                      .dwattr $C$DW$292, DW_AT_type(*$C$DW$T$19)
    2268                      .dwattr $C$DW$292, DW_AT_name("GPIO61")
    2269                      .dwattr $C$DW$292, DW_AT_TI_symbol_name("_GPIO61")
    2270                      .dwattr $C$DW$292, DW_AT_bit_offset(0x02), DW_AT_bit_size(0x01)
    2271                      .dwattr $C$DW$292, DW_AT_data_member_location[DW_OP_plus_uconst 0x1]
    2272                      .dwattr $C$DW$292, DW_AT_accessibility(DW_ACCESS_public)
    2273              $C$DW$293       .dwtag  DW_TAG_member
    2274                      .dwattr $C$DW$293, DW_AT_type(*$C$DW$T$19)
    2275                      .dwattr $C$DW$293, DW_AT_name("GPIO62")
    2276                      .dwattr $C$DW$293, DW_AT_TI_symbol_name("_GPIO62")
    2277                      .dwattr $C$DW$293, DW_AT_bit_offset(0x01), DW_AT_bit_size(0x01)
    2278                      .dwattr $C$DW$293, DW_AT_data_member_location[DW_OP_plus_uconst 0x1]
    2279                      .dwattr $C$DW$293, DW_AT_accessibility(DW_ACCESS_public)
    2280              $C$DW$294       .dwtag  DW_TAG_member
    2281                      .dwattr $C$DW$294, DW_AT_type(*$C$DW$T$19)
    2282                      .dwattr $C$DW$294, DW_AT_name("GPIO63")
    2283                      .dwattr $C$DW$294, DW_AT_TI_symbol_name("_GPIO63")
    2284                      .dwattr $C$DW$294, DW_AT_bit_offset(0x00), DW_AT_bit_size(0x01)
    2285                      .dwattr $C$DW$294, DW_AT_data_member_location[DW_OP_plus_uconst 0x1]
    2286                      .dwattr $C$DW$294, DW_AT_accessibility(DW_ACCESS_public)
    2287                      .dwendtag $C$DW$T$35
    2288              
    2289              
TMS320C2000 Assembler PC v6.1.3 Thu Jan 30 10:32:22 2014

Tools Copyright (c) 1996-2012 Texas Instruments Incorporated
C:\Users\a0272466\AppData\Local\Temp\0608410                         PAGE   43

    2290              $C$DW$T$36      .dwtag  DW_TAG_union_type
    2291                      .dwattr $C$DW$T$36, DW_AT_name("GPBTOGGLE_REG")
    2292                      .dwattr $C$DW$T$36, DW_AT_byte_size(0x02)
    2293              $C$DW$295       .dwtag  DW_TAG_member
    2294                      .dwattr $C$DW$295, DW_AT_type(*$C$DW$T$21)
    2295                      .dwattr $C$DW$295, DW_AT_name("all")
    2296                      .dwattr $C$DW$295, DW_AT_TI_symbol_name("_all")
    2297                      .dwattr $C$DW$295, DW_AT_data_member_location[DW_OP_plus_uconst 0x0]
    2298                      .dwattr $C$DW$295, DW_AT_accessibility(DW_ACCESS_public)
    2299              $C$DW$296       .dwtag  DW_TAG_member
    2300                      .dwattr $C$DW$296, DW_AT_type(*$C$DW$T$35)
    2301                      .dwattr $C$DW$296, DW_AT_name("bit")
    2302                      .dwattr $C$DW$296, DW_AT_TI_symbol_name("_bit")
    2303                      .dwattr $C$DW$296, DW_AT_data_member_location[DW_OP_plus_uconst 0x0]
    2304                      .dwattr $C$DW$296, DW_AT_accessibility(DW_ACCESS_public)
    2305                      .dwendtag $C$DW$T$36
    2306              
    2307              
    2308              $C$DW$T$37      .dwtag  DW_TAG_structure_type
    2309                      .dwattr $C$DW$T$37, DW_AT_name("GPCCLEAR_BITS")
    2310                      .dwattr $C$DW$T$37, DW_AT_byte_size(0x02)
    2311              $C$DW$297       .dwtag  DW_TAG_member
    2312                      .dwattr $C$DW$297, DW_AT_type(*$C$DW$T$19)
    2313                      .dwattr $C$DW$297, DW_AT_name("GPIO64")
    2314                      .dwattr $C$DW$297, DW_AT_TI_symbol_name("_GPIO64")
    2315                      .dwattr $C$DW$297, DW_AT_bit_offset(0x0f), DW_AT_bit_size(0x01)
    2316                      .dwattr $C$DW$297, DW_AT_data_member_location[DW_OP_plus_uconst 0x0]
    2317                      .dwattr $C$DW$297, DW_AT_accessibility(DW_ACCESS_public)
    2318              $C$DW$298       .dwtag  DW_TAG_member
    2319                      .dwattr $C$DW$298, DW_AT_type(*$C$DW$T$19)
    2320                      .dwattr $C$DW$298, DW_AT_name("GPIO65")
    2321                      .dwattr $C$DW$298, DW_AT_TI_symbol_name("_GPIO65")
    2322                      .dwattr $C$DW$298, DW_AT_bit_offset(0x0e), DW_AT_bit_size(0x01)
    2323                      .dwattr $C$DW$298, DW_AT_data_member_location[DW_OP_plus_uconst 0x0]
    2324                      .dwattr $C$DW$298, DW_AT_accessibility(DW_ACCESS_public)
    2325              $C$DW$299       .dwtag  DW_TAG_member
    2326                      .dwattr $C$DW$299, DW_AT_type(*$C$DW$T$19)
    2327                      .dwattr $C$DW$299, DW_AT_name("GPIO66")
    2328                      .dwattr $C$DW$299, DW_AT_TI_symbol_name("_GPIO66")
    2329                      .dwattr $C$DW$299, DW_AT_bit_offset(0x0d), DW_AT_bit_size(0x01)
    2330                      .dwattr $C$DW$299, DW_AT_data_member_location[DW_OP_plus_uconst 0x0]
    2331                      .dwattr $C$DW$299, DW_AT_accessibility(DW_ACCESS_public)
    2332              $C$DW$300       .dwtag  DW_TAG_member
    2333                      .dwattr $C$DW$300, DW_AT_type(*$C$DW$T$19)
    2334                      .dwattr $C$DW$300, DW_AT_name("GPIO67")
    2335                      .dwattr $C$DW$300, DW_AT_TI_symbol_name("_GPIO67")
    2336                      .dwattr $C$DW$300, DW_AT_bit_offset(0x0c), DW_AT_bit_size(0x01)
    2337                      .dwattr $C$DW$300, DW_AT_data_member_location[DW_OP_plus_uconst 0x0]
    2338                      .dwattr $C$DW$300, DW_AT_accessibility(DW_ACCESS_public)
    2339              $C$DW$301       .dwtag  DW_TAG_member
    2340                      .dwattr $C$DW$301, DW_AT_type(*$C$DW$T$19)
    2341                      .dwattr $C$DW$301, DW_AT_name("GPIO68")
    2342                      .dwattr $C$DW$301, DW_AT_TI_symbol_name("_GPIO68")
    2343                      .dwattr $C$DW$301, DW_AT_bit_offset(0x0b), DW_AT_bit_size(0x01)
    2344                      .dwattr $C$DW$301, DW_AT_data_member_location[DW_OP_plus_uconst 0x0]
TMS320C2000 Assembler PC v6.1.3 Thu Jan 30 10:32:22 2014

Tools Copyright (c) 1996-2012 Texas Instruments Incorporated
C:\Users\a0272466\AppData\Local\Temp\0608410                         PAGE   44

    2345                      .dwattr $C$DW$301, DW_AT_accessibility(DW_ACCESS_public)
    2346              $C$DW$302       .dwtag  DW_TAG_member
    2347                      .dwattr $C$DW$302, DW_AT_type(*$C$DW$T$19)
    2348                      .dwattr $C$DW$302, DW_AT_name("GPIO69")
    2349                      .dwattr $C$DW$302, DW_AT_TI_symbol_name("_GPIO69")
    2350                      .dwattr $C$DW$302, DW_AT_bit_offset(0x0a), DW_AT_bit_size(0x01)
    2351                      .dwattr $C$DW$302, DW_AT_data_member_location[DW_OP_plus_uconst 0x0]
    2352                      .dwattr $C$DW$302, DW_AT_accessibility(DW_ACCESS_public)
    2353              $C$DW$303       .dwtag  DW_TAG_member
    2354                      .dwattr $C$DW$303, DW_AT_type(*$C$DW$T$19)
    2355                      .dwattr $C$DW$303, DW_AT_name("GPIO70")
    2356                      .dwattr $C$DW$303, DW_AT_TI_symbol_name("_GPIO70")
    2357                      .dwattr $C$DW$303, DW_AT_bit_offset(0x09), DW_AT_bit_size(0x01)
    2358                      .dwattr $C$DW$303, DW_AT_data_member_location[DW_OP_plus_uconst 0x0]
    2359                      .dwattr $C$DW$303, DW_AT_accessibility(DW_ACCESS_public)
    2360              $C$DW$304       .dwtag  DW_TAG_member
    2361                      .dwattr $C$DW$304, DW_AT_type(*$C$DW$T$19)
    2362                      .dwattr $C$DW$304, DW_AT_name("GPIO71")
    2363                      .dwattr $C$DW$304, DW_AT_TI_symbol_name("_GPIO71")
    2364                      .dwattr $C$DW$304, DW_AT_bit_offset(0x08), DW_AT_bit_size(0x01)
    2365                      .dwattr $C$DW$304, DW_AT_data_member_location[DW_OP_plus_uconst 0x0]
    2366                      .dwattr $C$DW$304, DW_AT_accessibility(DW_ACCESS_public)
    2367              $C$DW$305       .dwtag  DW_TAG_member
    2368                      .dwattr $C$DW$305, DW_AT_type(*$C$DW$T$19)
    2369                      .dwattr $C$DW$305, DW_AT_name("GPIO72")
    2370                      .dwattr $C$DW$305, DW_AT_TI_symbol_name("_GPIO72")
    2371                      .dwattr $C$DW$305, DW_AT_bit_offset(0x07), DW_AT_bit_size(0x01)
    2372                      .dwattr $C$DW$305, DW_AT_data_member_location[DW_OP_plus_uconst 0x0]
    2373                      .dwattr $C$DW$305, DW_AT_accessibility(DW_ACCESS_public)
    2374              $C$DW$306       .dwtag  DW_TAG_member
    2375                      .dwattr $C$DW$306, DW_AT_type(*$C$DW$T$19)
    2376                      .dwattr $C$DW$306, DW_AT_name("GPIO73")
    2377                      .dwattr $C$DW$306, DW_AT_TI_symbol_name("_GPIO73")
    2378                      .dwattr $C$DW$306, DW_AT_bit_offset(0x06), DW_AT_bit_size(0x01)
    2379                      .dwattr $C$DW$306, DW_AT_data_member_location[DW_OP_plus_uconst 0x0]
    2380                      .dwattr $C$DW$306, DW_AT_accessibility(DW_ACCESS_public)
    2381              $C$DW$307       .dwtag  DW_TAG_member
    2382                      .dwattr $C$DW$307, DW_AT_type(*$C$DW$T$19)
    2383                      .dwattr $C$DW$307, DW_AT_name("GPIO74")
    2384                      .dwattr $C$DW$307, DW_AT_TI_symbol_name("_GPIO74")
    2385                      .dwattr $C$DW$307, DW_AT_bit_offset(0x05), DW_AT_bit_size(0x01)
    2386                      .dwattr $C$DW$307, DW_AT_data_member_location[DW_OP_plus_uconst 0x0]
    2387                      .dwattr $C$DW$307, DW_AT_accessibility(DW_ACCESS_public)
    2388              $C$DW$308       .dwtag  DW_TAG_member
    2389                      .dwattr $C$DW$308, DW_AT_type(*$C$DW$T$19)
    2390                      .dwattr $C$DW$308, DW_AT_name("GPIO75")
    2391                      .dwattr $C$DW$308, DW_AT_TI_symbol_name("_GPIO75")
    2392                      .dwattr $C$DW$308, DW_AT_bit_offset(0x04), DW_AT_bit_size(0x01)
    2393                      .dwattr $C$DW$308, DW_AT_data_member_location[DW_OP_plus_uconst 0x0]
    2394                      .dwattr $C$DW$308, DW_AT_accessibility(DW_ACCESS_public)
    2395              $C$DW$309       .dwtag  DW_TAG_member
    2396                      .dwattr $C$DW$309, DW_AT_type(*$C$DW$T$19)
    2397                      .dwattr $C$DW$309, DW_AT_name("GPIO76")
    2398                      .dwattr $C$DW$309, DW_AT_TI_symbol_name("_GPIO76")
    2399                      .dwattr $C$DW$309, DW_AT_bit_offset(0x03), DW_AT_bit_size(0x01)
TMS320C2000 Assembler PC v6.1.3 Thu Jan 30 10:32:22 2014

Tools Copyright (c) 1996-2012 Texas Instruments Incorporated
C:\Users\a0272466\AppData\Local\Temp\0608410                         PAGE   45

    2400                      .dwattr $C$DW$309, DW_AT_data_member_location[DW_OP_plus_uconst 0x0]
    2401                      .dwattr $C$DW$309, DW_AT_accessibility(DW_ACCESS_public)
    2402              $C$DW$310       .dwtag  DW_TAG_member
    2403                      .dwattr $C$DW$310, DW_AT_type(*$C$DW$T$19)
    2404                      .dwattr $C$DW$310, DW_AT_name("GPIO77")
    2405                      .dwattr $C$DW$310, DW_AT_TI_symbol_name("_GPIO77")
    2406                      .dwattr $C$DW$310, DW_AT_bit_offset(0x02), DW_AT_bit_size(0x01)
    2407                      .dwattr $C$DW$310, DW_AT_data_member_location[DW_OP_plus_uconst 0x0]
    2408                      .dwattr $C$DW$310, DW_AT_accessibility(DW_ACCESS_public)
    2409              $C$DW$311       .dwtag  DW_TAG_member
    2410                      .dwattr $C$DW$311, DW_AT_type(*$C$DW$T$19)
    2411                      .dwattr $C$DW$311, DW_AT_name("GPIO78")
    2412                      .dwattr $C$DW$311, DW_AT_TI_symbol_name("_GPIO78")
    2413                      .dwattr $C$DW$311, DW_AT_bit_offset(0x01), DW_AT_bit_size(0x01)
    2414                      .dwattr $C$DW$311, DW_AT_data_member_location[DW_OP_plus_uconst 0x0]
    2415                      .dwattr $C$DW$311, DW_AT_accessibility(DW_ACCESS_public)
    2416              $C$DW$312       .dwtag  DW_TAG_member
    2417                      .dwattr $C$DW$312, DW_AT_type(*$C$DW$T$19)
    2418                      .dwattr $C$DW$312, DW_AT_name("GPIO79")
    2419                      .dwattr $C$DW$312, DW_AT_TI_symbol_name("_GPIO79")
    2420                      .dwattr $C$DW$312, DW_AT_bit_offset(0x00), DW_AT_bit_size(0x01)
    2421                      .dwattr $C$DW$312, DW_AT_data_member_location[DW_OP_plus_uconst 0x0]
    2422                      .dwattr $C$DW$312, DW_AT_accessibility(DW_ACCESS_public)
    2423              $C$DW$313       .dwtag  DW_TAG_member
    2424                      .dwattr $C$DW$313, DW_AT_type(*$C$DW$T$19)
    2425                      .dwattr $C$DW$313, DW_AT_name("GPIO80")
    2426                      .dwattr $C$DW$313, DW_AT_TI_symbol_name("_GPIO80")
    2427                      .dwattr $C$DW$313, DW_AT_bit_offset(0x0f), DW_AT_bit_size(0x01)
    2428                      .dwattr $C$DW$313, DW_AT_data_member_location[DW_OP_plus_uconst 0x1]
    2429                      .dwattr $C$DW$313, DW_AT_accessibility(DW_ACCESS_public)
    2430              $C$DW$314       .dwtag  DW_TAG_member
    2431                      .dwattr $C$DW$314, DW_AT_type(*$C$DW$T$19)
    2432                      .dwattr $C$DW$314, DW_AT_name("GPIO81")
    2433                      .dwattr $C$DW$314, DW_AT_TI_symbol_name("_GPIO81")
    2434                      .dwattr $C$DW$314, DW_AT_bit_offset(0x0e), DW_AT_bit_size(0x01)
    2435                      .dwattr $C$DW$314, DW_AT_data_member_location[DW_OP_plus_uconst 0x1]
    2436                      .dwattr $C$DW$314, DW_AT_accessibility(DW_ACCESS_public)
    2437              $C$DW$315       .dwtag  DW_TAG_member
    2438                      .dwattr $C$DW$315, DW_AT_type(*$C$DW$T$19)
    2439                      .dwattr $C$DW$315, DW_AT_name("GPIO82")
    2440                      .dwattr $C$DW$315, DW_AT_TI_symbol_name("_GPIO82")
    2441                      .dwattr $C$DW$315, DW_AT_bit_offset(0x0d), DW_AT_bit_size(0x01)
    2442                      .dwattr $C$DW$315, DW_AT_data_member_location[DW_OP_plus_uconst 0x1]
    2443                      .dwattr $C$DW$315, DW_AT_accessibility(DW_ACCESS_public)
    2444              $C$DW$316       .dwtag  DW_TAG_member
    2445                      .dwattr $C$DW$316, DW_AT_type(*$C$DW$T$19)
    2446                      .dwattr $C$DW$316, DW_AT_name("GPIO83")
    2447                      .dwattr $C$DW$316, DW_AT_TI_symbol_name("_GPIO83")
    2448                      .dwattr $C$DW$316, DW_AT_bit_offset(0x0c), DW_AT_bit_size(0x01)
    2449                      .dwattr $C$DW$316, DW_AT_data_member_location[DW_OP_plus_uconst 0x1]
    2450                      .dwattr $C$DW$316, DW_AT_accessibility(DW_ACCESS_public)
    2451              $C$DW$317       .dwtag  DW_TAG_member
    2452                      .dwattr $C$DW$317, DW_AT_type(*$C$DW$T$19)
    2453                      .dwattr $C$DW$317, DW_AT_name("GPIO84")
    2454                      .dwattr $C$DW$317, DW_AT_TI_symbol_name("_GPIO84")
TMS320C2000 Assembler PC v6.1.3 Thu Jan 30 10:32:22 2014

Tools Copyright (c) 1996-2012 Texas Instruments Incorporated
C:\Users\a0272466\AppData\Local\Temp\0608410                         PAGE   46

    2455                      .dwattr $C$DW$317, DW_AT_bit_offset(0x0b), DW_AT_bit_size(0x01)
    2456                      .dwattr $C$DW$317, DW_AT_data_member_location[DW_OP_plus_uconst 0x1]
    2457                      .dwattr $C$DW$317, DW_AT_accessibility(DW_ACCESS_public)
    2458              $C$DW$318       .dwtag  DW_TAG_member
    2459                      .dwattr $C$DW$318, DW_AT_type(*$C$DW$T$19)
    2460                      .dwattr $C$DW$318, DW_AT_name("GPIO85")
    2461                      .dwattr $C$DW$318, DW_AT_TI_symbol_name("_GPIO85")
    2462                      .dwattr $C$DW$318, DW_AT_bit_offset(0x0a), DW_AT_bit_size(0x01)
    2463                      .dwattr $C$DW$318, DW_AT_data_member_location[DW_OP_plus_uconst 0x1]
    2464                      .dwattr $C$DW$318, DW_AT_accessibility(DW_ACCESS_public)
    2465              $C$DW$319       .dwtag  DW_TAG_member
    2466                      .dwattr $C$DW$319, DW_AT_type(*$C$DW$T$19)
    2467                      .dwattr $C$DW$319, DW_AT_name("GPIO86")
    2468                      .dwattr $C$DW$319, DW_AT_TI_symbol_name("_GPIO86")
    2469                      .dwattr $C$DW$319, DW_AT_bit_offset(0x09), DW_AT_bit_size(0x01)
    2470                      .dwattr $C$DW$319, DW_AT_data_member_location[DW_OP_plus_uconst 0x1]
    2471                      .dwattr $C$DW$319, DW_AT_accessibility(DW_ACCESS_public)
    2472              $C$DW$320       .dwtag  DW_TAG_member
    2473                      .dwattr $C$DW$320, DW_AT_type(*$C$DW$T$19)
    2474                      .dwattr $C$DW$320, DW_AT_name("GPIO87")
    2475                      .dwattr $C$DW$320, DW_AT_TI_symbol_name("_GPIO87")
    2476                      .dwattr $C$DW$320, DW_AT_bit_offset(0x08), DW_AT_bit_size(0x01)
    2477                      .dwattr $C$DW$320, DW_AT_data_member_location[DW_OP_plus_uconst 0x1]
    2478                      .dwattr $C$DW$320, DW_AT_accessibility(DW_ACCESS_public)
    2479              $C$DW$321       .dwtag  DW_TAG_member
    2480                      .dwattr $C$DW$321, DW_AT_type(*$C$DW$T$19)
    2481                      .dwattr $C$DW$321, DW_AT_name("GPIO88")
    2482                      .dwattr $C$DW$321, DW_AT_TI_symbol_name("_GPIO88")
    2483                      .dwattr $C$DW$321, DW_AT_bit_offset(0x07), DW_AT_bit_size(0x01)
    2484                      .dwattr $C$DW$321, DW_AT_data_member_location[DW_OP_plus_uconst 0x1]
    2485                      .dwattr $C$DW$321, DW_AT_accessibility(DW_ACCESS_public)
    2486              $C$DW$322       .dwtag  DW_TAG_member
    2487                      .dwattr $C$DW$322, DW_AT_type(*$C$DW$T$19)
    2488                      .dwattr $C$DW$322, DW_AT_name("GPIO89")
    2489                      .dwattr $C$DW$322, DW_AT_TI_symbol_name("_GPIO89")
    2490                      .dwattr $C$DW$322, DW_AT_bit_offset(0x06), DW_AT_bit_size(0x01)
    2491                      .dwattr $C$DW$322, DW_AT_data_member_location[DW_OP_plus_uconst 0x1]
    2492                      .dwattr $C$DW$322, DW_AT_accessibility(DW_ACCESS_public)
    2493              $C$DW$323       .dwtag  DW_TAG_member
    2494                      .dwattr $C$DW$323, DW_AT_type(*$C$DW$T$19)
    2495                      .dwattr $C$DW$323, DW_AT_name("GPIO90")
    2496                      .dwattr $C$DW$323, DW_AT_TI_symbol_name("_GPIO90")
    2497                      .dwattr $C$DW$323, DW_AT_bit_offset(0x05), DW_AT_bit_size(0x01)
    2498                      .dwattr $C$DW$323, DW_AT_data_member_location[DW_OP_plus_uconst 0x1]
    2499                      .dwattr $C$DW$323, DW_AT_accessibility(DW_ACCESS_public)
    2500              $C$DW$324       .dwtag  DW_TAG_member
    2501                      .dwattr $C$DW$324, DW_AT_type(*$C$DW$T$19)
    2502                      .dwattr $C$DW$324, DW_AT_name("GPIO91")
    2503                      .dwattr $C$DW$324, DW_AT_TI_symbol_name("_GPIO91")
    2504                      .dwattr $C$DW$324, DW_AT_bit_offset(0x04), DW_AT_bit_size(0x01)
    2505                      .dwattr $C$DW$324, DW_AT_data_member_location[DW_OP_plus_uconst 0x1]
    2506                      .dwattr $C$DW$324, DW_AT_accessibility(DW_ACCESS_public)
    2507              $C$DW$325       .dwtag  DW_TAG_member
    2508                      .dwattr $C$DW$325, DW_AT_type(*$C$DW$T$19)
    2509                      .dwattr $C$DW$325, DW_AT_name("GPIO92")
TMS320C2000 Assembler PC v6.1.3 Thu Jan 30 10:32:22 2014

Tools Copyright (c) 1996-2012 Texas Instruments Incorporated
C:\Users\a0272466\AppData\Local\Temp\0608410                         PAGE   47

    2510                      .dwattr $C$DW$325, DW_AT_TI_symbol_name("_GPIO92")
    2511                      .dwattr $C$DW$325, DW_AT_bit_offset(0x03), DW_AT_bit_size(0x01)
    2512                      .dwattr $C$DW$325, DW_AT_data_member_location[DW_OP_plus_uconst 0x1]
    2513                      .dwattr $C$DW$325, DW_AT_accessibility(DW_ACCESS_public)
    2514              $C$DW$326       .dwtag  DW_TAG_member
    2515                      .dwattr $C$DW$326, DW_AT_type(*$C$DW$T$19)
    2516                      .dwattr $C$DW$326, DW_AT_name("GPIO93")
    2517                      .dwattr $C$DW$326, DW_AT_TI_symbol_name("_GPIO93")
    2518                      .dwattr $C$DW$326, DW_AT_bit_offset(0x02), DW_AT_bit_size(0x01)
    2519                      .dwattr $C$DW$326, DW_AT_data_member_location[DW_OP_plus_uconst 0x1]
    2520                      .dwattr $C$DW$326, DW_AT_accessibility(DW_ACCESS_public)
    2521              $C$DW$327       .dwtag  DW_TAG_member
    2522                      .dwattr $C$DW$327, DW_AT_type(*$C$DW$T$19)
    2523                      .dwattr $C$DW$327, DW_AT_name("GPIO94")
    2524                      .dwattr $C$DW$327, DW_AT_TI_symbol_name("_GPIO94")
    2525                      .dwattr $C$DW$327, DW_AT_bit_offset(0x01), DW_AT_bit_size(0x01)
    2526                      .dwattr $C$DW$327, DW_AT_data_member_location[DW_OP_plus_uconst 0x1]
    2527                      .dwattr $C$DW$327, DW_AT_accessibility(DW_ACCESS_public)
    2528              $C$DW$328       .dwtag  DW_TAG_member
    2529                      .dwattr $C$DW$328, DW_AT_type(*$C$DW$T$19)
    2530                      .dwattr $C$DW$328, DW_AT_name("GPIO95")
    2531                      .dwattr $C$DW$328, DW_AT_TI_symbol_name("_GPIO95")
    2532                      .dwattr $C$DW$328, DW_AT_bit_offset(0x00), DW_AT_bit_size(0x01)
    2533                      .dwattr $C$DW$328, DW_AT_data_member_location[DW_OP_plus_uconst 0x1]
    2534                      .dwattr $C$DW$328, DW_AT_accessibility(DW_ACCESS_public)
    2535                      .dwendtag $C$DW$T$37
    2536              
    2537              
    2538              $C$DW$T$38      .dwtag  DW_TAG_union_type
    2539                      .dwattr $C$DW$T$38, DW_AT_name("GPCCLEAR_REG")
    2540                      .dwattr $C$DW$T$38, DW_AT_byte_size(0x02)
    2541              $C$DW$329       .dwtag  DW_TAG_member
    2542                      .dwattr $C$DW$329, DW_AT_type(*$C$DW$T$21)
    2543                      .dwattr $C$DW$329, DW_AT_name("all")
    2544                      .dwattr $C$DW$329, DW_AT_TI_symbol_name("_all")
    2545                      .dwattr $C$DW$329, DW_AT_data_member_location[DW_OP_plus_uconst 0x0]
    2546                      .dwattr $C$DW$329, DW_AT_accessibility(DW_ACCESS_public)
    2547              $C$DW$330       .dwtag  DW_TAG_member
    2548                      .dwattr $C$DW$330, DW_AT_type(*$C$DW$T$37)
    2549                      .dwattr $C$DW$330, DW_AT_name("bit")
    2550                      .dwattr $C$DW$330, DW_AT_TI_symbol_name("_bit")
    2551                      .dwattr $C$DW$330, DW_AT_data_member_location[DW_OP_plus_uconst 0x0]
    2552                      .dwattr $C$DW$330, DW_AT_accessibility(DW_ACCESS_public)
    2553                      .dwendtag $C$DW$T$38
    2554              
    2555              
    2556              $C$DW$T$39      .dwtag  DW_TAG_structure_type
    2557                      .dwattr $C$DW$T$39, DW_AT_name("GPCDAT_BITS")
    2558                      .dwattr $C$DW$T$39, DW_AT_byte_size(0x02)
    2559              $C$DW$331       .dwtag  DW_TAG_member
    2560                      .dwattr $C$DW$331, DW_AT_type(*$C$DW$T$19)
    2561                      .dwattr $C$DW$331, DW_AT_name("GPIO64")
    2562                      .dwattr $C$DW$331, DW_AT_TI_symbol_name("_GPIO64")
    2563                      .dwattr $C$DW$331, DW_AT_bit_offset(0x0f), DW_AT_bit_size(0x01)
    2564                      .dwattr $C$DW$331, DW_AT_data_member_location[DW_OP_plus_uconst 0x0]
TMS320C2000 Assembler PC v6.1.3 Thu Jan 30 10:32:22 2014

Tools Copyright (c) 1996-2012 Texas Instruments Incorporated
C:\Users\a0272466\AppData\Local\Temp\0608410                         PAGE   48

    2565                      .dwattr $C$DW$331, DW_AT_accessibility(DW_ACCESS_public)
    2566              $C$DW$332       .dwtag  DW_TAG_member
    2567                      .dwattr $C$DW$332, DW_AT_type(*$C$DW$T$19)
    2568                      .dwattr $C$DW$332, DW_AT_name("GPIO65")
    2569                      .dwattr $C$DW$332, DW_AT_TI_symbol_name("_GPIO65")
    2570                      .dwattr $C$DW$332, DW_AT_bit_offset(0x0e), DW_AT_bit_size(0x01)
    2571                      .dwattr $C$DW$332, DW_AT_data_member_location[DW_OP_plus_uconst 0x0]
    2572                      .dwattr $C$DW$332, DW_AT_accessibility(DW_ACCESS_public)
    2573              $C$DW$333       .dwtag  DW_TAG_member
    2574                      .dwattr $C$DW$333, DW_AT_type(*$C$DW$T$19)
    2575                      .dwattr $C$DW$333, DW_AT_name("GPIO66")
    2576                      .dwattr $C$DW$333, DW_AT_TI_symbol_name("_GPIO66")
    2577                      .dwattr $C$DW$333, DW_AT_bit_offset(0x0d), DW_AT_bit_size(0x01)
    2578                      .dwattr $C$DW$333, DW_AT_data_member_location[DW_OP_plus_uconst 0x0]
    2579                      .dwattr $C$DW$333, DW_AT_accessibility(DW_ACCESS_public)
    2580              $C$DW$334       .dwtag  DW_TAG_member
    2581                      .dwattr $C$DW$334, DW_AT_type(*$C$DW$T$19)
    2582                      .dwattr $C$DW$334, DW_AT_name("GPIO67")
    2583                      .dwattr $C$DW$334, DW_AT_TI_symbol_name("_GPIO67")
    2584                      .dwattr $C$DW$334, DW_AT_bit_offset(0x0c), DW_AT_bit_size(0x01)
    2585                      .dwattr $C$DW$334, DW_AT_data_member_location[DW_OP_plus_uconst 0x0]
    2586                      .dwattr $C$DW$334, DW_AT_accessibility(DW_ACCESS_public)
    2587              $C$DW$335       .dwtag  DW_TAG_member
    2588                      .dwattr $C$DW$335, DW_AT_type(*$C$DW$T$19)
    2589                      .dwattr $C$DW$335, DW_AT_name("GPIO68")
    2590                      .dwattr $C$DW$335, DW_AT_TI_symbol_name("_GPIO68")
    2591                      .dwattr $C$DW$335, DW_AT_bit_offset(0x0b), DW_AT_bit_size(0x01)
    2592                      .dwattr $C$DW$335, DW_AT_data_member_location[DW_OP_plus_uconst 0x0]
    2593                      .dwattr $C$DW$335, DW_AT_accessibility(DW_ACCESS_public)
    2594              $C$DW$336       .dwtag  DW_TAG_member
    2595                      .dwattr $C$DW$336, DW_AT_type(*$C$DW$T$19)
    2596                      .dwattr $C$DW$336, DW_AT_name("GPIO69")
    2597                      .dwattr $C$DW$336, DW_AT_TI_symbol_name("_GPIO69")
    2598                      .dwattr $C$DW$336, DW_AT_bit_offset(0x0a), DW_AT_bit_size(0x01)
    2599                      .dwattr $C$DW$336, DW_AT_data_member_location[DW_OP_plus_uconst 0x0]
    2600                      .dwattr $C$DW$336, DW_AT_accessibility(DW_ACCESS_public)
    2601              $C$DW$337       .dwtag  DW_TAG_member
    2602                      .dwattr $C$DW$337, DW_AT_type(*$C$DW$T$19)
    2603                      .dwattr $C$DW$337, DW_AT_name("GPIO70")
    2604                      .dwattr $C$DW$337, DW_AT_TI_symbol_name("_GPIO70")
    2605                      .dwattr $C$DW$337, DW_AT_bit_offset(0x09), DW_AT_bit_size(0x01)
    2606                      .dwattr $C$DW$337, DW_AT_data_member_location[DW_OP_plus_uconst 0x0]
    2607                      .dwattr $C$DW$337, DW_AT_accessibility(DW_ACCESS_public)
    2608              $C$DW$338       .dwtag  DW_TAG_member
    2609                      .dwattr $C$DW$338, DW_AT_type(*$C$DW$T$19)
    2610                      .dwattr $C$DW$338, DW_AT_name("GPIO71")
    2611                      .dwattr $C$DW$338, DW_AT_TI_symbol_name("_GPIO71")
    2612                      .dwattr $C$DW$338, DW_AT_bit_offset(0x08), DW_AT_bit_size(0x01)
    2613                      .dwattr $C$DW$338, DW_AT_data_member_location[DW_OP_plus_uconst 0x0]
    2614                      .dwattr $C$DW$338, DW_AT_accessibility(DW_ACCESS_public)
    2615              $C$DW$339       .dwtag  DW_TAG_member
    2616                      .dwattr $C$DW$339, DW_AT_type(*$C$DW$T$19)
    2617                      .dwattr $C$DW$339, DW_AT_name("GPIO72")
    2618                      .dwattr $C$DW$339, DW_AT_TI_symbol_name("_GPIO72")
    2619                      .dwattr $C$DW$339, DW_AT_bit_offset(0x07), DW_AT_bit_size(0x01)
TMS320C2000 Assembler PC v6.1.3 Thu Jan 30 10:32:22 2014

Tools Copyright (c) 1996-2012 Texas Instruments Incorporated
C:\Users\a0272466\AppData\Local\Temp\0608410                         PAGE   49

    2620                      .dwattr $C$DW$339, DW_AT_data_member_location[DW_OP_plus_uconst 0x0]
    2621                      .dwattr $C$DW$339, DW_AT_accessibility(DW_ACCESS_public)
    2622              $C$DW$340       .dwtag  DW_TAG_member
    2623                      .dwattr $C$DW$340, DW_AT_type(*$C$DW$T$19)
    2624                      .dwattr $C$DW$340, DW_AT_name("GPIO73")
    2625                      .dwattr $C$DW$340, DW_AT_TI_symbol_name("_GPIO73")
    2626                      .dwattr $C$DW$340, DW_AT_bit_offset(0x06), DW_AT_bit_size(0x01)
    2627                      .dwattr $C$DW$340, DW_AT_data_member_location[DW_OP_plus_uconst 0x0]
    2628                      .dwattr $C$DW$340, DW_AT_accessibility(DW_ACCESS_public)
    2629              $C$DW$341       .dwtag  DW_TAG_member
    2630                      .dwattr $C$DW$341, DW_AT_type(*$C$DW$T$19)
    2631                      .dwattr $C$DW$341, DW_AT_name("GPIO74")
    2632                      .dwattr $C$DW$341, DW_AT_TI_symbol_name("_GPIO74")
    2633                      .dwattr $C$DW$341, DW_AT_bit_offset(0x05), DW_AT_bit_size(0x01)
    2634                      .dwattr $C$DW$341, DW_AT_data_member_location[DW_OP_plus_uconst 0x0]
    2635                      .dwattr $C$DW$341, DW_AT_accessibility(DW_ACCESS_public)
    2636              $C$DW$342       .dwtag  DW_TAG_member
    2637                      .dwattr $C$DW$342, DW_AT_type(*$C$DW$T$19)
    2638                      .dwattr $C$DW$342, DW_AT_name("GPIO75")
    2639                      .dwattr $C$DW$342, DW_AT_TI_symbol_name("_GPIO75")
    2640                      .dwattr $C$DW$342, DW_AT_bit_offset(0x04), DW_AT_bit_size(0x01)
    2641                      .dwattr $C$DW$342, DW_AT_data_member_location[DW_OP_plus_uconst 0x0]
    2642                      .dwattr $C$DW$342, DW_AT_accessibility(DW_ACCESS_public)
    2643              $C$DW$343       .dwtag  DW_TAG_member
    2644                      .dwattr $C$DW$343, DW_AT_type(*$C$DW$T$19)
    2645                      .dwattr $C$DW$343, DW_AT_name("GPIO76")
    2646                      .dwattr $C$DW$343, DW_AT_TI_symbol_name("_GPIO76")
    2647                      .dwattr $C$DW$343, DW_AT_bit_offset(0x03), DW_AT_bit_size(0x01)
    2648                      .dwattr $C$DW$343, DW_AT_data_member_location[DW_OP_plus_uconst 0x0]
    2649                      .dwattr $C$DW$343, DW_AT_accessibility(DW_ACCESS_public)
    2650              $C$DW$344       .dwtag  DW_TAG_member
    2651                      .dwattr $C$DW$344, DW_AT_type(*$C$DW$T$19)
    2652                      .dwattr $C$DW$344, DW_AT_name("GPIO77")
    2653                      .dwattr $C$DW$344, DW_AT_TI_symbol_name("_GPIO77")
    2654                      .dwattr $C$DW$344, DW_AT_bit_offset(0x02), DW_AT_bit_size(0x01)
    2655                      .dwattr $C$DW$344, DW_AT_data_member_location[DW_OP_plus_uconst 0x0]
    2656                      .dwattr $C$DW$344, DW_AT_accessibility(DW_ACCESS_public)
    2657              $C$DW$345       .dwtag  DW_TAG_member
    2658                      .dwattr $C$DW$345, DW_AT_type(*$C$DW$T$19)
    2659                      .dwattr $C$DW$345, DW_AT_name("GPIO78")
    2660                      .dwattr $C$DW$345, DW_AT_TI_symbol_name("_GPIO78")
    2661                      .dwattr $C$DW$345, DW_AT_bit_offset(0x01), DW_AT_bit_size(0x01)
    2662                      .dwattr $C$DW$345, DW_AT_data_member_location[DW_OP_plus_uconst 0x0]
    2663                      .dwattr $C$DW$345, DW_AT_accessibility(DW_ACCESS_public)
    2664              $C$DW$346       .dwtag  DW_TAG_member
    2665                      .dwattr $C$DW$346, DW_AT_type(*$C$DW$T$19)
    2666                      .dwattr $C$DW$346, DW_AT_name("GPIO79")
    2667                      .dwattr $C$DW$346, DW_AT_TI_symbol_name("_GPIO79")
    2668                      .dwattr $C$DW$346, DW_AT_bit_offset(0x00), DW_AT_bit_size(0x01)
    2669                      .dwattr $C$DW$346, DW_AT_data_member_location[DW_OP_plus_uconst 0x0]
    2670                      .dwattr $C$DW$346, DW_AT_accessibility(DW_ACCESS_public)
    2671              $C$DW$347       .dwtag  DW_TAG_member
    2672                      .dwattr $C$DW$347, DW_AT_type(*$C$DW$T$19)
    2673                      .dwattr $C$DW$347, DW_AT_name("GPIO80")
    2674                      .dwattr $C$DW$347, DW_AT_TI_symbol_name("_GPIO80")
TMS320C2000 Assembler PC v6.1.3 Thu Jan 30 10:32:22 2014

Tools Copyright (c) 1996-2012 Texas Instruments Incorporated
C:\Users\a0272466\AppData\Local\Temp\0608410                         PAGE   50

    2675                      .dwattr $C$DW$347, DW_AT_bit_offset(0x0f), DW_AT_bit_size(0x01)
    2676                      .dwattr $C$DW$347, DW_AT_data_member_location[DW_OP_plus_uconst 0x1]
    2677                      .dwattr $C$DW$347, DW_AT_accessibility(DW_ACCESS_public)
    2678              $C$DW$348       .dwtag  DW_TAG_member
    2679                      .dwattr $C$DW$348, DW_AT_type(*$C$DW$T$19)
    2680                      .dwattr $C$DW$348, DW_AT_name("GPIO81")
    2681                      .dwattr $C$DW$348, DW_AT_TI_symbol_name("_GPIO81")
    2682                      .dwattr $C$DW$348, DW_AT_bit_offset(0x0e), DW_AT_bit_size(0x01)
    2683                      .dwattr $C$DW$348, DW_AT_data_member_location[DW_OP_plus_uconst 0x1]
    2684                      .dwattr $C$DW$348, DW_AT_accessibility(DW_ACCESS_public)
    2685              $C$DW$349       .dwtag  DW_TAG_member
    2686                      .dwattr $C$DW$349, DW_AT_type(*$C$DW$T$19)
    2687                      .dwattr $C$DW$349, DW_AT_name("GPIO82")
    2688                      .dwattr $C$DW$349, DW_AT_TI_symbol_name("_GPIO82")
    2689                      .dwattr $C$DW$349, DW_AT_bit_offset(0x0d), DW_AT_bit_size(0x01)
    2690                      .dwattr $C$DW$349, DW_AT_data_member_location[DW_OP_plus_uconst 0x1]
    2691                      .dwattr $C$DW$349, DW_AT_accessibility(DW_ACCESS_public)
    2692              $C$DW$350       .dwtag  DW_TAG_member
    2693                      .dwattr $C$DW$350, DW_AT_type(*$C$DW$T$19)
    2694                      .dwattr $C$DW$350, DW_AT_name("GPIO83")
    2695                      .dwattr $C$DW$350, DW_AT_TI_symbol_name("_GPIO83")
    2696                      .dwattr $C$DW$350, DW_AT_bit_offset(0x0c), DW_AT_bit_size(0x01)
    2697                      .dwattr $C$DW$350, DW_AT_data_member_location[DW_OP_plus_uconst 0x1]
    2698                      .dwattr $C$DW$350, DW_AT_accessibility(DW_ACCESS_public)
    2699              $C$DW$351       .dwtag  DW_TAG_member
    2700                      .dwattr $C$DW$351, DW_AT_type(*$C$DW$T$19)
    2701                      .dwattr $C$DW$351, DW_AT_name("GPIO84")
    2702                      .dwattr $C$DW$351, DW_AT_TI_symbol_name("_GPIO84")
    2703                      .dwattr $C$DW$351, DW_AT_bit_offset(0x0b), DW_AT_bit_size(0x01)
    2704                      .dwattr $C$DW$351, DW_AT_data_member_location[DW_OP_plus_uconst 0x1]
    2705                      .dwattr $C$DW$351, DW_AT_accessibility(DW_ACCESS_public)
    2706              $C$DW$352       .dwtag  DW_TAG_member
    2707                      .dwattr $C$DW$352, DW_AT_type(*$C$DW$T$19)
    2708                      .dwattr $C$DW$352, DW_AT_name("GPIO85")
    2709                      .dwattr $C$DW$352, DW_AT_TI_symbol_name("_GPIO85")
    2710                      .dwattr $C$DW$352, DW_AT_bit_offset(0x0a), DW_AT_bit_size(0x01)
    2711                      .dwattr $C$DW$352, DW_AT_data_member_location[DW_OP_plus_uconst 0x1]
    2712                      .dwattr $C$DW$352, DW_AT_accessibility(DW_ACCESS_public)
    2713              $C$DW$353       .dwtag  DW_TAG_member
    2714                      .dwattr $C$DW$353, DW_AT_type(*$C$DW$T$19)
    2715                      .dwattr $C$DW$353, DW_AT_name("GPIO86")
    2716                      .dwattr $C$DW$353, DW_AT_TI_symbol_name("_GPIO86")
    2717                      .dwattr $C$DW$353, DW_AT_bit_offset(0x09), DW_AT_bit_size(0x01)
    2718                      .dwattr $C$DW$353, DW_AT_data_member_location[DW_OP_plus_uconst 0x1]
    2719                      .dwattr $C$DW$353, DW_AT_accessibility(DW_ACCESS_public)
    2720              $C$DW$354       .dwtag  DW_TAG_member
    2721                      .dwattr $C$DW$354, DW_AT_type(*$C$DW$T$19)
    2722                      .dwattr $C$DW$354, DW_AT_name("GPIO87")
    2723                      .dwattr $C$DW$354, DW_AT_TI_symbol_name("_GPIO87")
    2724                      .dwattr $C$DW$354, DW_AT_bit_offset(0x08), DW_AT_bit_size(0x01)
    2725                      .dwattr $C$DW$354, DW_AT_data_member_location[DW_OP_plus_uconst 0x1]
    2726                      .dwattr $C$DW$354, DW_AT_accessibility(DW_ACCESS_public)
    2727              $C$DW$355       .dwtag  DW_TAG_member
    2728                      .dwattr $C$DW$355, DW_AT_type(*$C$DW$T$19)
    2729                      .dwattr $C$DW$355, DW_AT_name("GPIO88")
TMS320C2000 Assembler PC v6.1.3 Thu Jan 30 10:32:22 2014

Tools Copyright (c) 1996-2012 Texas Instruments Incorporated
C:\Users\a0272466\AppData\Local\Temp\0608410                         PAGE   51

    2730                      .dwattr $C$DW$355, DW_AT_TI_symbol_name("_GPIO88")
    2731                      .dwattr $C$DW$355, DW_AT_bit_offset(0x07), DW_AT_bit_size(0x01)
    2732                      .dwattr $C$DW$355, DW_AT_data_member_location[DW_OP_plus_uconst 0x1]
    2733                      .dwattr $C$DW$355, DW_AT_accessibility(DW_ACCESS_public)
    2734              $C$DW$356       .dwtag  DW_TAG_member
    2735                      .dwattr $C$DW$356, DW_AT_type(*$C$DW$T$19)
    2736                      .dwattr $C$DW$356, DW_AT_name("GPIO89")
    2737                      .dwattr $C$DW$356, DW_AT_TI_symbol_name("_GPIO89")
    2738                      .dwattr $C$DW$356, DW_AT_bit_offset(0x06), DW_AT_bit_size(0x01)
    2739                      .dwattr $C$DW$356, DW_AT_data_member_location[DW_OP_plus_uconst 0x1]
    2740                      .dwattr $C$DW$356, DW_AT_accessibility(DW_ACCESS_public)
    2741              $C$DW$357       .dwtag  DW_TAG_member
    2742                      .dwattr $C$DW$357, DW_AT_type(*$C$DW$T$19)
    2743                      .dwattr $C$DW$357, DW_AT_name("GPIO90")
    2744                      .dwattr $C$DW$357, DW_AT_TI_symbol_name("_GPIO90")
    2745                      .dwattr $C$DW$357, DW_AT_bit_offset(0x05), DW_AT_bit_size(0x01)
    2746                      .dwattr $C$DW$357, DW_AT_data_member_location[DW_OP_plus_uconst 0x1]
    2747                      .dwattr $C$DW$357, DW_AT_accessibility(DW_ACCESS_public)
    2748              $C$DW$358       .dwtag  DW_TAG_member
    2749                      .dwattr $C$DW$358, DW_AT_type(*$C$DW$T$19)
    2750                      .dwattr $C$DW$358, DW_AT_name("GPIO91")
    2751                      .dwattr $C$DW$358, DW_AT_TI_symbol_name("_GPIO91")
    2752                      .dwattr $C$DW$358, DW_AT_bit_offset(0x04), DW_AT_bit_size(0x01)
    2753                      .dwattr $C$DW$358, DW_AT_data_member_location[DW_OP_plus_uconst 0x1]
    2754                      .dwattr $C$DW$358, DW_AT_accessibility(DW_ACCESS_public)
    2755              $C$DW$359       .dwtag  DW_TAG_member
    2756                      .dwattr $C$DW$359, DW_AT_type(*$C$DW$T$19)
    2757                      .dwattr $C$DW$359, DW_AT_name("GPIO92")
    2758                      .dwattr $C$DW$359, DW_AT_TI_symbol_name("_GPIO92")
    2759                      .dwattr $C$DW$359, DW_AT_bit_offset(0x03), DW_AT_bit_size(0x01)
    2760                      .dwattr $C$DW$359, DW_AT_data_member_location[DW_OP_plus_uconst 0x1]
    2761                      .dwattr $C$DW$359, DW_AT_accessibility(DW_ACCESS_public)
    2762              $C$DW$360       .dwtag  DW_TAG_member
    2763                      .dwattr $C$DW$360, DW_AT_type(*$C$DW$T$19)
    2764                      .dwattr $C$DW$360, DW_AT_name("GPIO93")
    2765                      .dwattr $C$DW$360, DW_AT_TI_symbol_name("_GPIO93")
    2766                      .dwattr $C$DW$360, DW_AT_bit_offset(0x02), DW_AT_bit_size(0x01)
    2767                      .dwattr $C$DW$360, DW_AT_data_member_location[DW_OP_plus_uconst 0x1]
    2768                      .dwattr $C$DW$360, DW_AT_accessibility(DW_ACCESS_public)
    2769              $C$DW$361       .dwtag  DW_TAG_member
    2770                      .dwattr $C$DW$361, DW_AT_type(*$C$DW$T$19)
    2771                      .dwattr $C$DW$361, DW_AT_name("GPIO94")
    2772                      .dwattr $C$DW$361, DW_AT_TI_symbol_name("_GPIO94")
    2773                      .dwattr $C$DW$361, DW_AT_bit_offset(0x01), DW_AT_bit_size(0x01)
    2774                      .dwattr $C$DW$361, DW_AT_data_member_location[DW_OP_plus_uconst 0x1]
    2775                      .dwattr $C$DW$361, DW_AT_accessibility(DW_ACCESS_public)
    2776              $C$DW$362       .dwtag  DW_TAG_member
    2777                      .dwattr $C$DW$362, DW_AT_type(*$C$DW$T$19)
    2778                      .dwattr $C$DW$362, DW_AT_name("GPIO95")
    2779                      .dwattr $C$DW$362, DW_AT_TI_symbol_name("_GPIO95")
    2780                      .dwattr $C$DW$362, DW_AT_bit_offset(0x00), DW_AT_bit_size(0x01)
    2781                      .dwattr $C$DW$362, DW_AT_data_member_location[DW_OP_plus_uconst 0x1]
    2782                      .dwattr $C$DW$362, DW_AT_accessibility(DW_ACCESS_public)
    2783                      .dwendtag $C$DW$T$39
    2784              
TMS320C2000 Assembler PC v6.1.3 Thu Jan 30 10:32:22 2014

Tools Copyright (c) 1996-2012 Texas Instruments Incorporated
C:\Users\a0272466\AppData\Local\Temp\0608410                         PAGE   52

    2785              
    2786              $C$DW$T$40      .dwtag  DW_TAG_union_type
    2787                      .dwattr $C$DW$T$40, DW_AT_name("GPCDAT_REG")
    2788                      .dwattr $C$DW$T$40, DW_AT_byte_size(0x02)
    2789              $C$DW$363       .dwtag  DW_TAG_member
    2790                      .dwattr $C$DW$363, DW_AT_type(*$C$DW$T$21)
    2791                      .dwattr $C$DW$363, DW_AT_name("all")
    2792                      .dwattr $C$DW$363, DW_AT_TI_symbol_name("_all")
    2793                      .dwattr $C$DW$363, DW_AT_data_member_location[DW_OP_plus_uconst 0x0]
    2794                      .dwattr $C$DW$363, DW_AT_accessibility(DW_ACCESS_public)
    2795              $C$DW$364       .dwtag  DW_TAG_member
    2796                      .dwattr $C$DW$364, DW_AT_type(*$C$DW$T$39)
    2797                      .dwattr $C$DW$364, DW_AT_name("bit")
    2798                      .dwattr $C$DW$364, DW_AT_TI_symbol_name("_bit")
    2799                      .dwattr $C$DW$364, DW_AT_data_member_location[DW_OP_plus_uconst 0x0]
    2800                      .dwattr $C$DW$364, DW_AT_accessibility(DW_ACCESS_public)
    2801                      .dwendtag $C$DW$T$40
    2802              
    2803              
    2804              $C$DW$T$41      .dwtag  DW_TAG_structure_type
    2805                      .dwattr $C$DW$T$41, DW_AT_name("GPCSET_BITS")
    2806                      .dwattr $C$DW$T$41, DW_AT_byte_size(0x02)
    2807              $C$DW$365       .dwtag  DW_TAG_member
    2808                      .dwattr $C$DW$365, DW_AT_type(*$C$DW$T$19)
    2809                      .dwattr $C$DW$365, DW_AT_name("GPIO64")
    2810                      .dwattr $C$DW$365, DW_AT_TI_symbol_name("_GPIO64")
    2811                      .dwattr $C$DW$365, DW_AT_bit_offset(0x0f), DW_AT_bit_size(0x01)
    2812                      .dwattr $C$DW$365, DW_AT_data_member_location[DW_OP_plus_uconst 0x0]
    2813                      .dwattr $C$DW$365, DW_AT_accessibility(DW_ACCESS_public)
    2814              $C$DW$366       .dwtag  DW_TAG_member
    2815                      .dwattr $C$DW$366, DW_AT_type(*$C$DW$T$19)
    2816                      .dwattr $C$DW$366, DW_AT_name("GPIO65")
    2817                      .dwattr $C$DW$366, DW_AT_TI_symbol_name("_GPIO65")
    2818                      .dwattr $C$DW$366, DW_AT_bit_offset(0x0e), DW_AT_bit_size(0x01)
    2819                      .dwattr $C$DW$366, DW_AT_data_member_location[DW_OP_plus_uconst 0x0]
    2820                      .dwattr $C$DW$366, DW_AT_accessibility(DW_ACCESS_public)
    2821              $C$DW$367       .dwtag  DW_TAG_member
    2822                      .dwattr $C$DW$367, DW_AT_type(*$C$DW$T$19)
    2823                      .dwattr $C$DW$367, DW_AT_name("GPIO66")
    2824                      .dwattr $C$DW$367, DW_AT_TI_symbol_name("_GPIO66")
    2825                      .dwattr $C$DW$367, DW_AT_bit_offset(0x0d), DW_AT_bit_size(0x01)
    2826                      .dwattr $C$DW$367, DW_AT_data_member_location[DW_OP_plus_uconst 0x0]
    2827                      .dwattr $C$DW$367, DW_AT_accessibility(DW_ACCESS_public)
    2828              $C$DW$368       .dwtag  DW_TAG_member
    2829                      .dwattr $C$DW$368, DW_AT_type(*$C$DW$T$19)
    2830                      .dwattr $C$DW$368, DW_AT_name("GPIO67")
    2831                      .dwattr $C$DW$368, DW_AT_TI_symbol_name("_GPIO67")
    2832                      .dwattr $C$DW$368, DW_AT_bit_offset(0x0c), DW_AT_bit_size(0x01)
    2833                      .dwattr $C$DW$368, DW_AT_data_member_location[DW_OP_plus_uconst 0x0]
    2834                      .dwattr $C$DW$368, DW_AT_accessibility(DW_ACCESS_public)
    2835              $C$DW$369       .dwtag  DW_TAG_member
    2836                      .dwattr $C$DW$369, DW_AT_type(*$C$DW$T$19)
    2837                      .dwattr $C$DW$369, DW_AT_name("GPIO68")
    2838                      .dwattr $C$DW$369, DW_AT_TI_symbol_name("_GPIO68")
    2839                      .dwattr $C$DW$369, DW_AT_bit_offset(0x0b), DW_AT_bit_size(0x01)
TMS320C2000 Assembler PC v6.1.3 Thu Jan 30 10:32:22 2014

Tools Copyright (c) 1996-2012 Texas Instruments Incorporated
C:\Users\a0272466\AppData\Local\Temp\0608410                         PAGE   53

    2840                      .dwattr $C$DW$369, DW_AT_data_member_location[DW_OP_plus_uconst 0x0]
    2841                      .dwattr $C$DW$369, DW_AT_accessibility(DW_ACCESS_public)
    2842              $C$DW$370       .dwtag  DW_TAG_member
    2843                      .dwattr $C$DW$370, DW_AT_type(*$C$DW$T$19)
    2844                      .dwattr $C$DW$370, DW_AT_name("GPIO69")
    2845                      .dwattr $C$DW$370, DW_AT_TI_symbol_name("_GPIO69")
    2846                      .dwattr $C$DW$370, DW_AT_bit_offset(0x0a), DW_AT_bit_size(0x01)
    2847                      .dwattr $C$DW$370, DW_AT_data_member_location[DW_OP_plus_uconst 0x0]
    2848                      .dwattr $C$DW$370, DW_AT_accessibility(DW_ACCESS_public)
    2849              $C$DW$371       .dwtag  DW_TAG_member
    2850                      .dwattr $C$DW$371, DW_AT_type(*$C$DW$T$19)
    2851                      .dwattr $C$DW$371, DW_AT_name("GPIO70")
    2852                      .dwattr $C$DW$371, DW_AT_TI_symbol_name("_GPIO70")
    2853                      .dwattr $C$DW$371, DW_AT_bit_offset(0x09), DW_AT_bit_size(0x01)
    2854                      .dwattr $C$DW$371, DW_AT_data_member_location[DW_OP_plus_uconst 0x0]
    2855                      .dwattr $C$DW$371, DW_AT_accessibility(DW_ACCESS_public)
    2856              $C$DW$372       .dwtag  DW_TAG_member
    2857                      .dwattr $C$DW$372, DW_AT_type(*$C$DW$T$19)
    2858                      .dwattr $C$DW$372, DW_AT_name("GPIO71")
    2859                      .dwattr $C$DW$372, DW_AT_TI_symbol_name("_GPIO71")
    2860                      .dwattr $C$DW$372, DW_AT_bit_offset(0x08), DW_AT_bit_size(0x01)
    2861                      .dwattr $C$DW$372, DW_AT_data_member_location[DW_OP_plus_uconst 0x0]
    2862                      .dwattr $C$DW$372, DW_AT_accessibility(DW_ACCESS_public)
    2863              $C$DW$373       .dwtag  DW_TAG_member
    2864                      .dwattr $C$DW$373, DW_AT_type(*$C$DW$T$19)
    2865                      .dwattr $C$DW$373, DW_AT_name("GPIO72")
    2866                      .dwattr $C$DW$373, DW_AT_TI_symbol_name("_GPIO72")
    2867                      .dwattr $C$DW$373, DW_AT_bit_offset(0x07), DW_AT_bit_size(0x01)
    2868                      .dwattr $C$DW$373, DW_AT_data_member_location[DW_OP_plus_uconst 0x0]
    2869                      .dwattr $C$DW$373, DW_AT_accessibility(DW_ACCESS_public)
    2870              $C$DW$374       .dwtag  DW_TAG_member
    2871                      .dwattr $C$DW$374, DW_AT_type(*$C$DW$T$19)
    2872                      .dwattr $C$DW$374, DW_AT_name("GPIO73")
    2873                      .dwattr $C$DW$374, DW_AT_TI_symbol_name("_GPIO73")
    2874                      .dwattr $C$DW$374, DW_AT_bit_offset(0x06), DW_AT_bit_size(0x01)
    2875                      .dwattr $C$DW$374, DW_AT_data_member_location[DW_OP_plus_uconst 0x0]
    2876                      .dwattr $C$DW$374, DW_AT_accessibility(DW_ACCESS_public)
    2877              $C$DW$375       .dwtag  DW_TAG_member
    2878                      .dwattr $C$DW$375, DW_AT_type(*$C$DW$T$19)
    2879                      .dwattr $C$DW$375, DW_AT_name("GPIO74")
    2880                      .dwattr $C$DW$375, DW_AT_TI_symbol_name("_GPIO74")
    2881                      .dwattr $C$DW$375, DW_AT_bit_offset(0x05), DW_AT_bit_size(0x01)
    2882                      .dwattr $C$DW$375, DW_AT_data_member_location[DW_OP_plus_uconst 0x0]
    2883                      .dwattr $C$DW$375, DW_AT_accessibility(DW_ACCESS_public)
    2884              $C$DW$376       .dwtag  DW_TAG_member
    2885                      .dwattr $C$DW$376, DW_AT_type(*$C$DW$T$19)
    2886                      .dwattr $C$DW$376, DW_AT_name("GPIO75")
    2887                      .dwattr $C$DW$376, DW_AT_TI_symbol_name("_GPIO75")
    2888                      .dwattr $C$DW$376, DW_AT_bit_offset(0x04), DW_AT_bit_size(0x01)
    2889                      .dwattr $C$DW$376, DW_AT_data_member_location[DW_OP_plus_uconst 0x0]
    2890                      .dwattr $C$DW$376, DW_AT_accessibility(DW_ACCESS_public)
    2891              $C$DW$377       .dwtag  DW_TAG_member
    2892                      .dwattr $C$DW$377, DW_AT_type(*$C$DW$T$19)
    2893                      .dwattr $C$DW$377, DW_AT_name("GPIO76")
    2894                      .dwattr $C$DW$377, DW_AT_TI_symbol_name("_GPIO76")
TMS320C2000 Assembler PC v6.1.3 Thu Jan 30 10:32:22 2014

Tools Copyright (c) 1996-2012 Texas Instruments Incorporated
C:\Users\a0272466\AppData\Local\Temp\0608410                         PAGE   54

    2895                      .dwattr $C$DW$377, DW_AT_bit_offset(0x03), DW_AT_bit_size(0x01)
    2896                      .dwattr $C$DW$377, DW_AT_data_member_location[DW_OP_plus_uconst 0x0]
    2897                      .dwattr $C$DW$377, DW_AT_accessibility(DW_ACCESS_public)
    2898              $C$DW$378       .dwtag  DW_TAG_member
    2899                      .dwattr $C$DW$378, DW_AT_type(*$C$DW$T$19)
    2900                      .dwattr $C$DW$378, DW_AT_name("GPIO77")
    2901                      .dwattr $C$DW$378, DW_AT_TI_symbol_name("_GPIO77")
    2902                      .dwattr $C$DW$378, DW_AT_bit_offset(0x02), DW_AT_bit_size(0x01)
    2903                      .dwattr $C$DW$378, DW_AT_data_member_location[DW_OP_plus_uconst 0x0]
    2904                      .dwattr $C$DW$378, DW_AT_accessibility(DW_ACCESS_public)
    2905              $C$DW$379       .dwtag  DW_TAG_member
    2906                      .dwattr $C$DW$379, DW_AT_type(*$C$DW$T$19)
    2907                      .dwattr $C$DW$379, DW_AT_name("GPIO78")
    2908                      .dwattr $C$DW$379, DW_AT_TI_symbol_name("_GPIO78")
    2909                      .dwattr $C$DW$379, DW_AT_bit_offset(0x01), DW_AT_bit_size(0x01)
    2910                      .dwattr $C$DW$379, DW_AT_data_member_location[DW_OP_plus_uconst 0x0]
    2911                      .dwattr $C$DW$379, DW_AT_accessibility(DW_ACCESS_public)
    2912              $C$DW$380       .dwtag  DW_TAG_member
    2913                      .dwattr $C$DW$380, DW_AT_type(*$C$DW$T$19)
    2914                      .dwattr $C$DW$380, DW_AT_name("GPIO79")
    2915                      .dwattr $C$DW$380, DW_AT_TI_symbol_name("_GPIO79")
    2916                      .dwattr $C$DW$380, DW_AT_bit_offset(0x00), DW_AT_bit_size(0x01)
    2917                      .dwattr $C$DW$380, DW_AT_data_member_location[DW_OP_plus_uconst 0x0]
    2918                      .dwattr $C$DW$380, DW_AT_accessibility(DW_ACCESS_public)
    2919              $C$DW$381       .dwtag  DW_TAG_member
    2920                      .dwattr $C$DW$381, DW_AT_type(*$C$DW$T$19)
    2921                      .dwattr $C$DW$381, DW_AT_name("GPIO80")
    2922                      .dwattr $C$DW$381, DW_AT_TI_symbol_name("_GPIO80")
    2923                      .dwattr $C$DW$381, DW_AT_bit_offset(0x0f), DW_AT_bit_size(0x01)
    2924                      .dwattr $C$DW$381, DW_AT_data_member_location[DW_OP_plus_uconst 0x1]
    2925                      .dwattr $C$DW$381, DW_AT_accessibility(DW_ACCESS_public)
    2926              $C$DW$382       .dwtag  DW_TAG_member
    2927                      .dwattr $C$DW$382, DW_AT_type(*$C$DW$T$19)
    2928                      .dwattr $C$DW$382, DW_AT_name("GPIO81")
    2929                      .dwattr $C$DW$382, DW_AT_TI_symbol_name("_GPIO81")
    2930                      .dwattr $C$DW$382, DW_AT_bit_offset(0x0e), DW_AT_bit_size(0x01)
    2931                      .dwattr $C$DW$382, DW_AT_data_member_location[DW_OP_plus_uconst 0x1]
    2932                      .dwattr $C$DW$382, DW_AT_accessibility(DW_ACCESS_public)
    2933              $C$DW$383       .dwtag  DW_TAG_member
    2934                      .dwattr $C$DW$383, DW_AT_type(*$C$DW$T$19)
    2935                      .dwattr $C$DW$383, DW_AT_name("GPIO82")
    2936                      .dwattr $C$DW$383, DW_AT_TI_symbol_name("_GPIO82")
    2937                      .dwattr $C$DW$383, DW_AT_bit_offset(0x0d), DW_AT_bit_size(0x01)
    2938                      .dwattr $C$DW$383, DW_AT_data_member_location[DW_OP_plus_uconst 0x1]
    2939                      .dwattr $C$DW$383, DW_AT_accessibility(DW_ACCESS_public)
    2940              $C$DW$384       .dwtag  DW_TAG_member
    2941                      .dwattr $C$DW$384, DW_AT_type(*$C$DW$T$19)
    2942                      .dwattr $C$DW$384, DW_AT_name("GPIO83")
    2943                      .dwattr $C$DW$384, DW_AT_TI_symbol_name("_GPIO83")
    2944                      .dwattr $C$DW$384, DW_AT_bit_offset(0x0c), DW_AT_bit_size(0x01)
    2945                      .dwattr $C$DW$384, DW_AT_data_member_location[DW_OP_plus_uconst 0x1]
    2946                      .dwattr $C$DW$384, DW_AT_accessibility(DW_ACCESS_public)
    2947              $C$DW$385       .dwtag  DW_TAG_member
    2948                      .dwattr $C$DW$385, DW_AT_type(*$C$DW$T$19)
    2949                      .dwattr $C$DW$385, DW_AT_name("GPIO84")
TMS320C2000 Assembler PC v6.1.3 Thu Jan 30 10:32:22 2014

Tools Copyright (c) 1996-2012 Texas Instruments Incorporated
C:\Users\a0272466\AppData\Local\Temp\0608410                         PAGE   55

    2950                      .dwattr $C$DW$385, DW_AT_TI_symbol_name("_GPIO84")
    2951                      .dwattr $C$DW$385, DW_AT_bit_offset(0x0b), DW_AT_bit_size(0x01)
    2952                      .dwattr $C$DW$385, DW_AT_data_member_location[DW_OP_plus_uconst 0x1]
    2953                      .dwattr $C$DW$385, DW_AT_accessibility(DW_ACCESS_public)
    2954              $C$DW$386       .dwtag  DW_TAG_member
    2955                      .dwattr $C$DW$386, DW_AT_type(*$C$DW$T$19)
    2956                      .dwattr $C$DW$386, DW_AT_name("GPIO85")
    2957                      .dwattr $C$DW$386, DW_AT_TI_symbol_name("_GPIO85")
    2958                      .dwattr $C$DW$386, DW_AT_bit_offset(0x0a), DW_AT_bit_size(0x01)
    2959                      .dwattr $C$DW$386, DW_AT_data_member_location[DW_OP_plus_uconst 0x1]
    2960                      .dwattr $C$DW$386, DW_AT_accessibility(DW_ACCESS_public)
    2961              $C$DW$387       .dwtag  DW_TAG_member
    2962                      .dwattr $C$DW$387, DW_AT_type(*$C$DW$T$19)
    2963                      .dwattr $C$DW$387, DW_AT_name("GPIO86")
    2964                      .dwattr $C$DW$387, DW_AT_TI_symbol_name("_GPIO86")
    2965                      .dwattr $C$DW$387, DW_AT_bit_offset(0x09), DW_AT_bit_size(0x01)
    2966                      .dwattr $C$DW$387, DW_AT_data_member_location[DW_OP_plus_uconst 0x1]
    2967                      .dwattr $C$DW$387, DW_AT_accessibility(DW_ACCESS_public)
    2968              $C$DW$388       .dwtag  DW_TAG_member
    2969                      .dwattr $C$DW$388, DW_AT_type(*$C$DW$T$19)
    2970                      .dwattr $C$DW$388, DW_AT_name("GPIO87")
    2971                      .dwattr $C$DW$388, DW_AT_TI_symbol_name("_GPIO87")
    2972                      .dwattr $C$DW$388, DW_AT_bit_offset(0x08), DW_AT_bit_size(0x01)
    2973                      .dwattr $C$DW$388, DW_AT_data_member_location[DW_OP_plus_uconst 0x1]
    2974                      .dwattr $C$DW$388, DW_AT_accessibility(DW_ACCESS_public)
    2975              $C$DW$389       .dwtag  DW_TAG_member
    2976                      .dwattr $C$DW$389, DW_AT_type(*$C$DW$T$19)
    2977                      .dwattr $C$DW$389, DW_AT_name("GPIO88")
    2978                      .dwattr $C$DW$389, DW_AT_TI_symbol_name("_GPIO88")
    2979                      .dwattr $C$DW$389, DW_AT_bit_offset(0x07), DW_AT_bit_size(0x01)
    2980                      .dwattr $C$DW$389, DW_AT_data_member_location[DW_OP_plus_uconst 0x1]
    2981                      .dwattr $C$DW$389, DW_AT_accessibility(DW_ACCESS_public)
    2982              $C$DW$390       .dwtag  DW_TAG_member
    2983                      .dwattr $C$DW$390, DW_AT_type(*$C$DW$T$19)
    2984                      .dwattr $C$DW$390, DW_AT_name("GPIO89")
    2985                      .dwattr $C$DW$390, DW_AT_TI_symbol_name("_GPIO89")
    2986                      .dwattr $C$DW$390, DW_AT_bit_offset(0x06), DW_AT_bit_size(0x01)
    2987                      .dwattr $C$DW$390, DW_AT_data_member_location[DW_OP_plus_uconst 0x1]
    2988                      .dwattr $C$DW$390, DW_AT_accessibility(DW_ACCESS_public)
    2989              $C$DW$391       .dwtag  DW_TAG_member
    2990                      .dwattr $C$DW$391, DW_AT_type(*$C$DW$T$19)
    2991                      .dwattr $C$DW$391, DW_AT_name("GPIO90")
    2992                      .dwattr $C$DW$391, DW_AT_TI_symbol_name("_GPIO90")
    2993                      .dwattr $C$DW$391, DW_AT_bit_offset(0x05), DW_AT_bit_size(0x01)
    2994                      .dwattr $C$DW$391, DW_AT_data_member_location[DW_OP_plus_uconst 0x1]
    2995                      .dwattr $C$DW$391, DW_AT_accessibility(DW_ACCESS_public)
    2996              $C$DW$392       .dwtag  DW_TAG_member
    2997                      .dwattr $C$DW$392, DW_AT_type(*$C$DW$T$19)
    2998                      .dwattr $C$DW$392, DW_AT_name("GPIO91")
    2999                      .dwattr $C$DW$392, DW_AT_TI_symbol_name("_GPIO91")
    3000                      .dwattr $C$DW$392, DW_AT_bit_offset(0x04), DW_AT_bit_size(0x01)
    3001                      .dwattr $C$DW$392, DW_AT_data_member_location[DW_OP_plus_uconst 0x1]
    3002                      .dwattr $C$DW$392, DW_AT_accessibility(DW_ACCESS_public)
    3003              $C$DW$393       .dwtag  DW_TAG_member
    3004                      .dwattr $C$DW$393, DW_AT_type(*$C$DW$T$19)
TMS320C2000 Assembler PC v6.1.3 Thu Jan 30 10:32:22 2014

Tools Copyright (c) 1996-2012 Texas Instruments Incorporated
C:\Users\a0272466\AppData\Local\Temp\0608410                         PAGE   56

    3005                      .dwattr $C$DW$393, DW_AT_name("GPIO92")
    3006                      .dwattr $C$DW$393, DW_AT_TI_symbol_name("_GPIO92")
    3007                      .dwattr $C$DW$393, DW_AT_bit_offset(0x03), DW_AT_bit_size(0x01)
    3008                      .dwattr $C$DW$393, DW_AT_data_member_location[DW_OP_plus_uconst 0x1]
    3009                      .dwattr $C$DW$393, DW_AT_accessibility(DW_ACCESS_public)
    3010              $C$DW$394       .dwtag  DW_TAG_member
    3011                      .dwattr $C$DW$394, DW_AT_type(*$C$DW$T$19)
    3012                      .dwattr $C$DW$394, DW_AT_name("GPIO93")
    3013                      .dwattr $C$DW$394, DW_AT_TI_symbol_name("_GPIO93")
    3014                      .dwattr $C$DW$394, DW_AT_bit_offset(0x02), DW_AT_bit_size(0x01)
    3015                      .dwattr $C$DW$394, DW_AT_data_member_location[DW_OP_plus_uconst 0x1]
    3016                      .dwattr $C$DW$394, DW_AT_accessibility(DW_ACCESS_public)
    3017              $C$DW$395       .dwtag  DW_TAG_member
    3018                      .dwattr $C$DW$395, DW_AT_type(*$C$DW$T$19)
    3019                      .dwattr $C$DW$395, DW_AT_name("GPIO94")
    3020                      .dwattr $C$DW$395, DW_AT_TI_symbol_name("_GPIO94")
    3021                      .dwattr $C$DW$395, DW_AT_bit_offset(0x01), DW_AT_bit_size(0x01)
    3022                      .dwattr $C$DW$395, DW_AT_data_member_location[DW_OP_plus_uconst 0x1]
    3023                      .dwattr $C$DW$395, DW_AT_accessibility(DW_ACCESS_public)
    3024              $C$DW$396       .dwtag  DW_TAG_member
    3025                      .dwattr $C$DW$396, DW_AT_type(*$C$DW$T$19)
    3026                      .dwattr $C$DW$396, DW_AT_name("GPIO95")
    3027                      .dwattr $C$DW$396, DW_AT_TI_symbol_name("_GPIO95")
