TMS320C2000 Assembler PC v6.1.3 Thu Jan 30 10:32:38 2014

Tools Copyright (c) 1996-2012 Texas Instruments Incorporated
C:\Users\a0272466\AppData\Local\Temp\0901610                         PAGE    1

       1              ;***************************************************************
       2              ;* TMS320C2000 C/C++ Codegen                         PC v6.1.3 *
       3              ;* Date/Time created: Thu Jan 30 10:32:38 2014                 *
       4              ;***************************************************************
       5                      .compiler_opts --float_support=fpu32 --hll_source=on --mem_model:code=flat --mem_model:data=large --o
       6        0002  FP      .set    XAR2
       7              
       8              $C$DW$CU        .dwtag  DW_TAG_compile_unit
       9                      .dwattr $C$DW$CU, DW_AT_name("C:/work/grepos/bootrom/Boot_ROM/F2837x_bootROM-REVB/F2837x_bootROM_dev/
      10                      .dwattr $C$DW$CU, DW_AT_producer("TMS320C2000 C/C++ Codegen PC v6.1.3 Copyright (c) 1996-2012 Texas I
      11                      .dwattr $C$DW$CU, DW_AT_TI_version(0x01)
      12                      .dwattr $C$DW$CU, DW_AT_comp_dir("C:\work\grepos\bootrom\Boot_ROM\F2837x_bootROM-REVB\F2837x_bootROM_
      13              $C$DW$1 .dwtag  DW_TAG_variable, DW_AT_name("EmuKey")
      14                      .dwattr $C$DW$1, DW_AT_TI_symbol_name("_EmuKey")
      15                      .dwattr $C$DW$1, DW_AT_type(*$C$DW$T$19)
      16                      .dwattr $C$DW$1, DW_AT_declaration
      17                      .dwattr $C$DW$1, DW_AT_external
      18              
      19              $C$DW$2 .dwtag  DW_TAG_subprogram, DW_AT_name("c2brom_read_otp_bootmode")
      20                      .dwattr $C$DW$2, DW_AT_TI_symbol_name("_c2brom_read_otp_bootmode")
      21                      .dwattr $C$DW$2, DW_AT_type(*$C$DW$T$81)
      22                      .dwattr $C$DW$2, DW_AT_declaration
      23                      .dwattr $C$DW$2, DW_AT_external
      24              
      25              $C$DW$3 .dwtag  DW_TAG_subprogram, DW_AT_name("c2brom_evaluate_bootmode")
      26                      .dwattr $C$DW$3, DW_AT_TI_symbol_name("_c2brom_evaluate_bootmode")
      27                      .dwattr $C$DW$3, DW_AT_type(*$C$DW$T$81)
      28                      .dwattr $C$DW$3, DW_AT_declaration
      29                      .dwattr $C$DW$3, DW_AT_external
      30              $C$DW$4 .dwtag  DW_TAG_formal_parameter
      31                      .dwattr $C$DW$4, DW_AT_type(*$C$DW$T$81)
      32              $C$DW$5 .dwtag  DW_TAG_formal_parameter
      33                      .dwattr $C$DW$5, DW_AT_type(*$C$DW$T$81)
      34                      .dwendtag $C$DW$3
      35              
      36              $C$DW$6 .dwtag  DW_TAG_variable, DW_AT_name("CpuSysRegs")
      37                      .dwattr $C$DW$6, DW_AT_TI_symbol_name("_CpuSysRegs")
      38                      .dwattr $C$DW$6, DW_AT_type(*$C$DW$T$78)
      39                      .dwattr $C$DW$6, DW_AT_declaration
      40                      .dwattr $C$DW$6, DW_AT_external
      41              ;       C:\ti\ccsv5\tools\compiler\c2000_6.1.3\bin\ac2000.exe -@C:\\Users\\a0272466\\AppData\\Local\\Temp\\09
      42 00000000               .sect   ".text"
      43                      .global _SelectBootMode
      44              
      45              $C$DW$7 .dwtag  DW_TAG_subprogram, DW_AT_name("SelectBootMode")
      46                      .dwattr $C$DW$7, DW_AT_low_pc(_SelectBootMode)
      47                      .dwattr $C$DW$7, DW_AT_high_pc(0x00)
      48                      .dwattr $C$DW$7, DW_AT_TI_symbol_name("_SelectBootMode")
      49                      .dwattr $C$DW$7, DW_AT_external
      50                      .dwattr $C$DW$7, DW_AT_type(*$C$DW$T$19)
      51                      .dwattr $C$DW$7, DW_AT_TI_begin_file("C:/work/grepos/bootrom/Boot_ROM/F2837x_bootROM-REVB/F2837x_boot
      52                      .dwattr $C$DW$7, DW_AT_TI_begin_line(0x24)
      53                      .dwattr $C$DW$7, DW_AT_TI_begin_column(0x08)
      54                      .dwattr $C$DW$7, DW_AT_TI_max_frame_size(-4)
      55                      .dwpsn  file "C:/work/grepos/bootrom/Boot_ROM/F2837x_bootROM-REVB/F2837x_bootROM_dev/F2837x_bootROM/c
TMS320C2000 Assembler PC v6.1.3 Thu Jan 30 10:32:38 2014

Tools Copyright (c) 1996-2012 Texas Instruments Incorporated
C:\Users\a0272466\AppData\Local\Temp\0901610                         PAGE    2

      56              
      57                      .dwfde $C$DW$CIE, _SelectBootMode
      58              
      59              ;***************************************************************
      60              ;* FNAME: _SelectBootMode               FR SIZE:   2           *
      61              ;*                                                             *
      62              ;* FUNCTION ENVIRONMENT                                        *
      63              ;*                                                             *
      64              ;* FUNCTION PROPERTIES                                         *
      65              ;*                            0 Parameter,  1 Auto,  0 SOE     *
      66              ;***************************************************************
      67              
      68 00000000       _SelectBootMode:
      69                      .dwcfi  cfa_offset, -2
      70                      .dwcfi  save_reg_to_mem, 26, 0
      71                      .dwcfi  save_reg_to_reg, 78, 26
      72 00000000 FE02          ADDB      SP,#2                 ; [CPU_U] 
      73                      .dwcfi  cfa_offset, -4
      74              $C$DW$8 .dwtag  DW_TAG_variable, DW_AT_name("BootMode")
      75                      .dwattr $C$DW$8, DW_AT_TI_symbol_name("_BootMode")
      76                      .dwattr $C$DW$8, DW_AT_type(*$C$DW$T$19)
      77                      .dwattr $C$DW$8, DW_AT_location[DW_OP_breg20 -1]
      78                      .dwpsn  file "C:/work/grepos/bootrom/Boot_ROM/F2837x_bootROM-REVB/F2837x_bootROM_dev/F2837x_bootROM/c
      79 00000001 7622   EALLOW
      80                      .dwpsn  file "C:/work/grepos/bootrom/Boot_ROM/F2837x_bootROM-REVB/F2837x_bootROM_dev/F2837x_bootROM/c
      81 00000002 761F!         MOVW      DP,#_CpuSysRegs+129   ; [CPU_U] 
         00000003 0002 
      82 00000004 CC01!         AND       AL,@_CpuSysRegs+129,#0x8000 ; [CPU_] |54| 
         00000005 8000 
      83 00000006 FFCE          LSR       AL,15                 ; [CPU_] |54| 
      84 00000007 5201          CMPB      AL,#1                 ; [CPU_] |54| 
      85 00000008 ED2A          BF        $C$L3,NEQ             ; [CPU_] |54| 
      86                      ; branchcc occurs ; [] |54| 
      87                      .dwpsn  file "C:/work/grepos/bootrom/Boot_ROM/F2837x_bootROM-REVB/F2837x_bootROM_dev/F2837x_bootROM/c
      88 00000009 761F!         MOVW      DP,#_EmuKey           ; [CPU_U] 
         0000000a 0000 
      89 0000000b 9200!         MOV       AL,@_EmuKey           ; [CPU_] |60| 
      90 0000000c 90FF          ANDB      AL,#0xff              ; [CPU_] |60| 
      91 0000000d 525A          CMPB      AL,#90                ; [CPU_] |60| 
      92                      .dwpsn  file "C:/work/grepos/bootrom/Boot_ROM/F2837x_bootROM-REVB/F2837x_bootROM_dev/F2837x_bootROM/c
      93 0000000e 56B0          MOVB      *-SP[1],#2,NEQ        ; [CPU_] |63| 
         0000000f 0241 
      94                      .dwpsn  file "C:/work/grepos/bootrom/Boot_ROM/F2837x_bootROM-REVB/F2837x_bootROM_dev/F2837x_bootROM/c
      95 00000010 ED30          BF        $C$L4,NEQ             ; [CPU_] |64| 
      96                      ; branchcc occurs ; [] |64| 
      97                      .dwpsn  file "C:/work/grepos/bootrom/Boot_ROM/F2837x_bootROM-REVB/F2837x_bootROM_dev/F2837x_bootROM/c
      98 00000011 CC00!         AND       AL,@_EmuKey,#0xff00   ; [CPU_] |67| 
         00000012 FF00 
      99 00000013 FFC7          LSR       AL,8                  ; [CPU_] |67| 
     100 00000014 52FF          CMPB      AL,#255               ; [CPU_] |67| 
     101 00000015 ED0A          BF        $C$L1,NEQ             ; [CPU_] |67| 
     102                      ; branchcc occurs ; [] |67| 
     103                      .dwpsn  file "C:/work/grepos/bootrom/Boot_ROM/F2837x_bootROM-REVB/F2837x_bootROM_dev/F2837x_bootROM/c
     104 00000016 FF69          SPM       #0                    ; [CPU_] 
     105              $C$DW$9 .dwtag  DW_TAG_TI_branch
TMS320C2000 Assembler PC v6.1.3 Thu Jan 30 10:32:38 2014

Tools Copyright (c) 1996-2012 Texas Instruments Incorporated
C:\Users\a0272466\AppData\Local\Temp\0901610                         PAGE    3

     106                      .dwattr $C$DW$9, DW_AT_low_pc(0x00)
     107                      .dwattr $C$DW$9, DW_AT_name("_c2brom_read_otp_bootmode")
     108                      .dwattr $C$DW$9, DW_AT_TI_call
     109 00000017 7640!         LCR       #_c2brom_read_otp_bootmode ; [CPU_] |69| 
         00000018 0000 
     110                      ; call occurs [#_c2brom_read_otp_bootmode] ; [] |69| 
     111 00000019 9641          MOV       *-SP[1],AL            ; [CPU_] |69| 
     112                      .dwpsn  file "C:/work/grepos/bootrom/Boot_ROM/F2837x_bootROM-REVB/F2837x_bootROM_dev/F2837x_bootROM/c
     113 0000001a 9B01          MOVB      AH,#1                 ; [CPU_] |70| 
     114              $C$DW$10        .dwtag  DW_TAG_TI_branch
     115                      .dwattr $C$DW$10, DW_AT_low_pc(0x00)
     116                      .dwattr $C$DW$10, DW_AT_name("_c2brom_evaluate_bootmode")
     117                      .dwattr $C$DW$10, DW_AT_TI_call
     118 0000001b 7640!         LCR       #_c2brom_evaluate_bootmode ; [CPU_] |70| 
         0000001c 0000 
     119                      ; call occurs [#_c2brom_evaluate_bootmode] ; [] |70| 
     120 0000001d 9641          MOV       *-SP[1],AL            ; [CPU_] |70| 
     121                      .dwpsn  file "C:/work/grepos/bootrom/Boot_ROM/F2837x_bootROM-REVB/F2837x_bootROM_dev/F2837x_bootROM/c
     122 0000001e 6F22          B         $C$L4,UNC             ; [CPU_] |71| 
     123                      ; branch occurs ; [] |71| 
     124 0000001f       $C$L1:    
     125                      .dwpsn  file "C:/work/grepos/bootrom/Boot_ROM/F2837x_bootROM-REVB/F2837x_bootROM_dev/F2837x_bootROM/c
     126 0000001f CC00!         AND       AL,@_EmuKey,#0xff00   ; [CPU_] |72| 
         00000020 FF00 
     127 00000021 FFC7          LSR       AL,8                  ; [CPU_] |72| 
     128 00000022 5203          CMPB      AL,#3                 ; [CPU_] |72| 
     129 00000023 ED0A          BF        $C$L2,NEQ             ; [CPU_] |72| 
     130                      ; branchcc occurs ; [] |72| 
     131                      .dwpsn  file "C:/work/grepos/bootrom/Boot_ROM/F2837x_bootROM-REVB/F2837x_bootROM_dev/F2837x_bootROM/c
     132 00000024 FF69          SPM       #0                    ; [CPU_] 
     133              $C$DW$11        .dwtag  DW_TAG_TI_branch
     134                      .dwattr $C$DW$11, DW_AT_low_pc(0x00)
     135                      .dwattr $C$DW$11, DW_AT_name("_c2brom_read_otp_bootmode")
     136                      .dwattr $C$DW$11, DW_AT_TI_call
     137 00000025 7640!         LCR       #_c2brom_read_otp_bootmode ; [CPU_] |74| 
         00000026 0000 
     138                      ; call occurs [#_c2brom_read_otp_bootmode] ; [] |74| 
     139 00000027 9641          MOV       *-SP[1],AL            ; [CPU_] |74| 
     140                      .dwpsn  file "C:/work/grepos/bootrom/Boot_ROM/F2837x_bootROM-REVB/F2837x_bootROM_dev/F2837x_bootROM/c
     141 00000028 9B02          MOVB      AH,#2                 ; [CPU_] |77| 
     142              $C$DW$12        .dwtag  DW_TAG_TI_branch
     143                      .dwattr $C$DW$12, DW_AT_low_pc(0x00)
     144                      .dwattr $C$DW$12, DW_AT_name("_c2brom_evaluate_bootmode")
     145                      .dwattr $C$DW$12, DW_AT_TI_call
     146 00000029 7640!         LCR       #_c2brom_evaluate_bootmode ; [CPU_] |77| 
         0000002a 0000 
     147                      ; call occurs [#_c2brom_evaluate_bootmode] ; [] |77| 
     148 0000002b 9641          MOV       *-SP[1],AL            ; [CPU_] |77| 
     149                      .dwpsn  file "C:/work/grepos/bootrom/Boot_ROM/F2837x_bootROM-REVB/F2837x_bootROM_dev/F2837x_bootROM/c
     150 0000002c 6F14          B         $C$L4,UNC             ; [CPU_] |78| 
     151                      ; branch occurs ; [] |78| 
     152 0000002d       $C$L2:    
     153                      .dwpsn  file "C:/work/grepos/bootrom/Boot_ROM/F2837x_bootROM-REVB/F2837x_bootROM_dev/F2837x_bootROM/c
     154 0000002d CC00!         AND       AL,@_EmuKey,#0xff00   ; [CPU_] |81| 
         0000002e FF00 
TMS320C2000 Assembler PC v6.1.3 Thu Jan 30 10:32:38 2014

Tools Copyright (c) 1996-2012 Texas Instruments Incorporated
C:\Users\a0272466\AppData\Local\Temp\0901610                         PAGE    4

     155 0000002f FFC7          LSR       AL,8                  ; [CPU_] |81| 
     156 00000030 9641          MOV       *-SP[1],AL            ; [CPU_] |81| 
     157                      .dwpsn  file "C:/work/grepos/bootrom/Boot_ROM/F2837x_bootROM-REVB/F2837x_bootROM_dev/F2837x_bootROM/c
     158 00000031 6F0F          B         $C$L4,UNC             ; [CPU_] |84| 
     159                      ; branch occurs ; [] |84| 
     160 00000032       $C$L3:    
     161                      .dwpsn  file "C:/work/grepos/bootrom/Boot_ROM/F2837x_bootROM-REVB/F2837x_bootROM_dev/F2837x_bootROM/c
     162 00000032 FF69          SPM       #0                    ; [CPU_] 
     163              $C$DW$13        .dwtag  DW_TAG_TI_branch
     164                      .dwattr $C$DW$13, DW_AT_low_pc(0x00)
     165                      .dwattr $C$DW$13, DW_AT_name("_c2brom_read_otp_bootmode")
     166                      .dwattr $C$DW$13, DW_AT_TI_call
     167 00000033 7640!         LCR       #_c2brom_read_otp_bootmode ; [CPU_] |88| 
         00000034 0000 
     168                      ; call occurs [#_c2brom_read_otp_bootmode] ; [] |88| 
     169 00000035 9641          MOV       *-SP[1],AL            ; [CPU_] |88| 
     170                      .dwpsn  file "C:/work/grepos/bootrom/Boot_ROM/F2837x_bootROM-REVB/F2837x_bootROM_dev/F2837x_bootROM/c
     171 00000036 9B01          MOVB      AH,#1                 ; [CPU_] |89| 
     172              $C$DW$14        .dwtag  DW_TAG_TI_branch
     173                      .dwattr $C$DW$14, DW_AT_low_pc(0x00)
     174                      .dwattr $C$DW$14, DW_AT_name("_c2brom_evaluate_bootmode")
     175                      .dwattr $C$DW$14, DW_AT_TI_call
     176 00000037 7640!         LCR       #_c2brom_evaluate_bootmode ; [CPU_] |89| 
         00000038 0000 
     177                      ; call occurs [#_c2brom_evaluate_bootmode] ; [] |89| 
     178 00000039 9641          MOV       *-SP[1],AL            ; [CPU_] |89| 
     179                      .dwpsn  file "C:/work/grepos/bootrom/Boot_ROM/F2837x_bootROM-REVB/F2837x_bootROM_dev/F2837x_bootROM/c
     180 0000003a 761F!         MOVW      DP,#_EmuKey           ; [CPU_U] 
         0000003b 0000 
     181 0000003c 5603          MOV       ACC,*-SP[1] << #8     ; [CPU_] |91| 
         0000003d 0841 
     182 0000003e 505A          ORB       AL,#0x5a              ; [CPU_] |91| 
     183 0000003f 9600!         MOV       @_EmuKey,AL           ; [CPU_] |91| 
     184 00000040       $C$L4:    
     185                      .dwpsn  file "C:/work/grepos/bootrom/Boot_ROM/F2837x_bootROM-REVB/F2837x_bootROM_dev/F2837x_bootROM/c
     186 00000040 761A   EDIS
     187                      .dwpsn  file "C:/work/grepos/bootrom/Boot_ROM/F2837x_bootROM-REVB/F2837x_bootROM_dev/F2837x_bootROM/c
     188 00000041 9241          MOV       AL,*-SP[1]            ; [CPU_] |96| 
     189                      .dwpsn  file "C:/work/grepos/bootrom/Boot_ROM/F2837x_bootROM-REVB/F2837x_bootROM_dev/F2837x_bootROM/c
     190 00000042 FE82          SUBB      SP,#2                 ; [CPU_U] 
     191                      .dwcfi  cfa_offset, -2
     192 00000043 FF69          SPM       #0                    ; [CPU_] 
     193              $C$DW$15        .dwtag  DW_TAG_TI_branch
     194                      .dwattr $C$DW$15, DW_AT_low_pc(0x00)
     195                      .dwattr $C$DW$15, DW_AT_TI_return
     196 00000044 0006          LRETR     ; [CPU_] 
     197                      ; return occurs ; [] 
     198                      .dwattr $C$DW$7, DW_AT_TI_end_file("C:/work/grepos/bootrom/Boot_ROM/F2837x_bootROM-REVB/F2837x_bootRO
     199                      .dwattr $C$DW$7, DW_AT_TI_end_line(0x61)
     200                      .dwattr $C$DW$7, DW_AT_TI_end_column(0x01)
     201                      .dwendentry
     202                      .dwendtag $C$DW$7
     203              
     204              ;**************************************************************
     205              ;* UNDEFINED EXTERNAL REFERENCES                              *
TMS320C2000 Assembler PC v6.1.3 Thu Jan 30 10:32:38 2014

Tools Copyright (c) 1996-2012 Texas Instruments Incorporated
C:\Users\a0272466\AppData\Local\Temp\0901610                         PAGE    5

     206              ;**************************************************************
     207                      .global _EmuKey
     208                      .global _c2brom_read_otp_bootmode
     209                      .global _c2brom_evaluate_bootmode
     210                      .global _CpuSysRegs
     211              
     212              ;***************************************************************
     213              ;* TYPE INFORMATION                                            *
     214              ;***************************************************************
     215              
     216              $C$DW$T$20      .dwtag  DW_TAG_structure_type
     217                      .dwattr $C$DW$T$20, DW_AT_name("CCR_BITS")
     218                      .dwattr $C$DW$T$20, DW_AT_byte_size(0x02)
     219              $C$DW$16        .dwtag  DW_TAG_member
     220                      .dwattr $C$DW$16, DW_AT_type(*$C$DW$T$19)
     221                      .dwattr $C$DW$16, DW_AT_name("VMAPS")
     222                      .dwattr $C$DW$16, DW_AT_TI_symbol_name("_VMAPS")
     223                      .dwattr $C$DW$16, DW_AT_bit_offset(0x0f), DW_AT_bit_size(0x01)
     224                      .dwattr $C$DW$16, DW_AT_data_member_location[DW_OP_plus_uconst 0x0]
     225                      .dwattr $C$DW$16, DW_AT_accessibility(DW_ACCESS_public)
     226              $C$DW$17        .dwtag  DW_TAG_member
     227                      .dwattr $C$DW$17, DW_AT_type(*$C$DW$T$19)
     228                      .dwattr $C$DW$17, DW_AT_name("MONPRIV")
     229                      .dwattr $C$DW$17, DW_AT_TI_symbol_name("_MONPRIV")
     230                      .dwattr $C$DW$17, DW_AT_bit_offset(0x0e), DW_AT_bit_size(0x01)
     231                      .dwattr $C$DW$17, DW_AT_data_member_location[DW_OP_plus_uconst 0x0]
     232                      .dwattr $C$DW$17, DW_AT_accessibility(DW_ACCESS_public)
     233              $C$DW$18        .dwtag  DW_TAG_member
     234                      .dwattr $C$DW$18, DW_AT_type(*$C$DW$T$19)
     235                      .dwattr $C$DW$18, DW_AT_name("ENPROT")
     236                      .dwattr $C$DW$18, DW_AT_TI_symbol_name("_ENPROT")
     237                      .dwattr $C$DW$18, DW_AT_bit_offset(0x0d), DW_AT_bit_size(0x01)
     238                      .dwattr $C$DW$18, DW_AT_data_member_location[DW_OP_plus_uconst 0x0]
     239                      .dwattr $C$DW$18, DW_AT_accessibility(DW_ACCESS_public)
     240              $C$DW$19        .dwtag  DW_TAG_member
     241                      .dwattr $C$DW$19, DW_AT_type(*$C$DW$T$19)
     242                      .dwattr $C$DW$19, DW_AT_name("rsvd1")
     243                      .dwattr $C$DW$19, DW_AT_TI_symbol_name("_rsvd1")
     244                      .dwattr $C$DW$19, DW_AT_bit_offset(0x00), DW_AT_bit_size(0x0d)
     245                      .dwattr $C$DW$19, DW_AT_data_member_location[DW_OP_plus_uconst 0x0]
     246                      .dwattr $C$DW$19, DW_AT_accessibility(DW_ACCESS_public)
     247              $C$DW$20        .dwtag  DW_TAG_member
     248                      .dwattr $C$DW$20, DW_AT_type(*$C$DW$T$19)
     249                      .dwattr $C$DW$20, DW_AT_name("rsvd2")
     250                      .dwattr $C$DW$20, DW_AT_TI_symbol_name("_rsvd2")
     251                      .dwattr $C$DW$20, DW_AT_bit_offset(0x00), DW_AT_bit_size(0x10)
     252                      .dwattr $C$DW$20, DW_AT_data_member_location[DW_OP_plus_uconst 0x1]
     253                      .dwattr $C$DW$20, DW_AT_accessibility(DW_ACCESS_public)
     254                      .dwendtag $C$DW$T$20
     255              
     256              
     257              $C$DW$T$22      .dwtag  DW_TAG_union_type
     258                      .dwattr $C$DW$T$22, DW_AT_name("CCR_REG")
     259                      .dwattr $C$DW$T$22, DW_AT_byte_size(0x02)
     260              $C$DW$21        .dwtag  DW_TAG_member
TMS320C2000 Assembler PC v6.1.3 Thu Jan 30 10:32:38 2014

Tools Copyright (c) 1996-2012 Texas Instruments Incorporated
C:\Users\a0272466\AppData\Local\Temp\0901610                         PAGE    6

     261                      .dwattr $C$DW$21, DW_AT_type(*$C$DW$T$21)
     262                      .dwattr $C$DW$21, DW_AT_name("all")
     263                      .dwattr $C$DW$21, DW_AT_TI_symbol_name("_all")
     264                      .dwattr $C$DW$21, DW_AT_data_member_location[DW_OP_plus_uconst 0x0]
     265                      .dwattr $C$DW$21, DW_AT_accessibility(DW_ACCESS_public)
     266              $C$DW$22        .dwtag  DW_TAG_member
     267                      .dwattr $C$DW$22, DW_AT_type(*$C$DW$T$20)
     268                      .dwattr $C$DW$22, DW_AT_name("bit")
     269                      .dwattr $C$DW$22, DW_AT_TI_symbol_name("_bit")
     270                      .dwattr $C$DW$22, DW_AT_data_member_location[DW_OP_plus_uconst 0x0]
     271                      .dwattr $C$DW$22, DW_AT_accessibility(DW_ACCESS_public)
     272                      .dwendtag $C$DW$T$22
     273              
     274              
     275              $C$DW$T$23      .dwtag  DW_TAG_structure_type
     276                      .dwattr $C$DW$T$23, DW_AT_name("CPUSYSLOCK1_BITS")
     277                      .dwattr $C$DW$T$23, DW_AT_byte_size(0x02)
     278              $C$DW$23        .dwtag  DW_TAG_member
     279                      .dwattr $C$DW$23, DW_AT_type(*$C$DW$T$19)
     280                      .dwattr $C$DW$23, DW_AT_name("HIBBOOTMODE")
     281                      .dwattr $C$DW$23, DW_AT_TI_symbol_name("_HIBBOOTMODE")
     282                      .dwattr $C$DW$23, DW_AT_bit_offset(0x0f), DW_AT_bit_size(0x01)
     283                      .dwattr $C$DW$23, DW_AT_data_member_location[DW_OP_plus_uconst 0x0]
     284                      .dwattr $C$DW$23, DW_AT_accessibility(DW_ACCESS_public)
     285              $C$DW$24        .dwtag  DW_TAG_member
     286                      .dwattr $C$DW$24, DW_AT_type(*$C$DW$T$19)
     287                      .dwattr $C$DW$24, DW_AT_name("IORESTOREADDR")
     288                      .dwattr $C$DW$24, DW_AT_TI_symbol_name("_IORESTOREADDR")
     289                      .dwattr $C$DW$24, DW_AT_bit_offset(0x0e), DW_AT_bit_size(0x01)
     290                      .dwattr $C$DW$24, DW_AT_data_member_location[DW_OP_plus_uconst 0x0]
     291                      .dwattr $C$DW$24, DW_AT_accessibility(DW_ACCESS_public)
     292              $C$DW$25        .dwtag  DW_TAG_member
     293                      .dwattr $C$DW$25, DW_AT_type(*$C$DW$T$19)
     294                      .dwattr $C$DW$25, DW_AT_name("PIEVERRADDR")
     295                      .dwattr $C$DW$25, DW_AT_TI_symbol_name("_PIEVERRADDR")
     296                      .dwattr $C$DW$25, DW_AT_bit_offset(0x0d), DW_AT_bit_size(0x01)
     297                      .dwattr $C$DW$25, DW_AT_data_member_location[DW_OP_plus_uconst 0x0]
     298                      .dwattr $C$DW$25, DW_AT_accessibility(DW_ACCESS_public)
     299              $C$DW$26        .dwtag  DW_TAG_member
     300                      .dwattr $C$DW$26, DW_AT_type(*$C$DW$T$19)
     301                      .dwattr $C$DW$26, DW_AT_name("PCLKCR0")
     302                      .dwattr $C$DW$26, DW_AT_TI_symbol_name("_PCLKCR0")
     303                      .dwattr $C$DW$26, DW_AT_bit_offset(0x0c), DW_AT_bit_size(0x01)
     304                      .dwattr $C$DW$26, DW_AT_data_member_location[DW_OP_plus_uconst 0x0]
     305                      .dwattr $C$DW$26, DW_AT_accessibility(DW_ACCESS_public)
     306              $C$DW$27        .dwtag  DW_TAG_member
     307                      .dwattr $C$DW$27, DW_AT_type(*$C$DW$T$19)
     308                      .dwattr $C$DW$27, DW_AT_name("PCLKCR1")
     309                      .dwattr $C$DW$27, DW_AT_TI_symbol_name("_PCLKCR1")
     310                      .dwattr $C$DW$27, DW_AT_bit_offset(0x0b), DW_AT_bit_size(0x01)
     311                      .dwattr $C$DW$27, DW_AT_data_member_location[DW_OP_plus_uconst 0x0]
     312                      .dwattr $C$DW$27, DW_AT_accessibility(DW_ACCESS_public)
     313              $C$DW$28        .dwtag  DW_TAG_member
     314                      .dwattr $C$DW$28, DW_AT_type(*$C$DW$T$19)
     315                      .dwattr $C$DW$28, DW_AT_name("PCLKCR2")
TMS320C2000 Assembler PC v6.1.3 Thu Jan 30 10:32:38 2014

Tools Copyright (c) 1996-2012 Texas Instruments Incorporated
C:\Users\a0272466\AppData\Local\Temp\0901610                         PAGE    7

     316                      .dwattr $C$DW$28, DW_AT_TI_symbol_name("_PCLKCR2")
     317                      .dwattr $C$DW$28, DW_AT_bit_offset(0x0a), DW_AT_bit_size(0x01)
     318                      .dwattr $C$DW$28, DW_AT_data_member_location[DW_OP_plus_uconst 0x0]
     319                      .dwattr $C$DW$28, DW_AT_accessibility(DW_ACCESS_public)
     320              $C$DW$29        .dwtag  DW_TAG_member
     321                      .dwattr $C$DW$29, DW_AT_type(*$C$DW$T$19)
     322                      .dwattr $C$DW$29, DW_AT_name("PCLKCR3")
     323                      .dwattr $C$DW$29, DW_AT_TI_symbol_name("_PCLKCR3")
     324                      .dwattr $C$DW$29, DW_AT_bit_offset(0x09), DW_AT_bit_size(0x01)
     325                      .dwattr $C$DW$29, DW_AT_data_member_location[DW_OP_plus_uconst 0x0]
     326                      .dwattr $C$DW$29, DW_AT_accessibility(DW_ACCESS_public)
     327              $C$DW$30        .dwtag  DW_TAG_member
     328                      .dwattr $C$DW$30, DW_AT_type(*$C$DW$T$19)
     329                      .dwattr $C$DW$30, DW_AT_name("PCLKCR4")
     330                      .dwattr $C$DW$30, DW_AT_TI_symbol_name("_PCLKCR4")
     331                      .dwattr $C$DW$30, DW_AT_bit_offset(0x08), DW_AT_bit_size(0x01)
     332                      .dwattr $C$DW$30, DW_AT_data_member_location[DW_OP_plus_uconst 0x0]
     333                      .dwattr $C$DW$30, DW_AT_accessibility(DW_ACCESS_public)
     334              $C$DW$31        .dwtag  DW_TAG_member
     335                      .dwattr $C$DW$31, DW_AT_type(*$C$DW$T$19)
     336                      .dwattr $C$DW$31, DW_AT_name("PCLKCR5")
     337                      .dwattr $C$DW$31, DW_AT_TI_symbol_name("_PCLKCR5")
     338                      .dwattr $C$DW$31, DW_AT_bit_offset(0x07), DW_AT_bit_size(0x01)
     339                      .dwattr $C$DW$31, DW_AT_data_member_location[DW_OP_plus_uconst 0x0]
     340                      .dwattr $C$DW$31, DW_AT_accessibility(DW_ACCESS_public)
     341              $C$DW$32        .dwtag  DW_TAG_member
     342                      .dwattr $C$DW$32, DW_AT_type(*$C$DW$T$19)
     343                      .dwattr $C$DW$32, DW_AT_name("PCLKCR6")
     344                      .dwattr $C$DW$32, DW_AT_TI_symbol_name("_PCLKCR6")
     345                      .dwattr $C$DW$32, DW_AT_bit_offset(0x06), DW_AT_bit_size(0x01)
     346                      .dwattr $C$DW$32, DW_AT_data_member_location[DW_OP_plus_uconst 0x0]
     347                      .dwattr $C$DW$32, DW_AT_accessibility(DW_ACCESS_public)
     348              $C$DW$33        .dwtag  DW_TAG_member
     349                      .dwattr $C$DW$33, DW_AT_type(*$C$DW$T$19)
     350                      .dwattr $C$DW$33, DW_AT_name("PCLKCR7")
     351                      .dwattr $C$DW$33, DW_AT_TI_symbol_name("_PCLKCR7")
     352                      .dwattr $C$DW$33, DW_AT_bit_offset(0x05), DW_AT_bit_size(0x01)
     353                      .dwattr $C$DW$33, DW_AT_data_member_location[DW_OP_plus_uconst 0x0]
     354                      .dwattr $C$DW$33, DW_AT_accessibility(DW_ACCESS_public)
     355              $C$DW$34        .dwtag  DW_TAG_member
     356                      .dwattr $C$DW$34, DW_AT_type(*$C$DW$T$19)
     357                      .dwattr $C$DW$34, DW_AT_name("PCLKCR8")
     358                      .dwattr $C$DW$34, DW_AT_TI_symbol_name("_PCLKCR8")
     359                      .dwattr $C$DW$34, DW_AT_bit_offset(0x04), DW_AT_bit_size(0x01)
     360                      .dwattr $C$DW$34, DW_AT_data_member_location[DW_OP_plus_uconst 0x0]
     361                      .dwattr $C$DW$34, DW_AT_accessibility(DW_ACCESS_public)
     362              $C$DW$35        .dwtag  DW_TAG_member
     363                      .dwattr $C$DW$35, DW_AT_type(*$C$DW$T$19)
     364                      .dwattr $C$DW$35, DW_AT_name("PCLKCR9")
     365                      .dwattr $C$DW$35, DW_AT_TI_symbol_name("_PCLKCR9")
     366                      .dwattr $C$DW$35, DW_AT_bit_offset(0x03), DW_AT_bit_size(0x01)
     367                      .dwattr $C$DW$35, DW_AT_data_member_location[DW_OP_plus_uconst 0x0]
     368                      .dwattr $C$DW$35, DW_AT_accessibility(DW_ACCESS_public)
     369              $C$DW$36        .dwtag  DW_TAG_member
     370                      .dwattr $C$DW$36, DW_AT_type(*$C$DW$T$19)
TMS320C2000 Assembler PC v6.1.3 Thu Jan 30 10:32:38 2014

Tools Copyright (c) 1996-2012 Texas Instruments Incorporated
C:\Users\a0272466\AppData\Local\Temp\0901610                         PAGE    8

     371                      .dwattr $C$DW$36, DW_AT_name("PCLKCR10")
     372                      .dwattr $C$DW$36, DW_AT_TI_symbol_name("_PCLKCR10")
     373                      .dwattr $C$DW$36, DW_AT_bit_offset(0x02), DW_AT_bit_size(0x01)
     374                      .dwattr $C$DW$36, DW_AT_data_member_location[DW_OP_plus_uconst 0x0]
     375                      .dwattr $C$DW$36, DW_AT_accessibility(DW_ACCESS_public)
     376              $C$DW$37        .dwtag  DW_TAG_member
     377                      .dwattr $C$DW$37, DW_AT_type(*$C$DW$T$19)
     378                      .dwattr $C$DW$37, DW_AT_name("PCLKCR11")
     379                      .dwattr $C$DW$37, DW_AT_TI_symbol_name("_PCLKCR11")
     380                      .dwattr $C$DW$37, DW_AT_bit_offset(0x01), DW_AT_bit_size(0x01)
     381                      .dwattr $C$DW$37, DW_AT_data_member_location[DW_OP_plus_uconst 0x0]
     382                      .dwattr $C$DW$37, DW_AT_accessibility(DW_ACCESS_public)
     383              $C$DW$38        .dwtag  DW_TAG_member
     384                      .dwattr $C$DW$38, DW_AT_type(*$C$DW$T$19)
     385                      .dwattr $C$DW$38, DW_AT_name("PCLKCR12")
     386                      .dwattr $C$DW$38, DW_AT_TI_symbol_name("_PCLKCR12")
     387                      .dwattr $C$DW$38, DW_AT_bit_offset(0x00), DW_AT_bit_size(0x01)
     388                      .dwattr $C$DW$38, DW_AT_data_member_location[DW_OP_plus_uconst 0x0]
     389                      .dwattr $C$DW$38, DW_AT_accessibility(DW_ACCESS_public)
     390              $C$DW$39        .dwtag  DW_TAG_member
     391                      .dwattr $C$DW$39, DW_AT_type(*$C$DW$T$19)
     392                      .dwattr $C$DW$39, DW_AT_name("PCLKCR13")
     393                      .dwattr $C$DW$39, DW_AT_TI_symbol_name("_PCLKCR13")
     394                      .dwattr $C$DW$39, DW_AT_bit_offset(0x0f), DW_AT_bit_size(0x01)
     395                      .dwattr $C$DW$39, DW_AT_data_member_location[DW_OP_plus_uconst 0x1]
     396                      .dwattr $C$DW$39, DW_AT_accessibility(DW_ACCESS_public)
     397              $C$DW$40        .dwtag  DW_TAG_member
     398                      .dwattr $C$DW$40, DW_AT_type(*$C$DW$T$19)
     399                      .dwattr $C$DW$40, DW_AT_name("PCLKCR14")
     400                      .dwattr $C$DW$40, DW_AT_TI_symbol_name("_PCLKCR14")
     401                      .dwattr $C$DW$40, DW_AT_bit_offset(0x0e), DW_AT_bit_size(0x01)
     402                      .dwattr $C$DW$40, DW_AT_data_member_location[DW_OP_plus_uconst 0x1]
     403                      .dwattr $C$DW$40, DW_AT_accessibility(DW_ACCESS_public)
     404              $C$DW$41        .dwtag  DW_TAG_member
     405                      .dwattr $C$DW$41, DW_AT_type(*$C$DW$T$19)
     406                      .dwattr $C$DW$41, DW_AT_name("PCLKCR15")
     407                      .dwattr $C$DW$41, DW_AT_TI_symbol_name("_PCLKCR15")
     408                      .dwattr $C$DW$41, DW_AT_bit_offset(0x0d), DW_AT_bit_size(0x01)
     409                      .dwattr $C$DW$41, DW_AT_data_member_location[DW_OP_plus_uconst 0x1]
     410                      .dwattr $C$DW$41, DW_AT_accessibility(DW_ACCESS_public)
     411              $C$DW$42        .dwtag  DW_TAG_member
     412                      .dwattr $C$DW$42, DW_AT_type(*$C$DW$T$19)
     413                      .dwattr $C$DW$42, DW_AT_name("PCLKCR16")
     414                      .dwattr $C$DW$42, DW_AT_TI_symbol_name("_PCLKCR16")
     415                      .dwattr $C$DW$42, DW_AT_bit_offset(0x0c), DW_AT_bit_size(0x01)
     416                      .dwattr $C$DW$42, DW_AT_data_member_location[DW_OP_plus_uconst 0x1]
     417                      .dwattr $C$DW$42, DW_AT_accessibility(DW_ACCESS_public)
     418              $C$DW$43        .dwtag  DW_TAG_member
     419                      .dwattr $C$DW$43, DW_AT_type(*$C$DW$T$19)
     420                      .dwattr $C$DW$43, DW_AT_name("SECMSEL")
     421                      .dwattr $C$DW$43, DW_AT_TI_symbol_name("_SECMSEL")
     422                      .dwattr $C$DW$43, DW_AT_bit_offset(0x0b), DW_AT_bit_size(0x01)
     423                      .dwattr $C$DW$43, DW_AT_data_member_location[DW_OP_plus_uconst 0x1]
     424                      .dwattr $C$DW$43, DW_AT_accessibility(DW_ACCESS_public)
     425              $C$DW$44        .dwtag  DW_TAG_member
TMS320C2000 Assembler PC v6.1.3 Thu Jan 30 10:32:38 2014

Tools Copyright (c) 1996-2012 Texas Instruments Incorporated
C:\Users\a0272466\AppData\Local\Temp\0901610                         PAGE    9

     426                      .dwattr $C$DW$44, DW_AT_type(*$C$DW$T$19)
     427                      .dwattr $C$DW$44, DW_AT_name("LPMCR")
     428                      .dwattr $C$DW$44, DW_AT_TI_symbol_name("_LPMCR")
     429                      .dwattr $C$DW$44, DW_AT_bit_offset(0x0a), DW_AT_bit_size(0x01)
     430                      .dwattr $C$DW$44, DW_AT_data_member_location[DW_OP_plus_uconst 0x1]
     431                      .dwattr $C$DW$44, DW_AT_accessibility(DW_ACCESS_public)
     432              $C$DW$45        .dwtag  DW_TAG_member
     433                      .dwattr $C$DW$45, DW_AT_type(*$C$DW$T$19)
     434                      .dwattr $C$DW$45, DW_AT_name("GPIOLPMSEL0")
     435                      .dwattr $C$DW$45, DW_AT_TI_symbol_name("_GPIOLPMSEL0")
     436                      .dwattr $C$DW$45, DW_AT_bit_offset(0x09), DW_AT_bit_size(0x01)
     437                      .dwattr $C$DW$45, DW_AT_data_member_location[DW_OP_plus_uconst 0x1]
     438                      .dwattr $C$DW$45, DW_AT_accessibility(DW_ACCESS_public)
     439              $C$DW$46        .dwtag  DW_TAG_member
     440                      .dwattr $C$DW$46, DW_AT_type(*$C$DW$T$19)
     441                      .dwattr $C$DW$46, DW_AT_name("GPIOLPMSEL1")
     442                      .dwattr $C$DW$46, DW_AT_TI_symbol_name("_GPIOLPMSEL1")
     443                      .dwattr $C$DW$46, DW_AT_bit_offset(0x08), DW_AT_bit_size(0x01)
     444                      .dwattr $C$DW$46, DW_AT_data_member_location[DW_OP_plus_uconst 0x1]
     445                      .dwattr $C$DW$46, DW_AT_accessibility(DW_ACCESS_public)
     446              $C$DW$47        .dwtag  DW_TAG_member
     447                      .dwattr $C$DW$47, DW_AT_type(*$C$DW$T$19)
     448                      .dwattr $C$DW$47, DW_AT_name("rsvd1")
     449                      .dwattr $C$DW$47, DW_AT_TI_symbol_name("_rsvd1")
     450                      .dwattr $C$DW$47, DW_AT_bit_offset(0x00), DW_AT_bit_size(0x08)
     451                      .dwattr $C$DW$47, DW_AT_data_member_location[DW_OP_plus_uconst 0x1]
     452                      .dwattr $C$DW$47, DW_AT_accessibility(DW_ACCESS_public)
     453                      .dwendtag $C$DW$T$23
     454              
     455              
     456              $C$DW$T$24      .dwtag  DW_TAG_union_type
     457                      .dwattr $C$DW$T$24, DW_AT_name("CPUSYSLOCK1_REG")
     458                      .dwattr $C$DW$T$24, DW_AT_byte_size(0x02)
     459              $C$DW$48        .dwtag  DW_TAG_member
     460                      .dwattr $C$DW$48, DW_AT_type(*$C$DW$T$21)
     461                      .dwattr $C$DW$48, DW_AT_name("all")
     462                      .dwattr $C$DW$48, DW_AT_TI_symbol_name("_all")
     463                      .dwattr $C$DW$48, DW_AT_data_member_location[DW_OP_plus_uconst 0x0]
     464                      .dwattr $C$DW$48, DW_AT_accessibility(DW_ACCESS_public)
     465              $C$DW$49        .dwtag  DW_TAG_member
     466                      .dwattr $C$DW$49, DW_AT_type(*$C$DW$T$23)
     467                      .dwattr $C$DW$49, DW_AT_name("bit")
     468                      .dwattr $C$DW$49, DW_AT_TI_symbol_name("_bit")
     469                      .dwattr $C$DW$49, DW_AT_data_member_location[DW_OP_plus_uconst 0x0]
     470                      .dwattr $C$DW$49, DW_AT_accessibility(DW_ACCESS_public)
     471                      .dwendtag $C$DW$T$24
     472              
     473              
     474              $C$DW$T$29      .dwtag  DW_TAG_structure_type
     475                      .dwattr $C$DW$T$29, DW_AT_name("CPU_SYS_REGS")
     476                      .dwattr $C$DW$T$29, DW_AT_byte_size(0x82)
     477              $C$DW$50        .dwtag  DW_TAG_member
     478                      .dwattr $C$DW$50, DW_AT_type(*$C$DW$T$24)
     479                      .dwattr $C$DW$50, DW_AT_name("CPUSYSLOCK1")
     480                      .dwattr $C$DW$50, DW_AT_TI_symbol_name("_CPUSYSLOCK1")
TMS320C2000 Assembler PC v6.1.3 Thu Jan 30 10:32:38 2014

Tools Copyright (c) 1996-2012 Texas Instruments Incorporated
C:\Users\a0272466\AppData\Local\Temp\0901610                         PAGE   10

     481                      .dwattr $C$DW$50, DW_AT_data_member_location[DW_OP_plus_uconst 0x0]
     482                      .dwattr $C$DW$50, DW_AT_accessibility(DW_ACCESS_public)
     483              $C$DW$51        .dwtag  DW_TAG_member
     484                      .dwattr $C$DW$51, DW_AT_type(*$C$DW$T$25)
     485                      .dwattr $C$DW$51, DW_AT_name("rsvd1")
     486                      .dwattr $C$DW$51, DW_AT_TI_symbol_name("_rsvd1")
     487                      .dwattr $C$DW$51, DW_AT_data_member_location[DW_OP_plus_uconst 0x2]
     488                      .dwattr $C$DW$51, DW_AT_accessibility(DW_ACCESS_public)
     489              $C$DW$52        .dwtag  DW_TAG_member
     490                      .dwattr $C$DW$52, DW_AT_type(*$C$DW$T$21)
     491                      .dwattr $C$DW$52, DW_AT_name("HIBBOOTMODE")
     492                      .dwattr $C$DW$52, DW_AT_TI_symbol_name("_HIBBOOTMODE")
     493                      .dwattr $C$DW$52, DW_AT_data_member_location[DW_OP_plus_uconst 0x6]
     494                      .dwattr $C$DW$52, DW_AT_accessibility(DW_ACCESS_public)
     495              $C$DW$53        .dwtag  DW_TAG_member
     496                      .dwattr $C$DW$53, DW_AT_type(*$C$DW$T$35)
     497                      .dwattr $C$DW$53, DW_AT_name("IORESTOREADDR")
     498                      .dwattr $C$DW$53, DW_AT_TI_symbol_name("_IORESTOREADDR")
     499                      .dwattr $C$DW$53, DW_AT_data_member_location[DW_OP_plus_uconst 0x8]
     500                      .dwattr $C$DW$53, DW_AT_accessibility(DW_ACCESS_public)
     501              $C$DW$54        .dwtag  DW_TAG_member
     502                      .dwattr $C$DW$54, DW_AT_type(*$C$DW$T$71)
     503                      .dwattr $C$DW$54, DW_AT_name("PIEVERRADDR")
     504                      .dwattr $C$DW$54, DW_AT_TI_symbol_name("_PIEVERRADDR")
     505                      .dwattr $C$DW$54, DW_AT_data_member_location[DW_OP_plus_uconst 0xa]
     506                      .dwattr $C$DW$54, DW_AT_accessibility(DW_ACCESS_public)
     507              $C$DW$55        .dwtag  DW_TAG_member
     508                      .dwattr $C$DW$55, DW_AT_type(*$C$DW$T$26)
     509                      .dwattr $C$DW$55, DW_AT_name("rsvd2")
     510                      .dwattr $C$DW$55, DW_AT_TI_symbol_name("_rsvd2")
     511                      .dwattr $C$DW$55, DW_AT_data_member_location[DW_OP_plus_uconst 0xc]
     512                      .dwattr $C$DW$55, DW_AT_accessibility(DW_ACCESS_public)
     513              $C$DW$56        .dwtag  DW_TAG_member
     514                      .dwattr $C$DW$56, DW_AT_type(*$C$DW$T$39)
     515                      .dwattr $C$DW$56, DW_AT_name("PCLKCR0")
     516                      .dwattr $C$DW$56, DW_AT_TI_symbol_name("_PCLKCR0")
     517                      .dwattr $C$DW$56, DW_AT_data_member_location[DW_OP_plus_uconst 0x22]
     518                      .dwattr $C$DW$56, DW_AT_accessibility(DW_ACCESS_public)
     519              $C$DW$57        .dwtag  DW_TAG_member
     520                      .dwattr $C$DW$57, DW_AT_type(*$C$DW$T$53)
     521                      .dwattr $C$DW$57, DW_AT_name("PCLKCR1")
     522                      .dwattr $C$DW$57, DW_AT_TI_symbol_name("_PCLKCR1")
     523                      .dwattr $C$DW$57, DW_AT_data_member_location[DW_OP_plus_uconst 0x24]
     524                      .dwattr $C$DW$57, DW_AT_accessibility(DW_ACCESS_public)
     525              $C$DW$58        .dwtag  DW_TAG_member
     526                      .dwattr $C$DW$58, DW_AT_type(*$C$DW$T$55)
     527                      .dwattr $C$DW$58, DW_AT_name("PCLKCR2")
     528                      .dwattr $C$DW$58, DW_AT_TI_symbol_name("_PCLKCR2")
     529                      .dwattr $C$DW$58, DW_AT_data_member_location[DW_OP_plus_uconst 0x26]
     530                      .dwattr $C$DW$58, DW_AT_accessibility(DW_ACCESS_public)
     531              $C$DW$59        .dwtag  DW_TAG_member
     532                      .dwattr $C$DW$59, DW_AT_type(*$C$DW$T$57)
     533                      .dwattr $C$DW$59, DW_AT_name("PCLKCR3")
     534                      .dwattr $C$DW$59, DW_AT_TI_symbol_name("_PCLKCR3")
     535                      .dwattr $C$DW$59, DW_AT_data_member_location[DW_OP_plus_uconst 0x28]
TMS320C2000 Assembler PC v6.1.3 Thu Jan 30 10:32:38 2014

Tools Copyright (c) 1996-2012 Texas Instruments Incorporated
C:\Users\a0272466\AppData\Local\Temp\0901610                         PAGE   11

     536                      .dwattr $C$DW$59, DW_AT_accessibility(DW_ACCESS_public)
     537              $C$DW$60        .dwtag  DW_TAG_member
     538                      .dwattr $C$DW$60, DW_AT_type(*$C$DW$T$59)
     539                      .dwattr $C$DW$60, DW_AT_name("PCLKCR4")
     540                      .dwattr $C$DW$60, DW_AT_TI_symbol_name("_PCLKCR4")
     541                      .dwattr $C$DW$60, DW_AT_data_member_location[DW_OP_plus_uconst 0x2a]
     542                      .dwattr $C$DW$60, DW_AT_accessibility(DW_ACCESS_public)
     543              $C$DW$61        .dwtag  DW_TAG_member
     544                      .dwattr $C$DW$61, DW_AT_type(*$C$DW$T$61)
     545                      .dwattr $C$DW$61, DW_AT_name("PCLKCR5")
     546                      .dwattr $C$DW$61, DW_AT_TI_symbol_name("_PCLKCR5")
     547                      .dwattr $C$DW$61, DW_AT_data_member_location[DW_OP_plus_uconst 0x2c]
     548                      .dwattr $C$DW$61, DW_AT_accessibility(DW_ACCESS_public)
     549              $C$DW$62        .dwtag  DW_TAG_member
     550                      .dwattr $C$DW$62, DW_AT_type(*$C$DW$T$63)
     551                      .dwattr $C$DW$62, DW_AT_name("PCLKCR6")
     552                      .dwattr $C$DW$62, DW_AT_TI_symbol_name("_PCLKCR6")
     553                      .dwattr $C$DW$62, DW_AT_data_member_location[DW_OP_plus_uconst 0x2e]
     554                      .dwattr $C$DW$62, DW_AT_accessibility(DW_ACCESS_public)
     555              $C$DW$63        .dwtag  DW_TAG_member
     556                      .dwattr $C$DW$63, DW_AT_type(*$C$DW$T$65)
     557                      .dwattr $C$DW$63, DW_AT_name("PCLKCR7")
     558                      .dwattr $C$DW$63, DW_AT_TI_symbol_name("_PCLKCR7")
     559                      .dwattr $C$DW$63, DW_AT_data_member_location[DW_OP_plus_uconst 0x30]
     560                      .dwattr $C$DW$63, DW_AT_accessibility(DW_ACCESS_public)
     561              $C$DW$64        .dwtag  DW_TAG_member
     562                      .dwattr $C$DW$64, DW_AT_type(*$C$DW$T$67)
     563                      .dwattr $C$DW$64, DW_AT_name("PCLKCR8")
     564                      .dwattr $C$DW$64, DW_AT_TI_symbol_name("_PCLKCR8")
     565                      .dwattr $C$DW$64, DW_AT_data_member_location[DW_OP_plus_uconst 0x32]
     566                      .dwattr $C$DW$64, DW_AT_accessibility(DW_ACCESS_public)
     567              $C$DW$65        .dwtag  DW_TAG_member
     568                      .dwattr $C$DW$65, DW_AT_type(*$C$DW$T$69)
     569                      .dwattr $C$DW$65, DW_AT_name("PCLKCR9")
     570                      .dwattr $C$DW$65, DW_AT_TI_symbol_name("_PCLKCR9")
     571                      .dwattr $C$DW$65, DW_AT_data_member_location[DW_OP_plus_uconst 0x34]
     572                      .dwattr $C$DW$65, DW_AT_accessibility(DW_ACCESS_public)
     573              $C$DW$66        .dwtag  DW_TAG_member
     574                      .dwattr $C$DW$66, DW_AT_type(*$C$DW$T$41)
     575                      .dwattr $C$DW$66, DW_AT_name("PCLKCR10")
     576                      .dwattr $C$DW$66, DW_AT_TI_symbol_name("_PCLKCR10")
     577                      .dwattr $C$DW$66, DW_AT_data_member_location[DW_OP_plus_uconst 0x36]
     578                      .dwattr $C$DW$66, DW_AT_accessibility(DW_ACCESS_public)
     579              $C$DW$67        .dwtag  DW_TAG_member
     580                      .dwattr $C$DW$67, DW_AT_type(*$C$DW$T$43)
     581                      .dwattr $C$DW$67, DW_AT_name("PCLKCR11")
     582                      .dwattr $C$DW$67, DW_AT_TI_symbol_name("_PCLKCR11")
     583                      .dwattr $C$DW$67, DW_AT_data_member_location[DW_OP_plus_uconst 0x38]
     584                      .dwattr $C$DW$67, DW_AT_accessibility(DW_ACCESS_public)
     585              $C$DW$68        .dwtag  DW_TAG_member
     586                      .dwattr $C$DW$68, DW_AT_type(*$C$DW$T$45)
     587                      .dwattr $C$DW$68, DW_AT_name("PCLKCR12")
     588                      .dwattr $C$DW$68, DW_AT_TI_symbol_name("_PCLKCR12")
     589                      .dwattr $C$DW$68, DW_AT_data_member_location[DW_OP_plus_uconst 0x3a]
     590                      .dwattr $C$DW$68, DW_AT_accessibility(DW_ACCESS_public)
TMS320C2000 Assembler PC v6.1.3 Thu Jan 30 10:32:38 2014

Tools Copyright (c) 1996-2012 Texas Instruments Incorporated
C:\Users\a0272466\AppData\Local\Temp\0901610                         PAGE   12

     591              $C$DW$69        .dwtag  DW_TAG_member
     592                      .dwattr $C$DW$69, DW_AT_type(*$C$DW$T$47)
     593                      .dwattr $C$DW$69, DW_AT_name("PCLKCR13")
     594                      .dwattr $C$DW$69, DW_AT_TI_symbol_name("_PCLKCR13")
     595                      .dwattr $C$DW$69, DW_AT_data_member_location[DW_OP_plus_uconst 0x3c]
     596                      .dwattr $C$DW$69, DW_AT_accessibility(DW_ACCESS_public)
     597              $C$DW$70        .dwtag  DW_TAG_member
     598                      .dwattr $C$DW$70, DW_AT_type(*$C$DW$T$49)
     599                      .dwattr $C$DW$70, DW_AT_name("PCLKCR14")
     600                      .dwattr $C$DW$70, DW_AT_TI_symbol_name("_PCLKCR14")
     601                      .dwattr $C$DW$70, DW_AT_data_member_location[DW_OP_plus_uconst 0x3e]
     602                      .dwattr $C$DW$70, DW_AT_accessibility(DW_ACCESS_public)
     603              $C$DW$71        .dwtag  DW_TAG_member
     604                      .dwattr $C$DW$71, DW_AT_type(*$C$DW$T$27)
     605                      .dwattr $C$DW$71, DW_AT_name("rsvd3")
     606                      .dwattr $C$DW$71, DW_AT_TI_symbol_name("_rsvd3")
     607                      .dwattr $C$DW$71, DW_AT_data_member_location[DW_OP_plus_uconst 0x40]
     608                      .dwattr $C$DW$71, DW_AT_accessibility(DW_ACCESS_public)
     609              $C$DW$72        .dwtag  DW_TAG_member
     610                      .dwattr $C$DW$72, DW_AT_type(*$C$DW$T$51)
     611                      .dwattr $C$DW$72, DW_AT_name("PCLKCR16")
     612                      .dwattr $C$DW$72, DW_AT_TI_symbol_name("_PCLKCR16")
     613                      .dwattr $C$DW$72, DW_AT_data_member_location[DW_OP_plus_uconst 0x42]
     614                      .dwattr $C$DW$72, DW_AT_accessibility(DW_ACCESS_public)
     615              $C$DW$73        .dwtag  DW_TAG_member
     616                      .dwattr $C$DW$73, DW_AT_type(*$C$DW$T$28)
     617                      .dwattr $C$DW$73, DW_AT_name("rsvd4")
     618                      .dwattr $C$DW$73, DW_AT_TI_symbol_name("_rsvd4")
     619                      .dwattr $C$DW$73, DW_AT_data_member_location[DW_OP_plus_uconst 0x44]
     620                      .dwattr $C$DW$73, DW_AT_accessibility(DW_ACCESS_public)
     621              $C$DW$74        .dwtag  DW_TAG_member
     622                      .dwattr $C$DW$74, DW_AT_type(*$C$DW$T$22)
     623                      .dwattr $C$DW$74, DW_AT_name("CCR")
     624                      .dwattr $C$DW$74, DW_AT_TI_symbol_name("_CCR")
     625                      .dwattr $C$DW$74, DW_AT_data_member_location[DW_OP_plus_uconst 0x72]
     626                      .dwattr $C$DW$74, DW_AT_accessibility(DW_ACCESS_public)
     627              $C$DW$75        .dwtag  DW_TAG_member
     628                      .dwattr $C$DW$75, DW_AT_type(*$C$DW$T$75)
     629                      .dwattr $C$DW$75, DW_AT_name("SECMSEL")
     630                      .dwattr $C$DW$75, DW_AT_TI_symbol_name("_SECMSEL")
     631                      .dwattr $C$DW$75, DW_AT_data_member_location[DW_OP_plus_uconst 0x74]
     632                      .dwattr $C$DW$75, DW_AT_accessibility(DW_ACCESS_public)
     633              $C$DW$76        .dwtag  DW_TAG_member
     634                      .dwattr $C$DW$76, DW_AT_type(*$C$DW$T$37)
     635                      .dwattr $C$DW$76, DW_AT_name("LPMCR")
     636                      .dwattr $C$DW$76, DW_AT_TI_symbol_name("_LPMCR")
     637                      .dwattr $C$DW$76, DW_AT_data_member_location[DW_OP_plus_uconst 0x76]
     638                      .dwattr $C$DW$76, DW_AT_accessibility(DW_ACCESS_public)
     639              $C$DW$77        .dwtag  DW_TAG_member
     640                      .dwattr $C$DW$77, DW_AT_type(*$C$DW$T$31)
     641                      .dwattr $C$DW$77, DW_AT_name("GPIOLPMSEL0")
     642                      .dwattr $C$DW$77, DW_AT_TI_symbol_name("_GPIOLPMSEL0")
     643                      .dwattr $C$DW$77, DW_AT_data_member_location[DW_OP_plus_uconst 0x78]
     644                      .dwattr $C$DW$77, DW_AT_accessibility(DW_ACCESS_public)
     645              $C$DW$78        .dwtag  DW_TAG_member
TMS320C2000 Assembler PC v6.1.3 Thu Jan 30 10:32:38 2014

Tools Copyright (c) 1996-2012 Texas Instruments Incorporated
C:\Users\a0272466\AppData\Local\Temp\0901610                         PAGE   13

     646                      .dwattr $C$DW$78, DW_AT_type(*$C$DW$T$33)
     647                      .dwattr $C$DW$78, DW_AT_name("GPIOLPMSEL1")
     648                      .dwattr $C$DW$78, DW_AT_TI_symbol_name("_GPIOLPMSEL1")
     649                      .dwattr $C$DW$78, DW_AT_data_member_location[DW_OP_plus_uconst 0x7a]
     650                      .dwattr $C$DW$78, DW_AT_accessibility(DW_ACCESS_public)
     651              $C$DW$79        .dwtag  DW_TAG_member
     652                      .dwattr $C$DW$79, DW_AT_type(*$C$DW$T$77)
     653                      .dwattr $C$DW$79, DW_AT_name("TMR2CLKCTL")
     654                      .dwattr $C$DW$79, DW_AT_TI_symbol_name("_TMR2CLKCTL")
     655                      .dwattr $C$DW$79, DW_AT_data_member_location[DW_OP_plus_uconst 0x7c]
     656                      .dwattr $C$DW$79, DW_AT_accessibility(DW_ACCESS_public)
     657              $C$DW$80        .dwtag  DW_TAG_member
     658                      .dwattr $C$DW$80, DW_AT_type(*$C$DW$T$27)
     659                      .dwattr $C$DW$80, DW_AT_name("rsvd5")
     660                      .dwattr $C$DW$80, DW_AT_TI_symbol_name("_rsvd5")
     661                      .dwattr $C$DW$80, DW_AT_data_member_location[DW_OP_plus_uconst 0x7e]
     662                      .dwattr $C$DW$80, DW_AT_accessibility(DW_ACCESS_public)
     663              $C$DW$81        .dwtag  DW_TAG_member
     664                      .dwattr $C$DW$81, DW_AT_type(*$C$DW$T$73)
     665                      .dwattr $C$DW$81, DW_AT_name("RESC")
     666                      .dwattr $C$DW$81, DW_AT_TI_symbol_name("_RESC")
     667                      .dwattr $C$DW$81, DW_AT_data_member_location[DW_OP_plus_uconst 0x80]
     668                      .dwattr $C$DW$81, DW_AT_accessibility(DW_ACCESS_public)
     669                      .dwendtag $C$DW$T$29
     670              
     671              $C$DW$82        .dwtag  DW_TAG_TI_far_type
     672                      .dwattr $C$DW$82, DW_AT_type(*$C$DW$T$29)
     673              $C$DW$T$78      .dwtag  DW_TAG_volatile_type
     674                      .dwattr $C$DW$T$78, DW_AT_type(*$C$DW$82)
     675              
     676              $C$DW$T$30      .dwtag  DW_TAG_structure_type
     677                      .dwattr $C$DW$T$30, DW_AT_name("GPIOLPMSEL0_BITS")
     678                      .dwattr $C$DW$T$30, DW_AT_byte_size(0x02)
     679              $C$DW$83        .dwtag  DW_TAG_member
     680                      .dwattr $C$DW$83, DW_AT_type(*$C$DW$T$19)
     681                      .dwattr $C$DW$83, DW_AT_name("GPIO0")
     682                      .dwattr $C$DW$83, DW_AT_TI_symbol_name("_GPIO0")
     683                      .dwattr $C$DW$83, DW_AT_bit_offset(0x0f), DW_AT_bit_size(0x01)
     684                      .dwattr $C$DW$83, DW_AT_data_member_location[DW_OP_plus_uconst 0x0]
     685                      .dwattr $C$DW$83, DW_AT_accessibility(DW_ACCESS_public)
     686              $C$DW$84        .dwtag  DW_TAG_member
     687                      .dwattr $C$DW$84, DW_AT_type(*$C$DW$T$19)
     688                      .dwattr $C$DW$84, DW_AT_name("GPIO1")
     689                      .dwattr $C$DW$84, DW_AT_TI_symbol_name("_GPIO1")
     690                      .dwattr $C$DW$84, DW_AT_bit_offset(0x0e), DW_AT_bit_size(0x01)
     691                      .dwattr $C$DW$84, DW_AT_data_member_location[DW_OP_plus_uconst 0x0]
     692                      .dwattr $C$DW$84, DW_AT_accessibility(DW_ACCESS_public)
     693              $C$DW$85        .dwtag  DW_TAG_member
     694                      .dwattr $C$DW$85, DW_AT_type(*$C$DW$T$19)
     695                      .dwattr $C$DW$85, DW_AT_name("GPIO2")
     696                      .dwattr $C$DW$85, DW_AT_TI_symbol_name("_GPIO2")
     697                      .dwattr $C$DW$85, DW_AT_bit_offset(0x0d), DW_AT_bit_size(0x01)
     698                      .dwattr $C$DW$85, DW_AT_data_member_location[DW_OP_plus_uconst 0x0]
     699                      .dwattr $C$DW$85, DW_AT_accessibility(DW_ACCESS_public)
     700              $C$DW$86        .dwtag  DW_TAG_member
TMS320C2000 Assembler PC v6.1.3 Thu Jan 30 10:32:38 2014

Tools Copyright (c) 1996-2012 Texas Instruments Incorporated
C:\Users\a0272466\AppData\Local\Temp\0901610                         PAGE   14

     701                      .dwattr $C$DW$86, DW_AT_type(*$C$DW$T$19)
     702                      .dwattr $C$DW$86, DW_AT_name("GPIO3")
     703                      .dwattr $C$DW$86, DW_AT_TI_symbol_name("_GPIO3")
     704                      .dwattr $C$DW$86, DW_AT_bit_offset(0x0c), DW_AT_bit_size(0x01)
     705                      .dwattr $C$DW$86, DW_AT_data_member_location[DW_OP_plus_uconst 0x0]
     706                      .dwattr $C$DW$86, DW_AT_accessibility(DW_ACCESS_public)
     707              $C$DW$87        .dwtag  DW_TAG_member
     708                      .dwattr $C$DW$87, DW_AT_type(*$C$DW$T$19)
     709                      .dwattr $C$DW$87, DW_AT_name("GPIO4")
     710                      .dwattr $C$DW$87, DW_AT_TI_symbol_name("_GPIO4")
     711                      .dwattr $C$DW$87, DW_AT_bit_offset(0x0b), DW_AT_bit_size(0x01)
     712                      .dwattr $C$DW$87, DW_AT_data_member_location[DW_OP_plus_uconst 0x0]
     713                      .dwattr $C$DW$87, DW_AT_accessibility(DW_ACCESS_public)
     714              $C$DW$88        .dwtag  DW_TAG_member
     715                      .dwattr $C$DW$88, DW_AT_type(*$C$DW$T$19)
     716                      .dwattr $C$DW$88, DW_AT_name("GPIO5")
     717                      .dwattr $C$DW$88, DW_AT_TI_symbol_name("_GPIO5")
     718                      .dwattr $C$DW$88, DW_AT_bit_offset(0x0a), DW_AT_bit_size(0x01)
     719                      .dwattr $C$DW$88, DW_AT_data_member_location[DW_OP_plus_uconst 0x0]
     720                      .dwattr $C$DW$88, DW_AT_accessibility(DW_ACCESS_public)
     721              $C$DW$89        .dwtag  DW_TAG_member
     722                      .dwattr $C$DW$89, DW_AT_type(*$C$DW$T$19)
     723                      .dwattr $C$DW$89, DW_AT_name("GPIO6")
     724                      .dwattr $C$DW$89, DW_AT_TI_symbol_name("_GPIO6")
     725                      .dwattr $C$DW$89, DW_AT_bit_offset(0x09), DW_AT_bit_size(0x01)
     726                      .dwattr $C$DW$89, DW_AT_data_member_location[DW_OP_plus_uconst 0x0]
     727                      .dwattr $C$DW$89, DW_AT_accessibility(DW_ACCESS_public)
     728              $C$DW$90        .dwtag  DW_TAG_member
     729                      .dwattr $C$DW$90, DW_AT_type(*$C$DW$T$19)
     730                      .dwattr $C$DW$90, DW_AT_name("GPIO7")
     731                      .dwattr $C$DW$90, DW_AT_TI_symbol_name("_GPIO7")
     732                      .dwattr $C$DW$90, DW_AT_bit_offset(0x08), DW_AT_bit_size(0x01)
     733                      .dwattr $C$DW$90, DW_AT_data_member_location[DW_OP_plus_uconst 0x0]
     734                      .dwattr $C$DW$90, DW_AT_accessibility(DW_ACCESS_public)
     735              $C$DW$91        .dwtag  DW_TAG_member
     736                      .dwattr $C$DW$91, DW_AT_type(*$C$DW$T$19)
     737                      .dwattr $C$DW$91, DW_AT_name("GPIO8")
     738                      .dwattr $C$DW$91, DW_AT_TI_symbol_name("_GPIO8")
     739                      .dwattr $C$DW$91, DW_AT_bit_offset(0x07), DW_AT_bit_size(0x01)
     740                      .dwattr $C$DW$91, DW_AT_data_member_location[DW_OP_plus_uconst 0x0]
     741                      .dwattr $C$DW$91, DW_AT_accessibility(DW_ACCESS_public)
     742              $C$DW$92        .dwtag  DW_TAG_member
     743                      .dwattr $C$DW$92, DW_AT_type(*$C$DW$T$19)
     744                      .dwattr $C$DW$92, DW_AT_name("GPIO9")
     745                      .dwattr $C$DW$92, DW_AT_TI_symbol_name("_GPIO9")
     746                      .dwattr $C$DW$92, DW_AT_bit_offset(0x06), DW_AT_bit_size(0x01)
     747                      .dwattr $C$DW$92, DW_AT_data_member_location[DW_OP_plus_uconst 0x0]
     748                      .dwattr $C$DW$92, DW_AT_accessibility(DW_ACCESS_public)
     749              $C$DW$93        .dwtag  DW_TAG_member
     750                      .dwattr $C$DW$93, DW_AT_type(*$C$DW$T$19)
     751                      .dwattr $C$DW$93, DW_AT_name("GPIO10")
     752                      .dwattr $C$DW$93, DW_AT_TI_symbol_name("_GPIO10")
     753                      .dwattr $C$DW$93, DW_AT_bit_offset(0x05), DW_AT_bit_size(0x01)
     754                      .dwattr $C$DW$93, DW_AT_data_member_location[DW_OP_plus_uconst 0x0]
     755                      .dwattr $C$DW$93, DW_AT_accessibility(DW_ACCESS_public)
TMS320C2000 Assembler PC v6.1.3 Thu Jan 30 10:32:38 2014

Tools Copyright (c) 1996-2012 Texas Instruments Incorporated
C:\Users\a0272466\AppData\Local\Temp\0901610                         PAGE   15

     756              $C$DW$94        .dwtag  DW_TAG_member
     757                      .dwattr $C$DW$94, DW_AT_type(*$C$DW$T$19)
     758                      .dwattr $C$DW$94, DW_AT_name("GPIO11")
     759                      .dwattr $C$DW$94, DW_AT_TI_symbol_name("_GPIO11")
     760                      .dwattr $C$DW$94, DW_AT_bit_offset(0x04), DW_AT_bit_size(0x01)
     761                      .dwattr $C$DW$94, DW_AT_data_member_location[DW_OP_plus_uconst 0x0]
     762                      .dwattr $C$DW$94, DW_AT_accessibility(DW_ACCESS_public)
     763              $C$DW$95        .dwtag  DW_TAG_member
     764                      .dwattr $C$DW$95, DW_AT_type(*$C$DW$T$19)
     765                      .dwattr $C$DW$95, DW_AT_name("GPIO12")
     766                      .dwattr $C$DW$95, DW_AT_TI_symbol_name("_GPIO12")
     767                      .dwattr $C$DW$95, DW_AT_bit_offset(0x03), DW_AT_bit_size(0x01)
     768                      .dwattr $C$DW$95, DW_AT_data_member_location[DW_OP_plus_uconst 0x0]
     769                      .dwattr $C$DW$95, DW_AT_accessibility(DW_ACCESS_public)
     770              $C$DW$96        .dwtag  DW_TAG_member
     771                      .dwattr $C$DW$96, DW_AT_type(*$C$DW$T$19)
     772                      .dwattr $C$DW$96, DW_AT_name("GPIO13")
     773                      .dwattr $C$DW$96, DW_AT_TI_symbol_name("_GPIO13")
     774                      .dwattr $C$DW$96, DW_AT_bit_offset(0x02), DW_AT_bit_size(0x01)
     775                      .dwattr $C$DW$96, DW_AT_data_member_location[DW_OP_plus_uconst 0x0]
     776                      .dwattr $C$DW$96, DW_AT_accessibility(DW_ACCESS_public)
     777              $C$DW$97        .dwtag  DW_TAG_member
     778                      .dwattr $C$DW$97, DW_AT_type(*$C$DW$T$19)
     779                      .dwattr $C$DW$97, DW_AT_name("GPIO14")
     780                      .dwattr $C$DW$97, DW_AT_TI_symbol_name("_GPIO14")
     781                      .dwattr $C$DW$97, DW_AT_bit_offset(0x01), DW_AT_bit_size(0x01)
     782                      .dwattr $C$DW$97, DW_AT_data_member_location[DW_OP_plus_uconst 0x0]
     783                      .dwattr $C$DW$97, DW_AT_accessibility(DW_ACCESS_public)
     784              $C$DW$98        .dwtag  DW_TAG_member
     785                      .dwattr $C$DW$98, DW_AT_type(*$C$DW$T$19)
     786                      .dwattr $C$DW$98, DW_AT_name("GPIO15")
     787                      .dwattr $C$DW$98, DW_AT_TI_symbol_name("_GPIO15")
     788                      .dwattr $C$DW$98, DW_AT_bit_offset(0x00), DW_AT_bit_size(0x01)
     789                      .dwattr $C$DW$98, DW_AT_data_member_location[DW_OP_plus_uconst 0x0]
     790                      .dwattr $C$DW$98, DW_AT_accessibility(DW_ACCESS_public)
     791              $C$DW$99        .dwtag  DW_TAG_member
     792                      .dwattr $C$DW$99, DW_AT_type(*$C$DW$T$19)
     793                      .dwattr $C$DW$99, DW_AT_name("GPIO16")
     794                      .dwattr $C$DW$99, DW_AT_TI_symbol_name("_GPIO16")
     795                      .dwattr $C$DW$99, DW_AT_bit_offset(0x0f), DW_AT_bit_size(0x01)
     796                      .dwattr $C$DW$99, DW_AT_data_member_location[DW_OP_plus_uconst 0x1]
     797                      .dwattr $C$DW$99, DW_AT_accessibility(DW_ACCESS_public)
     798              $C$DW$100       .dwtag  DW_TAG_member
     799                      .dwattr $C$DW$100, DW_AT_type(*$C$DW$T$19)
     800                      .dwattr $C$DW$100, DW_AT_name("GPIO17")
     801                      .dwattr $C$DW$100, DW_AT_TI_symbol_name("_GPIO17")
     802                      .dwattr $C$DW$100, DW_AT_bit_offset(0x0e), DW_AT_bit_size(0x01)
     803                      .dwattr $C$DW$100, DW_AT_data_member_location[DW_OP_plus_uconst 0x1]
     804                      .dwattr $C$DW$100, DW_AT_accessibility(DW_ACCESS_public)
     805              $C$DW$101       .dwtag  DW_TAG_member
     806                      .dwattr $C$DW$101, DW_AT_type(*$C$DW$T$19)
     807                      .dwattr $C$DW$101, DW_AT_name("GPIO18")
     808                      .dwattr $C$DW$101, DW_AT_TI_symbol_name("_GPIO18")
     809                      .dwattr $C$DW$101, DW_AT_bit_offset(0x0d), DW_AT_bit_size(0x01)
     810                      .dwattr $C$DW$101, DW_AT_data_member_location[DW_OP_plus_uconst 0x1]
TMS320C2000 Assembler PC v6.1.3 Thu Jan 30 10:32:38 2014

Tools Copyright (c) 1996-2012 Texas Instruments Incorporated
C:\Users\a0272466\AppData\Local\Temp\0901610                         PAGE   16

     811                      .dwattr $C$DW$101, DW_AT_accessibility(DW_ACCESS_public)
     812              $C$DW$102       .dwtag  DW_TAG_member
     813                      .dwattr $C$DW$102, DW_AT_type(*$C$DW$T$19)
     814                      .dwattr $C$DW$102, DW_AT_name("GPIO19")
     815                      .dwattr $C$DW$102, DW_AT_TI_symbol_name("_GPIO19")
     816                      .dwattr $C$DW$102, DW_AT_bit_offset(0x0c), DW_AT_bit_size(0x01)
     817                      .dwattr $C$DW$102, DW_AT_data_member_location[DW_OP_plus_uconst 0x1]
     818                      .dwattr $C$DW$102, DW_AT_accessibility(DW_ACCESS_public)
     819              $C$DW$103       .dwtag  DW_TAG_member
     820                      .dwattr $C$DW$103, DW_AT_type(*$C$DW$T$19)
     821                      .dwattr $C$DW$103, DW_AT_name("GPIO20")
     822                      .dwattr $C$DW$103, DW_AT_TI_symbol_name("_GPIO20")
     823                      .dwattr $C$DW$103, DW_AT_bit_offset(0x0b), DW_AT_bit_size(0x01)
     824                      .dwattr $C$DW$103, DW_AT_data_member_location[DW_OP_plus_uconst 0x1]
     825                      .dwattr $C$DW$103, DW_AT_accessibility(DW_ACCESS_public)
     826              $C$DW$104       .dwtag  DW_TAG_member
     827                      .dwattr $C$DW$104, DW_AT_type(*$C$DW$T$19)
     828                      .dwattr $C$DW$104, DW_AT_name("GPIO21")
     829                      .dwattr $C$DW$104, DW_AT_TI_symbol_name("_GPIO21")
     830                      .dwattr $C$DW$104, DW_AT_bit_offset(0x0a), DW_AT_bit_size(0x01)
     831                      .dwattr $C$DW$104, DW_AT_data_member_location[DW_OP_plus_uconst 0x1]
     832                      .dwattr $C$DW$104, DW_AT_accessibility(DW_ACCESS_public)
     833              $C$DW$105       .dwtag  DW_TAG_member
     834                      .dwattr $C$DW$105, DW_AT_type(*$C$DW$T$19)
     835                      .dwattr $C$DW$105, DW_AT_name("GPIO22")
     836                      .dwattr $C$DW$105, DW_AT_TI_symbol_name("_GPIO22")
     837                      .dwattr $C$DW$105, DW_AT_bit_offset(0x09), DW_AT_bit_size(0x01)
     838                      .dwattr $C$DW$105, DW_AT_data_member_location[DW_OP_plus_uconst 0x1]
     839                      .dwattr $C$DW$105, DW_AT_accessibility(DW_ACCESS_public)
     840              $C$DW$106       .dwtag  DW_TAG_member
     841                      .dwattr $C$DW$106, DW_AT_type(*$C$DW$T$19)
     842                      .dwattr $C$DW$106, DW_AT_name("GPIO23")
     843                      .dwattr $C$DW$106, DW_AT_TI_symbol_name("_GPIO23")
     844                      .dwattr $C$DW$106, DW_AT_bit_offset(0x08), DW_AT_bit_size(0x01)
     845                      .dwattr $C$DW$106, DW_AT_data_member_location[DW_OP_plus_uconst 0x1]
     846                      .dwattr $C$DW$106, DW_AT_accessibility(DW_ACCESS_public)
     847              $C$DW$107       .dwtag  DW_TAG_member
     848                      .dwattr $C$DW$107, DW_AT_type(*$C$DW$T$19)
     849                      .dwattr $C$DW$107, DW_AT_name("GPIO24")
     850                      .dwattr $C$DW$107, DW_AT_TI_symbol_name("_GPIO24")
     851                      .dwattr $C$DW$107, DW_AT_bit_offset(0x07), DW_AT_bit_size(0x01)
     852                      .dwattr $C$DW$107, DW_AT_data_member_location[DW_OP_plus_uconst 0x1]
     853                      .dwattr $C$DW$107, DW_AT_accessibility(DW_ACCESS_public)
     854              $C$DW$108       .dwtag  DW_TAG_member
     855                      .dwattr $C$DW$108, DW_AT_type(*$C$DW$T$19)
     856                      .dwattr $C$DW$108, DW_AT_name("GPIO25")
     857                      .dwattr $C$DW$108, DW_AT_TI_symbol_name("_GPIO25")
     858                      .dwattr $C$DW$108, DW_AT_bit_offset(0x06), DW_AT_bit_size(0x01)
     859                      .dwattr $C$DW$108, DW_AT_data_member_location[DW_OP_plus_uconst 0x1]
     860                      .dwattr $C$DW$108, DW_AT_accessibility(DW_ACCESS_public)
     861              $C$DW$109       .dwtag  DW_TAG_member
     862                      .dwattr $C$DW$109, DW_AT_type(*$C$DW$T$19)
     863                      .dwattr $C$DW$109, DW_AT_name("GPIO26")
     864                      .dwattr $C$DW$109, DW_AT_TI_symbol_name("_GPIO26")
     865                      .dwattr $C$DW$109, DW_AT_bit_offset(0x05), DW_AT_bit_size(0x01)
TMS320C2000 Assembler PC v6.1.3 Thu Jan 30 10:32:38 2014

Tools Copyright (c) 1996-2012 Texas Instruments Incorporated
C:\Users\a0272466\AppData\Local\Temp\0901610                         PAGE   17

     866                      .dwattr $C$DW$109, DW_AT_data_member_location[DW_OP_plus_uconst 0x1]
     867                      .dwattr $C$DW$109, DW_AT_accessibility(DW_ACCESS_public)
     868              $C$DW$110       .dwtag  DW_TAG_member
     869                      .dwattr $C$DW$110, DW_AT_type(*$C$DW$T$19)
     870                      .dwattr $C$DW$110, DW_AT_name("GPIO27")
     871                      .dwattr $C$DW$110, DW_AT_TI_symbol_name("_GPIO27")
     872                      .dwattr $C$DW$110, DW_AT_bit_offset(0x04), DW_AT_bit_size(0x01)
     873                      .dwattr $C$DW$110, DW_AT_data_member_location[DW_OP_plus_uconst 0x1]
     874                      .dwattr $C$DW$110, DW_AT_accessibility(DW_ACCESS_public)
     875              $C$DW$111       .dwtag  DW_TAG_member
     876                      .dwattr $C$DW$111, DW_AT_type(*$C$DW$T$19)
     877                      .dwattr $C$DW$111, DW_AT_name("GPIO28")
     878                      .dwattr $C$DW$111, DW_AT_TI_symbol_name("_GPIO28")
     879                      .dwattr $C$DW$111, DW_AT_bit_offset(0x03), DW_AT_bit_size(0x01)
     880                      .dwattr $C$DW$111, DW_AT_data_member_location[DW_OP_plus_uconst 0x1]
     881                      .dwattr $C$DW$111, DW_AT_accessibility(DW_ACCESS_public)
     882              $C$DW$112       .dwtag  DW_TAG_member
     883                      .dwattr $C$DW$112, DW_AT_type(*$C$DW$T$19)
     884                      .dwattr $C$DW$112, DW_AT_name("GPIO29")
     885                      .dwattr $C$DW$112, DW_AT_TI_symbol_name("_GPIO29")
     886                      .dwattr $C$DW$112, DW_AT_bit_offset(0x02), DW_AT_bit_size(0x01)
     887                      .dwattr $C$DW$112, DW_AT_data_member_location[DW_OP_plus_uconst 0x1]
     888                      .dwattr $C$DW$112, DW_AT_accessibility(DW_ACCESS_public)
     889              $C$DW$113       .dwtag  DW_TAG_member
     890                      .dwattr $C$DW$113, DW_AT_type(*$C$DW$T$19)
     891                      .dwattr $C$DW$113, DW_AT_name("GPIO30")
     892                      .dwattr $C$DW$113, DW_AT_TI_symbol_name("_GPIO30")
     893                      .dwattr $C$DW$113, DW_AT_bit_offset(0x01), DW_AT_bit_size(0x01)
     894                      .dwattr $C$DW$113, DW_AT_data_member_location[DW_OP_plus_uconst 0x1]
     895                      .dwattr $C$DW$113, DW_AT_accessibility(DW_ACCESS_public)
     896              $C$DW$114       .dwtag  DW_TAG_member
     897                      .dwattr $C$DW$114, DW_AT_type(*$C$DW$T$19)
     898                      .dwattr $C$DW$114, DW_AT_name("GPIO31")
     899                      .dwattr $C$DW$114, DW_AT_TI_symbol_name("_GPIO31")
     900                      .dwattr $C$DW$114, DW_AT_bit_offset(0x00), DW_AT_bit_size(0x01)
     901                      .dwattr $C$DW$114, DW_AT_data_member_location[DW_OP_plus_uconst 0x1]
     902                      .dwattr $C$DW$114, DW_AT_accessibility(DW_ACCESS_public)
     903                      .dwendtag $C$DW$T$30
     904              
     905              
     906              $C$DW$T$31      .dwtag  DW_TAG_union_type
     907                      .dwattr $C$DW$T$31, DW_AT_name("GPIOLPMSEL0_REG")
     908                      .dwattr $C$DW$T$31, DW_AT_byte_size(0x02)
     909              $C$DW$115       .dwtag  DW_TAG_member
     910                      .dwattr $C$DW$115, DW_AT_type(*$C$DW$T$21)
     911                      .dwattr $C$DW$115, DW_AT_name("all")
     912                      .dwattr $C$DW$115, DW_AT_TI_symbol_name("_all")
     913                      .dwattr $C$DW$115, DW_AT_data_member_location[DW_OP_plus_uconst 0x0]
     914                      .dwattr $C$DW$115, DW_AT_accessibility(DW_ACCESS_public)
     915              $C$DW$116       .dwtag  DW_TAG_member
     916                      .dwattr $C$DW$116, DW_AT_type(*$C$DW$T$30)
     917                      .dwattr $C$DW$116, DW_AT_name("bit")
     918                      .dwattr $C$DW$116, DW_AT_TI_symbol_name("_bit")
     919                      .dwattr $C$DW$116, DW_AT_data_member_location[DW_OP_plus_uconst 0x0]
     920                      .dwattr $C$DW$116, DW_AT_accessibility(DW_ACCESS_public)
TMS320C2000 Assembler PC v6.1.3 Thu Jan 30 10:32:38 2014

Tools Copyright (c) 1996-2012 Texas Instruments Incorporated
C:\Users\a0272466\AppData\Local\Temp\0901610                         PAGE   18

     921                      .dwendtag $C$DW$T$31
     922              
     923              
     924              $C$DW$T$32      .dwtag  DW_TAG_structure_type
     925                      .dwattr $C$DW$T$32, DW_AT_name("GPIOLPMSEL1_BITS")
     926                      .dwattr $C$DW$T$32, DW_AT_byte_size(0x02)
     927              $C$DW$117       .dwtag  DW_TAG_member
     928                      .dwattr $C$DW$117, DW_AT_type(*$C$DW$T$19)
     929                      .dwattr $C$DW$117, DW_AT_name("GPIO32")
     930                      .dwattr $C$DW$117, DW_AT_TI_symbol_name("_GPIO32")
     931                      .dwattr $C$DW$117, DW_AT_bit_offset(0x0f), DW_AT_bit_size(0x01)
     932                      .dwattr $C$DW$117, DW_AT_data_member_location[DW_OP_plus_uconst 0x0]
     933                      .dwattr $C$DW$117, DW_AT_accessibility(DW_ACCESS_public)
     934              $C$DW$118       .dwtag  DW_TAG_member
     935                      .dwattr $C$DW$118, DW_AT_type(*$C$DW$T$19)
     936                      .dwattr $C$DW$118, DW_AT_name("GPIO33")
     937                      .dwattr $C$DW$118, DW_AT_TI_symbol_name("_GPIO33")
     938                      .dwattr $C$DW$118, DW_AT_bit_offset(0x0e), DW_AT_bit_size(0x01)
     939                      .dwattr $C$DW$118, DW_AT_data_member_location[DW_OP_plus_uconst 0x0]
     940                      .dwattr $C$DW$118, DW_AT_accessibility(DW_ACCESS_public)
     941              $C$DW$119       .dwtag  DW_TAG_member
     942                      .dwattr $C$DW$119, DW_AT_type(*$C$DW$T$19)
     943                      .dwattr $C$DW$119, DW_AT_name("GPIO34")
     944                      .dwattr $C$DW$119, DW_AT_TI_symbol_name("_GPIO34")
     945                      .dwattr $C$DW$119, DW_AT_bit_offset(0x0d), DW_AT_bit_size(0x01)
     946                      .dwattr $C$DW$119, DW_AT_data_member_location[DW_OP_plus_uconst 0x0]
     947                      .dwattr $C$DW$119, DW_AT_accessibility(DW_ACCESS_public)
     948              $C$DW$120       .dwtag  DW_TAG_member
     949                      .dwattr $C$DW$120, DW_AT_type(*$C$DW$T$19)
     950                      .dwattr $C$DW$120, DW_AT_name("GPIO35")
     951                      .dwattr $C$DW$120, DW_AT_TI_symbol_name("_GPIO35")
     952                      .dwattr $C$DW$120, DW_AT_bit_offset(0x0c), DW_AT_bit_size(0x01)
     953                      .dwattr $C$DW$120, DW_AT_data_member_location[DW_OP_plus_uconst 0x0]
     954                      .dwattr $C$DW$120, DW_AT_accessibility(DW_ACCESS_public)
     955              $C$DW$121       .dwtag  DW_TAG_member
     956                      .dwattr $C$DW$121, DW_AT_type(*$C$DW$T$19)
     957                      .dwattr $C$DW$121, DW_AT_name("GPIO36")
     958                      .dwattr $C$DW$121, DW_AT_TI_symbol_name("_GPIO36")
     959                      .dwattr $C$DW$121, DW_AT_bit_offset(0x0b), DW_AT_bit_size(0x01)
     960                      .dwattr $C$DW$121, DW_AT_data_member_location[DW_OP_plus_uconst 0x0]
     961                      .dwattr $C$DW$121, DW_AT_accessibility(DW_ACCESS_public)
     962              $C$DW$122       .dwtag  DW_TAG_member
     963                      .dwattr $C$DW$122, DW_AT_type(*$C$DW$T$19)
     964                      .dwattr $C$DW$122, DW_AT_name("GPIO37")
     965                      .dwattr $C$DW$122, DW_AT_TI_symbol_name("_GPIO37")
     966                      .dwattr $C$DW$122, DW_AT_bit_offset(0x0a), DW_AT_bit_size(0x01)
     967                      .dwattr $C$DW$122, DW_AT_data_member_location[DW_OP_plus_uconst 0x0]
     968                      .dwattr $C$DW$122, DW_AT_accessibility(DW_ACCESS_public)
     969              $C$DW$123       .dwtag  DW_TAG_member
     970                      .dwattr $C$DW$123, DW_AT_type(*$C$DW$T$19)
     971                      .dwattr $C$DW$123, DW_AT_name("GPIO38")
     972                      .dwattr $C$DW$123, DW_AT_TI_symbol_name("_GPIO38")
     973                      .dwattr $C$DW$123, DW_AT_bit_offset(0x09), DW_AT_bit_size(0x01)
     974                      .dwattr $C$DW$123, DW_AT_data_member_location[DW_OP_plus_uconst 0x0]
     975                      .dwattr $C$DW$123, DW_AT_accessibility(DW_ACCESS_public)
TMS320C2000 Assembler PC v6.1.3 Thu Jan 30 10:32:38 2014

Tools Copyright (c) 1996-2012 Texas Instruments Incorporated
C:\Users\a0272466\AppData\Local\Temp\0901610                         PAGE   19

     976              $C$DW$124       .dwtag  DW_TAG_member
     977                      .dwattr $C$DW$124, DW_AT_type(*$C$DW$T$19)
     978                      .dwattr $C$DW$124, DW_AT_name("GPIO39")
     979                      .dwattr $C$DW$124, DW_AT_TI_symbol_name("_GPIO39")
     980                      .dwattr $C$DW$124, DW_AT_bit_offset(0x08), DW_AT_bit_size(0x01)
     981                      .dwattr $C$DW$124, DW_AT_data_member_location[DW_OP_plus_uconst 0x0]
     982                      .dwattr $C$DW$124, DW_AT_accessibility(DW_ACCESS_public)
     983              $C$DW$125       .dwtag  DW_TAG_member
     984                      .dwattr $C$DW$125, DW_AT_type(*$C$DW$T$19)
     985                      .dwattr $C$DW$125, DW_AT_name("GPIO40")
     986                      .dwattr $C$DW$125, DW_AT_TI_symbol_name("_GPIO40")
     987                      .dwattr $C$DW$125, DW_AT_bit_offset(0x07), DW_AT_bit_size(0x01)
     988                      .dwattr $C$DW$125, DW_AT_data_member_location[DW_OP_plus_uconst 0x0]
     989                      .dwattr $C$DW$125, DW_AT_accessibility(DW_ACCESS_public)
     990              $C$DW$126       .dwtag  DW_TAG_member
     991                      .dwattr $C$DW$126, DW_AT_type(*$C$DW$T$19)
     992                      .dwattr $C$DW$126, DW_AT_name("GPIO41")
     993                      .dwattr $C$DW$126, DW_AT_TI_symbol_name("_GPIO41")
     994                      .dwattr $C$DW$126, DW_AT_bit_offset(0x06), DW_AT_bit_size(0x01)
     995                      .dwattr $C$DW$126, DW_AT_data_member_location[DW_OP_plus_uconst 0x0]
     996                      .dwattr $C$DW$126, DW_AT_accessibility(DW_ACCESS_public)
     997              $C$DW$127       .dwtag  DW_TAG_member
     998                      .dwattr $C$DW$127, DW_AT_type(*$C$DW$T$19)
     999                      .dwattr $C$DW$127, DW_AT_name("GPIO42")
    1000                      .dwattr $C$DW$127, DW_AT_TI_symbol_name("_GPIO42")
    1001                      .dwattr $C$DW$127, DW_AT_bit_offset(0x05), DW_AT_bit_size(0x01)
    1002                      .dwattr $C$DW$127, DW_AT_data_member_location[DW_OP_plus_uconst 0x0]
    1003                      .dwattr $C$DW$127, DW_AT_accessibility(DW_ACCESS_public)
    1004              $C$DW$128       .dwtag  DW_TAG_member
    1005                      .dwattr $C$DW$128, DW_AT_type(*$C$DW$T$19)
    1006                      .dwattr $C$DW$128, DW_AT_name("GPIO43")
    1007                      .dwattr $C$DW$128, DW_AT_TI_symbol_name("_GPIO43")
    1008                      .dwattr $C$DW$128, DW_AT_bit_offset(0x04), DW_AT_bit_size(0x01)
    1009                      .dwattr $C$DW$128, DW_AT_data_member_location[DW_OP_plus_uconst 0x0]
    1010                      .dwattr $C$DW$128, DW_AT_accessibility(DW_ACCESS_public)
    1011              $C$DW$129       .dwtag  DW_TAG_member
    1012                      .dwattr $C$DW$129, DW_AT_type(*$C$DW$T$19)
    1013                      .dwattr $C$DW$129, DW_AT_name("GPIO44")
    1014                      .dwattr $C$DW$129, DW_AT_TI_symbol_name("_GPIO44")
    1015                      .dwattr $C$DW$129, DW_AT_bit_offset(0x03), DW_AT_bit_size(0x01)
    1016                      .dwattr $C$DW$129, DW_AT_data_member_location[DW_OP_plus_uconst 0x0]
    1017                      .dwattr $C$DW$129, DW_AT_accessibility(DW_ACCESS_public)
    1018              $C$DW$130       .dwtag  DW_TAG_member
    1019                      .dwattr $C$DW$130, DW_AT_type(*$C$DW$T$19)
    1020                      .dwattr $C$DW$130, DW_AT_name("GPIO45")
    1021                      .dwattr $C$DW$130, DW_AT_TI_symbol_name("_GPIO45")
    1022                      .dwattr $C$DW$130, DW_AT_bit_offset(0x02), DW_AT_bit_size(0x01)
    1023                      .dwattr $C$DW$130, DW_AT_data_member_location[DW_OP_plus_uconst 0x0]
    1024                      .dwattr $C$DW$130, DW_AT_accessibility(DW_ACCESS_public)
    1025              $C$DW$131       .dwtag  DW_TAG_member
    1026                      .dwattr $C$DW$131, DW_AT_type(*$C$DW$T$19)
    1027                      .dwattr $C$DW$131, DW_AT_name("GPIO46")
    1028                      .dwattr $C$DW$131, DW_AT_TI_symbol_name("_GPIO46")
    1029                      .dwattr $C$DW$131, DW_AT_bit_offset(0x01), DW_AT_bit_size(0x01)
    1030                      .dwattr $C$DW$131, DW_AT_data_member_location[DW_OP_plus_uconst 0x0]
TMS320C2000 Assembler PC v6.1.3 Thu Jan 30 10:32:38 2014

Tools Copyright (c) 1996-2012 Texas Instruments Incorporated
C:\Users\a0272466\AppData\Local\Temp\0901610                         PAGE   20

    1031                      .dwattr $C$DW$131, DW_AT_accessibility(DW_ACCESS_public)
    1032              $C$DW$132       .dwtag  DW_TAG_member
    1033                      .dwattr $C$DW$132, DW_AT_type(*$C$DW$T$19)
    1034                      .dwattr $C$DW$132, DW_AT_name("GPIO47")
    1035                      .dwattr $C$DW$132, DW_AT_TI_symbol_name("_GPIO47")
    1036                      .dwattr $C$DW$132, DW_AT_bit_offset(0x00), DW_AT_bit_size(0x01)
    1037                      .dwattr $C$DW$132, DW_AT_data_member_location[DW_OP_plus_uconst 0x0]
    1038                      .dwattr $C$DW$132, DW_AT_accessibility(DW_ACCESS_public)
    1039              $C$DW$133       .dwtag  DW_TAG_member
    1040                      .dwattr $C$DW$133, DW_AT_type(*$C$DW$T$19)
    1041                      .dwattr $C$DW$133, DW_AT_name("GPIO48")
    1042                      .dwattr $C$DW$133, DW_AT_TI_symbol_name("_GPIO48")
    1043                      .dwattr $C$DW$133, DW_AT_bit_offset(0x0f), DW_AT_bit_size(0x01)
    1044                      .dwattr $C$DW$133, DW_AT_data_member_location[DW_OP_plus_uconst 0x1]
    1045                      .dwattr $C$DW$133, DW_AT_accessibility(DW_ACCESS_public)
    1046              $C$DW$134       .dwtag  DW_TAG_member
    1047                      .dwattr $C$DW$134, DW_AT_type(*$C$DW$T$19)
    1048                      .dwattr $C$DW$134, DW_AT_name("GPIO49")
    1049                      .dwattr $C$DW$134, DW_AT_TI_symbol_name("_GPIO49")
    1050                      .dwattr $C$DW$134, DW_AT_bit_offset(0x0e), DW_AT_bit_size(0x01)
    1051                      .dwattr $C$DW$134, DW_AT_data_member_location[DW_OP_plus_uconst 0x1]
    1052                      .dwattr $C$DW$134, DW_AT_accessibility(DW_ACCESS_public)
    1053              $C$DW$135       .dwtag  DW_TAG_member
    1054                      .dwattr $C$DW$135, DW_AT_type(*$C$DW$T$19)
    1055                      .dwattr $C$DW$135, DW_AT_name("GPIO50")
    1056                      .dwattr $C$DW$135, DW_AT_TI_symbol_name("_GPIO50")
    1057                      .dwattr $C$DW$135, DW_AT_bit_offset(0x0d), DW_AT_bit_size(0x01)
    1058                      .dwattr $C$DW$135, DW_AT_data_member_location[DW_OP_plus_uconst 0x1]
    1059                      .dwattr $C$DW$135, DW_AT_accessibility(DW_ACCESS_public)
    1060              $C$DW$136       .dwtag  DW_TAG_member
    1061                      .dwattr $C$DW$136, DW_AT_type(*$C$DW$T$19)
    1062                      .dwattr $C$DW$136, DW_AT_name("GPIO51")
    1063                      .dwattr $C$DW$136, DW_AT_TI_symbol_name("_GPIO51")
    1064                      .dwattr $C$DW$136, DW_AT_bit_offset(0x0c), DW_AT_bit_size(0x01)
    1065                      .dwattr $C$DW$136, DW_AT_data_member_location[DW_OP_plus_uconst 0x1]
    1066                      .dwattr $C$DW$136, DW_AT_accessibility(DW_ACCESS_public)
    1067              $C$DW$137       .dwtag  DW_TAG_member
    1068                      .dwattr $C$DW$137, DW_AT_type(*$C$DW$T$19)
    1069                      .dwattr $C$DW$137, DW_AT_name("GPIO52")
    1070                      .dwattr $C$DW$137, DW_AT_TI_symbol_name("_GPIO52")
    1071                      .dwattr $C$DW$137, DW_AT_bit_offset(0x0b), DW_AT_bit_size(0x01)
    1072                      .dwattr $C$DW$137, DW_AT_data_member_location[DW_OP_plus_uconst 0x1]
    1073                      .dwattr $C$DW$137, DW_AT_accessibility(DW_ACCESS_public)
    1074              $C$DW$138       .dwtag  DW_TAG_member
    1075                      .dwattr $C$DW$138, DW_AT_type(*$C$DW$T$19)
    1076                      .dwattr $C$DW$138, DW_AT_name("GPIO53")
    1077                      .dwattr $C$DW$138, DW_AT_TI_symbol_name("_GPIO53")
    1078                      .dwattr $C$DW$138, DW_AT_bit_offset(0x0a), DW_AT_bit_size(0x01)
    1079                      .dwattr $C$DW$138, DW_AT_data_member_location[DW_OP_plus_uconst 0x1]
    1080                      .dwattr $C$DW$138, DW_AT_accessibility(DW_ACCESS_public)
    1081              $C$DW$139       .dwtag  DW_TAG_member
    1082                      .dwattr $C$DW$139, DW_AT_type(*$C$DW$T$19)
    1083                      .dwattr $C$DW$139, DW_AT_name("GPIO54")
    1084                      .dwattr $C$DW$139, DW_AT_TI_symbol_name("_GPIO54")
    1085                      .dwattr $C$DW$139, DW_AT_bit_offset(0x09), DW_AT_bit_size(0x01)
TMS320C2000 Assembler PC v6.1.3 Thu Jan 30 10:32:38 2014

Tools Copyright (c) 1996-2012 Texas Instruments Incorporated
C:\Users\a0272466\AppData\Local\Temp\0901610                         PAGE   21

    1086                      .dwattr $C$DW$139, DW_AT_data_member_location[DW_OP_plus_uconst 0x1]
    1087                      .dwattr $C$DW$139, DW_AT_accessibility(DW_ACCESS_public)
    1088              $C$DW$140       .dwtag  DW_TAG_member
    1089                      .dwattr $C$DW$140, DW_AT_type(*$C$DW$T$19)
    1090                      .dwattr $C$DW$140, DW_AT_name("GPIO55")
    1091                      .dwattr $C$DW$140, DW_AT_TI_symbol_name("_GPIO55")
    1092                      .dwattr $C$DW$140, DW_AT_bit_offset(0x08), DW_AT_bit_size(0x01)
    1093                      .dwattr $C$DW$140, DW_AT_data_member_location[DW_OP_plus_uconst 0x1]
    1094                      .dwattr $C$DW$140, DW_AT_accessibility(DW_ACCESS_public)
    1095              $C$DW$141       .dwtag  DW_TAG_member
    1096                      .dwattr $C$DW$141, DW_AT_type(*$C$DW$T$19)
    1097                      .dwattr $C$DW$141, DW_AT_name("GPIO56")
    1098                      .dwattr $C$DW$141, DW_AT_TI_symbol_name("_GPIO56")
    1099                      .dwattr $C$DW$141, DW_AT_bit_offset(0x07), DW_AT_bit_size(0x01)
    1100                      .dwattr $C$DW$141, DW_AT_data_member_location[DW_OP_plus_uconst 0x1]
    1101                      .dwattr $C$DW$141, DW_AT_accessibility(DW_ACCESS_public)
    1102              $C$DW$142       .dwtag  DW_TAG_member
    1103                      .dwattr $C$DW$142, DW_AT_type(*$C$DW$T$19)
    1104                      .dwattr $C$DW$142, DW_AT_name("GPIO57")
    1105                      .dwattr $C$DW$142, DW_AT_TI_symbol_name("_GPIO57")
    1106                      .dwattr $C$DW$142, DW_AT_bit_offset(0x06), DW_AT_bit_size(0x01)
    1107                      .dwattr $C$DW$142, DW_AT_data_member_location[DW_OP_plus_uconst 0x1]
    1108                      .dwattr $C$DW$142, DW_AT_accessibility(DW_ACCESS_public)
    1109              $C$DW$143       .dwtag  DW_TAG_member
    1110                      .dwattr $C$DW$143, DW_AT_type(*$C$DW$T$19)
    1111                      .dwattr $C$DW$143, DW_AT_name("GPIO58")
    1112                      .dwattr $C$DW$143, DW_AT_TI_symbol_name("_GPIO58")
    1113                      .dwattr $C$DW$143, DW_AT_bit_offset(0x05), DW_AT_bit_size(0x01)
    1114                      .dwattr $C$DW$143, DW_AT_data_member_location[DW_OP_plus_uconst 0x1]
    1115                      .dwattr $C$DW$143, DW_AT_accessibility(DW_ACCESS_public)
    1116              $C$DW$144       .dwtag  DW_TAG_member
    1117                      .dwattr $C$DW$144, DW_AT_type(*$C$DW$T$19)
    1118                      .dwattr $C$DW$144, DW_AT_name("GPIO59")
    1119                      .dwattr $C$DW$144, DW_AT_TI_symbol_name("_GPIO59")
    1120                      .dwattr $C$DW$144, DW_AT_bit_offset(0x04), DW_AT_bit_size(0x01)
    1121                      .dwattr $C$DW$144, DW_AT_data_member_location[DW_OP_plus_uconst 0x1]
    1122                      .dwattr $C$DW$144, DW_AT_accessibility(DW_ACCESS_public)
    1123              $C$DW$145       .dwtag  DW_TAG_member
    1124                      .dwattr $C$DW$145, DW_AT_type(*$C$DW$T$19)
    1125                      .dwattr $C$DW$145, DW_AT_name("GPIO60")
    1126                      .dwattr $C$DW$145, DW_AT_TI_symbol_name("_GPIO60")
    1127                      .dwattr $C$DW$145, DW_AT_bit_offset(0x03), DW_AT_bit_size(0x01)
    1128                      .dwattr $C$DW$145, DW_AT_data_member_location[DW_OP_plus_uconst 0x1]
    1129                      .dwattr $C$DW$145, DW_AT_accessibility(DW_ACCESS_public)
    1130              $C$DW$146       .dwtag  DW_TAG_member
    1131                      .dwattr $C$DW$146, DW_AT_type(*$C$DW$T$19)
    1132                      .dwattr $C$DW$146, DW_AT_name("GPIO61")
    1133                      .dwattr $C$DW$146, DW_AT_TI_symbol_name("_GPIO61")
    1134                      .dwattr $C$DW$146, DW_AT_bit_offset(0x02), DW_AT_bit_size(0x01)
    1135                      .dwattr $C$DW$146, DW_AT_data_member_location[DW_OP_plus_uconst 0x1]
    1136                      .dwattr $C$DW$146, DW_AT_accessibility(DW_ACCESS_public)
    1137              $C$DW$147       .dwtag  DW_TAG_member
    1138                      .dwattr $C$DW$147, DW_AT_type(*$C$DW$T$19)
    1139                      .dwattr $C$DW$147, DW_AT_name("GPIO62")
    1140                      .dwattr $C$DW$147, DW_AT_TI_symbol_name("_GPIO62")
TMS320C2000 Assembler PC v6.1.3 Thu Jan 30 10:32:38 2014

Tools Copyright (c) 1996-2012 Texas Instruments Incorporated
C:\Users\a0272466\AppData\Local\Temp\0901610                         PAGE   22

    1141                      .dwattr $C$DW$147, DW_AT_bit_offset(0x01), DW_AT_bit_size(0x01)
    1142                      .dwattr $C$DW$147, DW_AT_data_member_location[DW_OP_plus_uconst 0x1]
    1143                      .dwattr $C$DW$147, DW_AT_accessibility(DW_ACCESS_public)
    1144              $C$DW$148       .dwtag  DW_TAG_member
    1145                      .dwattr $C$DW$148, DW_AT_type(*$C$DW$T$19)
    1146                      .dwattr $C$DW$148, DW_AT_name("GPIO63")
    1147                      .dwattr $C$DW$148, DW_AT_TI_symbol_name("_GPIO63")
    1148                      .dwattr $C$DW$148, DW_AT_bit_offset(0x00), DW_AT_bit_size(0x01)
    1149                      .dwattr $C$DW$148, DW_AT_data_member_location[DW_OP_plus_uconst 0x1]
    1150                      .dwattr $C$DW$148, DW_AT_accessibility(DW_ACCESS_public)
    1151                      .dwendtag $C$DW$T$32
    1152              
    1153              
    1154              $C$DW$T$33      .dwtag  DW_TAG_union_type
    1155                      .dwattr $C$DW$T$33, DW_AT_name("GPIOLPMSEL1_REG")
    1156                      .dwattr $C$DW$T$33, DW_AT_byte_size(0x02)
    1157              $C$DW$149       .dwtag  DW_TAG_member
    1158                      .dwattr $C$DW$149, DW_AT_type(*$C$DW$T$21)
    1159                      .dwattr $C$DW$149, DW_AT_name("all")
    1160                      .dwattr $C$DW$149, DW_AT_TI_symbol_name("_all")
    1161                      .dwattr $C$DW$149, DW_AT_data_member_location[DW_OP_plus_uconst 0x0]
    1162                      .dwattr $C$DW$149, DW_AT_accessibility(DW_ACCESS_public)
    1163              $C$DW$150       .dwtag  DW_TAG_member
    1164                      .dwattr $C$DW$150, DW_AT_type(*$C$DW$T$32)
    1165                      .dwattr $C$DW$150, DW_AT_name("bit")
    1166                      .dwattr $C$DW$150, DW_AT_TI_symbol_name("_bit")
    1167                      .dwattr $C$DW$150, DW_AT_data_member_location[DW_OP_plus_uconst 0x0]
    1168                      .dwattr $C$DW$150, DW_AT_accessibility(DW_ACCESS_public)
    1169                      .dwendtag $C$DW$T$33
    1170              
    1171              
    1172              $C$DW$T$34      .dwtag  DW_TAG_structure_type
    1173                      .dwattr $C$DW$T$34, DW_AT_name("IORESTOREADDR_BITS")
    1174                      .dwattr $C$DW$T$34, DW_AT_byte_size(0x02)
    1175              $C$DW$151       .dwtag  DW_TAG_member
    1176                      .dwattr $C$DW$151, DW_AT_type(*$C$DW$T$21)
    1177                      .dwattr $C$DW$151, DW_AT_name("ADDR")
    1178                      .dwattr $C$DW$151, DW_AT_TI_symbol_name("_ADDR")
    1179                      .dwattr $C$DW$151, DW_AT_bit_offset(0x0a), DW_AT_bit_size(0x16)
    1180                      .dwattr $C$DW$151, DW_AT_data_member_location[DW_OP_plus_uconst 0x0]
    1181                      .dwattr $C$DW$151, DW_AT_accessibility(DW_ACCESS_public)
    1182              $C$DW$152       .dwtag  DW_TAG_member
    1183                      .dwattr $C$DW$152, DW_AT_type(*$C$DW$T$19)
    1184                      .dwattr $C$DW$152, DW_AT_name("rsvd1")
    1185                      .dwattr $C$DW$152, DW_AT_TI_symbol_name("_rsvd1")
    1186                      .dwattr $C$DW$152, DW_AT_bit_offset(0x00), DW_AT_bit_size(0x0a)
    1187                      .dwattr $C$DW$152, DW_AT_data_member_location[DW_OP_plus_uconst 0x1]
    1188                      .dwattr $C$DW$152, DW_AT_accessibility(DW_ACCESS_public)
    1189                      .dwendtag $C$DW$T$34
    1190              
    1191              
    1192              $C$DW$T$35      .dwtag  DW_TAG_union_type
    1193                      .dwattr $C$DW$T$35, DW_AT_name("IORESTOREADDR_REG")
    1194                      .dwattr $C$DW$T$35, DW_AT_byte_size(0x02)
    1195              $C$DW$153       .dwtag  DW_TAG_member
TMS320C2000 Assembler PC v6.1.3 Thu Jan 30 10:32:38 2014

Tools Copyright (c) 1996-2012 Texas Instruments Incorporated
C:\Users\a0272466\AppData\Local\Temp\0901610                         PAGE   23

    1196                      .dwattr $C$DW$153, DW_AT_type(*$C$DW$T$21)
    1197                      .dwattr $C$DW$153, DW_AT_name("all")
    1198                      .dwattr $C$DW$153, DW_AT_TI_symbol_name("_all")
    1199                      .dwattr $C$DW$153, DW_AT_data_member_location[DW_OP_plus_uconst 0x0]
    1200                      .dwattr $C$DW$153, DW_AT_accessibility(DW_ACCESS_public)
    1201              $C$DW$154       .dwtag  DW_TAG_member
    1202                      .dwattr $C$DW$154, DW_AT_type(*$C$DW$T$34)
    1203                      .dwattr $C$DW$154, DW_AT_name("bit")
    1204                      .dwattr $C$DW$154, DW_AT_TI_symbol_name("_bit")
    1205                      .dwattr $C$DW$154, DW_AT_data_member_location[DW_OP_plus_uconst 0x0]
    1206                      .dwattr $C$DW$154, DW_AT_accessibility(DW_ACCESS_public)
    1207                      .dwendtag $C$DW$T$35
    1208              
    1209              
    1210              $C$DW$T$36      .dwtag  DW_TAG_structure_type
    1211                      .dwattr $C$DW$T$36, DW_AT_name("LPMCR_BITS")
    1212                      .dwattr $C$DW$T$36, DW_AT_byte_size(0x02)
    1213              $C$DW$155       .dwtag  DW_TAG_member
    1214                      .dwattr $C$DW$155, DW_AT_type(*$C$DW$T$19)
    1215                      .dwattr $C$DW$155, DW_AT_name("LPM")
    1216                      .dwattr $C$DW$155, DW_AT_TI_symbol_name("_LPM")
    1217                      .dwattr $C$DW$155, DW_AT_bit_offset(0x0e), DW_AT_bit_size(0x02)
    1218                      .dwattr $C$DW$155, DW_AT_data_member_location[DW_OP_plus_uconst 0x0]
    1219                      .dwattr $C$DW$155, DW_AT_accessibility(DW_ACCESS_public)
    1220              $C$DW$156       .dwtag  DW_TAG_member
    1221                      .dwattr $C$DW$156, DW_AT_type(*$C$DW$T$19)
    1222                      .dwattr $C$DW$156, DW_AT_name("QUALSTDBY")
    1223                      .dwattr $C$DW$156, DW_AT_TI_symbol_name("_QUALSTDBY")
    1224                      .dwattr $C$DW$156, DW_AT_bit_offset(0x08), DW_AT_bit_size(0x06)
    1225                      .dwattr $C$DW$156, DW_AT_data_member_location[DW_OP_plus_uconst 0x0]
    1226                      .dwattr $C$DW$156, DW_AT_accessibility(DW_ACCESS_public)
    1227              $C$DW$157       .dwtag  DW_TAG_member
    1228                      .dwattr $C$DW$157, DW_AT_type(*$C$DW$T$19)
    1229                      .dwattr $C$DW$157, DW_AT_name("rsvd1")
    1230                      .dwattr $C$DW$157, DW_AT_TI_symbol_name("_rsvd1")
    1231                      .dwattr $C$DW$157, DW_AT_bit_offset(0x01), DW_AT_bit_size(0x07)
    1232                      .dwattr $C$DW$157, DW_AT_data_member_location[DW_OP_plus_uconst 0x0]
    1233                      .dwattr $C$DW$157, DW_AT_accessibility(DW_ACCESS_public)
    1234              $C$DW$158       .dwtag  DW_TAG_member
    1235                      .dwattr $C$DW$158, DW_AT_type(*$C$DW$T$19)
    1236                      .dwattr $C$DW$158, DW_AT_name("WDINTE")
    1237                      .dwattr $C$DW$158, DW_AT_TI_symbol_name("_WDINTE")
    1238                      .dwattr $C$DW$158, DW_AT_bit_offset(0x00), DW_AT_bit_size(0x01)
    1239                      .dwattr $C$DW$158, DW_AT_data_member_location[DW_OP_plus_uconst 0x0]
    1240                      .dwattr $C$DW$158, DW_AT_accessibility(DW_ACCESS_public)
    1241              $C$DW$159       .dwtag  DW_TAG_member
    1242                      .dwattr $C$DW$159, DW_AT_type(*$C$DW$T$19)
    1243                      .dwattr $C$DW$159, DW_AT_name("M0M1MODE")
    1244                      .dwattr $C$DW$159, DW_AT_TI_symbol_name("_M0M1MODE")
    1245                      .dwattr $C$DW$159, DW_AT_bit_offset(0x0e), DW_AT_bit_size(0x02)
    1246                      .dwattr $C$DW$159, DW_AT_data_member_location[DW_OP_plus_uconst 0x1]
    1247                      .dwattr $C$DW$159, DW_AT_accessibility(DW_ACCESS_public)
    1248              $C$DW$160       .dwtag  DW_TAG_member
    1249                      .dwattr $C$DW$160, DW_AT_type(*$C$DW$T$19)
    1250                      .dwattr $C$DW$160, DW_AT_name("rsvd2")
TMS320C2000 Assembler PC v6.1.3 Thu Jan 30 10:32:38 2014

Tools Copyright (c) 1996-2012 Texas Instruments Incorporated
C:\Users\a0272466\AppData\Local\Temp\0901610                         PAGE   24

    1251                      .dwattr $C$DW$160, DW_AT_TI_symbol_name("_rsvd2")
    1252                      .dwattr $C$DW$160, DW_AT_bit_offset(0x01), DW_AT_bit_size(0x0d)
    1253                      .dwattr $C$DW$160, DW_AT_data_member_location[DW_OP_plus_uconst 0x1]
    1254                      .dwattr $C$DW$160, DW_AT_accessibility(DW_ACCESS_public)
    1255              $C$DW$161       .dwtag  DW_TAG_member
    1256                      .dwattr $C$DW$161, DW_AT_type(*$C$DW$T$19)
    1257                      .dwattr $C$DW$161, DW_AT_name("IOISODIS")
    1258                      .dwattr $C$DW$161, DW_AT_TI_symbol_name("_IOISODIS")
    1259                      .dwattr $C$DW$161, DW_AT_bit_offset(0x00), DW_AT_bit_size(0x01)
    1260                      .dwattr $C$DW$161, DW_AT_data_member_location[DW_OP_plus_uconst 0x1]
    1261                      .dwattr $C$DW$161, DW_AT_accessibility(DW_ACCESS_public)
    1262                      .dwendtag $C$DW$T$36
    1263              
    1264              
    1265              $C$DW$T$37      .dwtag  DW_TAG_union_type
    1266                      .dwattr $C$DW$T$37, DW_AT_name("LPMCR_REG")
    1267                      .dwattr $C$DW$T$37, DW_AT_byte_size(0x02)
    1268              $C$DW$162       .dwtag  DW_TAG_member
    1269                      .dwattr $C$DW$162, DW_AT_type(*$C$DW$T$21)
    1270                      .dwattr $C$DW$162, DW_AT_name("all")
    1271                      .dwattr $C$DW$162, DW_AT_TI_symbol_name("_all")
    1272                      .dwattr $C$DW$162, DW_AT_data_member_location[DW_OP_plus_uconst 0x0]
    1273                      .dwattr $C$DW$162, DW_AT_accessibility(DW_ACCESS_public)
    1274              $C$DW$163       .dwtag  DW_TAG_member
    1275                      .dwattr $C$DW$163, DW_AT_type(*$C$DW$T$36)
    1276                      .dwattr $C$DW$163, DW_AT_name("bit")
    1277                      .dwattr $C$DW$163, DW_AT_TI_symbol_name("_bit")
    1278                      .dwattr $C$DW$163, DW_AT_data_member_location[DW_OP_plus_uconst 0x0]
    1279                      .dwattr $C$DW$163, DW_AT_accessibility(DW_ACCESS_public)
    1280                      .dwendtag $C$DW$T$37
    1281              
    1282              
    1283              $C$DW$T$38      .dwtag  DW_TAG_structure_type
    1284                      .dwattr $C$DW$T$38, DW_AT_name("PCLKCR0_BITS")
    1285                      .dwattr $C$DW$T$38, DW_AT_byte_size(0x02)
    1286              $C$DW$164       .dwtag  DW_TAG_member
    1287                      .dwattr $C$DW$164, DW_AT_type(*$C$DW$T$19)
    1288                      .dwattr $C$DW$164, DW_AT_name("CLA1")
    1289                      .dwattr $C$DW$164, DW_AT_TI_symbol_name("_CLA1")
    1290                      .dwattr $C$DW$164, DW_AT_bit_offset(0x0f), DW_AT_bit_size(0x01)
    1291                      .dwattr $C$DW$164, DW_AT_data_member_location[DW_OP_plus_uconst 0x0]
    1292                      .dwattr $C$DW$164, DW_AT_accessibility(DW_ACCESS_public)
    1293              $C$DW$165       .dwtag  DW_TAG_member
    1294                      .dwattr $C$DW$165, DW_AT_type(*$C$DW$T$19)
    1295                      .dwattr $C$DW$165, DW_AT_name("rsvd1")
    1296                      .dwattr $C$DW$165, DW_AT_TI_symbol_name("_rsvd1")
    1297                      .dwattr $C$DW$165, DW_AT_bit_offset(0x0e), DW_AT_bit_size(0x01)
    1298                      .dwattr $C$DW$165, DW_AT_data_member_location[DW_OP_plus_uconst 0x0]
    1299                      .dwattr $C$DW$165, DW_AT_accessibility(DW_ACCESS_public)
    1300              $C$DW$166       .dwtag  DW_TAG_member
    1301                      .dwattr $C$DW$166, DW_AT_type(*$C$DW$T$19)
    1302                      .dwattr $C$DW$166, DW_AT_name("DMA")
    1303                      .dwattr $C$DW$166, DW_AT_TI_symbol_name("_DMA")
    1304                      .dwattr $C$DW$166, DW_AT_bit_offset(0x0d), DW_AT_bit_size(0x01)
    1305                      .dwattr $C$DW$166, DW_AT_data_member_location[DW_OP_plus_uconst 0x0]
TMS320C2000 Assembler PC v6.1.3 Thu Jan 30 10:32:38 2014

Tools Copyright (c) 1996-2012 Texas Instruments Incorporated
C:\Users\a0272466\AppData\Local\Temp\0901610                         PAGE   25

    1306                      .dwattr $C$DW$166, DW_AT_accessibility(DW_ACCESS_public)
    1307              $C$DW$167       .dwtag  DW_TAG_member
    1308                      .dwattr $C$DW$167, DW_AT_type(*$C$DW$T$19)
    1309                      .dwattr $C$DW$167, DW_AT_name("CPUTIMER0")
    1310                      .dwattr $C$DW$167, DW_AT_TI_symbol_name("_CPUTIMER0")
    1311                      .dwattr $C$DW$167, DW_AT_bit_offset(0x0c), DW_AT_bit_size(0x01)
    1312                      .dwattr $C$DW$167, DW_AT_data_member_location[DW_OP_plus_uconst 0x0]
    1313                      .dwattr $C$DW$167, DW_AT_accessibility(DW_ACCESS_public)
    1314              $C$DW$168       .dwtag  DW_TAG_member
    1315                      .dwattr $C$DW$168, DW_AT_type(*$C$DW$T$19)
    1316                      .dwattr $C$DW$168, DW_AT_name("CPUTIMER1")
    1317                      .dwattr $C$DW$168, DW_AT_TI_symbol_name("_CPUTIMER1")
    1318                      .dwattr $C$DW$168, DW_AT_bit_offset(0x0b), DW_AT_bit_size(0x01)
    1319                      .dwattr $C$DW$168, DW_AT_data_member_location[DW_OP_plus_uconst 0x0]
    1320                      .dwattr $C$DW$168, DW_AT_accessibility(DW_ACCESS_public)
    1321              $C$DW$169       .dwtag  DW_TAG_member
    1322                      .dwattr $C$DW$169, DW_AT_type(*$C$DW$T$19)
    1323                      .dwattr $C$DW$169, DW_AT_name("CPUTIMER2")
    1324                      .dwattr $C$DW$169, DW_AT_TI_symbol_name("_CPUTIMER2")
    1325                      .dwattr $C$DW$169, DW_AT_bit_offset(0x0a), DW_AT_bit_size(0x01)
    1326                      .dwattr $C$DW$169, DW_AT_data_member_location[DW_OP_plus_uconst 0x0]
    1327                      .dwattr $C$DW$169, DW_AT_accessibility(DW_ACCESS_public)
    1328              $C$DW$170       .dwtag  DW_TAG_member
    1329                      .dwattr $C$DW$170, DW_AT_type(*$C$DW$T$19)
    1330                      .dwattr $C$DW$170, DW_AT_name("rsvd2")
    1331                      .dwattr $C$DW$170, DW_AT_TI_symbol_name("_rsvd2")
    1332                      .dwattr $C$DW$170, DW_AT_bit_offset(0x00), DW_AT_bit_size(0x0a)
    1333                      .dwattr $C$DW$170, DW_AT_data_member_location[DW_OP_plus_uconst 0x0]
    1334                      .dwattr $C$DW$170, DW_AT_accessibility(DW_ACCESS_public)
    1335              $C$DW$171       .dwtag  DW_TAG_member
    1336                      .dwattr $C$DW$171, DW_AT_type(*$C$DW$T$19)
    1337                      .dwattr $C$DW$171, DW_AT_name("HRPWM")
    1338                      .dwattr $C$DW$171, DW_AT_TI_symbol_name("_HRPWM")
    1339                      .dwattr $C$DW$171, DW_AT_bit_offset(0x0f), DW_AT_bit_size(0x01)
    1340                      .dwattr $C$DW$171, DW_AT_data_member_location[DW_OP_plus_uconst 0x1]
    1341                      .dwattr $C$DW$171, DW_AT_accessibility(DW_ACCESS_public)
    1342              $C$DW$172       .dwtag  DW_TAG_member
    1343                      .dwattr $C$DW$172, DW_AT_type(*$C$DW$T$19)
    1344                      .dwattr $C$DW$172, DW_AT_name("rsvd3")
    1345                      .dwattr $C$DW$172, DW_AT_TI_symbol_name("_rsvd3")
    1346                      .dwattr $C$DW$172, DW_AT_bit_offset(0x0e), DW_AT_bit_size(0x01)
    1347                      .dwattr $C$DW$172, DW_AT_data_member_location[DW_OP_plus_uconst 0x1]
    1348                      .dwattr $C$DW$172, DW_AT_accessibility(DW_ACCESS_public)
    1349              $C$DW$173       .dwtag  DW_TAG_member
    1350                      .dwattr $C$DW$173, DW_AT_type(*$C$DW$T$19)
    1351                      .dwattr $C$DW$173, DW_AT_name("TBCLKSYNC")
    1352                      .dwattr $C$DW$173, DW_AT_TI_symbol_name("_TBCLKSYNC")
    1353                      .dwattr $C$DW$173, DW_AT_bit_offset(0x0d), DW_AT_bit_size(0x01)
    1354                      .dwattr $C$DW$173, DW_AT_data_member_location[DW_OP_plus_uconst 0x1]
    1355                      .dwattr $C$DW$173, DW_AT_accessibility(DW_ACCESS_public)
    1356              $C$DW$174       .dwtag  DW_TAG_member
    1357                      .dwattr $C$DW$174, DW_AT_type(*$C$DW$T$19)
    1358                      .dwattr $C$DW$174, DW_AT_name("GTBCLKSYNC")
    1359                      .dwattr $C$DW$174, DW_AT_TI_symbol_name("_GTBCLKSYNC")
    1360                      .dwattr $C$DW$174, DW_AT_bit_offset(0x0c), DW_AT_bit_size(0x01)
TMS320C2000 Assembler PC v6.1.3 Thu Jan 30 10:32:38 2014

Tools Copyright (c) 1996-2012 Texas Instruments Incorporated
C:\Users\a0272466\AppData\Local\Temp\0901610                         PAGE   26

    1361                      .dwattr $C$DW$174, DW_AT_data_member_location[DW_OP_plus_uconst 0x1]
    1362                      .dwattr $C$DW$174, DW_AT_accessibility(DW_ACCESS_public)
    1363              $C$DW$175       .dwtag  DW_TAG_member
    1364                      .dwattr $C$DW$175, DW_AT_type(*$C$DW$T$19)
    1365                      .dwattr $C$DW$175, DW_AT_name("rsvd4")
    1366                      .dwattr $C$DW$175, DW_AT_TI_symbol_name("_rsvd4")
    1367                      .dwattr $C$DW$175, DW_AT_bit_offset(0x00), DW_AT_bit_size(0x0c)
    1368                      .dwattr $C$DW$175, DW_AT_data_member_location[DW_OP_plus_uconst 0x1]
    1369                      .dwattr $C$DW$175, DW_AT_accessibility(DW_ACCESS_public)
    1370                      .dwendtag $C$DW$T$38
    1371              
    1372              
    1373              $C$DW$T$39      .dwtag  DW_TAG_union_type
    1374                      .dwattr $C$DW$T$39, DW_AT_name("PCLKCR0_REG")
    1375                      .dwattr $C$DW$T$39, DW_AT_byte_size(0x02)
    1376              $C$DW$176       .dwtag  DW_TAG_member
    1377                      .dwattr $C$DW$176, DW_AT_type(*$C$DW$T$21)
    1378                      .dwattr $C$DW$176, DW_AT_name("all")
    1379                      .dwattr $C$DW$176, DW_AT_TI_symbol_name("_all")
    1380                      .dwattr $C$DW$176, DW_AT_data_member_location[DW_OP_plus_uconst 0x0]
    1381                      .dwattr $C$DW$176, DW_AT_accessibility(DW_ACCESS_public)
    1382              $C$DW$177       .dwtag  DW_TAG_member
    1383                      .dwattr $C$DW$177, DW_AT_type(*$C$DW$T$38)
    1384                      .dwattr $C$DW$177, DW_AT_name("bit")
    1385                      .dwattr $C$DW$177, DW_AT_TI_symbol_name("_bit")
    1386                      .dwattr $C$DW$177, DW_AT_data_member_location[DW_OP_plus_uconst 0x0]
    1387                      .dwattr $C$DW$177, DW_AT_accessibility(DW_ACCESS_public)
    1388                      .dwendtag $C$DW$T$39
    1389              
    1390              
    1391              $C$DW$T$40      .dwtag  DW_TAG_structure_type
    1392                      .dwattr $C$DW$T$40, DW_AT_name("PCLKCR10_BITS")
    1393                      .dwattr $C$DW$T$40, DW_AT_byte_size(0x02)
    1394              $C$DW$178       .dwtag  DW_TAG_member
    1395                      .dwattr $C$DW$178, DW_AT_type(*$C$DW$T$19)
    1396                      .dwattr $C$DW$178, DW_AT_name("CAN_A")
    1397                      .dwattr $C$DW$178, DW_AT_TI_symbol_name("_CAN_A")
    1398                      .dwattr $C$DW$178, DW_AT_bit_offset(0x0f), DW_AT_bit_size(0x01)
    1399                      .dwattr $C$DW$178, DW_AT_data_member_location[DW_OP_plus_uconst 0x0]
    1400                      .dwattr $C$DW$178, DW_AT_accessibility(DW_ACCESS_public)
    1401              $C$DW$179       .dwtag  DW_TAG_member
    1402                      .dwattr $C$DW$179, DW_AT_type(*$C$DW$T$19)
    1403                      .dwattr $C$DW$179, DW_AT_name("CAN_B")
    1404                      .dwattr $C$DW$179, DW_AT_TI_symbol_name("_CAN_B")
    1405                      .dwattr $C$DW$179, DW_AT_bit_offset(0x0e), DW_AT_bit_size(0x01)
    1406                      .dwattr $C$DW$179, DW_AT_data_member_location[DW_OP_plus_uconst 0x0]
    1407                      .dwattr $C$DW$179, DW_AT_accessibility(DW_ACCESS_public)
    1408              $C$DW$180       .dwtag  DW_TAG_member
    1409                      .dwattr $C$DW$180, DW_AT_type(*$C$DW$T$19)
    1410                      .dwattr $C$DW$180, DW_AT_name("rsvd1")
    1411                      .dwattr $C$DW$180, DW_AT_TI_symbol_name("_rsvd1")
    1412                      .dwattr $C$DW$180, DW_AT_bit_offset(0x00), DW_AT_bit_size(0x0e)
    1413                      .dwattr $C$DW$180, DW_AT_data_member_location[DW_OP_plus_uconst 0x0]
    1414                      .dwattr $C$DW$180, DW_AT_accessibility(DW_ACCESS_public)
    1415              $C$DW$181       .dwtag  DW_TAG_member
TMS320C2000 Assembler PC v6.1.3 Thu Jan 30 10:32:38 2014

Tools Copyright (c) 1996-2012 Texas Instruments Incorporated
C:\Users\a0272466\AppData\Local\Temp\0901610                         PAGE   27

    1416                      .dwattr $C$DW$181, DW_AT_type(*$C$DW$T$19)
    1417                      .dwattr $C$DW$181, DW_AT_name("rsvd2")
    1418                      .dwattr $C$DW$181, DW_AT_TI_symbol_name("_rsvd2")
    1419                      .dwattr $C$DW$181, DW_AT_bit_offset(0x00), DW_AT_bit_size(0x10)
    1420                      .dwattr $C$DW$181, DW_AT_data_member_location[DW_OP_plus_uconst 0x1]
    1421                      .dwattr $C$DW$181, DW_AT_accessibility(DW_ACCESS_public)
    1422                      .dwendtag $C$DW$T$40
    1423              
    1424              
    1425              $C$DW$T$41      .dwtag  DW_TAG_union_type
    1426                      .dwattr $C$DW$T$41, DW_AT_name("PCLKCR10_REG")
    1427                      .dwattr $C$DW$T$41, DW_AT_byte_size(0x02)
    1428              $C$DW$182       .dwtag  DW_TAG_member
    1429                      .dwattr $C$DW$182, DW_AT_type(*$C$DW$T$21)
    1430                      .dwattr $C$DW$182, DW_AT_name("all")
    1431                      .dwattr $C$DW$182, DW_AT_TI_symbol_name("_all")
    1432                      .dwattr $C$DW$182, DW_AT_data_member_location[DW_OP_plus_uconst 0x0]
    1433                      .dwattr $C$DW$182, DW_AT_accessibility(DW_ACCESS_public)
    1434              $C$DW$183       .dwtag  DW_TAG_member
    1435                      .dwattr $C$DW$183, DW_AT_type(*$C$DW$T$40)
    1436                      .dwattr $C$DW$183, DW_AT_name("bit")
    1437                      .dwattr $C$DW$183, DW_AT_TI_symbol_name("_bit")
    1438                      .dwattr $C$DW$183, DW_AT_data_member_location[DW_OP_plus_uconst 0x0]
    1439                      .dwattr $C$DW$183, DW_AT_accessibility(DW_ACCESS_public)
    1440                      .dwendtag $C$DW$T$41
    1441              
    1442              
    1443              $C$DW$T$42      .dwtag  DW_TAG_structure_type
    1444                      .dwattr $C$DW$T$42, DW_AT_name("PCLKCR11_BITS")
    1445                      .dwattr $C$DW$T$42, DW_AT_byte_size(0x02)
    1446              $C$DW$184       .dwtag  DW_TAG_member
    1447                      .dwattr $C$DW$184, DW_AT_type(*$C$DW$T$19)
    1448                      .dwattr $C$DW$184, DW_AT_name("McBSP_A")
    1449                      .dwattr $C$DW$184, DW_AT_TI_symbol_name("_McBSP_A")
    1450                      .dwattr $C$DW$184, DW_AT_bit_offset(0x0f), DW_AT_bit_size(0x01)
    1451                      .dwattr $C$DW$184, DW_AT_data_member_location[DW_OP_plus_uconst 0x0]
    1452                      .dwattr $C$DW$184, DW_AT_accessibility(DW_ACCESS_public)
    1453              $C$DW$185       .dwtag  DW_TAG_member
    1454                      .dwattr $C$DW$185, DW_AT_type(*$C$DW$T$19)
    1455                      .dwattr $C$DW$185, DW_AT_name("McBSP_B")
    1456                      .dwattr $C$DW$185, DW_AT_TI_symbol_name("_McBSP_B")
    1457                      .dwattr $C$DW$185, DW_AT_bit_offset(0x0e), DW_AT_bit_size(0x01)
    1458                      .dwattr $C$DW$185, DW_AT_data_member_location[DW_OP_plus_uconst 0x0]
    1459                      .dwattr $C$DW$185, DW_AT_accessibility(DW_ACCESS_public)
    1460              $C$DW$186       .dwtag  DW_TAG_member
    1461                      .dwattr $C$DW$186, DW_AT_type(*$C$DW$T$19)
    1462                      .dwattr $C$DW$186, DW_AT_name("rsvd1")
    1463                      .dwattr $C$DW$186, DW_AT_TI_symbol_name("_rsvd1")
    1464                      .dwattr $C$DW$186, DW_AT_bit_offset(0x00), DW_AT_bit_size(0x0e)
    1465                      .dwattr $C$DW$186, DW_AT_data_member_location[DW_OP_plus_uconst 0x0]
    1466                      .dwattr $C$DW$186, DW_AT_accessibility(DW_ACCESS_public)
    1467              $C$DW$187       .dwtag  DW_TAG_member
    1468                      .dwattr $C$DW$187, DW_AT_type(*$C$DW$T$19)
    1469                      .dwattr $C$DW$187, DW_AT_name("USB_A")
    1470                      .dwattr $C$DW$187, DW_AT_TI_symbol_name("_USB_A")
TMS320C2000 Assembler PC v6.1.3 Thu Jan 30 10:32:38 2014

Tools Copyright (c) 1996-2012 Texas Instruments Incorporated
C:\Users\a0272466\AppData\Local\Temp\0901610                         PAGE   28

    1471                      .dwattr $C$DW$187, DW_AT_bit_offset(0x0f), DW_AT_bit_size(0x01)
    1472                      .dwattr $C$DW$187, DW_AT_data_member_location[DW_OP_plus_uconst 0x1]
    1473                      .dwattr $C$DW$187, DW_AT_accessibility(DW_ACCESS_public)
    1474              $C$DW$188       .dwtag  DW_TAG_member
    1475                      .dwattr $C$DW$188, DW_AT_type(*$C$DW$T$19)
    1476                      .dwattr $C$DW$188, DW_AT_name("rsvd2")
    1477                      .dwattr $C$DW$188, DW_AT_TI_symbol_name("_rsvd2")
    1478                      .dwattr $C$DW$188, DW_AT_bit_offset(0x00), DW_AT_bit_size(0x0f)
    1479                      .dwattr $C$DW$188, DW_AT_data_member_location[DW_OP_plus_uconst 0x1]
    1480                      .dwattr $C$DW$188, DW_AT_accessibility(DW_ACCESS_public)
    1481                      .dwendtag $C$DW$T$42
    1482              
    1483              
    1484              $C$DW$T$43      .dwtag  DW_TAG_union_type
    1485                      .dwattr $C$DW$T$43, DW_AT_name("PCLKCR11_REG")
    1486                      .dwattr $C$DW$T$43, DW_AT_byte_size(0x02)
    1487              $C$DW$189       .dwtag  DW_TAG_member
    1488                      .dwattr $C$DW$189, DW_AT_type(*$C$DW$T$21)
    1489                      .dwattr $C$DW$189, DW_AT_name("all")
    1490                      .dwattr $C$DW$189, DW_AT_TI_symbol_name("_all")
    1491                      .dwattr $C$DW$189, DW_AT_data_member_location[DW_OP_plus_uconst 0x0]
    1492                      .dwattr $C$DW$189, DW_AT_accessibility(DW_ACCESS_public)
    1493              $C$DW$190       .dwtag  DW_TAG_member
    1494                      .dwattr $C$DW$190, DW_AT_type(*$C$DW$T$42)
    1495                      .dwattr $C$DW$190, DW_AT_name("bit")
    1496                      .dwattr $C$DW$190, DW_AT_TI_symbol_name("_bit")
    1497                      .dwattr $C$DW$190, DW_AT_data_member_location[DW_OP_plus_uconst 0x0]
    1498                      .dwattr $C$DW$190, DW_AT_accessibility(DW_ACCESS_public)
    1499                      .dwendtag $C$DW$T$43
    1500              
    1501              
    1502              $C$DW$T$44      .dwtag  DW_TAG_structure_type
    1503                      .dwattr $C$DW$T$44, DW_AT_name("PCLKCR12_BITS")
    1504                      .dwattr $C$DW$T$44, DW_AT_byte_size(0x02)
    1505              $C$DW$191       .dwtag  DW_TAG_member
    1506                      .dwattr $C$DW$191, DW_AT_type(*$C$DW$T$19)
    1507                      .dwattr $C$DW$191, DW_AT_name("uPP_A")
    1508                      .dwattr $C$DW$191, DW_AT_TI_symbol_name("_uPP_A")
    1509                      .dwattr $C$DW$191, DW_AT_bit_offset(0x0f), DW_AT_bit_size(0x01)
    1510                      .dwattr $C$DW$191, DW_AT_data_member_location[DW_OP_plus_uconst 0x0]
    1511                      .dwattr $C$DW$191, DW_AT_accessibility(DW_ACCESS_public)
    1512              $C$DW$192       .dwtag  DW_TAG_member
    1513                      .dwattr $C$DW$192, DW_AT_type(*$C$DW$T$19)
    1514                      .dwattr $C$DW$192, DW_AT_name("rsvd1")
    1515                      .dwattr $C$DW$192, DW_AT_TI_symbol_name("_rsvd1")
    1516                      .dwattr $C$DW$192, DW_AT_bit_offset(0x00), DW_AT_bit_size(0x0f)
    1517                      .dwattr $C$DW$192, DW_AT_data_member_location[DW_OP_plus_uconst 0x0]
    1518                      .dwattr $C$DW$192, DW_AT_accessibility(DW_ACCESS_public)
    1519              $C$DW$193       .dwtag  DW_TAG_member
    1520                      .dwattr $C$DW$193, DW_AT_type(*$C$DW$T$19)
    1521                      .dwattr $C$DW$193, DW_AT_name("rsvd2")
    1522                      .dwattr $C$DW$193, DW_AT_TI_symbol_name("_rsvd2")
    1523                      .dwattr $C$DW$193, DW_AT_bit_offset(0x00), DW_AT_bit_size(0x10)
    1524                      .dwattr $C$DW$193, DW_AT_data_member_location[DW_OP_plus_uconst 0x1]
    1525                      .dwattr $C$DW$193, DW_AT_accessibility(DW_ACCESS_public)
TMS320C2000 Assembler PC v6.1.3 Thu Jan 30 10:32:38 2014

Tools Copyright (c) 1996-2012 Texas Instruments Incorporated
C:\Users\a0272466\AppData\Local\Temp\0901610                         PAGE   29

    1526                      .dwendtag $C$DW$T$44
    1527              
    1528              
    1529              $C$DW$T$45      .dwtag  DW_TAG_union_type
    1530                      .dwattr $C$DW$T$45, DW_AT_name("PCLKCR12_REG")
    1531                      .dwattr $C$DW$T$45, DW_AT_byte_size(0x02)
    1532              $C$DW$194       .dwtag  DW_TAG_member
    1533                      .dwattr $C$DW$194, DW_AT_type(*$C$DW$T$21)
    1534                      .dwattr $C$DW$194, DW_AT_name("all")
    1535                      .dwattr $C$DW$194, DW_AT_TI_symbol_name("_all")
    1536                      .dwattr $C$DW$194, DW_AT_data_member_location[DW_OP_plus_uconst 0x0]
    1537                      .dwattr $C$DW$194, DW_AT_accessibility(DW_ACCESS_public)
    1538              $C$DW$195       .dwtag  DW_TAG_member
    1539                      .dwattr $C$DW$195, DW_AT_type(*$C$DW$T$44)
    1540                      .dwattr $C$DW$195, DW_AT_name("bit")
    1541                      .dwattr $C$DW$195, DW_AT_TI_symbol_name("_bit")
    1542                      .dwattr $C$DW$195, DW_AT_data_member_location[DW_OP_plus_uconst 0x0]
    1543                      .dwattr $C$DW$195, DW_AT_accessibility(DW_ACCESS_public)
    1544                      .dwendtag $C$DW$T$45
    1545              
    1546              
    1547              $C$DW$T$46      .dwtag  DW_TAG_structure_type
    1548                      .dwattr $C$DW$T$46, DW_AT_name("PCLKCR13_BITS")
    1549                      .dwattr $C$DW$T$46, DW_AT_byte_size(0x02)
    1550              $C$DW$196       .dwtag  DW_TAG_member
    1551                      .dwattr $C$DW$196, DW_AT_type(*$C$DW$T$19)
    1552                      .dwattr $C$DW$196, DW_AT_name("ADC1")
    1553                      .dwattr $C$DW$196, DW_AT_TI_symbol_name("_ADC1")
    1554                      .dwattr $C$DW$196, DW_AT_bit_offset(0x0f), DW_AT_bit_size(0x01)
    1555                      .dwattr $C$DW$196, DW_AT_data_member_location[DW_OP_plus_uconst 0x0]
    1556                      .dwattr $C$DW$196, DW_AT_accessibility(DW_ACCESS_public)
    1557              $C$DW$197       .dwtag  DW_TAG_member
    1558                      .dwattr $C$DW$197, DW_AT_type(*$C$DW$T$19)
    1559                      .dwattr $C$DW$197, DW_AT_name("ADC2")
    1560                      .dwattr $C$DW$197, DW_AT_TI_symbol_name("_ADC2")
    1561                      .dwattr $C$DW$197, DW_AT_bit_offset(0x0e), DW_AT_bit_size(0x01)
    1562                      .dwattr $C$DW$197, DW_AT_data_member_location[DW_OP_plus_uconst 0x0]
    1563                      .dwattr $C$DW$197, DW_AT_accessibility(DW_ACCESS_public)
    1564              $C$DW$198       .dwtag  DW_TAG_member
    1565                      .dwattr $C$DW$198, DW_AT_type(*$C$DW$T$19)
    1566                      .dwattr $C$DW$198, DW_AT_name("ADC3")
    1567                      .dwattr $C$DW$198, DW_AT_TI_symbol_name("_ADC3")
    1568                      .dwattr $C$DW$198, DW_AT_bit_offset(0x0d), DW_AT_bit_size(0x01)
    1569                      .dwattr $C$DW$198, DW_AT_data_member_location[DW_OP_plus_uconst 0x0]
    1570                      .dwattr $C$DW$198, DW_AT_accessibility(DW_ACCESS_public)
    1571              $C$DW$199       .dwtag  DW_TAG_member
    1572                      .dwattr $C$DW$199, DW_AT_type(*$C$DW$T$19)
    1573                      .dwattr $C$DW$199, DW_AT_name("ADC4")
    1574                      .dwattr $C$DW$199, DW_AT_TI_symbol_name("_ADC4")
    1575                      .dwattr $C$DW$199, DW_AT_bit_offset(0x0c), DW_AT_bit_size(0x01)
    1576                      .dwattr $C$DW$199, DW_AT_data_member_location[DW_OP_plus_uconst 0x0]
    1577                      .dwattr $C$DW$199, DW_AT_accessibility(DW_ACCESS_public)
    1578              $C$DW$200       .dwtag  DW_TAG_member
    1579                      .dwattr $C$DW$200, DW_AT_type(*$C$DW$T$19)
    1580                      .dwattr $C$DW$200, DW_AT_name("rsvd1")
TMS320C2000 Assembler PC v6.1.3 Thu Jan 30 10:32:38 2014

Tools Copyright (c) 1996-2012 Texas Instruments Incorporated
C:\Users\a0272466\AppData\Local\Temp\0901610                         PAGE   30

    1581                      .dwattr $C$DW$200, DW_AT_TI_symbol_name("_rsvd1")
    1582                      .dwattr $C$DW$200, DW_AT_bit_offset(0x00), DW_AT_bit_size(0x0c)
    1583                      .dwattr $C$DW$200, DW_AT_data_member_location[DW_OP_plus_uconst 0x0]
    1584                      .dwattr $C$DW$200, DW_AT_accessibility(DW_ACCESS_public)
    1585              $C$DW$201       .dwtag  DW_TAG_member
    1586                      .dwattr $C$DW$201, DW_AT_type(*$C$DW$T$19)
    1587                      .dwattr $C$DW$201, DW_AT_name("rsvd2")
    1588                      .dwattr $C$DW$201, DW_AT_TI_symbol_name("_rsvd2")
    1589                      .dwattr $C$DW$201, DW_AT_bit_offset(0x00), DW_AT_bit_size(0x10)
    1590                      .dwattr $C$DW$201, DW_AT_data_member_location[DW_OP_plus_uconst 0x1]
    1591                      .dwattr $C$DW$201, DW_AT_accessibility(DW_ACCESS_public)
    1592                      .dwendtag $C$DW$T$46
    1593              
    1594              
    1595              $C$DW$T$47      .dwtag  DW_TAG_union_type
    1596                      .dwattr $C$DW$T$47, DW_AT_name("PCLKCR13_REG")
    1597                      .dwattr $C$DW$T$47, DW_AT_byte_size(0x02)
    1598              $C$DW$202       .dwtag  DW_TAG_member
    1599                      .dwattr $C$DW$202, DW_AT_type(*$C$DW$T$21)
    1600                      .dwattr $C$DW$202, DW_AT_name("all")
    1601                      .dwattr $C$DW$202, DW_AT_TI_symbol_name("_all")
    1602                      .dwattr $C$DW$202, DW_AT_data_member_location[DW_OP_plus_uconst 0x0]
    1603                      .dwattr $C$DW$202, DW_AT_accessibility(DW_ACCESS_public)
    1604              $C$DW$203       .dwtag  DW_TAG_member
    1605                      .dwattr $C$DW$203, DW_AT_type(*$C$DW$T$46)
    1606                      .dwattr $C$DW$203, DW_AT_name("bit")
    1607                      .dwattr $C$DW$203, DW_AT_TI_symbol_name("_bit")
    1608                      .dwattr $C$DW$203, DW_AT_data_member_location[DW_OP_plus_uconst 0x0]
    1609                      .dwattr $C$DW$203, DW_AT_accessibility(DW_ACCESS_public)
    1610                      .dwendtag $C$DW$T$47
    1611              
    1612              
    1613              $C$DW$T$48      .dwtag  DW_TAG_structure_type
    1614                      .dwattr $C$DW$T$48, DW_AT_name("PCLKCR14_BITS")
    1615                      .dwattr $C$DW$T$48, DW_AT_byte_size(0x02)
    1616              $C$DW$204       .dwtag  DW_TAG_member
    1617                      .dwattr $C$DW$204, DW_AT_type(*$C$DW$T$19)
    1618                      .dwattr $C$DW$204, DW_AT_name("CMPSS1")
    1619                      .dwattr $C$DW$204, DW_AT_TI_symbol_name("_CMPSS1")
    1620                      .dwattr $C$DW$204, DW_AT_bit_offset(0x0f), DW_AT_bit_size(0x01)
    1621                      .dwattr $C$DW$204, DW_AT_data_member_location[DW_OP_plus_uconst 0x0]
    1622                      .dwattr $C$DW$204, DW_AT_accessibility(DW_ACCESS_public)
    1623              $C$DW$205       .dwtag  DW_TAG_member
    1624                      .dwattr $C$DW$205, DW_AT_type(*$C$DW$T$19)
    1625                      .dwattr $C$DW$205, DW_AT_name("CMPSS2")
    1626                      .dwattr $C$DW$205, DW_AT_TI_symbol_name("_CMPSS2")
    1627                      .dwattr $C$DW$205, DW_AT_bit_offset(0x0e), DW_AT_bit_size(0x01)
    1628                      .dwattr $C$DW$205, DW_AT_data_member_location[DW_OP_plus_uconst 0x0]
    1629                      .dwattr $C$DW$205, DW_AT_accessibility(DW_ACCESS_public)
    1630              $C$DW$206       .dwtag  DW_TAG_member
    1631                      .dwattr $C$DW$206, DW_AT_type(*$C$DW$T$19)
    1632                      .dwattr $C$DW$206, DW_AT_name("CMPSS3")
    1633                      .dwattr $C$DW$206, DW_AT_TI_symbol_name("_CMPSS3")
    1634                      .dwattr $C$DW$206, DW_AT_bit_offset(0x0d), DW_AT_bit_size(0x01)
    1635                      .dwattr $C$DW$206, DW_AT_data_member_location[DW_OP_plus_uconst 0x0]
TMS320C2000 Assembler PC v6.1.3 Thu Jan 30 10:32:38 2014

Tools Copyright (c) 1996-2012 Texas Instruments Incorporated
C:\Users\a0272466\AppData\Local\Temp\0901610                         PAGE   31

    1636                      .dwattr $C$DW$206, DW_AT_accessibility(DW_ACCESS_public)
    1637              $C$DW$207       .dwtag  DW_TAG_member
    1638                      .dwattr $C$DW$207, DW_AT_type(*$C$DW$T$19)
    1639                      .dwattr $C$DW$207, DW_AT_name("CMPSS4")
    1640                      .dwattr $C$DW$207, DW_AT_TI_symbol_name("_CMPSS4")
    1641                      .dwattr $C$DW$207, DW_AT_bit_offset(0x0c), DW_AT_bit_size(0x01)
    1642                      .dwattr $C$DW$207, DW_AT_data_member_location[DW_OP_plus_uconst 0x0]
    1643                      .dwattr $C$DW$207, DW_AT_accessibility(DW_ACCESS_public)
    1644              $C$DW$208       .dwtag  DW_TAG_member
    1645                      .dwattr $C$DW$208, DW_AT_type(*$C$DW$T$19)
    1646                      .dwattr $C$DW$208, DW_AT_name("CMPSS5")
    1647                      .dwattr $C$DW$208, DW_AT_TI_symbol_name("_CMPSS5")
    1648                      .dwattr $C$DW$208, DW_AT_bit_offset(0x0b), DW_AT_bit_size(0x01)
    1649                      .dwattr $C$DW$208, DW_AT_data_member_location[DW_OP_plus_uconst 0x0]
    1650                      .dwattr $C$DW$208, DW_AT_accessibility(DW_ACCESS_public)
    1651              $C$DW$209       .dwtag  DW_TAG_member
    1652                      .dwattr $C$DW$209, DW_AT_type(*$C$DW$T$19)
    1653                      .dwattr $C$DW$209, DW_AT_name("CMPSS6")
    1654                      .dwattr $C$DW$209, DW_AT_TI_symbol_name("_CMPSS6")
    1655                      .dwattr $C$DW$209, DW_AT_bit_offset(0x0a), DW_AT_bit_size(0x01)
    1656                      .dwattr $C$DW$209, DW_AT_data_member_location[DW_OP_plus_uconst 0x0]
    1657                      .dwattr $C$DW$209, DW_AT_accessibility(DW_ACCESS_public)
    1658              $C$DW$210       .dwtag  DW_TAG_member
    1659                      .dwattr $C$DW$210, DW_AT_type(*$C$DW$T$19)
    1660                      .dwattr $C$DW$210, DW_AT_name("CMPSS7")
    1661                      .dwattr $C$DW$210, DW_AT_TI_symbol_name("_CMPSS7")
    1662                      .dwattr $C$DW$210, DW_AT_bit_offset(0x09), DW_AT_bit_size(0x01)
    1663                      .dwattr $C$DW$210, DW_AT_data_member_location[DW_OP_plus_uconst 0x0]
    1664                      .dwattr $C$DW$210, DW_AT_accessibility(DW_ACCESS_public)
    1665              $C$DW$211       .dwtag  DW_TAG_member
    1666                      .dwattr $C$DW$211, DW_AT_type(*$C$DW$T$19)
    1667                      .dwattr $C$DW$211, DW_AT_name("CMPSS8")
    1668                      .dwattr $C$DW$211, DW_AT_TI_symbol_name("_CMPSS8")
    1669                      .dwattr $C$DW$211, DW_AT_bit_offset(0x08), DW_AT_bit_size(0x01)
    1670                      .dwattr $C$DW$211, DW_AT_data_member_location[DW_OP_plus_uconst 0x0]
    1671                      .dwattr $C$DW$211, DW_AT_accessibility(DW_ACCESS_public)
    1672              $C$DW$212       .dwtag  DW_TAG_member
    1673                      .dwattr $C$DW$212, DW_AT_type(*$C$DW$T$19)
    1674                      .dwattr $C$DW$212, DW_AT_name("rsvd1")
    1675                      .dwattr $C$DW$212, DW_AT_TI_symbol_name("_rsvd1")
    1676                      .dwattr $C$DW$212, DW_AT_bit_offset(0x00), DW_AT_bit_size(0x08)
    1677                      .dwattr $C$DW$212, DW_AT_data_member_location[DW_OP_plus_uconst 0x0]
    1678                      .dwattr $C$DW$212, DW_AT_accessibility(DW_ACCESS_public)
    1679              $C$DW$213       .dwtag  DW_TAG_member
    1680                      .dwattr $C$DW$213, DW_AT_type(*$C$DW$T$19)
    1681                      .dwattr $C$DW$213, DW_AT_name("rsvd2")
    1682                      .dwattr $C$DW$213, DW_AT_TI_symbol_name("_rsvd2")
    1683                      .dwattr $C$DW$213, DW_AT_bit_offset(0x00), DW_AT_bit_size(0x10)
    1684                      .dwattr $C$DW$213, DW_AT_data_member_location[DW_OP_plus_uconst 0x1]
    1685                      .dwattr $C$DW$213, DW_AT_accessibility(DW_ACCESS_public)
    1686                      .dwendtag $C$DW$T$48
    1687              
    1688              
    1689              $C$DW$T$49      .dwtag  DW_TAG_union_type
    1690                      .dwattr $C$DW$T$49, DW_AT_name("PCLKCR14_REG")
TMS320C2000 Assembler PC v6.1.3 Thu Jan 30 10:32:38 2014

Tools Copyright (c) 1996-2012 Texas Instruments Incorporated
C:\Users\a0272466\AppData\Local\Temp\0901610                         PAGE   32

    1691                      .dwattr $C$DW$T$49, DW_AT_byte_size(0x02)
    1692              $C$DW$214       .dwtag  DW_TAG_member
    1693                      .dwattr $C$DW$214, DW_AT_type(*$C$DW$T$21)
    1694                      .dwattr $C$DW$214, DW_AT_name("all")
    1695                      .dwattr $C$DW$214, DW_AT_TI_symbol_name("_all")
    1696                      .dwattr $C$DW$214, DW_AT_data_member_location[DW_OP_plus_uconst 0x0]
    1697                      .dwattr $C$DW$214, DW_AT_accessibility(DW_ACCESS_public)
    1698              $C$DW$215       .dwtag  DW_TAG_member
    1699                      .dwattr $C$DW$215, DW_AT_type(*$C$DW$T$48)
    1700                      .dwattr $C$DW$215, DW_AT_name("bit")
    1701                      .dwattr $C$DW$215, DW_AT_TI_symbol_name("_bit")
    1702                      .dwattr $C$DW$215, DW_AT_data_member_location[DW_OP_plus_uconst 0x0]
    1703                      .dwattr $C$DW$215, DW_AT_accessibility(DW_ACCESS_public)
    1704                      .dwendtag $C$DW$T$49
    1705              
    1706              
    1707              $C$DW$T$50      .dwtag  DW_TAG_structure_type
    1708                      .dwattr $C$DW$T$50, DW_AT_name("PCLKCR16_BITS")
    1709                      .dwattr $C$DW$T$50, DW_AT_byte_size(0x02)
    1710              $C$DW$216       .dwtag  DW_TAG_member
    1711                      .dwattr $C$DW$216, DW_AT_type(*$C$DW$T$19)
    1712                      .dwattr $C$DW$216, DW_AT_name("rsvd1")
    1713                      .dwattr $C$DW$216, DW_AT_TI_symbol_name("_rsvd1")
    1714                      .dwattr $C$DW$216, DW_AT_bit_offset(0x00), DW_AT_bit_size(0x10)
    1715                      .dwattr $C$DW$216, DW_AT_data_member_location[DW_OP_plus_uconst 0x0]
    1716                      .dwattr $C$DW$216, DW_AT_accessibility(DW_ACCESS_public)
    1717              $C$DW$217       .dwtag  DW_TAG_member
    1718                      .dwattr $C$DW$217, DW_AT_type(*$C$DW$T$19)
    1719                      .dwattr $C$DW$217, DW_AT_name("Buffered_DAC12_1")
    1720                      .dwattr $C$DW$217, DW_AT_TI_symbol_name("_Buffered_DAC12_1")
    1721                      .dwattr $C$DW$217, DW_AT_bit_offset(0x0f), DW_AT_bit_size(0x01)
    1722                      .dwattr $C$DW$217, DW_AT_data_member_location[DW_OP_plus_uconst 0x1]
    1723                      .dwattr $C$DW$217, DW_AT_accessibility(DW_ACCESS_public)
    1724              $C$DW$218       .dwtag  DW_TAG_member
    1725                      .dwattr $C$DW$218, DW_AT_type(*$C$DW$T$19)
    1726                      .dwattr $C$DW$218, DW_AT_name("Buffered_DAC12_2")
    1727                      .dwattr $C$DW$218, DW_AT_TI_symbol_name("_Buffered_DAC12_2")
    1728                      .dwattr $C$DW$218, DW_AT_bit_offset(0x0e), DW_AT_bit_size(0x01)
    1729                      .dwattr $C$DW$218, DW_AT_data_member_location[DW_OP_plus_uconst 0x1]
    1730                      .dwattr $C$DW$218, DW_AT_accessibility(DW_ACCESS_public)
    1731              $C$DW$219       .dwtag  DW_TAG_member
    1732                      .dwattr $C$DW$219, DW_AT_type(*$C$DW$T$19)
    1733                      .dwattr $C$DW$219, DW_AT_name("Buffered_DAC12_3")
    1734                      .dwattr $C$DW$219, DW_AT_TI_symbol_name("_Buffered_DAC12_3")
    1735                      .dwattr $C$DW$219, DW_AT_bit_offset(0x0d), DW_AT_bit_size(0x01)
    1736                      .dwattr $C$DW$219, DW_AT_data_member_location[DW_OP_plus_uconst 0x1]
    1737                      .dwattr $C$DW$219, DW_AT_accessibility(DW_ACCESS_public)
    1738              $C$DW$220       .dwtag  DW_TAG_member
    1739                      .dwattr $C$DW$220, DW_AT_type(*$C$DW$T$19)
    1740                      .dwattr $C$DW$220, DW_AT_name("rsvd2")
    1741                      .dwattr $C$DW$220, DW_AT_TI_symbol_name("_rsvd2")
    1742                      .dwattr $C$DW$220, DW_AT_bit_offset(0x00), DW_AT_bit_size(0x0d)
    1743                      .dwattr $C$DW$220, DW_AT_data_member_location[DW_OP_plus_uconst 0x1]
    1744                      .dwattr $C$DW$220, DW_AT_accessibility(DW_ACCESS_public)
    1745                      .dwendtag $C$DW$T$50
TMS320C2000 Assembler PC v6.1.3 Thu Jan 30 10:32:38 2014

Tools Copyright (c) 1996-2012 Texas Instruments Incorporated
C:\Users\a0272466\AppData\Local\Temp\0901610                         PAGE   33

    1746              
    1747              
    1748              $C$DW$T$51      .dwtag  DW_TAG_union_type
    1749                      .dwattr $C$DW$T$51, DW_AT_name("PCLKCR16_REG")
    1750                      .dwattr $C$DW$T$51, DW_AT_byte_size(0x02)
    1751              $C$DW$221       .dwtag  DW_TAG_member
    1752                      .dwattr $C$DW$221, DW_AT_type(*$C$DW$T$21)
    1753                      .dwattr $C$DW$221, DW_AT_name("all")
    1754                      .dwattr $C$DW$221, DW_AT_TI_symbol_name("_all")
    1755                      .dwattr $C$DW$221, DW_AT_data_member_location[DW_OP_plus_uconst 0x0]
    1756                      .dwattr $C$DW$221, DW_AT_accessibility(DW_ACCESS_public)
    1757              $C$DW$222       .dwtag  DW_TAG_member
    1758                      .dwattr $C$DW$222, DW_AT_type(*$C$DW$T$50)
    1759                      .dwattr $C$DW$222, DW_AT_name("bit")
    1760                      .dwattr $C$DW$222, DW_AT_TI_symbol_name("_bit")
    1761                      .dwattr $C$DW$222, DW_AT_data_member_location[DW_OP_plus_uconst 0x0]
    1762                      .dwattr $C$DW$222, DW_AT_accessibility(DW_ACCESS_public)
    1763                      .dwendtag $C$DW$T$51
    1764              
    1765              
    1766              $C$DW$T$52      .dwtag  DW_TAG_structure_type
    1767                      .dwattr $C$DW$T$52, DW_AT_name("PCLKCR1_BITS")
    1768                      .dwattr $C$DW$T$52, DW_AT_byte_size(0x02)
    1769              $C$DW$223       .dwtag  DW_TAG_member
    1770                      .dwattr $C$DW$223, DW_AT_type(*$C$DW$T$19)
    1771                      .dwattr $C$DW$223, DW_AT_name("EMIF1")
    1772                      .dwattr $C$DW$223, DW_AT_TI_symbol_name("_EMIF1")
    1773                      .dwattr $C$DW$223, DW_AT_bit_offset(0x0f), DW_AT_bit_size(0x01)
    1774                      .dwattr $C$DW$223, DW_AT_data_member_location[DW_OP_plus_uconst 0x0]
    1775                      .dwattr $C$DW$223, DW_AT_accessibility(DW_ACCESS_public)
    1776              $C$DW$224       .dwtag  DW_TAG_member
    1777                      .dwattr $C$DW$224, DW_AT_type(*$C$DW$T$19)
    1778                      .dwattr $C$DW$224, DW_AT_name("EMIF2")
    1779                      .dwattr $C$DW$224, DW_AT_TI_symbol_name("_EMIF2")
    1780                      .dwattr $C$DW$224, DW_AT_bit_offset(0x0e), DW_AT_bit_size(0x01)
    1781                      .dwattr $C$DW$224, DW_AT_data_member_location[DW_OP_plus_uconst 0x0]
    1782                      .dwattr $C$DW$224, DW_AT_accessibility(DW_ACCESS_public)
    1783              $C$DW$225       .dwtag  DW_TAG_member
    1784                      .dwattr $C$DW$225, DW_AT_type(*$C$DW$T$19)
    1785                      .dwattr $C$DW$225, DW_AT_name("rsvd1")
    1786                      .dwattr $C$DW$225, DW_AT_TI_symbol_name("_rsvd1")
    1787                      .dwattr $C$DW$225, DW_AT_bit_offset(0x00), DW_AT_bit_size(0x0e)
    1788                      .dwattr $C$DW$225, DW_AT_data_member_location[DW_OP_plus_uconst 0x0]
    1789                      .dwattr $C$DW$225, DW_AT_accessibility(DW_ACCESS_public)
    1790              $C$DW$226       .dwtag  DW_TAG_member
    1791                      .dwattr $C$DW$226, DW_AT_type(*$C$DW$T$19)
    1792                      .dwattr $C$DW$226, DW_AT_name("rsvd2")
    1793                      .dwattr $C$DW$226, DW_AT_TI_symbol_name("_rsvd2")
    1794                      .dwattr $C$DW$226, DW_AT_bit_offset(0x00), DW_AT_bit_size(0x10)
    1795                      .dwattr $C$DW$226, DW_AT_data_member_location[DW_OP_plus_uconst 0x1]
    1796                      .dwattr $C$DW$226, DW_AT_accessibility(DW_ACCESS_public)
    1797                      .dwendtag $C$DW$T$52
    1798              
    1799              
    1800              $C$DW$T$53      .dwtag  DW_TAG_union_type
TMS320C2000 Assembler PC v6.1.3 Thu Jan 30 10:32:38 2014

Tools Copyright (c) 1996-2012 Texas Instruments Incorporated
C:\Users\a0272466\AppData\Local\Temp\0901610                         PAGE   34

    1801                      .dwattr $C$DW$T$53, DW_AT_name("PCLKCR1_REG")
    1802                      .dwattr $C$DW$T$53, DW_AT_byte_size(0x02)
    1803              $C$DW$227       .dwtag  DW_TAG_member
    1804                      .dwattr $C$DW$227, DW_AT_type(*$C$DW$T$21)
    1805                      .dwattr $C$DW$227, DW_AT_name("all")
    1806                      .dwattr $C$DW$227, DW_AT_TI_symbol_name("_all")
    1807                      .dwattr $C$DW$227, DW_AT_data_member_location[DW_OP_plus_uconst 0x0]
    1808                      .dwattr $C$DW$227, DW_AT_accessibility(DW_ACCESS_public)
    1809              $C$DW$228       .dwtag  DW_TAG_member
    1810                      .dwattr $C$DW$228, DW_AT_type(*$C$DW$T$52)
    1811                      .dwattr $C$DW$228, DW_AT_name("bit")
    1812                      .dwattr $C$DW$228, DW_AT_TI_symbol_name("_bit")
    1813                      .dwattr $C$DW$228, DW_AT_data_member_location[DW_OP_plus_uconst 0x0]
    1814                      .dwattr $C$DW$228, DW_AT_accessibility(DW_ACCESS_public)
    1815                      .dwendtag $C$DW$T$53
    1816              
    1817              
    1818              $C$DW$T$54      .dwtag  DW_TAG_structure_type
    1819                      .dwattr $C$DW$T$54, DW_AT_name("PCLKCR2_BITS")
    1820                      .dwattr $C$DW$T$54, DW_AT_byte_size(0x02)
    1821              $C$DW$229       .dwtag  DW_TAG_member
    1822                      .dwattr $C$DW$229, DW_AT_type(*$C$DW$T$19)
    1823                      .dwattr $C$DW$229, DW_AT_name("EPWM1")
    1824                      .dwattr $C$DW$229, DW_AT_TI_symbol_name("_EPWM1")
    1825                      .dwattr $C$DW$229, DW_AT_bit_offset(0x0f), DW_AT_bit_size(0x01)
    1826                      .dwattr $C$DW$229, DW_AT_data_member_location[DW_OP_plus_uconst 0x0]
    1827                      .dwattr $C$DW$229, DW_AT_accessibility(DW_ACCESS_public)
    1828              $C$DW$230       .dwtag  DW_TAG_member
    1829                      .dwattr $C$DW$230, DW_AT_type(*$C$DW$T$19)
    1830                      .dwattr $C$DW$230, DW_AT_name("EPWM2")
    1831                      .dwattr $C$DW$230, DW_AT_TI_symbol_name("_EPWM2")
    1832                      .dwattr $C$DW$230, DW_AT_bit_offset(0x0e), DW_AT_bit_size(0x01)
    1833                      .dwattr $C$DW$230, DW_AT_data_member_location[DW_OP_plus_uconst 0x0]
    1834                      .dwattr $C$DW$230, DW_AT_accessibility(DW_ACCESS_public)
    1835              $C$DW$231       .dwtag  DW_TAG_member
    1836                      .dwattr $C$DW$231, DW_AT_type(*$C$DW$T$19)
    1837                      .dwattr $C$DW$231, DW_AT_name("EPWM3")
    1838                      .dwattr $C$DW$231, DW_AT_TI_symbol_name("_EPWM3")
    1839                      .dwattr $C$DW$231, DW_AT_bit_offset(0x0d), DW_AT_bit_size(0x01)
    1840                      .dwattr $C$DW$231, DW_AT_data_member_location[DW_OP_plus_uconst 0x0]
    1841                      .dwattr $C$DW$231, DW_AT_accessibility(DW_ACCESS_public)
    1842              $C$DW$232       .dwtag  DW_TAG_member
    1843                      .dwattr $C$DW$232, DW_AT_type(*$C$DW$T$19)
    1844                      .dwattr $C$DW$232, DW_AT_name("EPWM4")
    1845                      .dwattr $C$DW$232, DW_AT_TI_symbol_name("_EPWM4")
    1846                      .dwattr $C$DW$232, DW_AT_bit_offset(0x0c), DW_AT_bit_size(0x01)
    1847                      .dwattr $C$DW$232, DW_AT_data_member_location[DW_OP_plus_uconst 0x0]
    1848                      .dwattr $C$DW$232, DW_AT_accessibility(DW_ACCESS_public)
    1849              $C$DW$233       .dwtag  DW_TAG_member
    1850                      .dwattr $C$DW$233, DW_AT_type(*$C$DW$T$19)
    1851                      .dwattr $C$DW$233, DW_AT_name("EPWM5")
    1852                      .dwattr $C$DW$233, DW_AT_TI_symbol_name("_EPWM5")
    1853                      .dwattr $C$DW$233, DW_AT_bit_offset(0x0b), DW_AT_bit_size(0x01)
    1854                      .dwattr $C$DW$233, DW_AT_data_member_location[DW_OP_plus_uconst 0x0]
    1855                      .dwattr $C$DW$233, DW_AT_accessibility(DW_ACCESS_public)
TMS320C2000 Assembler PC v6.1.3 Thu Jan 30 10:32:38 2014

Tools Copyright (c) 1996-2012 Texas Instruments Incorporated
C:\Users\a0272466\AppData\Local\Temp\0901610                         PAGE   35

    1856              $C$DW$234       .dwtag  DW_TAG_member
    1857                      .dwattr $C$DW$234, DW_AT_type(*$C$DW$T$19)
    1858                      .dwattr $C$DW$234, DW_AT_name("EPWM6")
    1859                      .dwattr $C$DW$234, DW_AT_TI_symbol_name("_EPWM6")
    1860                      .dwattr $C$DW$234, DW_AT_bit_offset(0x0a), DW_AT_bit_size(0x01)
    1861                      .dwattr $C$DW$234, DW_AT_data_member_location[DW_OP_plus_uconst 0x0]
    1862                      .dwattr $C$DW$234, DW_AT_accessibility(DW_ACCESS_public)
    1863              $C$DW$235       .dwtag  DW_TAG_member
    1864                      .dwattr $C$DW$235, DW_AT_type(*$C$DW$T$19)
    1865                      .dwattr $C$DW$235, DW_AT_name("EPWM7")
    1866                      .dwattr $C$DW$235, DW_AT_TI_symbol_name("_EPWM7")
    1867                      .dwattr $C$DW$235, DW_AT_bit_offset(0x09), DW_AT_bit_size(0x01)
    1868                      .dwattr $C$DW$235, DW_AT_data_member_location[DW_OP_plus_uconst 0x0]
    1869                      .dwattr $C$DW$235, DW_AT_accessibility(DW_ACCESS_public)
    1870              $C$DW$236       .dwtag  DW_TAG_member
    1871                      .dwattr $C$DW$236, DW_AT_type(*$C$DW$T$19)
    1872                      .dwattr $C$DW$236, DW_AT_name("EPWM8")
    1873                      .dwattr $C$DW$236, DW_AT_TI_symbol_name("_EPWM8")
    1874                      .dwattr $C$DW$236, DW_AT_bit_offset(0x08), DW_AT_bit_size(0x01)
    1875                      .dwattr $C$DW$236, DW_AT_data_member_location[DW_OP_plus_uconst 0x0]
    1876                      .dwattr $C$DW$236, DW_AT_accessibility(DW_ACCESS_public)
    1877              $C$DW$237       .dwtag  DW_TAG_member
    1878                      .dwattr $C$DW$237, DW_AT_type(*$C$DW$T$19)
    1879                      .dwattr $C$DW$237, DW_AT_name("EPWM9")
    1880                      .dwattr $C$DW$237, DW_AT_TI_symbol_name("_EPWM9")
    1881                      .dwattr $C$DW$237, DW_AT_bit_offset(0x07), DW_AT_bit_size(0x01)
    1882                      .dwattr $C$DW$237, DW_AT_data_member_location[DW_OP_plus_uconst 0x0]
    1883                      .dwattr $C$DW$237, DW_AT_accessibility(DW_ACCESS_public)
    1884              $C$DW$238       .dwtag  DW_TAG_member
    1885                      .dwattr $C$DW$238, DW_AT_type(*$C$DW$T$19)
    1886                      .dwattr $C$DW$238, DW_AT_name("EPWM10")
    1887                      .dwattr $C$DW$238, DW_AT_TI_symbol_name("_EPWM10")
    1888                      .dwattr $C$DW$238, DW_AT_bit_offset(0x06), DW_AT_bit_size(0x01)
    1889                      .dwattr $C$DW$238, DW_AT_data_member_location[DW_OP_plus_uconst 0x0]
    1890                      .dwattr $C$DW$238, DW_AT_accessibility(DW_ACCESS_public)
    1891              $C$DW$239       .dwtag  DW_TAG_member
    1892                      .dwattr $C$DW$239, DW_AT_type(*$C$DW$T$19)
    1893                      .dwattr $C$DW$239, DW_AT_name("EPWM11")
    1894                      .dwattr $C$DW$239, DW_AT_TI_symbol_name("_EPWM11")
    1895                      .dwattr $C$DW$239, DW_AT_bit_offset(0x05), DW_AT_bit_size(0x01)
    1896                      .dwattr $C$DW$239, DW_AT_data_member_location[DW_OP_plus_uconst 0x0]
    1897                      .dwattr $C$DW$239, DW_AT_accessibility(DW_ACCESS_public)
    1898              $C$DW$240       .dwtag  DW_TAG_member
    1899                      .dwattr $C$DW$240, DW_AT_type(*$C$DW$T$19)
    1900                      .dwattr $C$DW$240, DW_AT_name("EPWM12")
    1901                      .dwattr $C$DW$240, DW_AT_TI_symbol_name("_EPWM12")
    1902                      .dwattr $C$DW$240, DW_AT_bit_offset(0x04), DW_AT_bit_size(0x01)
    1903                      .dwattr $C$DW$240, DW_AT_data_member_location[DW_OP_plus_uconst 0x0]
    1904                      .dwattr $C$DW$240, DW_AT_accessibility(DW_ACCESS_public)
    1905              $C$DW$241       .dwtag  DW_TAG_member
    1906                      .dwattr $C$DW$241, DW_AT_type(*$C$DW$T$19)
    1907                      .dwattr $C$DW$241, DW_AT_name("rsvd1")
    1908                      .dwattr $C$DW$241, DW_AT_TI_symbol_name("_rsvd1")
    1909                      .dwattr $C$DW$241, DW_AT_bit_offset(0x00), DW_AT_bit_size(0x04)
    1910                      .dwattr $C$DW$241, DW_AT_data_member_location[DW_OP_plus_uconst 0x0]
TMS320C2000 Assembler PC v6.1.3 Thu Jan 30 10:32:38 2014

Tools Copyright (c) 1996-2012 Texas Instruments Incorporated
C:\Users\a0272466\AppData\Local\Temp\0901610                         PAGE   36

    1911                      .dwattr $C$DW$241, DW_AT_accessibility(DW_ACCESS_public)
    1912              $C$DW$242       .dwtag  DW_TAG_member
    1913                      .dwattr $C$DW$242, DW_AT_type(*$C$DW$T$19)
    1914                      .dwattr $C$DW$242, DW_AT_name("rsvd2")
    1915                      .dwattr $C$DW$242, DW_AT_TI_symbol_name("_rsvd2")
    1916                      .dwattr $C$DW$242, DW_AT_bit_offset(0x00), DW_AT_bit_size(0x10)
    1917                      .dwattr $C$DW$242, DW_AT_data_member_location[DW_OP_plus_uconst 0x1]
    1918                      .dwattr $C$DW$242, DW_AT_accessibility(DW_ACCESS_public)
    1919                      .dwendtag $C$DW$T$54
    1920              
    1921              
    1922              $C$DW$T$55      .dwtag  DW_TAG_union_type
    1923                      .dwattr $C$DW$T$55, DW_AT_name("PCLKCR2_REG")
    1924                      .dwattr $C$DW$T$55, DW_AT_byte_size(0x02)
    1925              $C$DW$243       .dwtag  DW_TAG_member
    1926                      .dwattr $C$DW$243, DW_AT_type(*$C$DW$T$21)
    1927                      .dwattr $C$DW$243, DW_AT_name("all")
    1928                      .dwattr $C$DW$243, DW_AT_TI_symbol_name("_all")
    1929                      .dwattr $C$DW$243, DW_AT_data_member_location[DW_OP_plus_uconst 0x0]
    1930                      .dwattr $C$DW$243, DW_AT_accessibility(DW_ACCESS_public)
    1931              $C$DW$244       .dwtag  DW_TAG_member
    1932                      .dwattr $C$DW$244, DW_AT_type(*$C$DW$T$54)
    1933                      .dwattr $C$DW$244, DW_AT_name("bit")
    1934                      .dwattr $C$DW$244, DW_AT_TI_symbol_name("_bit")
    1935                      .dwattr $C$DW$244, DW_AT_data_member_location[DW_OP_plus_uconst 0x0]
    1936                      .dwattr $C$DW$244, DW_AT_accessibility(DW_ACCESS_public)
    1937                      .dwendtag $C$DW$T$55
    1938              
    1939              
    1940              $C$DW$T$56      .dwtag  DW_TAG_structure_type
    1941                      .dwattr $C$DW$T$56, DW_AT_name("PCLKCR3_BITS")
    1942                      .dwattr $C$DW$T$56, DW_AT_byte_size(0x02)
    1943              $C$DW$245       .dwtag  DW_TAG_member
    1944                      .dwattr $C$DW$245, DW_AT_type(*$C$DW$T$19)
    1945                      .dwattr $C$DW$245, DW_AT_name("ECAP1")
    1946                      .dwattr $C$DW$245, DW_AT_TI_symbol_name("_ECAP1")
    1947                      .dwattr $C$DW$245, DW_AT_bit_offset(0x0f), DW_AT_bit_size(0x01)
    1948                      .dwattr $C$DW$245, DW_AT_data_member_location[DW_OP_plus_uconst 0x0]
    1949                      .dwattr $C$DW$245, DW_AT_accessibility(DW_ACCESS_public)
    1950              $C$DW$246       .dwtag  DW_TAG_member
    1951                      .dwattr $C$DW$246, DW_AT_type(*$C$DW$T$19)
    1952                      .dwattr $C$DW$246, DW_AT_name("ECAP2")
    1953                      .dwattr $C$DW$246, DW_AT_TI_symbol_name("_ECAP2")
    1954                      .dwattr $C$DW$246, DW_AT_bit_offset(0x0e), DW_AT_bit_size(0x01)
    1955                      .dwattr $C$DW$246, DW_AT_data_member_location[DW_OP_plus_uconst 0x0]
    1956                      .dwattr $C$DW$246, DW_AT_accessibility(DW_ACCESS_public)
    1957              $C$DW$247       .dwtag  DW_TAG_member
    1958                      .dwattr $C$DW$247, DW_AT_type(*$C$DW$T$19)
    1959                      .dwattr $C$DW$247, DW_AT_name("ECAP3")
    1960                      .dwattr $C$DW$247, DW_AT_TI_symbol_name("_ECAP3")
    1961                      .dwattr $C$DW$247, DW_AT_bit_offset(0x0d), DW_AT_bit_size(0x01)
    1962                      .dwattr $C$DW$247, DW_AT_data_member_location[DW_OP_plus_uconst 0x0]
    1963                      .dwattr $C$DW$247, DW_AT_accessibility(DW_ACCESS_public)
    1964              $C$DW$248       .dwtag  DW_TAG_member
    1965                      .dwattr $C$DW$248, DW_AT_type(*$C$DW$T$19)
TMS320C2000 Assembler PC v6.1.3 Thu Jan 30 10:32:38 2014

Tools Copyright (c) 1996-2012 Texas Instruments Incorporated
C:\Users\a0272466\AppData\Local\Temp\0901610                         PAGE   37

    1966                      .dwattr $C$DW$248, DW_AT_name("ECAP4")
    1967                      .dwattr $C$DW$248, DW_AT_TI_symbol_name("_ECAP4")
    1968                      .dwattr $C$DW$248, DW_AT_bit_offset(0x0c), DW_AT_bit_size(0x01)
    1969                      .dwattr $C$DW$248, DW_AT_data_member_location[DW_OP_plus_uconst 0x0]
    1970                      .dwattr $C$DW$248, DW_AT_accessibility(DW_ACCESS_public)
    1971              $C$DW$249       .dwtag  DW_TAG_member
    1972                      .dwattr $C$DW$249, DW_AT_type(*$C$DW$T$19)
    1973                      .dwattr $C$DW$249, DW_AT_name("ECAP5")
    1974                      .dwattr $C$DW$249, DW_AT_TI_symbol_name("_ECAP5")
    1975                      .dwattr $C$DW$249, DW_AT_bit_offset(0x0b), DW_AT_bit_size(0x01)
    1976                      .dwattr $C$DW$249, DW_AT_data_member_location[DW_OP_plus_uconst 0x0]
    1977                      .dwattr $C$DW$249, DW_AT_accessibility(DW_ACCESS_public)
    1978              $C$DW$250       .dwtag  DW_TAG_member
    1979                      .dwattr $C$DW$250, DW_AT_type(*$C$DW$T$19)
    1980                      .dwattr $C$DW$250, DW_AT_name("ECAP6")
    1981                      .dwattr $C$DW$250, DW_AT_TI_symbol_name("_ECAP6")
    1982                      .dwattr $C$DW$250, DW_AT_bit_offset(0x0a), DW_AT_bit_size(0x01)
    1983                      .dwattr $C$DW$250, DW_AT_data_member_location[DW_OP_plus_uconst 0x0]
    1984                      .dwattr $C$DW$250, DW_AT_accessibility(DW_ACCESS_public)
    1985              $C$DW$251       .dwtag  DW_TAG_member
    1986                      .dwattr $C$DW$251, DW_AT_type(*$C$DW$T$19)
    1987                      .dwattr $C$DW$251, DW_AT_name("rsvd1")
    1988                      .dwattr $C$DW$251, DW_AT_TI_symbol_name("_rsvd1")
    1989                      .dwattr $C$DW$251, DW_AT_bit_offset(0x00), DW_AT_bit_size(0x0a)
    1990                      .dwattr $C$DW$251, DW_AT_data_member_location[DW_OP_plus_uconst 0x0]
    1991                      .dwattr $C$DW$251, DW_AT_accessibility(DW_ACCESS_public)
    1992              $C$DW$252       .dwtag  DW_TAG_member
    1993                      .dwattr $C$DW$252, DW_AT_type(*$C$DW$T$19)
    1994                      .dwattr $C$DW$252, DW_AT_name("rsvd2")
    1995                      .dwattr $C$DW$252, DW_AT_TI_symbol_name("_rsvd2")
    1996                      .dwattr $C$DW$252, DW_AT_bit_offset(0x00), DW_AT_bit_size(0x10)
    1997                      .dwattr $C$DW$252, DW_AT_data_member_location[DW_OP_plus_uconst 0x1]
    1998                      .dwattr $C$DW$252, DW_AT_accessibility(DW_ACCESS_public)
    1999                      .dwendtag $C$DW$T$56
    2000              
    2001              
    2002              $C$DW$T$57      .dwtag  DW_TAG_union_type
    2003                      .dwattr $C$DW$T$57, DW_AT_name("PCLKCR3_REG")
    2004                      .dwattr $C$DW$T$57, DW_AT_byte_size(0x02)
    2005              $C$DW$253       .dwtag  DW_TAG_member
    2006                      .dwattr $C$DW$253, DW_AT_type(*$C$DW$T$21)
    2007                      .dwattr $C$DW$253, DW_AT_name("all")
    2008                      .dwattr $C$DW$253, DW_AT_TI_symbol_name("_all")
    2009                      .dwattr $C$DW$253, DW_AT_data_member_location[DW_OP_plus_uconst 0x0]
    2010                      .dwattr $C$DW$253, DW_AT_accessibility(DW_ACCESS_public)
    2011              $C$DW$254       .dwtag  DW_TAG_member
    2012                      .dwattr $C$DW$254, DW_AT_type(*$C$DW$T$56)
    2013                      .dwattr $C$DW$254, DW_AT_name("bit")
    2014                      .dwattr $C$DW$254, DW_AT_TI_symbol_name("_bit")
    2015                      .dwattr $C$DW$254, DW_AT_data_member_location[DW_OP_plus_uconst 0x0]
    2016                      .dwattr $C$DW$254, DW_AT_accessibility(DW_ACCESS_public)
    2017                      .dwendtag $C$DW$T$57
    2018              
    2019              
    2020              $C$DW$T$58      .dwtag  DW_TAG_structure_type
TMS320C2000 Assembler PC v6.1.3 Thu Jan 30 10:32:38 2014

Tools Copyright (c) 1996-2012 Texas Instruments Incorporated
C:\Users\a0272466\AppData\Local\Temp\0901610                         PAGE   38

    2021                      .dwattr $C$DW$T$58, DW_AT_name("PCLKCR4_BITS")
    2022                      .dwattr $C$DW$T$58, DW_AT_byte_size(0x02)
    2023              $C$DW$255       .dwtag  DW_TAG_member
    2024                      .dwattr $C$DW$255, DW_AT_type(*$C$DW$T$19)
    2025                      .dwattr $C$DW$255, DW_AT_name("EQEP1")
    2026                      .dwattr $C$DW$255, DW_AT_TI_symbol_name("_EQEP1")
    2027                      .dwattr $C$DW$255, DW_AT_bit_offset(0x0f), DW_AT_bit_size(0x01)
    2028                      .dwattr $C$DW$255, DW_AT_data_member_location[DW_OP_plus_uconst 0x0]
    2029                      .dwattr $C$DW$255, DW_AT_accessibility(DW_ACCESS_public)
    2030              $C$DW$256       .dwtag  DW_TAG_member
    2031                      .dwattr $C$DW$256, DW_AT_type(*$C$DW$T$19)
    2032                      .dwattr $C$DW$256, DW_AT_name("EQEP2")
    2033                      .dwattr $C$DW$256, DW_AT_TI_symbol_name("_EQEP2")
    2034                      .dwattr $C$DW$256, DW_AT_bit_offset(0x0e), DW_AT_bit_size(0x01)
    2035                      .dwattr $C$DW$256, DW_AT_data_member_location[DW_OP_plus_uconst 0x0]
    2036                      .dwattr $C$DW$256, DW_AT_accessibility(DW_ACCESS_public)
    2037              $C$DW$257       .dwtag  DW_TAG_member
    2038                      .dwattr $C$DW$257, DW_AT_type(*$C$DW$T$19)
    2039                      .dwattr $C$DW$257, DW_AT_name("EQEP3")
    2040                      .dwattr $C$DW$257, DW_AT_TI_symbol_name("_EQEP3")
    2041                      .dwattr $C$DW$257, DW_AT_bit_offset(0x0d), DW_AT_bit_size(0x01)
    2042                      .dwattr $C$DW$257, DW_AT_data_member_location[DW_OP_plus_uconst 0x0]
    2043                      .dwattr $C$DW$257, DW_AT_accessibility(DW_ACCESS_public)
    2044              $C$DW$258       .dwtag  DW_TAG_member
    2045                      .dwattr $C$DW$258, DW_AT_type(*$C$DW$T$19)
    2046                      .dwattr $C$DW$258, DW_AT_name("rsvd1")
    2047                      .dwattr $C$DW$258, DW_AT_TI_symbol_name("_rsvd1")
    2048                      .dwattr $C$DW$258, DW_AT_bit_offset(0x00), DW_AT_bit_size(0x0d)
    2049                      .dwattr $C$DW$258, DW_AT_data_member_location[DW_OP_plus_uconst 0x0]
    2050                      .dwattr $C$DW$258, DW_AT_accessibility(DW_ACCESS_public)
    2051              $C$DW$259       .dwtag  DW_TAG_member
    2052                      .dwattr $C$DW$259, DW_AT_type(*$C$DW$T$19)
    2053                      .dwattr $C$DW$259, DW_AT_name("rsvd2")
    2054                      .dwattr $C$DW$259, DW_AT_TI_symbol_name("_rsvd2")
    2055                      .dwattr $C$DW$259, DW_AT_bit_offset(0x00), DW_AT_bit_size(0x10)
    2056                      .dwattr $C$DW$259, DW_AT_data_member_location[DW_OP_plus_uconst 0x1]
    2057                      .dwattr $C$DW$259, DW_AT_accessibility(DW_ACCESS_public)
    2058                      .dwendtag $C$DW$T$58
    2059              
    2060              
    2061              $C$DW$T$59      .dwtag  DW_TAG_union_type
    2062                      .dwattr $C$DW$T$59, DW_AT_name("PCLKCR4_REG")
    2063                      .dwattr $C$DW$T$59, DW_AT_byte_size(0x02)
    2064              $C$DW$260       .dwtag  DW_TAG_member
    2065                      .dwattr $C$DW$260, DW_AT_type(*$C$DW$T$21)
    2066                      .dwattr $C$DW$260, DW_AT_name("all")
    2067                      .dwattr $C$DW$260, DW_AT_TI_symbol_name("_all")
    2068                      .dwattr $C$DW$260, DW_AT_data_member_location[DW_OP_plus_uconst 0x0]
    2069                      .dwattr $C$DW$260, DW_AT_accessibility(DW_ACCESS_public)
    2070              $C$DW$261       .dwtag  DW_TAG_member
    2071                      .dwattr $C$DW$261, DW_AT_type(*$C$DW$T$58)
    2072                      .dwattr $C$DW$261, DW_AT_name("bit")
    2073                      .dwattr $C$DW$261, DW_AT_TI_symbol_name("_bit")
    2074                      .dwattr $C$DW$261, DW_AT_data_member_location[DW_OP_plus_uconst 0x0]
    2075                      .dwattr $C$DW$261, DW_AT_accessibility(DW_ACCESS_public)
TMS320C2000 Assembler PC v6.1.3 Thu Jan 30 10:32:38 2014

Tools Copyright (c) 1996-2012 Texas Instruments Incorporated
C:\Users\a0272466\AppData\Local\Temp\0901610                         PAGE   39

    2076                      .dwendtag $C$DW$T$59
    2077              
    2078              
    2079              $C$DW$T$60      .dwtag  DW_TAG_structure_type
    2080                      .dwattr $C$DW$T$60, DW_AT_name("PCLKCR5_BITS")
    2081                      .dwattr $C$DW$T$60, DW_AT_byte_size(0x02)
    2082              $C$DW$262       .dwtag  DW_TAG_member
    2083                      .dwattr $C$DW$262, DW_AT_type(*$C$DW$T$19)
    2084                      .dwattr $C$DW$262, DW_AT_name("rsvd1")
    2085                      .dwattr $C$DW$262, DW_AT_TI_symbol_name("_rsvd1")
    2086                      .dwattr $C$DW$262, DW_AT_bit_offset(0x00), DW_AT_bit_size(0x10)
    2087                      .dwattr $C$DW$262, DW_AT_data_member_location[DW_OP_plus_uconst 0x0]
    2088                      .dwattr $C$DW$262, DW_AT_accessibility(DW_ACCESS_public)
    2089              $C$DW$263       .dwtag  DW_TAG_member
    2090                      .dwattr $C$DW$263, DW_AT_type(*$C$DW$T$19)
    2091                      .dwattr $C$DW$263, DW_AT_name("rsvd2")
    2092                      .dwattr $C$DW$263, DW_AT_TI_symbol_name("_rsvd2")
    2093                      .dwattr $C$DW$263, DW_AT_bit_offset(0x00), DW_AT_bit_size(0x10)
    2094                      .dwattr $C$DW$263, DW_AT_data_member_location[DW_OP_plus_uconst 0x1]
    2095                      .dwattr $C$DW$263, DW_AT_accessibility(DW_ACCESS_public)
    2096                      .dwendtag $C$DW$T$60
    2097              
    2098              
    2099              $C$DW$T$61      .dwtag  DW_TAG_union_type
    2100                      .dwattr $C$DW$T$61, DW_AT_name("PCLKCR5_REG")
    2101                      .dwattr $C$DW$T$61, DW_AT_byte_size(0x02)
    2102              $C$DW$264       .dwtag  DW_TAG_member
    2103                      .dwattr $C$DW$264, DW_AT_type(*$C$DW$T$21)
    2104                      .dwattr $C$DW$264, DW_AT_name("all")
    2105                      .dwattr $C$DW$264, DW_AT_TI_symbol_name("_all")
    2106                      .dwattr $C$DW$264, DW_AT_data_member_location[DW_OP_plus_uconst 0x0]
    2107                      .dwattr $C$DW$264, DW_AT_accessibility(DW_ACCESS_public)
    2108              $C$DW$265       .dwtag  DW_TAG_member
    2109                      .dwattr $C$DW$265, DW_AT_type(*$C$DW$T$60)
    2110                      .dwattr $C$DW$265, DW_AT_name("bit")
    2111                      .dwattr $C$DW$265, DW_AT_TI_symbol_name("_bit")
    2112                      .dwattr $C$DW$265, DW_AT_data_member_location[DW_OP_plus_uconst 0x0]
    2113                      .dwattr $C$DW$265, DW_AT_accessibility(DW_ACCESS_public)
    2114                      .dwendtag $C$DW$T$61
    2115              
    2116              
    2117              $C$DW$T$62      .dwtag  DW_TAG_structure_type
    2118                      .dwattr $C$DW$T$62, DW_AT_name("PCLKCR6_BITS")
    2119                      .dwattr $C$DW$T$62, DW_AT_byte_size(0x02)
    2120              $C$DW$266       .dwtag  DW_TAG_member
    2121                      .dwattr $C$DW$266, DW_AT_type(*$C$DW$T$19)
    2122                      .dwattr $C$DW$266, DW_AT_name("SD1")
    2123                      .dwattr $C$DW$266, DW_AT_TI_symbol_name("_SD1")
    2124                      .dwattr $C$DW$266, DW_AT_bit_offset(0x0f), DW_AT_bit_size(0x01)
    2125                      .dwattr $C$DW$266, DW_AT_data_member_location[DW_OP_plus_uconst 0x0]
    2126                      .dwattr $C$DW$266, DW_AT_accessibility(DW_ACCESS_public)
    2127              $C$DW$267       .dwtag  DW_TAG_member
    2128                      .dwattr $C$DW$267, DW_AT_type(*$C$DW$T$19)
    2129                      .dwattr $C$DW$267, DW_AT_name("SD2")
    2130                      .dwattr $C$DW$267, DW_AT_TI_symbol_name("_SD2")
TMS320C2000 Assembler PC v6.1.3 Thu Jan 30 10:32:38 2014

Tools Copyright (c) 1996-2012 Texas Instruments Incorporated
C:\Users\a0272466\AppData\Local\Temp\0901610                         PAGE   40

    2131                      .dwattr $C$DW$267, DW_AT_bit_offset(0x0e), DW_AT_bit_size(0x01)
    2132                      .dwattr $C$DW$267, DW_AT_data_member_location[DW_OP_plus_uconst 0x0]
    2133                      .dwattr $C$DW$267, DW_AT_accessibility(DW_ACCESS_public)
    2134              $C$DW$268       .dwtag  DW_TAG_member
    2135                      .dwattr $C$DW$268, DW_AT_type(*$C$DW$T$19)
    2136                      .dwattr $C$DW$268, DW_AT_name("rsvd1")
    2137                      .dwattr $C$DW$268, DW_AT_TI_symbol_name("_rsvd1")
    2138                      .dwattr $C$DW$268, DW_AT_bit_offset(0x00), DW_AT_bit_size(0x0e)
    2139                      .dwattr $C$DW$268, DW_AT_data_member_location[DW_OP_plus_uconst 0x0]
    2140                      .dwattr $C$DW$268, DW_AT_accessibility(DW_ACCESS_public)
    2141              $C$DW$269       .dwtag  DW_TAG_member
    2142                      .dwattr $C$DW$269, DW_AT_type(*$C$DW$T$19)
    2143                      .dwattr $C$DW$269, DW_AT_name("rsvd2")
    2144                      .dwattr $C$DW$269, DW_AT_TI_symbol_name("_rsvd2")
    2145                      .dwattr $C$DW$269, DW_AT_bit_offset(0x00), DW_AT_bit_size(0x10)
    2146                      .dwattr $C$DW$269, DW_AT_data_member_location[DW_OP_plus_uconst 0x1]
    2147                      .dwattr $C$DW$269, DW_AT_accessibility(DW_ACCESS_public)
    2148                      .dwendtag $C$DW$T$62
    2149              
    2150              
    2151              $C$DW$T$63      .dwtag  DW_TAG_union_type
    2152                      .dwattr $C$DW$T$63, DW_AT_name("PCLKCR6_REG")
    2153                      .dwattr $C$DW$T$63, DW_AT_byte_size(0x02)
    2154              $C$DW$270       .dwtag  DW_TAG_member
    2155                      .dwattr $C$DW$270, DW_AT_type(*$C$DW$T$21)
    2156                      .dwattr $C$DW$270, DW_AT_name("all")
    2157                      .dwattr $C$DW$270, DW_AT_TI_symbol_name("_all")
    2158                      .dwattr $C$DW$270, DW_AT_data_member_location[DW_OP_plus_uconst 0x0]
    2159                      .dwattr $C$DW$270, DW_AT_accessibility(DW_ACCESS_public)
    2160              $C$DW$271       .dwtag  DW_TAG_member
    2161                      .dwattr $C$DW$271, DW_AT_type(*$C$DW$T$62)
    2162                      .dwattr $C$DW$271, DW_AT_name("bit")
    2163                      .dwattr $C$DW$271, DW_AT_TI_symbol_name("_bit")
    2164                      .dwattr $C$DW$271, DW_AT_data_member_location[DW_OP_plus_uconst 0x0]
    2165                      .dwattr $C$DW$271, DW_AT_accessibility(DW_ACCESS_public)
    2166                      .dwendtag $C$DW$T$63
    2167              
    2168              
    2169              $C$DW$T$64      .dwtag  DW_TAG_structure_type
    2170                      .dwattr $C$DW$T$64, DW_AT_name("PCLKCR7_BITS")
    2171                      .dwattr $C$DW$T$64, DW_AT_byte_size(0x02)
    2172              $C$DW$272       .dwtag  DW_TAG_member
    2173                      .dwattr $C$DW$272, DW_AT_type(*$C$DW$T$19)
    2174                      .dwattr $C$DW$272, DW_AT_name("SCI_A")
    2175                      .dwattr $C$DW$272, DW_AT_TI_symbol_name("_SCI_A")
    2176                      .dwattr $C$DW$272, DW_AT_bit_offset(0x0f), DW_AT_bit_size(0x01)
    2177                      .dwattr $C$DW$272, DW_AT_data_member_location[DW_OP_plus_uconst 0x0]
    2178                      .dwattr $C$DW$272, DW_AT_accessibility(DW_ACCESS_public)
    2179              $C$DW$273       .dwtag  DW_TAG_member
    2180                      .dwattr $C$DW$273, DW_AT_type(*$C$DW$T$19)
    2181                      .dwattr $C$DW$273, DW_AT_name("SCI_B")
    2182                      .dwattr $C$DW$273, DW_AT_TI_symbol_name("_SCI_B")
    2183                      .dwattr $C$DW$273, DW_AT_bit_offset(0x0e), DW_AT_bit_size(0x01)
    2184                      .dwattr $C$DW$273, DW_AT_data_member_location[DW_OP_plus_uconst 0x0]
    2185                      .dwattr $C$DW$273, DW_AT_accessibility(DW_ACCESS_public)
TMS320C2000 Assembler PC v6.1.3 Thu Jan 30 10:32:38 2014

Tools Copyright (c) 1996-2012 Texas Instruments Incorporated
C:\Users\a0272466\AppData\Local\Temp\0901610                         PAGE   41

    2186              $C$DW$274       .dwtag  DW_TAG_member
    2187                      .dwattr $C$DW$274, DW_AT_type(*$C$DW$T$19)
    2188                      .dwattr $C$DW$274, DW_AT_name("SCI_C")
    2189                      .dwattr $C$DW$274, DW_AT_TI_symbol_name("_SCI_C")
    2190                      .dwattr $C$DW$274, DW_AT_bit_offset(0x0d), DW_AT_bit_size(0x01)
    2191                      .dwattr $C$DW$274, DW_AT_data_member_location[DW_OP_plus_uconst 0x0]
    2192                      .dwattr $C$DW$274, DW_AT_accessibility(DW_ACCESS_public)
    2193              $C$DW$275       .dwtag  DW_TAG_member
    2194                      .dwattr $C$DW$275, DW_AT_type(*$C$DW$T$19)
    2195                      .dwattr $C$DW$275, DW_AT_name("SCI_D")
    2196                      .dwattr $C$DW$275, DW_AT_TI_symbol_name("_SCI_D")
    2197                      .dwattr $C$DW$275, DW_AT_bit_offset(0x0c), DW_AT_bit_size(0x01)
    2198                      .dwattr $C$DW$275, DW_AT_data_member_location[DW_OP_plus_uconst 0x0]
    2199                      .dwattr $C$DW$275, DW_AT_accessibility(DW_ACCESS_public)
    2200              $C$DW$276       .dwtag  DW_TAG_member
    2201                      .dwattr $C$DW$276, DW_AT_type(*$C$DW$T$19)
    2202                      .dwattr $C$DW$276, DW_AT_name("rsvd1")
    2203                      .dwattr $C$DW$276, DW_AT_TI_symbol_name("_rsvd1")
    2204                      .dwattr $C$DW$276, DW_AT_bit_offset(0x00), DW_AT_bit_size(0x0c)
    2205                      .dwattr $C$DW$276, DW_AT_data_member_location[DW_OP_plus_uconst 0x0]
    2206                      .dwattr $C$DW$276, DW_AT_accessibility(DW_ACCESS_public)
    2207              $C$DW$277       .dwtag  DW_TAG_member
    2208                      .dwattr $C$DW$277, DW_AT_type(*$C$DW$T$19)
    2209                      .dwattr $C$DW$277, DW_AT_name("rsvd2")
    2210                      .dwattr $C$DW$277, DW_AT_TI_symbol_name("_rsvd2")
    2211                      .dwattr $C$DW$277, DW_AT_bit_offset(0x00), DW_AT_bit_size(0x10)
    2212                      .dwattr $C$DW$277, DW_AT_data_member_location[DW_OP_plus_uconst 0x1]
    2213                      .dwattr $C$DW$277, DW_AT_accessibility(DW_ACCESS_public)
    2214                      .dwendtag $C$DW$T$64
    2215              
    2216              
    2217              $C$DW$T$65      .dwtag  DW_TAG_union_type
    2218                      .dwattr $C$DW$T$65, DW_AT_name("PCLKCR7_REG")
    2219                      .dwattr $C$DW$T$65, DW_AT_byte_size(0x02)
    2220              $C$DW$278       .dwtag  DW_TAG_member
    2221                      .dwattr $C$DW$278, DW_AT_type(*$C$DW$T$21)
    2222                      .dwattr $C$DW$278, DW_AT_name("all")
    2223                      .dwattr $C$DW$278, DW_AT_TI_symbol_name("_all")
    2224                      .dwattr $C$DW$278, DW_AT_data_member_location[DW_OP_plus_uconst 0x0]
    2225                      .dwattr $C$DW$278, DW_AT_accessibility(DW_ACCESS_public)
    2226              $C$DW$279       .dwtag  DW_TAG_member
    2227                      .dwattr $C$DW$279, DW_AT_type(*$C$DW$T$64)
    2228                      .dwattr $C$DW$279, DW_AT_name("bit")
    2229                      .dwattr $C$DW$279, DW_AT_TI_symbol_name("_bit")
    2230                      .dwattr $C$DW$279, DW_AT_data_member_location[DW_OP_plus_uconst 0x0]
    2231                      .dwattr $C$DW$279, DW_AT_accessibility(DW_ACCESS_public)
    2232                      .dwendtag $C$DW$T$65
    2233              
    2234              
    2235              $C$DW$T$66      .dwtag  DW_TAG_structure_type
    2236                      .dwattr $C$DW$T$66, DW_AT_name("PCLKCR8_BITS")
    2237                      .dwattr $C$DW$T$66, DW_AT_byte_size(0x02)
    2238              $C$DW$280       .dwtag  DW_TAG_member
    2239                      .dwattr $C$DW$280, DW_AT_type(*$C$DW$T$19)
    2240                      .dwattr $C$DW$280, DW_AT_name("SPI_A")
TMS320C2000 Assembler PC v6.1.3 Thu Jan 30 10:32:38 2014

Tools Copyright (c) 1996-2012 Texas Instruments Incorporated
C:\Users\a0272466\AppData\Local\Temp\0901610                         PAGE   42

    2241                      .dwattr $C$DW$280, DW_AT_TI_symbol_name("_SPI_A")
    2242                      .dwattr $C$DW$280, DW_AT_bit_offset(0x0f), DW_AT_bit_size(0x01)
    2243                      .dwattr $C$DW$280, DW_AT_data_member_location[DW_OP_plus_uconst 0x0]
    2244                      .dwattr $C$DW$280, DW_AT_accessibility(DW_ACCESS_public)
    2245              $C$DW$281       .dwtag  DW_TAG_member
    2246                      .dwattr $C$DW$281, DW_AT_type(*$C$DW$T$19)
    2247                      .dwattr $C$DW$281, DW_AT_name("SPI_B")
    2248                      .dwattr $C$DW$281, DW_AT_TI_symbol_name("_SPI_B")
    2249                      .dwattr $C$DW$281, DW_AT_bit_offset(0x0e), DW_AT_bit_size(0x01)
    2250                      .dwattr $C$DW$281, DW_AT_data_member_location[DW_OP_plus_uconst 0x0]
    2251                      .dwattr $C$DW$281, DW_AT_accessibility(DW_ACCESS_public)
    2252              $C$DW$282       .dwtag  DW_TAG_member
    2253                      .dwattr $C$DW$282, DW_AT_type(*$C$DW$T$19)
    2254                      .dwattr $C$DW$282, DW_AT_name("SPI_C")
    2255                      .dwattr $C$DW$282, DW_AT_TI_symbol_name("_SPI_C")
    2256                      .dwattr $C$DW$282, DW_AT_bit_offset(0x0d), DW_AT_bit_size(0x01)
    2257                      .dwattr $C$DW$282, DW_AT_data_member_location[DW_OP_plus_uconst 0x0]
    2258                      .dwattr $C$DW$282, DW_AT_accessibility(DW_ACCESS_public)
    2259              $C$DW$283       .dwtag  DW_TAG_member
    2260                      .dwattr $C$DW$283, DW_AT_type(*$C$DW$T$19)
    2261                      .dwattr $C$DW$283, DW_AT_name("rsvd1")
    2262                      .dwattr $C$DW$283, DW_AT_TI_symbol_name("_rsvd1")
    2263                      .dwattr $C$DW$283, DW_AT_bit_offset(0x00), DW_AT_bit_size(0x0d)
    2264                      .dwattr $C$DW$283, DW_AT_data_member_location[DW_OP_plus_uconst 0x0]
    2265                      .dwattr $C$DW$283, DW_AT_accessibility(DW_ACCESS_public)
    2266              $C$DW$284       .dwtag  DW_TAG_member
    2267                      .dwattr $C$DW$284, DW_AT_type(*$C$DW$T$19)
    2268                      .dwattr $C$DW$284, DW_AT_name("rsvd2")
    2269                      .dwattr $C$DW$284, DW_AT_TI_symbol_name("_rsvd2")
    2270                      .dwattr $C$DW$284, DW_AT_bit_offset(0x00), DW_AT_bit_size(0x10)
    2271                      .dwattr $C$DW$284, DW_AT_data_member_location[DW_OP_plus_uconst 0x1]
    2272                      .dwattr $C$DW$284, DW_AT_accessibility(DW_ACCESS_public)
    2273                      .dwendtag $C$DW$T$66
    2274              
    2275              
    2276              $C$DW$T$67      .dwtag  DW_TAG_union_type
    2277                      .dwattr $C$DW$T$67, DW_AT_name("PCLKCR8_REG")
    2278                      .dwattr $C$DW$T$67, DW_AT_byte_size(0x02)
    2279              $C$DW$285       .dwtag  DW_TAG_member
    2280                      .dwattr $C$DW$285, DW_AT_type(*$C$DW$T$21)
    2281                      .dwattr $C$DW$285, DW_AT_name("all")
    2282                      .dwattr $C$DW$285, DW_AT_TI_symbol_name("_all")
    2283                      .dwattr $C$DW$285, DW_AT_data_member_location[DW_OP_plus_uconst 0x0]
    2284                      .dwattr $C$DW$285, DW_AT_accessibility(DW_ACCESS_public)
    2285              $C$DW$286       .dwtag  DW_TAG_member
    2286                      .dwattr $C$DW$286, DW_AT_type(*$C$DW$T$66)
    2287                      .dwattr $C$DW$286, DW_AT_name("bit")
    2288                      .dwattr $C$DW$286, DW_AT_TI_symbol_name("_bit")
    2289                      .dwattr $C$DW$286, DW_AT_data_member_location[DW_OP_plus_uconst 0x0]
    2290                      .dwattr $C$DW$286, DW_AT_accessibility(DW_ACCESS_public)
    2291                      .dwendtag $C$DW$T$67
    2292              
    2293              
    2294              $C$DW$T$68      .dwtag  DW_TAG_structure_type
    2295                      .dwattr $C$DW$T$68, DW_AT_name("PCLKCR9_BITS")
TMS320C2000 Assembler PC v6.1.3 Thu Jan 30 10:32:38 2014

Tools Copyright (c) 1996-2012 Texas Instruments Incorporated
C:\Users\a0272466\AppData\Local\Temp\0901610                         PAGE   43

    2296                      .dwattr $C$DW$T$68, DW_AT_byte_size(0x02)
    2297              $C$DW$287       .dwtag  DW_TAG_member
    2298                      .dwattr $C$DW$287, DW_AT_type(*$C$DW$T$19)
    2299                      .dwattr $C$DW$287, DW_AT_name("I2C_A")
    2300                      .dwattr $C$DW$287, DW_AT_TI_symbol_name("_I2C_A")
    2301                      .dwattr $C$DW$287, DW_AT_bit_offset(0x0f), DW_AT_bit_size(0x01)
    2302                      .dwattr $C$DW$287, DW_AT_data_member_location[DW_OP_plus_uconst 0x0]
    2303                      .dwattr $C$DW$287, DW_AT_accessibility(DW_ACCESS_public)
    2304              $C$DW$288       .dwtag  DW_TAG_member
    2305                      .dwattr $C$DW$288, DW_AT_type(*$C$DW$T$19)
    2306                      .dwattr $C$DW$288, DW_AT_name("I2C_B")
    2307                      .dwattr $C$DW$288, DW_AT_TI_symbol_name("_I2C_B")
    2308                      .dwattr $C$DW$288, DW_AT_bit_offset(0x0e), DW_AT_bit_size(0x01)
    2309                      .dwattr $C$DW$288, DW_AT_data_member_location[DW_OP_plus_uconst 0x0]
    2310                      .dwattr $C$DW$288, DW_AT_accessibility(DW_ACCESS_public)
    2311              $C$DW$289       .dwtag  DW_TAG_member
    2312                      .dwattr $C$DW$289, DW_AT_type(*$C$DW$T$19)
    2313                      .dwattr $C$DW$289, DW_AT_name("rsvd1")
    2314                      .dwattr $C$DW$289, DW_AT_TI_symbol_name("_rsvd1")
    2315                      .dwattr $C$DW$289, DW_AT_bit_offset(0x00), DW_AT_bit_size(0x0e)
    2316                      .dwattr $C$DW$289, DW_AT_data_member_location[DW_OP_plus_uconst 0x0]
    2317                      .dwattr $C$DW$289, DW_AT_accessibility(DW_ACCESS_public)
    2318              $C$DW$290       .dwtag  DW_TAG_member
    2319                      .dwattr $C$DW$290, DW_AT_type(*$C$DW$T$19)
    2320                      .dwattr $C$DW$290, DW_AT_name("rsvd2")
    2321                      .dwattr $C$DW$290, DW_AT_TI_symbol_name("_rsvd2")
    2322                      .dwattr $C$DW$290, DW_AT_bit_offset(0x00), DW_AT_bit_size(0x10)
    2323                      .dwattr $C$DW$290, DW_AT_data_member_location[DW_OP_plus_uconst 0x1]
    2324                      .dwattr $C$DW$290, DW_AT_accessibility(DW_ACCESS_public)
    2325                      .dwendtag $C$DW$T$68
    2326              
    2327              
    2328              $C$DW$T$69      .dwtag  DW_TAG_union_type
    2329                      .dwattr $C$DW$T$69, DW_AT_name("PCLKCR9_REG")
    2330                      .dwattr $C$DW$T$69, DW_AT_byte_size(0x02)
    2331              $C$DW$291       .dwtag  DW_TAG_member
    2332                      .dwattr $C$DW$291, DW_AT_type(*$C$DW$T$21)
    2333                      .dwattr $C$DW$291, DW_AT_name("all")
    2334                      .dwattr $C$DW$291, DW_AT_TI_symbol_name("_all")
    2335                      .dwattr $C$DW$291, DW_AT_data_member_location[DW_OP_plus_uconst 0x0]
    2336                      .dwattr $C$DW$291, DW_AT_accessibility(DW_ACCESS_public)
    2337              $C$DW$292       .dwtag  DW_TAG_member
    2338                      .dwattr $C$DW$292, DW_AT_type(*$C$DW$T$68)
    2339                      .dwattr $C$DW$292, DW_AT_name("bit")
    2340                      .dwattr $C$DW$292, DW_AT_TI_symbol_name("_bit")
    2341                      .dwattr $C$DW$292, DW_AT_data_member_location[DW_OP_plus_uconst 0x0]
    2342                      .dwattr $C$DW$292, DW_AT_accessibility(DW_ACCESS_public)
    2343                      .dwendtag $C$DW$T$69
    2344              
    2345              
    2346              $C$DW$T$70      .dwtag  DW_TAG_structure_type
    2347                      .dwattr $C$DW$T$70, DW_AT_name("PIEVERRADDR_BITS")
    2348                      .dwattr $C$DW$T$70, DW_AT_byte_size(0x02)
    2349              $C$DW$293       .dwtag  DW_TAG_member
    2350                      .dwattr $C$DW$293, DW_AT_type(*$C$DW$T$21)
TMS320C2000 Assembler PC v6.1.3 Thu Jan 30 10:32:38 2014

Tools Copyright (c) 1996-2012 Texas Instruments Incorporated
C:\Users\a0272466\AppData\Local\Temp\0901610                         PAGE   44

    2351                      .dwattr $C$DW$293, DW_AT_name("ADDR")
    2352                      .dwattr $C$DW$293, DW_AT_TI_symbol_name("_ADDR")
    2353                      .dwattr $C$DW$293, DW_AT_bit_offset(0x0a), DW_AT_bit_size(0x16)
    2354                      .dwattr $C$DW$293, DW_AT_data_member_location[DW_OP_plus_uconst 0x0]
    2355                      .dwattr $C$DW$293, DW_AT_accessibility(DW_ACCESS_public)
    2356              $C$DW$294       .dwtag  DW_TAG_member
    2357                      .dwattr $C$DW$294, DW_AT_type(*$C$DW$T$19)
    2358                      .dwattr $C$DW$294, DW_AT_name("rsvd1")
    2359                      .dwattr $C$DW$294, DW_AT_TI_symbol_name("_rsvd1")
    2360                      .dwattr $C$DW$294, DW_AT_bit_offset(0x00), DW_AT_bit_size(0x0a)
    2361                      .dwattr $C$DW$294, DW_AT_data_member_location[DW_OP_plus_uconst 0x1]
    2362                      .dwattr $C$DW$294, DW_AT_accessibility(DW_ACCESS_public)
    2363                      .dwendtag $C$DW$T$70
    2364              
    2365              
    2366              $C$DW$T$71      .dwtag  DW_TAG_union_type
    2367                      .dwattr $C$DW$T$71, DW_AT_name("PIEVERRADDR_REG")
    2368                      .dwattr $C$DW$T$71, DW_AT_byte_size(0x02)
    2369              $C$DW$295       .dwtag  DW_TAG_member
    2370                      .dwattr $C$DW$295, DW_AT_type(*$C$DW$T$21)
    2371                      .dwattr $C$DW$295, DW_AT_name("all")
    2372                      .dwattr $C$DW$295, DW_AT_TI_symbol_name("_all")
    2373                      .dwattr $C$DW$295, DW_AT_data_member_location[DW_OP_plus_uconst 0x0]
    2374                      .dwattr $C$DW$295, DW_AT_accessibility(DW_ACCESS_public)
    2375              $C$DW$296       .dwtag  DW_TAG_member
    2376                      .dwattr $C$DW$296, DW_AT_type(*$C$DW$T$70)
    2377                      .dwattr $C$DW$296, DW_AT_name("bit")
    2378                      .dwattr $C$DW$296, DW_AT_TI_symbol_name("_bit")
    2379                      .dwattr $C$DW$296, DW_AT_data_member_location[DW_OP_plus_uconst 0x0]
    2380                      .dwattr $C$DW$296, DW_AT_accessibility(DW_ACCESS_public)
    2381                      .dwendtag $C$DW$T$71
    2382              
    2383              
    2384              $C$DW$T$72      .dwtag  DW_TAG_structure_type
    2385                      .dwattr $C$DW$T$72, DW_AT_name("RESC_BITS")
    2386                      .dwattr $C$DW$T$72, DW_AT_byte_size(0x02)
    2387              $C$DW$297       .dwtag  DW_TAG_member
    2388                      .dwattr $C$DW$297, DW_AT_type(*$C$DW$T$19)
    2389                      .dwattr $C$DW$297, DW_AT_name("POR")
    2390                      .dwattr $C$DW$297, DW_AT_TI_symbol_name("_POR")
    2391                      .dwattr $C$DW$297, DW_AT_bit_offset(0x0f), DW_AT_bit_size(0x01)
    2392                      .dwattr $C$DW$297, DW_AT_data_member_location[DW_OP_plus_uconst 0x0]
    2393                      .dwattr $C$DW$297, DW_AT_accessibility(DW_ACCESS_public)
    2394              $C$DW$298       .dwtag  DW_TAG_member
    2395                      .dwattr $C$DW$298, DW_AT_type(*$C$DW$T$19)
    2396                      .dwattr $C$DW$298, DW_AT_name("XRSn")
    2397                      .dwattr $C$DW$298, DW_AT_TI_symbol_name("_XRSn")
    2398                      .dwattr $C$DW$298, DW_AT_bit_offset(0x0e), DW_AT_bit_size(0x01)
    2399                      .dwattr $C$DW$298, DW_AT_data_member_location[DW_OP_plus_uconst 0x0]
    2400                      .dwattr $C$DW$298, DW_AT_accessibility(DW_ACCESS_public)
    2401              $C$DW$299       .dwtag  DW_TAG_member
    2402                      .dwattr $C$DW$299, DW_AT_type(*$C$DW$T$19)
    2403                      .dwattr $C$DW$299, DW_AT_name("WDRSn")
    2404                      .dwattr $C$DW$299, DW_AT_TI_symbol_name("_WDRSn")
    2405                      .dwattr $C$DW$299, DW_AT_bit_offset(0x0d), DW_AT_bit_size(0x01)
TMS320C2000 Assembler PC v6.1.3 Thu Jan 30 10:32:38 2014

Tools Copyright (c) 1996-2012 Texas Instruments Incorporated
C:\Users\a0272466\AppData\Local\Temp\0901610                         PAGE   45

    2406                      .dwattr $C$DW$299, DW_AT_data_member_location[DW_OP_plus_uconst 0x0]
    2407                      .dwattr $C$DW$299, DW_AT_accessibility(DW_ACCESS_public)
    2408              $C$DW$300       .dwtag  DW_TAG_member
    2409                      .dwattr $C$DW$300, DW_AT_type(*$C$DW$T$19)
    2410                      .dwattr $C$DW$300, DW_AT_name("NMIWDRSn")
    2411                      .dwattr $C$DW$300, DW_AT_TI_symbol_name("_NMIWDRSn")
    2412                      .dwattr $C$DW$300, DW_AT_bit_offset(0x0c), DW_AT_bit_size(0x01)
    2413                      .dwattr $C$DW$300, DW_AT_data_member_location[DW_OP_plus_uconst 0x0]
    2414                      .dwattr $C$DW$300, DW_AT_accessibility(DW_ACCESS_public)
    2415              $C$DW$301       .dwtag  DW_TAG_member
    2416                      .dwattr $C$DW$301, DW_AT_type(*$C$DW$T$19)
    2417                      .dwattr $C$DW$301, DW_AT_name("rsvd1")
    2418                      .dwattr $C$DW$301, DW_AT_TI_symbol_name("_rsvd1")
    2419                      .dwattr $C$DW$301, DW_AT_bit_offset(0x0b), DW_AT_bit_size(0x01)
    2420                      .dwattr $C$DW$301, DW_AT_data_member_location[DW_OP_plus_uconst 0x0]
    2421                      .dwattr $C$DW$301, DW_AT_accessibility(DW_ACCESS_public)
    2422              $C$DW$302       .dwtag  DW_TAG_member
    2423                      .dwattr $C$DW$302, DW_AT_type(*$C$DW$T$19)
    2424                      .dwattr $C$DW$302, DW_AT_name("HWBISTn")
    2425                      .dwattr $C$DW$302, DW_AT_TI_symbol_name("_HWBISTn")
    2426                      .dwattr $C$DW$302, DW_AT_bit_offset(0x0a), DW_AT_bit_size(0x01)
    2427                      .dwattr $C$DW$302, DW_AT_data_member_location[DW_OP_plus_uconst 0x0]
    2428                      .dwattr $C$DW$302, DW_AT_accessibility(DW_ACCESS_public)
    2429              $C$DW$303       .dwtag  DW_TAG_member
    2430                      .dwattr $C$DW$303, DW_AT_type(*$C$DW$T$19)
    2431                      .dwattr $C$DW$303, DW_AT_name("HIBRESETn")
    2432                      .dwattr $C$DW$303, DW_AT_TI_symbol_name("_HIBRESETn")
    2433                      .dwattr $C$DW$303, DW_AT_bit_offset(0x09), DW_AT_bit_size(0x01)
    2434                      .dwattr $C$DW$303, DW_AT_data_member_location[DW_OP_plus_uconst 0x0]
    2435                      .dwattr $C$DW$303, DW_AT_accessibility(DW_ACCESS_public)
    2436              $C$DW$304       .dwtag  DW_TAG_member
    2437                      .dwattr $C$DW$304, DW_AT_type(*$C$DW$T$19)
    2438                      .dwattr $C$DW$304, DW_AT_name("rsvd2")
    2439                      .dwattr $C$DW$304, DW_AT_TI_symbol_name("_rsvd2")
    2440                      .dwattr $C$DW$304, DW_AT_bit_offset(0x08), DW_AT_bit_size(0x01)
    2441                      .dwattr $C$DW$304, DW_AT_data_member_location[DW_OP_plus_uconst 0x0]
    2442                      .dwattr $C$DW$304, DW_AT_accessibility(DW_ACCESS_public)
    2443              $C$DW$305       .dwtag  DW_TAG_member
    2444                      .dwattr $C$DW$305, DW_AT_type(*$C$DW$T$19)
    2445                      .dwattr $C$DW$305, DW_AT_name("SCCRESETn")
    2446                      .dwattr $C$DW$305, DW_AT_TI_symbol_name("_SCCRESETn")
    2447                      .dwattr $C$DW$305, DW_AT_bit_offset(0x07), DW_AT_bit_size(0x01)
    2448                      .dwattr $C$DW$305, DW_AT_data_member_location[DW_OP_plus_uconst 0x0]
    2449                      .dwattr $C$DW$305, DW_AT_accessibility(DW_ACCESS_public)
    2450              $C$DW$306       .dwtag  DW_TAG_member
    2451                      .dwattr $C$DW$306, DW_AT_type(*$C$DW$T$19)
    2452                      .dwattr $C$DW$306, DW_AT_name("rsvd3")
    2453                      .dwattr $C$DW$306, DW_AT_TI_symbol_name("_rsvd3")
    2454                      .dwattr $C$DW$306, DW_AT_bit_offset(0x00), DW_AT_bit_size(0x07)
    2455                      .dwattr $C$DW$306, DW_AT_data_member_location[DW_OP_plus_uconst 0x0]
    2456                      .dwattr $C$DW$306, DW_AT_accessibility(DW_ACCESS_public)
    2457              $C$DW$307       .dwtag  DW_TAG_member
    2458                      .dwattr $C$DW$307, DW_AT_type(*$C$DW$T$19)
    2459                      .dwattr $C$DW$307, DW_AT_name("rsvd4")
    2460                      .dwattr $C$DW$307, DW_AT_TI_symbol_name("_rsvd4")
TMS320C2000 Assembler PC v6.1.3 Thu Jan 30 10:32:38 2014

Tools Copyright (c) 1996-2012 Texas Instruments Incorporated
C:\Users\a0272466\AppData\Local\Temp\0901610                         PAGE   46

    2461                      .dwattr $C$DW$307, DW_AT_bit_offset(0x02), DW_AT_bit_size(0x0e)
    2462                      .dwattr $C$DW$307, DW_AT_data_member_location[DW_OP_plus_uconst 0x1]
    2463                      .dwattr $C$DW$307, DW_AT_accessibility(DW_ACCESS_public)
    2464              $C$DW$308       .dwtag  DW_TAG_member
    2465                      .dwattr $C$DW$308, DW_AT_type(*$C$DW$T$19)
    2466                      .dwattr $C$DW$308, DW_AT_name("XRSn_pin_status")
    2467                      .dwattr $C$DW$308, DW_AT_TI_symbol_name("_XRSn_pin_status")
    2468                      .dwattr $C$DW$308, DW_AT_bit_offset(0x01), DW_AT_bit_size(0x01)
    2469                      .dwattr $C$DW$308, DW_AT_data_member_location[DW_OP_plus_uconst 0x1]
    2470                      .dwattr $C$DW$308, DW_AT_accessibility(DW_ACCESS_public)
    2471              $C$DW$309       .dwtag  DW_TAG_member
    2472                      .dwattr $C$DW$309, DW_AT_type(*$C$DW$T$19)
    2473                      .dwattr $C$DW$309, DW_AT_name("TRSTn_pin_status")
    2474                      .dwattr $C$DW$309, DW_AT_TI_symbol_name("_TRSTn_pin_status")
    2475                      .dwattr $C$DW$309, DW_AT_bit_offset(0x00), DW_AT_bit_size(0x01)
    2476                      .dwattr $C$DW$309, DW_AT_data_member_location[DW_OP_plus_uconst 0x1]
    2477                      .dwattr $C$DW$309, DW_AT_accessibility(DW_ACCESS_public)
    2478                      .dwendtag $C$DW$T$72
    2479              
    2480              
    2481              $C$DW$T$73      .dwtag  DW_TAG_union_type
    2482                      .dwattr $C$DW$T$73, DW_AT_name("RESC_REG")
    2483                      .dwattr $C$DW$T$73, DW_AT_byte_size(0x02)
    2484              $C$DW$310       .dwtag  DW_TAG_member
    2485                      .dwattr $C$DW$310, DW_AT_type(*$C$DW$T$21)
    2486                      .dwattr $C$DW$310, DW_AT_name("all")
    2487                      .dwattr $C$DW$310, DW_AT_TI_symbol_name("_all")
    2488                      .dwattr $C$DW$310, DW_AT_data_member_location[DW_OP_plus_uconst 0x0]
    2489                      .dwattr $C$DW$310, DW_AT_accessibility(DW_ACCESS_public)
    2490              $C$DW$311       .dwtag  DW_TAG_member
    2491                      .dwattr $C$DW$311, DW_AT_type(*$C$DW$T$72)
    2492                      .dwattr $C$DW$311, DW_AT_name("bit")
    2493                      .dwattr $C$DW$311, DW_AT_TI_symbol_name("_bit")
    2494                      .dwattr $C$DW$311, DW_AT_data_member_location[DW_OP_plus_uconst 0x0]
    2495                      .dwattr $C$DW$311, DW_AT_accessibility(DW_ACCESS_public)
    2496                      .dwendtag $C$DW$T$73
    2497              
    2498              
    2499              $C$DW$T$74      .dwtag  DW_TAG_structure_type
    2500                      .dwattr $C$DW$T$74, DW_AT_name("SECMSEL_BITS")
    2501                      .dwattr $C$DW$T$74, DW_AT_byte_size(0x02)
    2502              $C$DW$312       .dwtag  DW_TAG_member
    2503                      .dwattr $C$DW$312, DW_AT_type(*$C$DW$T$19)
    2504                      .dwattr $C$DW$312, DW_AT_name("VBUS32_1")
    2505                      .dwattr $C$DW$312, DW_AT_TI_symbol_name("_VBUS32_1")
    2506                      .dwattr $C$DW$312, DW_AT_bit_offset(0x0e), DW_AT_bit_size(0x02)
    2507                      .dwattr $C$DW$312, DW_AT_data_member_location[DW_OP_plus_uconst 0x0]
    2508                      .dwattr $C$DW$312, DW_AT_accessibility(DW_ACCESS_public)
    2509              $C$DW$313       .dwtag  DW_TAG_member
    2510                      .dwattr $C$DW$313, DW_AT_type(*$C$DW$T$19)
    2511                      .dwattr $C$DW$313, DW_AT_name("VBUS32_2")
    2512                      .dwattr $C$DW$313, DW_AT_TI_symbol_name("_VBUS32_2")
    2513                      .dwattr $C$DW$313, DW_AT_bit_offset(0x0c), DW_AT_bit_size(0x02)
    2514                      .dwattr $C$DW$313, DW_AT_data_member_location[DW_OP_plus_uconst 0x0]
    2515                      .dwattr $C$DW$313, DW_AT_accessibility(DW_ACCESS_public)
TMS320C2000 Assembler PC v6.1.3 Thu Jan 30 10:32:38 2014

Tools Copyright (c) 1996-2012 Texas Instruments Incorporated
C:\Users\a0272466\AppData\Local\Temp\0901610                         PAGE   47

    2516              $C$DW$314       .dwtag  DW_TAG_member
    2517                      .dwattr $C$DW$314, DW_AT_type(*$C$DW$T$19)
    2518                      .dwattr $C$DW$314, DW_AT_name("rsvd1")
    2519                      .dwattr $C$DW$314, DW_AT_TI_symbol_name("_rsvd1")
    2520                      .dwattr $C$DW$314, DW_AT_bit_offset(0x00), DW_AT_bit_size(0x0c)
    2521                      .dwattr $C$DW$314, DW_AT_data_member_location[DW_OP_plus_uconst 0x0]
    2522                      .dwattr $C$DW$314, DW_AT_accessibility(DW_ACCESS_public)
    2523              $C$DW$315       .dwtag  DW_TAG_member
    2524                      .dwattr $C$DW$315, DW_AT_type(*$C$DW$T$19)
    2525                      .dwattr $C$DW$315, DW_AT_name("rsvd2")
    2526                      .dwattr $C$DW$315, DW_AT_TI_symbol_name("_rsvd2")
    2527                      .dwattr $C$DW$315, DW_AT_bit_offset(0x00), DW_AT_bit_size(0x10)
    2528                      .dwattr $C$DW$315, DW_AT_data_member_location[DW_OP_plus_uconst 0x1]
    2529                      .dwattr $C$DW$315, DW_AT_accessibility(DW_ACCESS_public)
    2530                      .dwendtag $C$DW$T$74
    2531              
    2532              
    2533              $C$DW$T$75      .dwtag  DW_TAG_union_type
    2534                      .dwattr $C$DW$T$75, DW_AT_name("SECMSEL_REG")
    2535                      .dwattr $C$DW$T$75, DW_AT_byte_size(0x02)
    2536              $C$DW$316       .dwtag  DW_TAG_member
    2537                      .dwattr $C$DW$316, DW_AT_type(*$C$DW$T$21)
    2538                      .dwattr $C$DW$316, DW_AT_name("all")
    2539                      .dwattr $C$DW$316, DW_AT_TI_symbol_name("_all")
    2540                      .dwattr $C$DW$316, DW_AT_data_member_location[DW_OP_plus_uconst 0x0]
    2541                      .dwattr $C$DW$316, DW_AT_accessibility(DW_ACCESS_public)
    2542              $C$DW$317       .dwtag  DW_TAG_member
    2543                      .dwattr $C$DW$317, DW_AT_type(*$C$DW$T$74)
    2544                      .dwattr $C$DW$317, DW_AT_name("bit")
    2545                      .dwattr $C$DW$317, DW_AT_TI_symbol_name("_bit")
    2546                      .dwattr $C$DW$317, DW_AT_data_member_location[DW_OP_plus_uconst 0x0]
    2547                      .dwattr $C$DW$317, DW_AT_accessibility(DW_ACCESS_public)
    2548                      .dwendtag $C$DW$T$75
    2549              
    2550              
    2551              $C$DW$T$76      .dwtag  DW_TAG_structure_type
    2552                      .dwattr $C$DW$T$76, DW_AT_name("TMR2CLKCTL_BITS")
    2553                      .dwattr $C$DW$T$76, DW_AT_byte_size(0x02)
    2554              $C$DW$318       .dwtag  DW_TAG_member
    2555                      .dwattr $C$DW$318, DW_AT_type(*$C$DW$T$19)
    2556                      .dwattr $C$DW$318, DW_AT_name("TMR2CLKSRCSEL")
    2557                      .dwattr $C$DW$318, DW_AT_TI_symbol_name("_TMR2CLKSRCSEL")
    2558                      .dwattr $C$DW$318, DW_AT_bit_offset(0x0d), DW_AT_bit_size(0x03)
    2559                      .dwattr $C$DW$318, DW_AT_data_member_location[DW_OP_plus_uconst 0x0]
    2560                      .dwattr $C$DW$318, DW_AT_accessibility(DW_ACCESS_public)
    2561              $C$DW$319       .dwtag  DW_TAG_member
    2562                      .dwattr $C$DW$319, DW_AT_type(*$C$DW$T$19)
    2563                      .dwattr $C$DW$319, DW_AT_name("TMR2CLKPRESCALE")
    2564                      .dwattr $C$DW$319, DW_AT_TI_symbol_name("_TMR2CLKPRESCALE")
    2565                      .dwattr $C$DW$319, DW_AT_bit_offset(0x0a), DW_AT_bit_size(0x03)
    2566                      .dwattr $C$DW$319, DW_AT_data_member_location[DW_OP_plus_uconst 0x0]
    2567                      .dwattr $C$DW$319, DW_AT_accessibility(DW_ACCESS_public)
    2568              $C$DW$320       .dwtag  DW_TAG_member
    2569                      .dwattr $C$DW$320, DW_AT_type(*$C$DW$T$19)
    2570                      .dwattr $C$DW$320, DW_AT_name("rsvd1")
TMS320C2000 Assembler PC v6.1.3 Thu Jan 30 10:32:38 2014

Tools Copyright (c) 1996-2012 Texas Instruments Incorporated
C:\Users\a0272466\AppData\Local\Temp\0901610                         PAGE   48

    2571                      .dwattr $C$DW$320, DW_AT_TI_symbol_name("_rsvd1")
    2572                      .dwattr $C$DW$320, DW_AT_bit_offset(0x00), DW_AT_bit_size(0x0a)
    2573                      .dwattr $C$DW$320, DW_AT_data_member_location[DW_OP_plus_uconst 0x0]
    2574                      .dwattr $C$DW$320, DW_AT_accessibility(DW_ACCESS_public)
    2575              $C$DW$321       .dwtag  DW_TAG_member
    2576                      .dwattr $C$DW$321, DW_AT_type(*$C$DW$T$19)
    2577                      .dwattr $C$DW$321, DW_AT_name("rsvd2")
    2578                      .dwattr $C$DW$321, DW_AT_TI_symbol_name("_rsvd2")
    2579                      .dwattr $C$DW$321, DW_AT_bit_offset(0x00), DW_AT_bit_size(0x10)
    2580                      .dwattr $C$DW$321, DW_AT_data_member_location[DW_OP_plus_uconst 0x1]
    2581                      .dwattr $C$DW$321, DW_AT_accessibility(DW_ACCESS_public)
    2582                      .dwendtag $C$DW$T$76
    2583              
    2584              
    2585              $C$DW$T$77      .dwtag  DW_TAG_union_type
    2586                      .dwattr $C$DW$T$77, DW_AT_name("TMR2CLKCTL_REG")
    2587                      .dwattr $C$DW$T$77, DW_AT_byte_size(0x02)
    2588              $C$DW$322       .dwtag  DW_TAG_member
    2589                      .dwattr $C$DW$322, DW_AT_type(*$C$DW$T$21)
    2590                      .dwattr $C$DW$322, DW_AT_name("all")
    2591                      .dwattr $C$DW$322, DW_AT_TI_symbol_name("_all")
    2592                      .dwattr $C$DW$322, DW_AT_data_member_location[DW_OP_plus_uconst 0x0]
    2593                      .dwattr $C$DW$322, DW_AT_accessibility(DW_ACCESS_public)
    2594              $C$DW$323       .dwtag  DW_TAG_member
    2595                      .dwattr $C$DW$323, DW_AT_type(*$C$DW$T$76)
    2596                      .dwattr $C$DW$323, DW_AT_name("bit")
    2597                      .dwattr $C$DW$323, DW_AT_TI_symbol_name("_bit")
    2598                      .dwattr $C$DW$323, DW_AT_data_member_location[DW_OP_plus_uconst 0x0]
    2599                      .dwattr $C$DW$323, DW_AT_accessibility(DW_ACCESS_public)
    2600                      .dwendtag $C$DW$T$77
    2601              
    2602              $C$DW$T$4       .dwtag  DW_TAG_base_type
    2603                      .dwattr $C$DW$T$4, DW_AT_encoding(DW_ATE_boolean)
    2604                      .dwattr $C$DW$T$4, DW_AT_name("bool")
    2605                      .dwattr $C$DW$T$4, DW_AT_byte_size(0x01)
    2606              $C$DW$T$5       .dwtag  DW_TAG_base_type
    2607                      .dwattr $C$DW$T$5, DW_AT_encoding(DW_ATE_signed_char)
    2608                      .dwattr $C$DW$T$5, DW_AT_name("signed char")
    2609                      .dwattr $C$DW$T$5, DW_AT_byte_size(0x01)
    2610              $C$DW$T$6       .dwtag  DW_TAG_base_type
    2611                      .dwattr $C$DW$T$6, DW_AT_encoding(DW_ATE_unsigned_char)
    2612                      .dwattr $C$DW$T$6, DW_AT_name("unsigned char")
    2613                      .dwattr $C$DW$T$6, DW_AT_byte_size(0x01)
    2614              $C$DW$T$7       .dwtag  DW_TAG_base_type
    2615                      .dwattr $C$DW$T$7, DW_AT_encoding(DW_ATE_signed_char)
    2616                      .dwattr $C$DW$T$7, DW_AT_name("wchar_t")
    2617                      .dwattr $C$DW$T$7, DW_AT_byte_size(0x01)
    2618              $C$DW$T$8       .dwtag  DW_TAG_base_type
    2619                      .dwattr $C$DW$T$8, DW_AT_encoding(DW_ATE_signed)
    2620                      .dwattr $C$DW$T$8, DW_AT_name("short")
    2621                      .dwattr $C$DW$T$8, DW_AT_byte_size(0x01)
    2622              $C$DW$T$9       .dwtag  DW_TAG_base_type
    2623                      .dwattr $C$DW$T$9, DW_AT_encoding(DW_ATE_unsigned)
    2624                      .dwattr $C$DW$T$9, DW_AT_name("unsigned short")
    2625                      .dwattr $C$DW$T$9, DW_AT_byte_size(0x01)
TMS320C2000 Assembler PC v6.1.3 Thu Jan 30 10:32:38 2014

Tools Copyright (c) 1996-2012 Texas Instruments Incorporated
C:\Users\a0272466\AppData\Local\Temp\0901610                         PAGE   49

    2626              $C$DW$T$81      .dwtag  DW_TAG_typedef, DW_AT_name("uint16_t")
    2627                      .dwattr $C$DW$T$81, DW_AT_type(*$C$DW$T$9)
    2628                      .dwattr $C$DW$T$81, DW_AT_language(DW_LANG_C)
    2629              $C$DW$T$10      .dwtag  DW_TAG_base_type
    2630                      .dwattr $C$DW$T$10, DW_AT_encoding(DW_ATE_signed)
    2631                      .dwattr $C$DW$T$10, DW_AT_name("int")
    2632                      .dwattr $C$DW$T$10, DW_AT_byte_size(0x01)
    2633              $C$DW$T$11      .dwtag  DW_TAG_base_type
    2634                      .dwattr $C$DW$T$11, DW_AT_encoding(DW_ATE_unsigned)
    2635                      .dwattr $C$DW$T$11, DW_AT_name("unsigned int")
    2636                      .dwattr $C$DW$T$11, DW_AT_byte_size(0x01)
    2637              $C$DW$T$19      .dwtag  DW_TAG_typedef, DW_AT_name("Uint16")
    2638                      .dwattr $C$DW$T$19, DW_AT_type(*$C$DW$T$11)
    2639                      .dwattr $C$DW$T$19, DW_AT_language(DW_LANG_C)
    2640              
    2641              $C$DW$T$25      .dwtag  DW_TAG_array_type
    2642                      .dwattr $C$DW$T$25, DW_AT_type(*$C$DW$T$19)
    2643                      .dwattr $C$DW$T$25, DW_AT_language(DW_LANG_C)
    2644                      .dwattr $C$DW$T$25, DW_AT_byte_size(0x04)
    2645              $C$DW$324       .dwtag  DW_TAG_subrange_type
    2646                      .dwattr $C$DW$324, DW_AT_upper_bound(0x03)
    2647                      .dwendtag $C$DW$T$25
    2648              
    2649              
    2650              $C$DW$T$26      .dwtag  DW_TAG_array_type
    2651                      .dwattr $C$DW$T$26, DW_AT_type(*$C$DW$T$19)
    2652                      .dwattr $C$DW$T$26, DW_AT_language(DW_LANG_C)
    2653                      .dwattr $C$DW$T$26, DW_AT_byte_size(0x16)
    2654              $C$DW$325       .dwtag  DW_TAG_subrange_type
    2655                      .dwattr $C$DW$325, DW_AT_upper_bound(0x15)
    2656                      .dwendtag $C$DW$T$26
    2657              
    2658              
    2659              $C$DW$T$27      .dwtag  DW_TAG_array_type
    2660                      .dwattr $C$DW$T$27, DW_AT_type(*$C$DW$T$19)
    2661                      .dwattr $C$DW$T$27, DW_AT_language(DW_LANG_C)
    2662                      .dwattr $C$DW$T$27, DW_AT_byte_size(0x02)
    2663              $C$DW$326       .dwtag  DW_TAG_subrange_type
    2664                      .dwattr $C$DW$326, DW_AT_upper_bound(0x01)
    2665                      .dwendtag $C$DW$T$27
    2666              
    2667              
    2668              $C$DW$T$28      .dwtag  DW_TAG_array_type
    2669                      .dwattr $C$DW$T$28, DW_AT_type(*$C$DW$T$19)
    2670                      .dwattr $C$DW$T$28, DW_AT_language(DW_LANG_C)
    2671                      .dwattr $C$DW$T$28, DW_AT_byte_size(0x2e)
    2672              $C$DW$327       .dwtag  DW_TAG_subrange_type
    2673                      .dwattr $C$DW$327, DW_AT_upper_bound(0x2d)
    2674                      .dwendtag $C$DW$T$28
    2675              
    2676              $C$DW$T$12      .dwtag  DW_TAG_base_type
    2677                      .dwattr $C$DW$T$12, DW_AT_encoding(DW_ATE_signed)
    2678                      .dwattr $C$DW$T$12, DW_AT_name("long")
    2679                      .dwattr $C$DW$T$12, DW_AT_byte_size(0x02)
    2680              $C$DW$T$13      .dwtag  DW_TAG_base_type
TMS320C2000 Assembler PC v6.1.3 Thu Jan 30 10:32:38 2014

Tools Copyright (c) 1996-2012 Texas Instruments Incorporated
C:\Users\a0272466\AppData\Local\Temp\0901610                         PAGE   50

    2681                      .dwattr $C$DW$T$13, DW_AT_encoding(DW_ATE_unsigned)
    2682                      .dwattr $C$DW$T$13, DW_AT_name("unsigned long")
    2683                      .dwattr $C$DW$T$13, DW_AT_byte_size(0x02)
    2684              $C$DW$T$21      .dwtag  DW_TAG_typedef, DW_AT_name("Uint32")
    2685                      .dwattr $C$DW$T$21, DW_AT_type(*$C$DW$T$13)
    2686                      .dwattr $C$DW$T$21, DW_AT_language(DW_LANG_C)
    2687              $C$DW$T$14      .dwtag  DW_TAG_base_type
    2688                      .dwattr $C$DW$T$14, DW_AT_encoding(DW_ATE_signed)
    2689                      .dwattr $C$DW$T$14, DW_AT_name("long long")
    2690                      .dwattr $C$DW$T$14, DW_AT_byte_size(0x04)
    2691              $C$DW$T$15      .dwtag  DW_TAG_base_type
    2692                      .dwattr $C$DW$T$15, DW_AT_encoding(DW_ATE_unsigned)
    2693                      .dwattr $C$DW$T$15, DW_AT_name("unsigned long long")
    2694                      .dwattr $C$DW$T$15, DW_AT_byte_size(0x04)
    2695              $C$DW$T$16      .dwtag  DW_TAG_base_type
    2696                      .dwattr $C$DW$T$16, DW_AT_encoding(DW_ATE_float)
    2697                      .dwattr $C$DW$T$16, DW_AT_name("float")
    2698                      .dwattr $C$DW$T$16, DW_AT_byte_size(0x02)
    2699              $C$DW$T$17      .dwtag  DW_TAG_base_type
    2700                      .dwattr $C$DW$T$17, DW_AT_encoding(DW_ATE_float)
    2701                      .dwattr $C$DW$T$17, DW_AT_name("double")
    2702                      .dwattr $C$DW$T$17, DW_AT_byte_size(0x02)
    2703              $C$DW$T$18      .dwtag  DW_TAG_base_type
    2704                      .dwattr $C$DW$T$18, DW_AT_encoding(DW_ATE_float)
    2705                      .dwattr $C$DW$T$18, DW_AT_name("long double")
    2706                      .dwattr $C$DW$T$18, DW_AT_byte_size(0x04)
    2707                      .dwattr $C$DW$CU, DW_AT_language(DW_LANG_C)
    2708              
    2709              ;***************************************************************
    2710              ;* DWARF CIE ENTRIES                                           *
    2711              ;***************************************************************
    2712              
    2713              $C$DW$CIE       .dwcie 78
    2714                      .dwcfi  cfa_register, 20
    2715                      .dwcfi  cfa_offset, 0
    2716                      .dwcfi  undefined, 0
    2717                      .dwcfi  undefined, 1
    2718                      .dwcfi  undefined, 2
    2719                      .dwcfi  undefined, 3
    2720                      .dwcfi  undefined, 22
    2721                      .dwcfi  undefined, 37
    2722                      .dwcfi  undefined, 36
    2723                      .dwcfi  undefined, 23
    2724                      .dwcfi  undefined, 30
    2725                      .dwcfi  undefined, 31
    2726                      .dwcfi  undefined, 32
    2727                      .dwcfi  undefined, 38
    2728                      .dwcfi  undefined, 75
    2729                      .dwcfi  undefined, 24
    2730                      .dwcfi  undefined, 33
    2731                      .dwcfi  undefined, 35
    2732                      .dwcfi  undefined, 34
    2733                      .dwcfi  undefined, 76
    2734                      .dwcfi  undefined, 21
    2735                      .dwcfi  undefined, 20
TMS320C2000 Assembler PC v6.1.3 Thu Jan 30 10:32:38 2014

Tools Copyright (c) 1996-2012 Texas Instruments Incorporated
C:\Users\a0272466\AppData\Local\Temp\0901610                         PAGE   51

    2736                      .dwcfi  same_value, 28
    2737                      .dwcfi  undefined, 29
    2738                      .dwcfi  undefined, 25
    2739                      .dwcfi  undefined, 77
    2740                      .dwcfi  undefined, 4
    2741                      .dwcfi  same_value, 6
    2742                      .dwcfi  same_value, 8
    2743                      .dwcfi  same_value, 10
    2744                      .dwcfi  undefined, 12
    2745                      .dwcfi  undefined, 14
    2746                      .dwcfi  undefined, 16
    2747                      .dwcfi  undefined, 17
    2748                      .dwcfi  undefined, 18
    2749                      .dwcfi  undefined, 19
    2750                      .dwcfi  undefined, 5
    2751                      .dwcfi  same_value, 7
    2752                      .dwcfi  same_value, 9
    2753                      .dwcfi  same_value, 11
    2754                      .dwcfi  undefined, 13
    2755                      .dwcfi  undefined, 15
    2756                      .dwcfi  undefined, 43
    2757                      .dwcfi  undefined, 44
    2758                      .dwcfi  undefined, 47
    2759                      .dwcfi  undefined, 48
    2760                      .dwcfi  undefined, 51
    2761                      .dwcfi  undefined, 52
    2762                      .dwcfi  undefined, 55
    2763                      .dwcfi  undefined, 56
    2764                      .dwcfi  same_value, 59
    2765                      .dwcfi  same_value, 60
    2766                      .dwcfi  same_value, 63
    2767                      .dwcfi  same_value, 64
    2768                      .dwcfi  same_value, 67
    2769                      .dwcfi  same_value, 68
    2770                      .dwcfi  same_value, 71
    2771                      .dwcfi  same_value, 72
    2772                      .dwcfi  undefined, 73
    2773                      .dwcfi  undefined, 74
    2774                      .dwcfi  undefined, 39
    2775                      .dwcfi  undefined, 40
    2776                      .dwcfi  undefined, 27
    2777                      .dwcfi  undefined, 78
    2778                      .dwendentry
    2779              
    2780              ;***************************************************************
    2781              ;* DWARF REGISTER MAP                                          *
    2782              ;***************************************************************
    2783              
    2784              $C$DW$328       .dwtag  DW_TAG_TI_assign_register, DW_AT_name("AL")
    2785                      .dwattr $C$DW$328, DW_AT_location[DW_OP_reg0]
    2786              $C$DW$329       .dwtag  DW_TAG_TI_assign_register, DW_AT_name("AH")
    2787                      .dwattr $C$DW$329, DW_AT_location[DW_OP_reg1]
    2788              $C$DW$330       .dwtag  DW_TAG_TI_assign_register, DW_AT_name("PL")
    2789                      .dwattr $C$DW$330, DW_AT_location[DW_OP_reg2]
    2790              $C$DW$331       .dwtag  DW_TAG_TI_assign_register, DW_AT_name("PH")
TMS320C2000 Assembler PC v6.1.3 Thu Jan 30 10:32:38 2014

Tools Copyright (c) 1996-2012 Texas Instruments Incorporated
C:\Users\a0272466\AppData\Local\Temp\0901610                         PAGE   52

    2791                      .dwattr $C$DW$331, DW_AT_location[DW_OP_reg3]
    2792              $C$DW$332       .dwtag  DW_TAG_TI_assign_register, DW_AT_name("T")
    2793                      .dwattr $C$DW$332, DW_AT_location[DW_OP_reg22]
    2794              $C$DW$333       .dwtag  DW_TAG_TI_assign_register, DW_AT_name("IER")
    2795                      .dwattr $C$DW$333, DW_AT_location[DW_OP_regx 0x25]
    2796              $C$DW$334       .dwtag  DW_TAG_TI_assign_register, DW_AT_name("IFR")
    2797                      .dwattr $C$DW$334, DW_AT_location[DW_OP_regx 0x24]
    2798              $C$DW$335       .dwtag  DW_TAG_TI_assign_register, DW_AT_name("ST0")
    2799                      .dwattr $C$DW$335, DW_AT_location[DW_OP_reg23]
    2800              $C$DW$336       .dwtag  DW_TAG_TI_assign_register, DW_AT_name("SXM")
    2801                      .dwattr $C$DW$336, DW_AT_location[DW_OP_reg30]
    2802              $C$DW$337       .dwtag  DW_TAG_TI_assign_register, DW_AT_name("PM")
    2803                      .dwattr $C$DW$337, DW_AT_location[DW_OP_reg31]
    2804              $C$DW$338       .dwtag  DW_TAG_TI_assign_register, DW_AT_name("OVM")
    2805                      .dwattr $C$DW$338, DW_AT_location[DW_OP_regx 0x20]
    2806              $C$DW$339       .dwtag  DW_TAG_TI_assign_register, DW_AT_name("V")
    2807                      .dwattr $C$DW$339, DW_AT_location[DW_OP_regx 0x26]
    2808              $C$DW$340       .dwtag  DW_TAG_TI_assign_register, DW_AT_name("ST1")
    2809                      .dwattr $C$DW$340, DW_AT_location[DW_OP_reg24]
    2810              $C$DW$341       .dwtag  DW_TAG_TI_assign_register, DW_AT_name("PAGE0")
    2811                      .dwattr $C$DW$341, DW_AT_location[DW_OP_regx 0x21]
    2812              $C$DW$342       .dwtag  DW_TAG_TI_assign_register, DW_AT_name("INTM")
    2813                      .dwattr $C$DW$342, DW_AT_location[DW_OP_regx 0x23]
    2814              $C$DW$343       .dwtag  DW_TAG_TI_assign_register, DW_AT_name("AMODE")
    2815                      .dwattr $C$DW$343, DW_AT_location[DW_OP_regx 0x22]
    2816              $C$DW$344       .dwtag  DW_TAG_TI_assign_register, DW_AT_name("PSEUDOH")
    2817                      .dwattr $C$DW$344, DW_AT_location[DW_OP_regx 0x4c]
    2818              $C$DW$345       .dwtag  DW_TAG_TI_assign_register, DW_AT_name("XT")
    2819                      .dwattr $C$DW$345, DW_AT_location[DW_OP_reg21]
    2820              $C$DW$346       .dwtag  DW_TAG_TI_assign_register, DW_AT_name("SP")
    2821                      .dwattr $C$DW$346, DW_AT_location[DW_OP_reg20]
    2822              $C$DW$347       .dwtag  DW_TAG_TI_assign_register, DW_AT_name("FP")
    2823                      .dwattr $C$DW$347, DW_AT_location[DW_OP_reg28]
    2824              $C$DW$348       .dwtag  DW_TAG_TI_assign_register, DW_AT_name("DP")
    2825                      .dwattr $C$DW$348, DW_AT_location[DW_OP_reg29]
    2826              $C$DW$349       .dwtag  DW_TAG_TI_assign_register, DW_AT_name("PC")
    2827                      .dwattr $C$DW$349, DW_AT_location[DW_OP_reg25]
    2828              $C$DW$350       .dwtag  DW_TAG_TI_assign_register, DW_AT_name("VOL")
    2829                      .dwattr $C$DW$350, DW_AT_location[DW_OP_regx 0x4d]
    2830              $C$DW$351       .dwtag  DW_TAG_TI_assign_register, DW_AT_name("AR0")
    2831                      .dwattr $C$DW$351, DW_AT_location[DW_OP_reg4]
    2832              $C$DW$352       .dwtag  DW_TAG_TI_assign_register, DW_AT_name("AR1")
    2833                      .dwattr $C$DW$352, DW_AT_location[DW_OP_reg6]
    2834              $C$DW$353       .dwtag  DW_TAG_TI_assign_register, DW_AT_name("AR2")
    2835                      .dwattr $C$DW$353, DW_AT_location[DW_OP_reg8]
    2836              $C$DW$354       .dwtag  DW_TAG_TI_assign_register, DW_AT_name("AR3")
    2837                      .dwattr $C$DW$354, DW_AT_location[DW_OP_reg10]
    2838              $C$DW$355       .dwtag  DW_TAG_TI_assign_register, DW_AT_name("AR4")
    2839                      .dwattr $C$DW$355, DW_AT_location[DW_OP_reg12]
    2840              $C$DW$356       .dwtag  DW_TAG_TI_assign_register, DW_AT_name("AR5")
    2841                      .dwattr $C$DW$356, DW_AT_location[DW_OP_reg14]
    2842              $C$DW$357       .dwtag  DW_TAG_TI_assign_register, DW_AT_name("AR6")
    2843                      .dwattr $C$DW$357, DW_AT_location[DW_OP_reg16]
    2844              $C$DW$358       .dwtag  DW_TAG_TI_assign_register, DW_AT_name("XAR6")
    2845                      .dwattr $C$DW$358, DW_AT_location[DW_OP_reg17]
TMS320C2000 Assembler PC v6.1.3 Thu Jan 30 10:32:38 2014

Tools Copyright (c) 1996-2012 Texas Instruments Incorporated
C:\Users\a0272466\AppData\Local\Temp\0901610                         PAGE   53

    2846              $C$DW$359       .dwtag  DW_TAG_TI_assign_register, DW_AT_name("AR7")
    2847                      .dwattr $C$DW$359, DW_AT_location[DW_OP_reg18]
    2848              $C$DW$360       .dwtag  DW_TAG_TI_assign_register, DW_AT_name("XAR7")
    2849                      .dwattr $C$DW$360, DW_AT_location[DW_OP_reg19]
    2850              $C$DW$361       .dwtag  DW_TAG_TI_assign_register, DW_AT_name("XAR0")
    2851                      .dwattr $C$DW$361, DW_AT_location[DW_OP_reg5]
    2852              $C$DW$362       .dwtag  DW_TAG_TI_assign_register, DW_AT_name("XAR1")
    2853                      .dwattr $C$DW$362, DW_AT_location[DW_OP_reg7]
    2854              $C$DW$363       .dwtag  DW_TAG_TI_assign_register, DW_AT_name("XAR2")
    2855                      .dwattr $C$DW$363, DW_AT_location[DW_OP_reg9]
    2856              $C$DW$364       .dwtag  DW_TAG_TI_assign_register, DW_AT_name("XAR3")
    2857                      .dwattr $C$DW$364, DW_AT_location[DW_OP_reg11]
    2858              $C$DW$365       .dwtag  DW_TAG_TI_assign_register, DW_AT_name("XAR4")
    2859                      .dwattr $C$DW$365, DW_AT_location[DW_OP_reg13]
    2860              $C$DW$366       .dwtag  DW_TAG_TI_assign_register, DW_AT_name("XAR5")
    2861                      .dwattr $C$DW$366, DW_AT_location[DW_OP_reg15]
    2862              $C$DW$367       .dwtag  DW_TAG_TI_assign_register, DW_AT_name("R0HL")
    2863                      .dwattr $C$DW$367, DW_AT_location[DW_OP_regx 0x2b]
    2864              $C$DW$368       .dwtag  DW_TAG_TI_assign_register, DW_AT_name("R0H")
    2865                      .dwattr $C$DW$368, DW_AT_location[DW_OP_regx 0x2c]
    2866              $C$DW$369       .dwtag  DW_TAG_TI_assign_register, DW_AT_name("R1HL")
    2867                      .dwattr $C$DW$369, DW_AT_location[DW_OP_regx 0x2f]
    2868              $C$DW$370       .dwtag  DW_TAG_TI_assign_register, DW_AT_name("R1H")
    2869                      .dwattr $C$DW$370, DW_AT_location[DW_OP_regx 0x30]
    2870              $C$DW$371       .dwtag  DW_TAG_TI_assign_register, DW_AT_name("R2HL")
    2871                      .dwattr $C$DW$371, DW_AT_location[DW_OP_regx 0x33]
    2872              $C$DW$372       .dwtag  DW_TAG_TI_assign_register, DW_AT_name("R2H")
    2873                      .dwattr $C$DW$372, DW_AT_location[DW_OP_regx 0x34]
    2874              $C$DW$373       .dwtag  DW_TAG_TI_assign_register, DW_AT_name("R3HL")
    2875                      .dwattr $C$DW$373, DW_AT_location[DW_OP_regx 0x37]
    2876              $C$DW$374       .dwtag  DW_TAG_TI_assign_register, DW_AT_name("R3H")
    2877                      .dwattr $C$DW$374, DW_AT_location[DW_OP_regx 0x38]
    2878              $C$DW$375       .dwtag  DW_TAG_TI_assign_register, DW_AT_name("R4HL")
    2879                      .dwattr $C$DW$375, DW_AT_location[DW_OP_regx 0x3b]
    2880              $C$DW$376       .dwtag  DW_TAG_TI_assign_register, DW_AT_name("R4H")
    2881                      .dwattr $C$DW$376, DW_AT_location[DW_OP_regx 0x3c]
    2882              $C$DW$377       .dwtag  DW_TAG_TI_assign_register, DW_AT_name("R5HL")
    2883                      .dwattr $C$DW$377, DW_AT_location[DW_OP_regx 0x3f]
    2884              $C$DW$378       .dwtag  DW_TAG_TI_assign_register, DW_AT_name("R5H")
    2885                      .dwattr $C$DW$378, DW_AT_location[DW_OP_regx 0x40]
    2886              $C$DW$379       .dwtag  DW_TAG_TI_assign_register, DW_AT_name("R6HL")
    2887                      .dwattr $C$DW$379, DW_AT_location[DW_OP_regx 0x43]
    2888              $C$DW$380       .dwtag  DW_TAG_TI_assign_register, DW_AT_name("R6H")
    2889                      .dwattr $C$DW$380, DW_AT_location[DW_OP_regx 0x44]
    2890              $C$DW$381       .dwtag  DW_TAG_TI_assign_register, DW_AT_name("R7HL")
    2891                      .dwattr $C$DW$381, DW_AT_location[DW_OP_regx 0x47]
    2892              $C$DW$382       .dwtag  DW_TAG_TI_assign_register, DW_AT_name("R7H")
    2893                      .dwattr $C$DW$382, DW_AT_location[DW_OP_regx 0x48]
    2894              $C$DW$383       .dwtag  DW_TAG_TI_assign_register, DW_AT_name("RBL")
    2895                      .dwattr $C$DW$383, DW_AT_location[DW_OP_regx 0x49]
    2896              $C$DW$384       .dwtag  DW_TAG_TI_assign_register, DW_AT_name("RB")
    2897                      .dwattr $C$DW$384, DW_AT_location[DW_OP_regx 0x4a]
    2898              $C$DW$385       .dwtag  DW_TAG_TI_assign_register, DW_AT_name("STFL")
    2899                      .dwattr $C$DW$385, DW_AT_location[DW_OP_regx 0x27]
    2900              $C$DW$386       .dwtag  DW_TAG_TI_assign_register, DW_AT_name("STF")
TMS320C2000 Assembler PC v6.1.3 Thu Jan 30 10:32:38 2014

Tools Copyright (c) 1996-2012 Texas Instruments Incorporated
C:\Users\a0272466\AppData\Local\Temp\0901610                         PAGE   54

    2901                      .dwattr $C$DW$386, DW_AT_location[DW_OP_regx 0x28]
    2902              $C$DW$387       .dwtag  DW_TAG_TI_assign_register, DW_AT_name("FPUHAZ")
    2903                      .dwattr $C$DW$387, DW_AT_location[DW_OP_reg27]
    2904              $C$DW$388       .dwtag  DW_TAG_TI_assign_register, DW_AT_name("CIE_RETA")
    2905                      .dwattr $C$DW$388, DW_AT_location[DW_OP_regx 0x4e]
    2906                      .dwendtag $C$DW$CU
    2907              

No Assembly Errors, No Assembly Warnings
