TMS320C2000 Assembler PC v6.1.3 Thu Jan 30 10:26:14 2014

Tools Copyright (c) 1996-2012 Texas Instruments Incorporated
C:\Users\a0272466\AppData\Local\Temp\0274010                         PAGE    1

       1              ;***************************************************************
       2              ;* TMS320C2000 C/C++ Codegen                         PC v6.1.3 *
       3              ;* Date/Time created: Thu Jan 30 10:26:12 2014                 *
       4              ;***************************************************************
       5                      .compiler_opts --float_support=fpu32 --hll_source=on --mem_model:code=flat --mem_model:data=large --o
       6        0002  FP      .set    XAR2
       7              
       8              $C$DW$CU        .dwtag  DW_TAG_compile_unit
       9                      .dwattr $C$DW$CU, DW_AT_name("C:/work/grepos/bootrom/Boot_ROM/F2837x_bootROM-REVB/F2837x_bootROM_dev/
      10                      .dwattr $C$DW$CU, DW_AT_producer("TMS320C2000 C/C++ Codegen PC v6.1.3 Copyright (c) 1996-2012 Texas I
      11                      .dwattr $C$DW$CU, DW_AT_TI_version(0x01)
      12                      .dwattr $C$DW$CU, DW_AT_comp_dir("C:\work\grepos\bootrom\Boot_ROM\F2837x_bootROM-REVB\F2837x_bootROM_
      13              
      14              $C$DW$1 .dwtag  DW_TAG_subprogram, DW_AT_name("load_itrap_address")
      15                      .dwattr $C$DW$1, DW_AT_TI_symbol_name("_load_itrap_address")
      16                      .dwattr $C$DW$1, DW_AT_declaration
      17                      .dwattr $C$DW$1, DW_AT_external
      18              $C$DW$2 .dwtag  DW_TAG_formal_parameter
      19                      .dwattr $C$DW$2, DW_AT_type(*$C$DW$T$205)
      20                      .dwendtag $C$DW$1
      21              
      22              
      23              $C$DW$3 .dwtag  DW_TAG_subprogram, DW_AT_name("c1brom_c2c1_ipc_clear_bits_32")
      24                      .dwattr $C$DW$3, DW_AT_TI_symbol_name("_c1brom_c2c1_ipc_clear_bits_32")
      25                      .dwattr $C$DW$3, DW_AT_type(*$C$DW$T$160)
      26                      .dwattr $C$DW$3, DW_AT_declaration
      27                      .dwattr $C$DW$3, DW_AT_external
      28              
      29              $C$DW$4 .dwtag  DW_TAG_subprogram, DW_AT_name("c1brom_c2c1_ipc_clear_bits_16")
      30                      .dwattr $C$DW$4, DW_AT_TI_symbol_name("_c1brom_c2c1_ipc_clear_bits_16")
      31                      .dwattr $C$DW$4, DW_AT_type(*$C$DW$T$160)
      32                      .dwattr $C$DW$4, DW_AT_declaration
      33                      .dwattr $C$DW$4, DW_AT_external
      34              
      35              $C$DW$5 .dwtag  DW_TAG_subprogram, DW_AT_name("c1brom_c2c1_ipc_write_data_32")
      36                      .dwattr $C$DW$5, DW_AT_TI_symbol_name("_c1brom_c2c1_ipc_write_data_32")
      37                      .dwattr $C$DW$5, DW_AT_type(*$C$DW$T$160)
      38                      .dwattr $C$DW$5, DW_AT_declaration
      39                      .dwattr $C$DW$5, DW_AT_external
      40              
      41              $C$DW$6 .dwtag  DW_TAG_subprogram, DW_AT_name("c1brom_c2c1_ipc_write_data_16")
      42                      .dwattr $C$DW$6, DW_AT_TI_symbol_name("_c1brom_c2c1_ipc_write_data_16")
      43                      .dwattr $C$DW$6, DW_AT_type(*$C$DW$T$160)
      44                      .dwattr $C$DW$6, DW_AT_declaration
      45                      .dwattr $C$DW$6, DW_AT_external
      46              
      47              $C$DW$7 .dwtag  DW_TAG_subprogram, DW_AT_name("sysctl_wdog_enable")
      48                      .dwattr $C$DW$7, DW_AT_TI_symbol_name("_sysctl_wdog_enable")
      49                      .dwattr $C$DW$7, DW_AT_type(*$C$DW$T$216)
      50                      .dwattr $C$DW$7, DW_AT_declaration
      51                      .dwattr $C$DW$7, DW_AT_external
      52                      .global _c1brom_nmi_status
      53 00000000       _c1brom_nmi_status:     .usect  ".ebss",1,1,0
      54              $C$DW$8 .dwtag  DW_TAG_variable, DW_AT_name("c1brom_nmi_status")
      55                      .dwattr $C$DW$8, DW_AT_TI_symbol_name("_c1brom_nmi_status")
TMS320C2000 Assembler PC v6.1.3 Thu Jan 30 10:26:14 2014

Tools Copyright (c) 1996-2012 Texas Instruments Incorporated
C:\Users\a0272466\AppData\Local\Temp\0274010                         PAGE    2

      56                      .dwattr $C$DW$8, DW_AT_location[DW_OP_addr _c1brom_nmi_status]
      57                      .dwattr $C$DW$8, DW_AT_type(*$C$DW$T$211)
      58                      .dwattr $C$DW$8, DW_AT_external
      59              
      60              $C$DW$9 .dwtag  DW_TAG_subprogram, DW_AT_name("c1brom_c2c1_ipc_set_bits_32")
      61                      .dwattr $C$DW$9, DW_AT_TI_symbol_name("_c1brom_c2c1_ipc_set_bits_32")
      62                      .dwattr $C$DW$9, DW_AT_type(*$C$DW$T$160)
      63                      .dwattr $C$DW$9, DW_AT_declaration
      64                      .dwattr $C$DW$9, DW_AT_external
      65              
      66              $C$DW$10        .dwtag  DW_TAG_subprogram, DW_AT_name("c1brom_c2c1_ipc_set_bits_16")
      67                      .dwattr $C$DW$10, DW_AT_TI_symbol_name("_c1brom_c2c1_ipc_set_bits_16")
      68                      .dwattr $C$DW$10, DW_AT_type(*$C$DW$T$160)
      69                      .dwattr $C$DW$10, DW_AT_declaration
      70                      .dwattr $C$DW$10, DW_AT_external
      71              
      72              $C$DW$11        .dwtag  DW_TAG_subprogram, DW_AT_name("c1brom_c2c1_ipc_read_data_16")
      73                      .dwattr $C$DW$11, DW_AT_TI_symbol_name("_c1brom_c2c1_ipc_read_data_16")
      74                      .dwattr $C$DW$11, DW_AT_type(*$C$DW$T$160)
      75                      .dwattr $C$DW$11, DW_AT_declaration
      76                      .dwattr $C$DW$11, DW_AT_external
      77              
      78              $C$DW$12        .dwtag  DW_TAG_subprogram, DW_AT_name("c1brom_c2c1_ipc_clear_bits_protected_32")
      79                      .dwattr $C$DW$12, DW_AT_TI_symbol_name("_c1brom_c2c1_ipc_clear_bits_protected_32")
      80                      .dwattr $C$DW$12, DW_AT_type(*$C$DW$T$160)
      81                      .dwattr $C$DW$12, DW_AT_declaration
      82                      .dwattr $C$DW$12, DW_AT_external
      83              
      84              $C$DW$13        .dwtag  DW_TAG_subprogram, DW_AT_name("c1brom_c2c1_ipc_write_data_protected_16")
      85                      .dwattr $C$DW$13, DW_AT_TI_symbol_name("_c1brom_c2c1_ipc_write_data_protected_16")
      86                      .dwattr $C$DW$13, DW_AT_type(*$C$DW$T$160)
      87                      .dwattr $C$DW$13, DW_AT_declaration
      88                      .dwattr $C$DW$13, DW_AT_external
      89              
      90              $C$DW$14        .dwtag  DW_TAG_subprogram, DW_AT_name("c1brom_c2c1_ipc_set_bits_protected_32")
      91                      .dwattr $C$DW$14, DW_AT_TI_symbol_name("_c1brom_c2c1_ipc_set_bits_protected_32")
      92                      .dwattr $C$DW$14, DW_AT_type(*$C$DW$T$160)
      93                      .dwattr $C$DW$14, DW_AT_declaration
      94                      .dwattr $C$DW$14, DW_AT_external
      95              
      96              $C$DW$15        .dwtag  DW_TAG_subprogram, DW_AT_name("c1brom_c2c1_ipc_clear_bits_protected_16")
      97                      .dwattr $C$DW$15, DW_AT_TI_symbol_name("_c1brom_c2c1_ipc_clear_bits_protected_16")
      98                      .dwattr $C$DW$15, DW_AT_type(*$C$DW$T$160)
      99                      .dwattr $C$DW$15, DW_AT_declaration
     100                      .dwattr $C$DW$15, DW_AT_external
     101              
     102              $C$DW$16        .dwtag  DW_TAG_subprogram, DW_AT_name("c1brom_c2c1_ipc_read_data_protected_32")
     103                      .dwattr $C$DW$16, DW_AT_TI_symbol_name("_c1brom_c2c1_ipc_read_data_protected_32")
     104                      .dwattr $C$DW$16, DW_AT_type(*$C$DW$T$160)
     105                      .dwattr $C$DW$16, DW_AT_declaration
     106                      .dwattr $C$DW$16, DW_AT_external
     107              
     108              $C$DW$17        .dwtag  DW_TAG_subprogram, DW_AT_name("c1brom_c2c1_ipc_read_data_32")
     109                      .dwattr $C$DW$17, DW_AT_TI_symbol_name("_c1brom_c2c1_ipc_read_data_32")
     110                      .dwattr $C$DW$17, DW_AT_type(*$C$DW$T$160)
TMS320C2000 Assembler PC v6.1.3 Thu Jan 30 10:26:14 2014

Tools Copyright (c) 1996-2012 Texas Instruments Incorporated
C:\Users\a0272466\AppData\Local\Temp\0274010                         PAGE    3

     111                      .dwattr $C$DW$17, DW_AT_declaration
     112                      .dwattr $C$DW$17, DW_AT_external
     113              
     114              $C$DW$18        .dwtag  DW_TAG_subprogram, DW_AT_name("c1brom_c2c1_ipc_write_data_protected_32")
     115                      .dwattr $C$DW$18, DW_AT_TI_symbol_name("_c1brom_c2c1_ipc_write_data_protected_32")
     116                      .dwattr $C$DW$18, DW_AT_type(*$C$DW$T$160)
     117                      .dwattr $C$DW$18, DW_AT_declaration
     118                      .dwattr $C$DW$18, DW_AT_external
     119              
     120              $C$DW$19        .dwtag  DW_TAG_subprogram, DW_AT_name("c1brom_c2c1_ipc_read_data_protected_16")
     121                      .dwattr $C$DW$19, DW_AT_TI_symbol_name("_c1brom_c2c1_ipc_read_data_protected_16")
     122                      .dwattr $C$DW$19, DW_AT_type(*$C$DW$T$160)
     123                      .dwattr $C$DW$19, DW_AT_declaration
     124                      .dwattr $C$DW$19, DW_AT_external
     125              
     126              $C$DW$20        .dwtag  DW_TAG_subprogram, DW_AT_name("c1brom_c2c1_ipc_set_bits_protected_16")
     127                      .dwattr $C$DW$20, DW_AT_TI_symbol_name("_c1brom_c2c1_ipc_set_bits_protected_16")
     128                      .dwattr $C$DW$20, DW_AT_type(*$C$DW$T$160)
     129                      .dwattr $C$DW$20, DW_AT_declaration
     130                      .dwattr $C$DW$20, DW_AT_external
     131              $C$DW$21        .dwtag  DW_TAG_variable, DW_AT_name("c1brom_status")
     132                      .dwattr $C$DW$21, DW_AT_TI_symbol_name("_c1brom_status")
     133                      .dwattr $C$DW$21, DW_AT_type(*$C$DW$T$21)
     134                      .dwattr $C$DW$21, DW_AT_declaration
     135                      .dwattr $C$DW$21, DW_AT_external
     136                      .global _iTrap_addr
     137 00000002       _iTrap_addr:    .usect  ".ebss",2,1,1
     138              $C$DW$22        .dwtag  DW_TAG_variable, DW_AT_name("iTrap_addr")
     139                      .dwattr $C$DW$22, DW_AT_TI_symbol_name("_iTrap_addr")
     140                      .dwattr $C$DW$22, DW_AT_location[DW_OP_addr _iTrap_addr]
     141                      .dwattr $C$DW$22, DW_AT_type(*$C$DW$T$21)
     142                      .dwattr $C$DW$22, DW_AT_external
     143              $C$DW$23        .dwtag  DW_TAG_variable, DW_AT_name("c1brom_current_c2c1_ipc")
     144                      .dwattr $C$DW$23, DW_AT_TI_symbol_name("_c1brom_current_c2c1_ipc")
     145                      .dwattr $C$DW$23, DW_AT_type(*$C$DW$T$219)
     146                      .dwattr $C$DW$23, DW_AT_declaration
     147                      .dwattr $C$DW$23, DW_AT_external
     148              $C$DW$24        .dwtag  DW_TAG_variable, DW_AT_name("NmiIntruptRegs")
     149                      .dwattr $C$DW$24, DW_AT_TI_symbol_name("_NmiIntruptRegs")
     150                      .dwattr $C$DW$24, DW_AT_type(*$C$DW$T$174)
     151                      .dwattr $C$DW$24, DW_AT_declaration
     152                      .dwattr $C$DW$24, DW_AT_external
     153              $C$DW$25        .dwtag  DW_TAG_variable, DW_AT_name("PieCtrlRegs")
     154                      .dwattr $C$DW$25, DW_AT_TI_symbol_name("_PieCtrlRegs")
     155                      .dwattr $C$DW$25, DW_AT_type(*$C$DW$T$203)
     156                      .dwattr $C$DW$25, DW_AT_declaration
     157                      .dwattr $C$DW$25, DW_AT_external
     158              $C$DW$26        .dwtag  DW_TAG_variable, DW_AT_name("IpcRegs")
     159                      .dwattr $C$DW$26, DW_AT_TI_symbol_name("_IpcRegs")
     160                      .dwattr $C$DW$26, DW_AT_type(*$C$DW$T$170)
     161                      .dwattr $C$DW$26, DW_AT_declaration
     162                      .dwattr $C$DW$26, DW_AT_external
     163              $C$DW$27        .dwtag  DW_TAG_variable, DW_AT_name("CpuSysRegs")
     164                      .dwattr $C$DW$27, DW_AT_TI_symbol_name("_CpuSysRegs")
     165                      .dwattr $C$DW$27, DW_AT_type(*$C$DW$T$165)
TMS320C2000 Assembler PC v6.1.3 Thu Jan 30 10:26:14 2014

Tools Copyright (c) 1996-2012 Texas Instruments Incorporated
C:\Users\a0272466\AppData\Local\Temp\0274010                         PAGE    4

     166                      .dwattr $C$DW$27, DW_AT_declaration
     167                      .dwattr $C$DW$27, DW_AT_external
     168              $C$DW$28        .dwtag  DW_TAG_variable, DW_AT_name("PieVectTable")
     169                      .dwattr $C$DW$28, DW_AT_TI_symbol_name("_PieVectTable")
     170                      .dwattr $C$DW$28, DW_AT_type(*$C$DW$T$150)
     171                      .dwattr $C$DW$28, DW_AT_declaration
     172                      .dwattr $C$DW$28, DW_AT_external
     173              ;       C:\ti\ccsv5\tools\compiler\c2000_6.1.3\bin\ac2000.exe -@C:\\Users\\a0272466\\AppData\\Local\\Temp\\02
     174 00000000               .sect   ".text:retain"
     175                      .global _c1brom_pie_isr_not_supported
     176              
     177              $C$DW$29        .dwtag  DW_TAG_subprogram, DW_AT_name("c1brom_pie_isr_not_supported")
     178                      .dwattr $C$DW$29, DW_AT_low_pc(_c1brom_pie_isr_not_supported)
     179                      .dwattr $C$DW$29, DW_AT_high_pc(0x00)
     180                      .dwattr $C$DW$29, DW_AT_TI_symbol_name("_c1brom_pie_isr_not_supported")
     181                      .dwattr $C$DW$29, DW_AT_external
     182                      .dwattr $C$DW$29, DW_AT_TI_begin_file("C:/work/grepos/bootrom/Boot_ROM/F2837x_bootROM-REVB/F2837x_boo
     183                      .dwattr $C$DW$29, DW_AT_TI_begin_line(0x28)
     184                      .dwattr $C$DW$29, DW_AT_TI_begin_column(0x10)
     185                      .dwattr $C$DW$29, DW_AT_TI_interrupt
     186                      .dwattr $C$DW$29, DW_AT_TI_max_frame_size(-8)
     187                      .dwpsn  file "C:/work/grepos/bootrom/Boot_ROM/F2837x_bootROM-REVB/F2837x_bootROM_dev/F2837x_bootROM/c
     188              
     189                      .dwfde $C$DW$CIE, _c1brom_pie_isr_not_supported
     190              
     191              ;***************************************************************
     192              ;* FNAME: _c1brom_pie_isr_not_supported FR SIZE:   6           *
     193              ;*                                                             *
     194              ;* FUNCTION ENVIRONMENT                                        *
     195              ;*                                                             *
     196              ;* FUNCTION PROPERTIES                                         *
     197              ;*                            0 Parameter,  2 Auto,  4 SOE     *
     198              ;***************************************************************
     199              
     200 00000000       _c1brom_pie_isr_not_supported:
     201 00000000 761B          ASP       ; [CPU_] 
     202                      .dwcfi  cfa_offset, -2
     203                      .dwcfi  save_reg_to_mem, 26, 0
     204                      .dwcfi  save_reg_to_reg, 78, 26
     205 00000001 FFF0          PUSH      RB                    ; [CPU_] 
     206                      .dwcfi  save_reg_to_mem, 73, 2
     207                      .dwcfi  save_reg_to_mem, 74, 3
     208                      .dwcfi  cfa_offset, -4
     209 00000002 E200          MOV32     *SP++,STF             ; [CPU_] 
         00000003 00BD 
     210                      .dwcfi  save_reg_to_mem, 39, 4
     211                      .dwcfi  save_reg_to_mem, 40, 5
     212                      .dwcfi  cfa_offset, -6
     213 00000004 E630          SETFLG    RNDF32=1, RNDF64=1    ; [CPU_] 
         00000005 0600 
     214 00000006 FE02          ADDB      SP,#2                 ; [CPU_U] 
     215                      .dwcfi  cfa_offset, -8
     216 00000007 2942          CLRC      PAGE0,OVM             ; [CPU_] 
     217 00000008 5616          CLRC      AMODE                 ; [CPU_] 
     218              $C$DW$30        .dwtag  DW_TAG_variable, DW_AT_name("interrupt_num")
TMS320C2000 Assembler PC v6.1.3 Thu Jan 30 10:26:14 2014

Tools Copyright (c) 1996-2012 Texas Instruments Incorporated
C:\Users\a0272466\AppData\Local\Temp\0274010                         PAGE    5

     219                      .dwattr $C$DW$30, DW_AT_TI_symbol_name("_interrupt_num")
     220                      .dwattr $C$DW$30, DW_AT_type(*$C$DW$T$19)
     221                      .dwattr $C$DW$30, DW_AT_location[DW_OP_breg20 -1]
     222              $C$DW$31        .dwtag  DW_TAG_variable, DW_AT_name("address_offset")
     223                      .dwattr $C$DW$31, DW_AT_TI_symbol_name("_address_offset")
     224                      .dwattr $C$DW$31, DW_AT_type(*$C$DW$T$19)
     225                      .dwattr $C$DW$31, DW_AT_location[DW_OP_breg20 -2]
     226                      .dwpsn  file "C:/work/grepos/bootrom/Boot_ROM/F2837x_bootROM-REVB/F2837x_bootROM_dev/F2837x_bootROM/c
     227 00000009 2B41          MOV       *-SP[1],#0            ; [CPU_] |42| 
     228                      .dwpsn  file "C:/work/grepos/bootrom/Boot_ROM/F2837x_bootROM-REVB/F2837x_bootROM_dev/F2837x_bootROM/c
     229 0000000a 2B42          MOV       *-SP[2],#0            ; [CPU_] |43| 
     230                      .dwpsn  file "C:/work/grepos/bootrom/Boot_ROM/F2837x_bootROM-REVB/F2837x_bootROM_dev/F2837x_bootROM/c
     231 0000000b 761F!         MOVW      DP,#_PieCtrlRegs      ; [CPU_U] 
         0000000c 0000 
     232 0000000d 9200!         MOV       AL,@_PieCtrlRegs      ; [CPU_] |47| 
     233 0000000e 90FE          ANDB      AL,#0xfe              ; [CPU_] |47| 
     234 0000000f 9642          MOV       *-SP[2],AL            ; [CPU_] |47| 
     235                      .dwpsn  file "C:/work/grepos/bootrom/Boot_ROM/F2837x_bootROM-REVB/F2837x_bootROM_dev/F2837x_bootROM/c
     236 00000010 FFC0          LSR       AL,1                  ; [CPU_] |48| 
     237 00000011 9641          MOV       *-SP[1],AL            ; [CPU_] |48| 
     238                      .dwpsn  file "C:/work/grepos/bootrom/Boot_ROM/F2837x_bootROM-REVB/F2837x_bootROM_dev/F2837x_bootROM/c
     239 00000012 5220          CMPB      AL,#32                ; [CPU_] |53| 
     240 00000013 6808          B         $C$L1,LO              ; [CPU_] |53| 
     241                      ; branchcc occurs ; [] |53| 
     242                      .dwpsn  file "C:/work/grepos/bootrom/Boot_ROM/F2837x_bootROM-REVB/F2837x_bootROM_dev/F2837x_bootROM/c
     243 00000014 9242          MOV       AL,*-SP[2]            ; [CPU_] |56| 
     244 00000015 FFC3          LSR       AL,4                  ; [CPU_] |56| 
     245 00000016 9CFC          ADDB      AL,#-4                ; [CPU_] |56| 
     246 00000017 2DA9          MOV       T,AL                  ; [CPU_] |56| 
     247 00000018 9A01          MOVB      AL,#1                 ; [CPU_] |56| 
     248 00000019 FF66          LSL       AL,T                  ; [CPU_] |56| 
     249 0000001a 9801!         OR        @_PieCtrlRegs+1,AL    ; [CPU_] |56| 
     250                      .dwpsn  file "C:/work/grepos/bootrom/Boot_ROM/F2837x_bootROM-REVB/F2837x_bootROM_dev/F2837x_bootROM/c
     251 0000001b       $C$L1:    
     252 0000001b FE82          SUBB      SP,#2                 ; [CPU_U] 
     253                      .dwcfi  cfa_offset, -6
     254 0000001c E280          MOV32     STF,*--SP             ; [CPU_] 
         0000001d 00BE 
     255                      .dwcfi  cfa_offset, -4
     256                      .dwcfi  restore_reg, 39
     257                      .dwcfi  restore_reg, 40
     258 0000001e FFF1          POP       RB                    ; [CPU_] 
     259                      .dwcfi  cfa_offset, -2
     260                      .dwcfi  restore_reg, 73
     261                      .dwcfi  restore_reg, 74
     262 0000001f 7617          NASP      ; [CPU_] 
     263              $C$DW$32        .dwtag  DW_TAG_TI_branch
     264                      .dwattr $C$DW$32, DW_AT_low_pc(0x00)
     265                      .dwattr $C$DW$32, DW_AT_TI_return
     266 00000020 7602          IRET      ; [CPU_] 
     267                      ; return occurs ; [] 
     268                      .dwattr $C$DW$29, DW_AT_TI_end_file("C:/work/grepos/bootrom/Boot_ROM/F2837x_bootROM-REVB/F2837x_bootR
     269                      .dwattr $C$DW$29, DW_AT_TI_end_line(0x3b)
     270                      .dwattr $C$DW$29, DW_AT_TI_end_column(0x01)
     271                      .dwendentry
TMS320C2000 Assembler PC v6.1.3 Thu Jan 30 10:26:14 2014

Tools Copyright (c) 1996-2012 Texas Instruments Incorporated
C:\Users\a0272466\AppData\Local\Temp\0274010                         PAGE    6

     272                      .dwendtag $C$DW$29
     273              
     274 00000021               .sect   ".text:retain"
     275                      .global _c1brom_pie_vect_mismatch_handler
     276              
     277              $C$DW$33        .dwtag  DW_TAG_subprogram, DW_AT_name("c1brom_pie_vect_mismatch_handler")
     278                      .dwattr $C$DW$33, DW_AT_low_pc(_c1brom_pie_vect_mismatch_handler)
     279                      .dwattr $C$DW$33, DW_AT_high_pc(0x00)
     280                      .dwattr $C$DW$33, DW_AT_TI_symbol_name("_c1brom_pie_vect_mismatch_handler")
     281                      .dwattr $C$DW$33, DW_AT_external
     282                      .dwattr $C$DW$33, DW_AT_TI_begin_file("C:/work/grepos/bootrom/Boot_ROM/F2837x_bootROM-REVB/F2837x_boo
     283                      .dwattr $C$DW$33, DW_AT_TI_begin_line(0x40)
     284                      .dwattr $C$DW$33, DW_AT_TI_begin_column(0x10)
     285                      .dwattr $C$DW$33, DW_AT_TI_interrupt
     286                      .dwattr $C$DW$33, DW_AT_TI_max_frame_size(-28)
     287                      .dwpsn  file "C:/work/grepos/bootrom/Boot_ROM/F2837x_bootROM-REVB/F2837x_bootROM_dev/F2837x_bootROM/c
     288              
     289                      .dwfde $C$DW$CIE, _c1brom_pie_vect_mismatch_handler
     290              
     291              ;***************************************************************
     292              ;* FNAME: _c1brom_pie_vect_mismatch_handler FR SIZE:  26           *
     293              ;*                                                             *
     294              ;* FUNCTION ENVIRONMENT                                        *
     295              ;*                                                             *
     296              ;* FUNCTION PROPERTIES                                         *
     297              ;*                            0 Parameter,  2 Auto, 24 SOE     *
     298              ;***************************************************************
     299              
     300 00000021       _c1brom_pie_vect_mismatch_handler:
     301 00000021 761B          ASP       ; [CPU_] 
     302                      .dwcfi  cfa_offset, -2
     303                      .dwcfi  save_reg_to_mem, 26, 0
     304                      .dwcfi  save_reg_to_reg, 78, 26
     305 00000022 FFF0          PUSH      RB                    ; [CPU_] 
     306                      .dwcfi  save_reg_to_mem, 73, 2
     307                      .dwcfi  save_reg_to_mem, 74, 3
     308                      .dwcfi  cfa_offset, -4
     309 00000023 0005          PUSH      AR1H:AR0H             ; [CPU_] 
     310                      .dwcfi  save_reg_to_mem, 5, 4
     311                      .dwcfi  save_reg_to_mem, 7, 5
     312                      .dwcfi  cfa_offset, -6
     313 00000024 ABBD          MOVL      *SP++,XT              ; [CPU_] 
     314                      .dwcfi  save_reg_to_mem, 21, 6
     315                      .dwcfi  save_reg_to_mem, 22, 7
     316                      .dwcfi  cfa_offset, -8
     317 00000025 A8BD          MOVL      *SP++,XAR4            ; [CPU_] 
     318                      .dwcfi  save_reg_to_mem, 12, 8
     319                      .dwcfi  save_reg_to_mem, 13, 9
     320                      .dwcfi  cfa_offset, -10
     321 00000026 A0BD          MOVL      *SP++,XAR5            ; [CPU_] 
     322                      .dwcfi  save_reg_to_mem, 14, 10
     323                      .dwcfi  save_reg_to_mem, 15, 11
     324                      .dwcfi  cfa_offset, -12
     325 00000027 C2BD          MOVL      *SP++,XAR6            ; [CPU_] 
     326                      .dwcfi  save_reg_to_mem, 16, 12
TMS320C2000 Assembler PC v6.1.3 Thu Jan 30 10:26:14 2014

Tools Copyright (c) 1996-2012 Texas Instruments Incorporated
C:\Users\a0272466\AppData\Local\Temp\0274010                         PAGE    7

     327                      .dwcfi  save_reg_to_mem, 17, 13
     328                      .dwcfi  cfa_offset, -14
     329 00000028 C3BD          MOVL      *SP++,XAR7            ; [CPU_] 
     330                      .dwcfi  save_reg_to_mem, 18, 14
     331                      .dwcfi  save_reg_to_mem, 19, 15
     332                      .dwcfi  cfa_offset, -16
     333 00000029 E200          MOV32     *SP++,STF             ; [CPU_] 
         0000002a 00BD 
     334                      .dwcfi  save_reg_to_mem, 39, 16
     335                      .dwcfi  save_reg_to_mem, 40, 17
     336                      .dwcfi  cfa_offset, -18
     337 0000002b E203          MOV32     *SP++,R0H             ; [CPU_] 
         0000002c 00BD 
     338                      .dwcfi  save_reg_to_mem, 43, 18
     339                      .dwcfi  save_reg_to_mem, 44, 19
     340                      .dwcfi  cfa_offset, -20
     341 0000002d E203          MOV32     *SP++,R1H             ; [CPU_] 
         0000002e 01BD 
     342                      .dwcfi  save_reg_to_mem, 47, 20
     343                      .dwcfi  save_reg_to_mem, 48, 21
     344                      .dwcfi  cfa_offset, -22
     345 0000002f E203          MOV32     *SP++,R2H             ; [CPU_] 
         00000030 02BD 
     346                      .dwcfi  save_reg_to_mem, 51, 22
     347                      .dwcfi  save_reg_to_mem, 52, 23
     348                      .dwcfi  cfa_offset, -24
     349 00000031 E203          MOV32     *SP++,R3H             ; [CPU_] 
         00000032 03BD 
     350                      .dwcfi  save_reg_to_mem, 55, 24
     351                      .dwcfi  save_reg_to_mem, 56, 25
     352                      .dwcfi  cfa_offset, -26
     353 00000033 E630          SETFLG    RNDF32=1, RNDF64=1    ; [CPU_] 
         00000034 0600 
     354 00000035 FE02          ADDB      SP,#2                 ; [CPU_U] 
     355                      .dwcfi  cfa_offset, -28
     356 00000036 FF69          SPM       0                     ; [CPU_] 
     357 00000037 2942          CLRC      PAGE0,OVM             ; [CPU_] 
     358 00000038 5616          CLRC      AMODE                 ; [CPU_] 
     359              $C$DW$34        .dwtag  DW_TAG_variable, DW_AT_name("EntryAddr")
     360                      .dwattr $C$DW$34, DW_AT_TI_symbol_name("_EntryAddr")
     361                      .dwattr $C$DW$34, DW_AT_type(*$C$DW$T$21)
     362                      .dwattr $C$DW$34, DW_AT_location[DW_OP_breg20 -2]
     363                      .dwpsn  file "C:/work/grepos/bootrom/Boot_ROM/F2837x_bootROM-REVB/F2837x_bootROM_dev/F2837x_bootROM/c
     364 00000039 0200          MOVB      ACC,#0                ; [CPU_] |67| 
     365 0000003a 1901          SUBB      ACC,#1                ; [CPU_] |67| 
     366 0000003b 1E42          MOVL      *-SP[2],ACC           ; [CPU_] |67| 
     367                      .dwpsn  file "C:/work/grepos/bootrom/Boot_ROM/F2837x_bootROM-REVB/F2837x_bootROM_dev/F2837x_bootROM/c
     368 0000003c 761F!         MOVW      DP,#_c1brom_status+1  ; [CPU_U] 
         0000003d 0000 
     369 0000003e 1A01!         OR        @_c1brom_status+1,#8  ; [CPU_] |70| 
         0000003f 0008 
     370                      .dwpsn  file "C:/work/grepos/bootrom/Boot_ROM/F2837x_bootROM-REVB/F2837x_bootROM_dev/F2837x_bootROM/c
     371 00000040 7622   EALLOW
     372                      .dwpsn  file "C:/work/grepos/bootrom/Boot_ROM/F2837x_bootROM-REVB/F2837x_bootROM_dev/F2837x_bootROM/c
     373 00000041 761F!         MOVW      DP,#_CpuSysRegs+10    ; [CPU_U] 
TMS320C2000 Assembler PC v6.1.3 Thu Jan 30 10:26:14 2014

Tools Copyright (c) 1996-2012 Texas Instruments Incorporated
C:\Users\a0272466\AppData\Local\Temp\0274010                         PAGE    8

         00000042 0000 
     374 00000043 060A!         MOVL      ACC,@_CpuSysRegs+10   ; [CPU_] |73| 
     375 00000044 1E42          MOVL      *-SP[2],ACC           ; [CPU_] |73| 
     376                      .dwpsn  file "C:/work/grepos/bootrom/Boot_ROM/F2837x_bootROM-REVB/F2837x_bootROM_dev/F2837x_bootROM/c
     377 00000045 761A   EDIS
     378                      .dwpsn  file "C:/work/grepos/bootrom/Boot_ROM/F2837x_bootROM-REVB/F2837x_bootROM_dev/F2837x_bootROM/c
     379 00000046 8F3F          MOVL      XAR4,#4194303         ; [CPU_U] |87| 
         00000047 FFFF 
     380 00000048 A8A9          MOVL      ACC,XAR4              ; [CPU_] |87| 
     381 00000049 0F42          CMPL      ACC,*-SP[2]           ; [CPU_] |87| 
     382 0000004a EC05          BF        $C$L2,EQ              ; [CPU_] |87| 
     383                      ; branchcc occurs ; [] |87| 
     384                      .dwpsn  file "C:/work/grepos/bootrom/Boot_ROM/F2837x_bootROM-REVB/F2837x_bootROM_dev/F2837x_bootROM/c
     385 0000004b C542          MOVL      XAR7,*-SP[2]          ; [CPU_] |89| 
     386 0000004c FF69          SPM       #0                    ; [CPU_] 
     387              $C$DW$35        .dwtag  DW_TAG_TI_branch
     388                      .dwattr $C$DW$35, DW_AT_low_pc(0x00)
     389                      .dwattr $C$DW$35, DW_AT_TI_call
     390                      .dwattr $C$DW$35, DW_AT_TI_indirect
     391 0000004d 3E67          LCR       *XAR7                 ; [CPU_] |89| 
     392                      ; call occurs [XAR7] ; [] |89| 
     393                      .dwpsn  file "C:/work/grepos/bootrom/Boot_ROM/F2837x_bootROM-REVB/F2837x_bootROM_dev/F2837x_bootROM/c
     394 0000004e 6F09          B         $C$L5,UNC             ; [CPU_] |90| 
     395                      ; branch occurs ; [] |90| 
     396 0000004f       $C$L2:    
     397                      .dwpsn  file "C:/work/grepos/bootrom/Boot_ROM/F2837x_bootROM-REVB/F2837x_bootROM_dev/F2837x_bootROM/c
     398 0000004f 761F!         MOVW      DP,#_NmiIntruptRegs+1 ; [CPU_U] 
         00000050 0000 
     399 00000051 9201!         MOV       AL,@_NmiIntruptRegs+1 ; [CPU_] |100| 
     400 00000052 ED04          BF        $C$L3,NEQ             ; [CPU_] |100| 
     401                      ; branchcc occurs ; [] |100| 
     402                      .dwpsn  file "C:/work/grepos/bootrom/Boot_ROM/F2837x_bootROM-REVB/F2837x_bootROM_dev/F2837x_bootROM/c
     403 00000053 FF69          SPM       #0                    ; [CPU_] 
     404              $C$DW$36        .dwtag  DW_TAG_TI_branch
     405                      .dwattr $C$DW$36, DW_AT_low_pc(0x00)
     406                      .dwattr $C$DW$36, DW_AT_name("_sysctl_wdog_enable")
     407                      .dwattr $C$DW$36, DW_AT_TI_call
     408 00000054 7640!         LCR       #_sysctl_wdog_enable  ; [CPU_] |102| 
         00000055 0000 
     409                      ; call occurs [#_sysctl_wdog_enable] ; [] |102| 
     410 00000056       $C$L3:    
     411                      .dwpsn  file "C:/work/grepos/bootrom/Boot_ROM/F2837x_bootROM-REVB/F2837x_bootROM_dev/F2837x_bootROM/c
     412 00000056       $C$L4:    
     413 00000056       $C$DW$L$_c1brom_pie_vect_mismatch_handler$6$B:
     414 00000056 6F00          B         $C$L4,UNC             ; [CPU_] |105| 
     415                      ; branch occurs ; [] |105| 
     416 00000057       $C$DW$L$_c1brom_pie_vect_mismatch_handler$6$E:
     417 00000057       $C$L5:    
     418 00000057 FE82          SUBB      SP,#2                 ; [CPU_U] 
     419                      .dwcfi  cfa_offset, -26
     420 00000058 E2AF          MOV32     R3H,*--SP             ; [CPU_] 
         00000059 03BE 
     421                      .dwcfi  cfa_offset, -24
     422                      .dwcfi  restore_reg, 55
     423                      .dwcfi  restore_reg, 56
TMS320C2000 Assembler PC v6.1.3 Thu Jan 30 10:26:14 2014

Tools Copyright (c) 1996-2012 Texas Instruments Incorporated
C:\Users\a0272466\AppData\Local\Temp\0274010                         PAGE    9

     424 0000005a E2AF          MOV32     R2H,*--SP             ; [CPU_] 
         0000005b 02BE 
     425                      .dwcfi  cfa_offset, -22
     426                      .dwcfi  restore_reg, 51
     427                      .dwcfi  restore_reg, 52
     428 0000005c E2AF          MOV32     R1H,*--SP             ; [CPU_] 
         0000005d 01BE 
     429                      .dwcfi  cfa_offset, -20
     430                      .dwcfi  restore_reg, 47
     431                      .dwcfi  restore_reg, 48
     432 0000005e E2AF          MOV32     R0H,*--SP             ; [CPU_] 
         0000005f 00BE 
     433                      .dwcfi  cfa_offset, -18
     434                      .dwcfi  restore_reg, 43
     435                      .dwcfi  restore_reg, 44
     436 00000060 E280          MOV32     STF,*--SP             ; [CPU_] 
         00000061 00BE 
     437                      .dwcfi  cfa_offset, -16
     438                      .dwcfi  restore_reg, 39
     439                      .dwcfi  restore_reg, 40
     440 00000062 C5BE          MOVL      XAR7,*--SP            ; [CPU_] 
     441                      .dwcfi  cfa_offset, -14
     442                      .dwcfi  restore_reg, 18
     443 00000063 C4BE          MOVL      XAR6,*--SP            ; [CPU_] 
     444                      .dwcfi  cfa_offset, -12
     445                      .dwcfi  restore_reg, 16
     446 00000064 83BE          MOVL      XAR5,*--SP            ; [CPU_] 
     447                      .dwcfi  cfa_offset, -10
     448                      .dwcfi  restore_reg, 14
     449 00000065 8ABE          MOVL      XAR4,*--SP            ; [CPU_] 
     450                      .dwcfi  cfa_offset, -8
     451                      .dwcfi  restore_reg, 12
     452 00000066 87BE          MOVL      XT,*--SP              ; [CPU_] 
     453                      .dwcfi  cfa_offset, -6
     454                      .dwcfi  restore_reg, 22
     455                      .dwcfi  restore_reg, 21
     456 00000067 0003          POP       AR1H:AR0H             ; [CPU_] 
     457                      .dwcfi  cfa_offset, -4
     458                      .dwcfi  restore_reg, 5
     459                      .dwcfi  restore_reg, 7
     460 00000068 FFF1          POP       RB                    ; [CPU_] 
     461                      .dwcfi  cfa_offset, -2
     462                      .dwcfi  restore_reg, 73
     463                      .dwcfi  restore_reg, 74
     464 00000069 7617          NASP      ; [CPU_] 
     465              $C$DW$37        .dwtag  DW_TAG_TI_branch
     466                      .dwattr $C$DW$37, DW_AT_low_pc(0x00)
     467                      .dwattr $C$DW$37, DW_AT_TI_return
     468 0000006a 7602          IRET      ; [CPU_] 
     469                      ; return occurs ; [] 
     470              
     471              $C$DW$38        .dwtag  DW_TAG_TI_loop
     472                      .dwattr $C$DW$38, DW_AT_name("C:\\Users\\a0272466\\AppData\\Local\\Temp\\0274010:$C$L4:1:1391099172")
     473                      .dwattr $C$DW$38, DW_AT_TI_begin_file("C:/work/grepos/bootrom/Boot_ROM/F2837x_bootROM-REVB/F2837x_boo
     474                      .dwattr $C$DW$38, DW_AT_TI_begin_line(0x69)
TMS320C2000 Assembler PC v6.1.3 Thu Jan 30 10:26:14 2014

Tools Copyright (c) 1996-2012 Texas Instruments Incorporated
C:\Users\a0272466\AppData\Local\Temp\0274010                         PAGE   10

     475                      .dwattr $C$DW$38, DW_AT_TI_end_line(0x69)
     476              $C$DW$39        .dwtag  DW_TAG_TI_loop_range
     477                      .dwattr $C$DW$39, DW_AT_low_pc($C$DW$L$_c1brom_pie_vect_mismatch_handler$6$B)
     478                      .dwattr $C$DW$39, DW_AT_high_pc($C$DW$L$_c1brom_pie_vect_mismatch_handler$6$E)
     479                      .dwendtag $C$DW$38
     480              
     481                      .dwattr $C$DW$33, DW_AT_TI_end_file("C:/work/grepos/bootrom/Boot_ROM/F2837x_bootROM-REVB/F2837x_bootR
     482                      .dwattr $C$DW$33, DW_AT_TI_end_line(0x6d)
     483                      .dwattr $C$DW$33, DW_AT_TI_end_column(0x01)
     484                      .dwendentry
     485                      .dwendtag $C$DW$33
     486              
     487 00000000               .sect   ".text"
     488                      .global _c1brom_handle_nmi_at_start
     489              
     490              $C$DW$40        .dwtag  DW_TAG_subprogram, DW_AT_name("c1brom_handle_nmi_at_start")
     491                      .dwattr $C$DW$40, DW_AT_low_pc(_c1brom_handle_nmi_at_start)
     492                      .dwattr $C$DW$40, DW_AT_high_pc(0x00)
     493                      .dwattr $C$DW$40, DW_AT_TI_symbol_name("_c1brom_handle_nmi_at_start")
     494                      .dwattr $C$DW$40, DW_AT_external
     495                      .dwattr $C$DW$40, DW_AT_TI_begin_file("C:/work/grepos/bootrom/Boot_ROM/F2837x_bootROM-REVB/F2837x_boo
     496                      .dwattr $C$DW$40, DW_AT_TI_begin_line(0x72)
     497                      .dwattr $C$DW$40, DW_AT_TI_begin_column(0x06)
     498                      .dwattr $C$DW$40, DW_AT_TI_max_frame_size(-4)
     499                      .dwpsn  file "C:/work/grepos/bootrom/Boot_ROM/F2837x_bootROM-REVB/F2837x_bootROM_dev/F2837x_bootROM/c
     500              
     501                      .dwfde $C$DW$CIE, _c1brom_handle_nmi_at_start
     502              
     503              ;***************************************************************
     504              ;* FNAME: _c1brom_handle_nmi_at_start   FR SIZE:   2           *
     505              ;*                                                             *
     506              ;* FUNCTION ENVIRONMENT                                        *
     507              ;*                                                             *
     508              ;* FUNCTION PROPERTIES                                         *
     509              ;*                            0 Parameter,  2 Auto,  0 SOE     *
     510              ;***************************************************************
     511              
     512 00000000       _c1brom_handle_nmi_at_start:
     513                      .dwcfi  cfa_offset, -2
     514                      .dwcfi  save_reg_to_mem, 26, 0
     515                      .dwcfi  save_reg_to_reg, 78, 26
     516 00000000 FE02          ADDB      SP,#2                 ; [CPU_U] 
     517                      .dwcfi  cfa_offset, -4
     518              $C$DW$41        .dwtag  DW_TAG_variable, DW_AT_name("EntryAddr")
     519                      .dwattr $C$DW$41, DW_AT_TI_symbol_name("_EntryAddr")
     520                      .dwattr $C$DW$41, DW_AT_type(*$C$DW$T$161)
     521                      .dwattr $C$DW$41, DW_AT_location[DW_OP_breg20 -2]
     522                      .dwpsn  file "C:/work/grepos/bootrom/Boot_ROM/F2837x_bootROM-REVB/F2837x_bootROM_dev/F2837x_bootROM/c
     523 00000001 8F07          MOVL      XAR4,#459738          ; [CPU_U] |118| 
         00000002 03DA 
     524 00000003 06C4          MOVL      ACC,*+XAR4[0]         ; [CPU_] |118| 
     525 00000004 1E42          MOVL      *-SP[2],ACC           ; [CPU_] |118| 
     526                      .dwpsn  file "C:/work/grepos/bootrom/Boot_ROM/F2837x_bootROM-REVB/F2837x_bootROM_dev/F2837x_bootROM/c
     527 00000005 0200          MOVB      ACC,#0                ; [CPU_] |120| 
     528 00000006 1901          SUBB      ACC,#1                ; [CPU_] |120| 
TMS320C2000 Assembler PC v6.1.3 Thu Jan 30 10:26:14 2014

Tools Copyright (c) 1996-2012 Texas Instruments Incorporated
C:\Users\a0272466\AppData\Local\Temp\0274010                         PAGE   11

     529 00000007 0F42          CMPL      ACC,*-SP[2]           ; [CPU_] |120| 
     530 00000008 EC05          BF        $C$L6,EQ              ; [CPU_] |120| 
     531                      ; branchcc occurs ; [] |120| 
     532 00000009 0642          MOVL      ACC,*-SP[2]           ; [CPU_] |120| 
     533 0000000a EC03          BF        $C$L6,EQ              ; [CPU_] |120| 
     534                      ; branchcc occurs ; [] |120| 
     535                      .dwpsn  file "C:/work/grepos/bootrom/Boot_ROM/F2837x_bootROM-REVB/F2837x_bootROM_dev/F2837x_bootROM/c
     536 0000000b C542          MOVL      XAR7,*-SP[2]          ; [CPU_] |125| 
     537              $C$DW$42        .dwtag  DW_TAG_TI_branch
     538                      .dwattr $C$DW$42, DW_AT_low_pc(0x00)
     539                      .dwattr $C$DW$42, DW_AT_TI_call
     540                      .dwattr $C$DW$42, DW_AT_TI_indirect
     541 0000000c 3E67          LCR       *XAR7                 ; [CPU_] |125| 
     542                      ; call occurs [XAR7] ; [] |125| 
     543 0000000d       $C$L6:    
     544                      .dwpsn  file "C:/work/grepos/bootrom/Boot_ROM/F2837x_bootROM-REVB/F2837x_bootROM_dev/F2837x_bootROM/c
     545 0000000d 761F!         MOVW      DP,#_NmiIntruptRegs+1 ; [CPU_U] 
         0000000e 0000 
     546 0000000f 9201!         MOV       AL,@_NmiIntruptRegs+1 ; [CPU_] |129| 
     547 00000010 761F-         MOVW      DP,#_c1brom_nmi_status ; [CPU_U] 
         00000011 0000 
     548 00000012 9600-         MOV       @_c1brom_nmi_status,AL ; [CPU_] |129| 
     549 00000013       $C$L7:    
     550 00000013       $C$DW$L$_c1brom_handle_nmi_at_start$5$B:
     551                      .dwpsn  file "C:/work/grepos/bootrom/Boot_ROM/F2837x_bootROM-REVB/F2837x_bootROM_dev/F2837x_bootROM/c
     552 00000013 4100-         TBIT      @_c1brom_nmi_status,#1 ; [CPU_] |132| 
     553 00000014 EF20          BF        $C$L8,NTC             ; [CPU_] |132| 
     554                      ; branchcc occurs ; [] |132| 
     555 00000015       $C$DW$L$_c1brom_handle_nmi_at_start$5$E:
     556 00000015       $C$DW$L$_c1brom_handle_nmi_at_start$6$B:
     557                      .dwpsn  file "C:/work/grepos/bootrom/Boot_ROM/F2837x_bootROM-REVB/F2837x_bootROM_dev/F2837x_bootROM/c
     558 00000015 761F!         MOVW      DP,#_c1brom_status+1  ; [CPU_U] 
         00000016 0000 
     559 00000017 1A01!         OR        @_c1brom_status+1,#16384 ; [CPU_] |134| 
         00000018 4000 
     560                      .dwpsn  file "C:/work/grepos/bootrom/Boot_ROM/F2837x_bootROM-REVB/F2837x_bootROM_dev/F2837x_bootROM/c
     561 00000019 761F-         MOVW      DP,#_c1brom_nmi_status ; [CPU_U] 
         0000001a 0000 
     562 0000001b 1800-         AND       @_c1brom_nmi_status,#0xfffd ; [CPU_] |135| 
         0000001c FFFD 
     563                      .dwpsn  file "C:/work/grepos/bootrom/Boot_ROM/F2837x_bootROM-REVB/F2837x_bootROM_dev/F2837x_bootROM/c
     564 0000001d 7622   EALLOW
     565                      .dwpsn  file "C:/work/grepos/bootrom/Boot_ROM/F2837x_bootROM-REVB/F2837x_bootROM_dev/F2837x_bootROM/c
     566 0000001e 761F!         MOVW      DP,#_NmiIntruptRegs+2 ; [CPU_U] 
         0000001f 0000 
     567 00000020 1A02!         OR        @_NmiIntruptRegs+2,#0x0002 ; [CPU_] |138| 
         00000021 0002 
     568                      .dwpsn  file "C:/work/grepos/bootrom/Boot_ROM/F2837x_bootROM-REVB/F2837x_bootROM_dev/F2837x_bootROM/c
     569 00000022 761A   EDIS
     570                      .dwpsn  file "C:/work/grepos/bootrom/Boot_ROM/F2837x_bootROM-REVB/F2837x_bootROM_dev/F2837x_bootROM/c
     571 00000023 9201!         MOV       AL,@_NmiIntruptRegs+1 ; [CPU_] |141| 
     572 00000024 761F-         MOVW      DP,#_c1brom_nmi_status ; [CPU_U] 
         00000025 0000 
     573 00000026 9600-         MOV       @_c1brom_nmi_status,AL ; [CPU_] |141| 
     574                      .dwpsn  file "C:/work/grepos/bootrom/Boot_ROM/F2837x_bootROM-REVB/F2837x_bootROM_dev/F2837x_bootROM/c
TMS320C2000 Assembler PC v6.1.3 Thu Jan 30 10:26:14 2014

Tools Copyright (c) 1996-2012 Texas Instruments Incorporated
C:\Users\a0272466\AppData\Local\Temp\0274010                         PAGE   12

     575 00000027 9200-         MOV       AL,@_c1brom_nmi_status ; [CPU_] |144| 
     576 00000028 5201          CMPB      AL,#1                 ; [CPU_] |144| 
     577 00000029 ED0B          BF        $C$L8,NEQ             ; [CPU_] |144| 
     578                      ; branchcc occurs ; [] |144| 
     579 0000002a       $C$DW$L$_c1brom_handle_nmi_at_start$6$E:
     580                      .dwpsn  file "C:/work/grepos/bootrom/Boot_ROM/F2837x_bootROM-REVB/F2837x_bootROM_dev/F2837x_bootROM/c
     581 0000002a 1800-         AND       @_c1brom_nmi_status,#0xfffe ; [CPU_] |146| 
         0000002b FFFE 
     582                      .dwpsn  file "C:/work/grepos/bootrom/Boot_ROM/F2837x_bootROM-REVB/F2837x_bootROM_dev/F2837x_bootROM/c
     583 0000002c 7622   EALLOW
     584                      .dwpsn  file "C:/work/grepos/bootrom/Boot_ROM/F2837x_bootROM-REVB/F2837x_bootROM_dev/F2837x_bootROM/c
     585 0000002d 761F!         MOVW      DP,#_NmiIntruptRegs+2 ; [CPU_U] 
         0000002e 0000 
     586 0000002f 1A02!         OR        @_NmiIntruptRegs+2,#0x0001 ; [CPU_] |149| 
         00000030 0001 
     587                      .dwpsn  file "C:/work/grepos/bootrom/Boot_ROM/F2837x_bootROM-REVB/F2837x_bootROM_dev/F2837x_bootROM/c
     588 00000031 761A   EDIS
     589                      .dwpsn  file "C:/work/grepos/bootrom/Boot_ROM/F2837x_bootROM-REVB/F2837x_bootROM_dev/F2837x_bootROM/c
     590 00000032 FFEF          B         $C$L21,UNC            ; [CPU_] |152| 
         00000033 00B1 
     591                      ; branch occurs ; [] |152| 
     592 00000034       $C$L8:    
     593 00000034       $C$DW$L$_c1brom_handle_nmi_at_start$8$B:
     594                      .dwpsn  file "C:/work/grepos/bootrom/Boot_ROM/F2837x_bootROM-REVB/F2837x_bootROM_dev/F2837x_bootROM/c
     595 00000034 4400-         TBIT      @_c1brom_nmi_status,#4 ; [CPU_] |156| 
     596 00000035 EF0F          BF        $C$L9,NTC             ; [CPU_] |156| 
     597                      ; branchcc occurs ; [] |156| 
     598 00000036       $C$DW$L$_c1brom_handle_nmi_at_start$8$E:
     599 00000036       $C$DW$L$_c1brom_handle_nmi_at_start$9$B:
     600                      .dwpsn  file "C:/work/grepos/bootrom/Boot_ROM/F2837x_bootROM-REVB/F2837x_bootROM_dev/F2837x_bootROM/c
     601 00000036 761F!         MOVW      DP,#_c1brom_status+1  ; [CPU_U] 
         00000037 0000 
     602 00000038 1A01!         OR        @_c1brom_status+1,#2048 ; [CPU_] |158| 
         00000039 0800 
     603                      .dwpsn  file "C:/work/grepos/bootrom/Boot_ROM/F2837x_bootROM-REVB/F2837x_bootROM_dev/F2837x_bootROM/c
     604 0000003a 761F-         MOVW      DP,#_c1brom_nmi_status ; [CPU_U] 
         0000003b 0000 
     605 0000003c 1800-         AND       @_c1brom_nmi_status,#0xffef ; [CPU_] |160| 
         0000003d FFEF 
     606                      .dwpsn  file "C:/work/grepos/bootrom/Boot_ROM/F2837x_bootROM-REVB/F2837x_bootROM_dev/F2837x_bootROM/c
     607 0000003e 7622   EALLOW
     608                      .dwpsn  file "C:/work/grepos/bootrom/Boot_ROM/F2837x_bootROM-REVB/F2837x_bootROM_dev/F2837x_bootROM/c
     609 0000003f 761F!         MOVW      DP,#_NmiIntruptRegs+2 ; [CPU_U] 
         00000040 0000 
     610 00000041 1A02!         OR        @_NmiIntruptRegs+2,#0x0010 ; [CPU_] |162| 
         00000042 0010 
     611                      .dwpsn  file "C:/work/grepos/bootrom/Boot_ROM/F2837x_bootROM-REVB/F2837x_bootROM_dev/F2837x_bootROM/c
     612 00000043 761A   EDIS
     613 00000044       $C$DW$L$_c1brom_handle_nmi_at_start$9$E:
     614 00000044       $C$L9:    
     615 00000044       $C$DW$L$_c1brom_handle_nmi_at_start$10$B:
     616                      .dwpsn  file "C:/work/grepos/bootrom/Boot_ROM/F2837x_bootROM-REVB/F2837x_bootROM_dev/F2837x_bootROM/c
     617 00000044 761F-         MOVW      DP,#_c1brom_nmi_status ; [CPU_U] 
         00000045 0000 
     618 00000046 4500-         TBIT      @_c1brom_nmi_status,#5 ; [CPU_] |166| 
TMS320C2000 Assembler PC v6.1.3 Thu Jan 30 10:26:14 2014

Tools Copyright (c) 1996-2012 Texas Instruments Incorporated
C:\Users\a0272466\AppData\Local\Temp\0274010                         PAGE   13

     619 00000047 EF0F          BF        $C$L10,NTC            ; [CPU_] |166| 
     620                      ; branchcc occurs ; [] |166| 
     621 00000048       $C$DW$L$_c1brom_handle_nmi_at_start$10$E:
     622 00000048       $C$DW$L$_c1brom_handle_nmi_at_start$11$B:
     623                      .dwpsn  file "C:/work/grepos/bootrom/Boot_ROM/F2837x_bootROM-REVB/F2837x_bootROM_dev/F2837x_bootROM/c
     624 00000048 761F!         MOVW      DP,#_c1brom_status+1  ; [CPU_U] 
         00000049 0000 
     625 0000004a 1A01!         OR        @_c1brom_status+1,#1024 ; [CPU_] |168| 
         0000004b 0400 
     626                      .dwpsn  file "C:/work/grepos/bootrom/Boot_ROM/F2837x_bootROM-REVB/F2837x_bootROM_dev/F2837x_bootROM/c
     627 0000004c 761F-         MOVW      DP,#_c1brom_nmi_status ; [CPU_U] 
         0000004d 0000 
     628 0000004e 1800-         AND       @_c1brom_nmi_status,#0xffdf ; [CPU_] |170| 
         0000004f FFDF 
     629                      .dwpsn  file "C:/work/grepos/bootrom/Boot_ROM/F2837x_bootROM-REVB/F2837x_bootROM_dev/F2837x_bootROM/c
     630 00000050 7622   EALLOW
     631                      .dwpsn  file "C:/work/grepos/bootrom/Boot_ROM/F2837x_bootROM-REVB/F2837x_bootROM_dev/F2837x_bootROM/c
     632 00000051 761F!         MOVW      DP,#_NmiIntruptRegs+2 ; [CPU_U] 
         00000052 0000 
     633 00000053 1A02!         OR        @_NmiIntruptRegs+2,#0x0020 ; [CPU_] |173| 
         00000054 0020 
     634                      .dwpsn  file "C:/work/grepos/bootrom/Boot_ROM/F2837x_bootROM-REVB/F2837x_bootROM_dev/F2837x_bootROM/c
     635 00000055 761A   EDIS
     636 00000056       $C$DW$L$_c1brom_handle_nmi_at_start$11$E:
     637 00000056       $C$L10:    
     638 00000056       $C$DW$L$_c1brom_handle_nmi_at_start$12$B:
     639                      .dwpsn  file "C:/work/grepos/bootrom/Boot_ROM/F2837x_bootROM-REVB/F2837x_bootROM_dev/F2837x_bootROM/c
     640 00000056 761F-         MOVW      DP,#_c1brom_nmi_status ; [CPU_U] 
         00000057 0000 
     641 00000058 4600-         TBIT      @_c1brom_nmi_status,#6 ; [CPU_] |177| 
     642 00000059 EF0F          BF        $C$L11,NTC            ; [CPU_] |177| 
     643                      ; branchcc occurs ; [] |177| 
     644 0000005a       $C$DW$L$_c1brom_handle_nmi_at_start$12$E:
     645 0000005a       $C$DW$L$_c1brom_handle_nmi_at_start$13$B:
     646                      .dwpsn  file "C:/work/grepos/bootrom/Boot_ROM/F2837x_bootROM-REVB/F2837x_bootROM_dev/F2837x_bootROM/c
     647 0000005a 761F!         MOVW      DP,#_c1brom_status+1  ; [CPU_U] 
         0000005b 0000 
     648 0000005c 1A01!         OR        @_c1brom_status+1,#512 ; [CPU_] |179| 
         0000005d 0200 
     649                      .dwpsn  file "C:/work/grepos/bootrom/Boot_ROM/F2837x_bootROM-REVB/F2837x_bootROM_dev/F2837x_bootROM/c
     650 0000005e 761F-         MOVW      DP,#_c1brom_nmi_status ; [CPU_U] 
         0000005f 0000 
     651 00000060 1800-         AND       @_c1brom_nmi_status,#0xffbf ; [CPU_] |181| 
         00000061 FFBF 
     652                      .dwpsn  file "C:/work/grepos/bootrom/Boot_ROM/F2837x_bootROM-REVB/F2837x_bootROM_dev/F2837x_bootROM/c
     653 00000062 7622   EALLOW
     654                      .dwpsn  file "C:/work/grepos/bootrom/Boot_ROM/F2837x_bootROM-REVB/F2837x_bootROM_dev/F2837x_bootROM/c
     655 00000063 761F!         MOVW      DP,#_NmiIntruptRegs+2 ; [CPU_U] 
         00000064 0000 
     656 00000065 1A02!         OR        @_NmiIntruptRegs+2,#0x0040 ; [CPU_] |183| 
         00000066 0040 
     657                      .dwpsn  file "C:/work/grepos/bootrom/Boot_ROM/F2837x_bootROM-REVB/F2837x_bootROM_dev/F2837x_bootROM/c
     658 00000067 761A   EDIS
     659 00000068       $C$DW$L$_c1brom_handle_nmi_at_start$13$E:
     660 00000068       $C$L11:    
TMS320C2000 Assembler PC v6.1.3 Thu Jan 30 10:26:14 2014

Tools Copyright (c) 1996-2012 Texas Instruments Incorporated
C:\Users\a0272466\AppData\Local\Temp\0274010                         PAGE   14

     661 00000068       $C$DW$L$_c1brom_handle_nmi_at_start$14$B:
     662                      .dwpsn  file "C:/work/grepos/bootrom/Boot_ROM/F2837x_bootROM-REVB/F2837x_bootROM_dev/F2837x_bootROM/c
     663 00000068 761F-         MOVW      DP,#_c1brom_nmi_status ; [CPU_U] 
         00000069 0000 
     664 0000006a 4700-         TBIT      @_c1brom_nmi_status,#7 ; [CPU_] |186| 
     665 0000006b EF0F          BF        $C$L12,NTC            ; [CPU_] |186| 
     666                      ; branchcc occurs ; [] |186| 
     667 0000006c       $C$DW$L$_c1brom_handle_nmi_at_start$14$E:
     668 0000006c       $C$DW$L$_c1brom_handle_nmi_at_start$15$B:
     669                      .dwpsn  file "C:/work/grepos/bootrom/Boot_ROM/F2837x_bootROM-REVB/F2837x_bootROM_dev/F2837x_bootROM/c
     670 0000006c 761F!         MOVW      DP,#_c1brom_status+1  ; [CPU_U] 
         0000006d 0000 
     671 0000006e 1A01!         OR        @_c1brom_status+1,#256 ; [CPU_] |188| 
         0000006f 0100 
     672                      .dwpsn  file "C:/work/grepos/bootrom/Boot_ROM/F2837x_bootROM-REVB/F2837x_bootROM_dev/F2837x_bootROM/c
     673 00000070 761F-         MOVW      DP,#_c1brom_nmi_status ; [CPU_U] 
         00000071 0000 
     674 00000072 1800-         AND       @_c1brom_nmi_status,#0xff7f ; [CPU_] |190| 
         00000073 FF7F 
     675                      .dwpsn  file "C:/work/grepos/bootrom/Boot_ROM/F2837x_bootROM-REVB/F2837x_bootROM_dev/F2837x_bootROM/c
     676 00000074 7622   EALLOW
     677                      .dwpsn  file "C:/work/grepos/bootrom/Boot_ROM/F2837x_bootROM-REVB/F2837x_bootROM_dev/F2837x_bootROM/c
     678 00000075 761F!         MOVW      DP,#_NmiIntruptRegs+2 ; [CPU_U] 
         00000076 0000 
     679 00000077 1A02!         OR        @_NmiIntruptRegs+2,#0x0080 ; [CPU_] |192| 
         00000078 0080 
     680                      .dwpsn  file "C:/work/grepos/bootrom/Boot_ROM/F2837x_bootROM-REVB/F2837x_bootROM_dev/F2837x_bootROM/c
     681 00000079 761A   EDIS
     682 0000007a       $C$DW$L$_c1brom_handle_nmi_at_start$15$E:
     683 0000007a       $C$L12:    
     684 0000007a       $C$DW$L$_c1brom_handle_nmi_at_start$16$B:
     685                      .dwpsn  file "C:/work/grepos/bootrom/Boot_ROM/F2837x_bootROM-REVB/F2837x_bootROM_dev/F2837x_bootROM/c
     686 0000007a 761F-         MOVW      DP,#_c1brom_nmi_status ; [CPU_U] 
         0000007b 0000 
     687 0000007c 4800-         TBIT      @_c1brom_nmi_status,#8 ; [CPU_] |195| 
     688 0000007d EF0F          BF        $C$L13,NTC            ; [CPU_] |195| 
     689                      ; branchcc occurs ; [] |195| 
     690 0000007e       $C$DW$L$_c1brom_handle_nmi_at_start$16$E:
     691 0000007e       $C$DW$L$_c1brom_handle_nmi_at_start$17$B:
     692                      .dwpsn  file "C:/work/grepos/bootrom/Boot_ROM/F2837x_bootROM-REVB/F2837x_bootROM_dev/F2837x_bootROM/c
     693 0000007e 761F!         MOVW      DP,#_c1brom_status+1  ; [CPU_U] 
         0000007f 0000 
     694 00000080 1A01!         OR        @_c1brom_status+1,#128 ; [CPU_] |197| 
         00000081 0080 
     695                      .dwpsn  file "C:/work/grepos/bootrom/Boot_ROM/F2837x_bootROM-REVB/F2837x_bootROM_dev/F2837x_bootROM/c
     696 00000082 761F-         MOVW      DP,#_c1brom_nmi_status ; [CPU_U] 
         00000083 0000 
     697 00000084 1800-         AND       @_c1brom_nmi_status,#0xfeff ; [CPU_] |199| 
         00000085 FEFF 
     698                      .dwpsn  file "C:/work/grepos/bootrom/Boot_ROM/F2837x_bootROM-REVB/F2837x_bootROM_dev/F2837x_bootROM/c
     699 00000086 7622   EALLOW
     700                      .dwpsn  file "C:/work/grepos/bootrom/Boot_ROM/F2837x_bootROM-REVB/F2837x_bootROM_dev/F2837x_bootROM/c
     701 00000087 761F!         MOVW      DP,#_NmiIntruptRegs+2 ; [CPU_U] 
         00000088 0000 
     702 00000089 1A02!         OR        @_NmiIntruptRegs+2,#0x0100 ; [CPU_] |201| 
TMS320C2000 Assembler PC v6.1.3 Thu Jan 30 10:26:14 2014

Tools Copyright (c) 1996-2012 Texas Instruments Incorporated
C:\Users\a0272466\AppData\Local\Temp\0274010                         PAGE   15

         0000008a 0100 
     703                      .dwpsn  file "C:/work/grepos/bootrom/Boot_ROM/F2837x_bootROM-REVB/F2837x_bootROM_dev/F2837x_bootROM/c
     704 0000008b 761A   EDIS
     705 0000008c       $C$DW$L$_c1brom_handle_nmi_at_start$17$E:
     706 0000008c       $C$L13:    
     707 0000008c       $C$DW$L$_c1brom_handle_nmi_at_start$18$B:
     708                      .dwpsn  file "C:/work/grepos/bootrom/Boot_ROM/F2837x_bootROM-REVB/F2837x_bootROM_dev/F2837x_bootROM/c
     709 0000008c 761F-         MOVW      DP,#_c1brom_nmi_status ; [CPU_U] 
         0000008d 0000 
     710 0000008e 4900-         TBIT      @_c1brom_nmi_status,#9 ; [CPU_] |204| 
     711 0000008f EF0F          BF        $C$L14,NTC            ; [CPU_] |204| 
     712                      ; branchcc occurs ; [] |204| 
     713 00000090       $C$DW$L$_c1brom_handle_nmi_at_start$18$E:
     714 00000090       $C$DW$L$_c1brom_handle_nmi_at_start$19$B:
     715                      .dwpsn  file "C:/work/grepos/bootrom/Boot_ROM/F2837x_bootROM-REVB/F2837x_bootROM_dev/F2837x_bootROM/c
     716 00000090 761F!         MOVW      DP,#_c1brom_status+1  ; [CPU_U] 
         00000091 0000 
     717 00000092 1A01!         OR        @_c1brom_status+1,#64 ; [CPU_] |206| 
         00000093 0040 
     718                      .dwpsn  file "C:/work/grepos/bootrom/Boot_ROM/F2837x_bootROM-REVB/F2837x_bootROM_dev/F2837x_bootROM/c
     719 00000094 761F-         MOVW      DP,#_c1brom_nmi_status ; [CPU_U] 
         00000095 0000 
     720 00000096 1800-         AND       @_c1brom_nmi_status,#0xfdff ; [CPU_] |208| 
         00000097 FDFF 
     721                      .dwpsn  file "C:/work/grepos/bootrom/Boot_ROM/F2837x_bootROM-REVB/F2837x_bootROM_dev/F2837x_bootROM/c
     722 00000098 7622   EALLOW
     723                      .dwpsn  file "C:/work/grepos/bootrom/Boot_ROM/F2837x_bootROM-REVB/F2837x_bootROM_dev/F2837x_bootROM/c
     724 00000099 761F!         MOVW      DP,#_NmiIntruptRegs+2 ; [CPU_U] 
         0000009a 0000 
     725 0000009b 1A02!         OR        @_NmiIntruptRegs+2,#0x0200 ; [CPU_] |210| 
         0000009c 0200 
     726                      .dwpsn  file "C:/work/grepos/bootrom/Boot_ROM/F2837x_bootROM-REVB/F2837x_bootROM_dev/F2837x_bootROM/c
     727 0000009d 761A   EDIS
     728 0000009e       $C$DW$L$_c1brom_handle_nmi_at_start$19$E:
     729 0000009e       $C$L14:    
     730 0000009e       $C$DW$L$_c1brom_handle_nmi_at_start$20$B:
     731                      .dwpsn  file "C:/work/grepos/bootrom/Boot_ROM/F2837x_bootROM-REVB/F2837x_bootROM_dev/F2837x_bootROM/c
     732 0000009e 761F-         MOVW      DP,#_c1brom_nmi_status ; [CPU_U] 
         0000009f 0000 
     733 000000a0 4A00-         TBIT      @_c1brom_nmi_status,#10 ; [CPU_] |214| 
     734 000000a1 EF0F          BF        $C$L15,NTC            ; [CPU_] |214| 
     735                      ; branchcc occurs ; [] |214| 
     736 000000a2       $C$DW$L$_c1brom_handle_nmi_at_start$20$E:
     737 000000a2       $C$DW$L$_c1brom_handle_nmi_at_start$21$B:
     738                      .dwpsn  file "C:/work/grepos/bootrom/Boot_ROM/F2837x_bootROM-REVB/F2837x_bootROM_dev/F2837x_bootROM/c
     739 000000a2 761F!         MOVW      DP,#_c1brom_status+1  ; [CPU_U] 
         000000a3 0000 
     740 000000a4 1A01!         OR        @_c1brom_status+1,#64 ; [CPU_] |216| 
         000000a5 0040 
     741                      .dwpsn  file "C:/work/grepos/bootrom/Boot_ROM/F2837x_bootROM-REVB/F2837x_bootROM_dev/F2837x_bootROM/c
     742 000000a6 761F-         MOVW      DP,#_c1brom_nmi_status ; [CPU_U] 
         000000a7 0000 
     743 000000a8 1800-         AND       @_c1brom_nmi_status,#0xfbff ; [CPU_] |218| 
         000000a9 FBFF 
     744                      .dwpsn  file "C:/work/grepos/bootrom/Boot_ROM/F2837x_bootROM-REVB/F2837x_bootROM_dev/F2837x_bootROM/c
TMS320C2000 Assembler PC v6.1.3 Thu Jan 30 10:26:14 2014

Tools Copyright (c) 1996-2012 Texas Instruments Incorporated
C:\Users\a0272466\AppData\Local\Temp\0274010                         PAGE   16

     745 000000aa 7622   EALLOW
     746                      .dwpsn  file "C:/work/grepos/bootrom/Boot_ROM/F2837x_bootROM-REVB/F2837x_bootROM_dev/F2837x_bootROM/c
     747 000000ab 761F!         MOVW      DP,#_NmiIntruptRegs+2 ; [CPU_U] 
         000000ac 0000 
     748 000000ad 1A02!         OR        @_NmiIntruptRegs+2,#0x0400 ; [CPU_] |220| 
         000000ae 0400 
     749                      .dwpsn  file "C:/work/grepos/bootrom/Boot_ROM/F2837x_bootROM-REVB/F2837x_bootROM_dev/F2837x_bootROM/c
     750 000000af 761A   EDIS
     751 000000b0       $C$DW$L$_c1brom_handle_nmi_at_start$21$E:
     752 000000b0       $C$L15:    
     753 000000b0       $C$DW$L$_c1brom_handle_nmi_at_start$22$B:
     754                      .dwpsn  file "C:/work/grepos/bootrom/Boot_ROM/F2837x_bootROM-REVB/F2837x_bootROM_dev/F2837x_bootROM/c
     755 000000b0 761F-         MOVW      DP,#_c1brom_nmi_status ; [CPU_U] 
         000000b1 0000 
     756 000000b2 4B00-         TBIT      @_c1brom_nmi_status,#11 ; [CPU_] |224| 
     757 000000b3 EF0F          BF        $C$L16,NTC            ; [CPU_] |224| 
     758                      ; branchcc occurs ; [] |224| 
     759 000000b4       $C$DW$L$_c1brom_handle_nmi_at_start$22$E:
     760 000000b4       $C$DW$L$_c1brom_handle_nmi_at_start$23$B:
     761                      .dwpsn  file "C:/work/grepos/bootrom/Boot_ROM/F2837x_bootROM-REVB/F2837x_bootROM_dev/F2837x_bootROM/c
     762 000000b4 761F!         MOVW      DP,#_c1brom_status+1  ; [CPU_U] 
         000000b5 0000 
     763 000000b6 1A01!         OR        @_c1brom_status+1,#16 ; [CPU_] |226| 
         000000b7 0010 
     764                      .dwpsn  file "C:/work/grepos/bootrom/Boot_ROM/F2837x_bootROM-REVB/F2837x_bootROM_dev/F2837x_bootROM/c
     765 000000b8 761F-         MOVW      DP,#_c1brom_nmi_status ; [CPU_U] 
         000000b9 0000 
     766 000000ba 1800-         AND       @_c1brom_nmi_status,#0xf7ff ; [CPU_] |228| 
         000000bb F7FF 
     767                      .dwpsn  file "C:/work/grepos/bootrom/Boot_ROM/F2837x_bootROM-REVB/F2837x_bootROM_dev/F2837x_bootROM/c
     768 000000bc 7622   EALLOW
     769                      .dwpsn  file "C:/work/grepos/bootrom/Boot_ROM/F2837x_bootROM-REVB/F2837x_bootROM_dev/F2837x_bootROM/c
     770 000000bd 761F!         MOVW      DP,#_NmiIntruptRegs+2 ; [CPU_U] 
         000000be 0000 
     771 000000bf 1A02!         OR        @_NmiIntruptRegs+2,#0x0800 ; [CPU_] |230| 
         000000c0 0800 
     772                      .dwpsn  file "C:/work/grepos/bootrom/Boot_ROM/F2837x_bootROM-REVB/F2837x_bootROM_dev/F2837x_bootROM/c
     773 000000c1 761A   EDIS
     774 000000c2       $C$DW$L$_c1brom_handle_nmi_at_start$23$E:
     775 000000c2       $C$L16:    
     776 000000c2       $C$DW$L$_c1brom_handle_nmi_at_start$24$B:
     777                      .dwpsn  file "C:/work/grepos/bootrom/Boot_ROM/F2837x_bootROM-REVB/F2837x_bootROM_dev/F2837x_bootROM/c
     778 000000c2 761F-         MOVW      DP,#_c1brom_nmi_status ; [CPU_U] 
         000000c3 0000 
     779 000000c4 4200-         TBIT      @_c1brom_nmi_status,#2 ; [CPU_] |236| 
     780 000000c5 EF07          BF        $C$L18,NTC            ; [CPU_] |236| 
     781                      ; branchcc occurs ; [] |236| 
     782 000000c6       $C$DW$L$_c1brom_handle_nmi_at_start$24$E:
     783                      .dwpsn  file "C:/work/grepos/bootrom/Boot_ROM/F2837x_bootROM-REVB/F2837x_bootROM_dev/F2837x_bootROM/c
     784 000000c6 761F!         MOVW      DP,#_c1brom_status+1  ; [CPU_U] 
         000000c7 0000 
     785 000000c8 1A01!         OR        @_c1brom_status+1,#8192 ; [CPU_] |238| 
         000000c9 2000 
     786                      .dwpsn  file "C:/work/grepos/bootrom/Boot_ROM/F2837x_bootROM-REVB/F2837x_bootROM_dev/F2837x_bootROM/c
     787 000000ca 7625     ESTOP0
TMS320C2000 Assembler PC v6.1.3 Thu Jan 30 10:26:14 2014

Tools Copyright (c) 1996-2012 Texas Instruments Incorporated
C:\Users\a0272466\AppData\Local\Temp\0274010                         PAGE   17

     788                      .dwpsn  file "C:/work/grepos/bootrom/Boot_ROM/F2837x_bootROM-REVB/F2837x_bootROM_dev/F2837x_bootROM/c
     789 000000cb       $C$L17:    
     790 000000cb       $C$DW$L$_c1brom_handle_nmi_at_start$26$B:
     791 000000cb 6F00          B         $C$L17,UNC            ; [CPU_] |243| 
     792                      ; branch occurs ; [] |243| 
     793 000000cc       $C$DW$L$_c1brom_handle_nmi_at_start$26$E:
     794 000000cc       $C$L18:    
     795 000000cc       $C$DW$L$_c1brom_handle_nmi_at_start$27$B:
     796                      .dwpsn  file "C:/work/grepos/bootrom/Boot_ROM/F2837x_bootROM-REVB/F2837x_bootROM_dev/F2837x_bootROM/c
     797 000000cc 4300-         TBIT      @_c1brom_nmi_status,#3 ; [CPU_] |250| 
     798 000000cd EF07          BF        $C$L20,NTC            ; [CPU_] |250| 
     799                      ; branchcc occurs ; [] |250| 
     800 000000ce       $C$DW$L$_c1brom_handle_nmi_at_start$27$E:
     801                      .dwpsn  file "C:/work/grepos/bootrom/Boot_ROM/F2837x_bootROM-REVB/F2837x_bootROM_dev/F2837x_bootROM/c
     802 000000ce 761F!         MOVW      DP,#_c1brom_status+1  ; [CPU_U] 
         000000cf 0000 
     803 000000d0 1A01!         OR        @_c1brom_status+1,#4096 ; [CPU_] |252| 
         000000d1 1000 
     804                      .dwpsn  file "C:/work/grepos/bootrom/Boot_ROM/F2837x_bootROM-REVB/F2837x_bootROM_dev/F2837x_bootROM/c
     805 000000d2 7625     ESTOP0
     806                      .dwpsn  file "C:/work/grepos/bootrom/Boot_ROM/F2837x_bootROM-REVB/F2837x_bootROM_dev/F2837x_bootROM/c
     807 000000d3       $C$L19:    
     808 000000d3       $C$DW$L$_c1brom_handle_nmi_at_start$29$B:
     809 000000d3 6F00          B         $C$L19,UNC            ; [CPU_] |258| 
     810                      ; branch occurs ; [] |258| 
     811 000000d4       $C$DW$L$_c1brom_handle_nmi_at_start$29$E:
     812 000000d4       $C$L20:    
     813 000000d4       $C$DW$L$_c1brom_handle_nmi_at_start$30$B:
     814                      .dwpsn  file "C:/work/grepos/bootrom/Boot_ROM/F2837x_bootROM-REVB/F2837x_bootROM_dev/F2837x_bootROM/c
     815 000000d4 1800-         AND       @_c1brom_nmi_status,#0xfffe ; [CPU_] |266| 
         000000d5 FFFE 
     816                      .dwpsn  file "C:/work/grepos/bootrom/Boot_ROM/F2837x_bootROM-REVB/F2837x_bootROM_dev/F2837x_bootROM/c
     817 000000d6 7622   EALLOW
     818                      .dwpsn  file "C:/work/grepos/bootrom/Boot_ROM/F2837x_bootROM-REVB/F2837x_bootROM_dev/F2837x_bootROM/c
     819 000000d7 761F!         MOVW      DP,#_NmiIntruptRegs+2 ; [CPU_U] 
         000000d8 0000 
     820 000000d9 1A02!         OR        @_NmiIntruptRegs+2,#0x0001 ; [CPU_] |268| 
         000000da 0001 
     821                      .dwpsn  file "C:/work/grepos/bootrom/Boot_ROM/F2837x_bootROM-REVB/F2837x_bootROM_dev/F2837x_bootROM/c
     822 000000db 761A   EDIS
     823                      .dwpsn  file "C:/work/grepos/bootrom/Boot_ROM/F2837x_bootROM-REVB/F2837x_bootROM_dev/F2837x_bootROM/c
     824 000000dc 9201!         MOV       AL,@_NmiIntruptRegs+1 ; [CPU_] |271| 
     825 000000dd 761F-         MOVW      DP,#_c1brom_nmi_status ; [CPU_U] 
         000000de 0000 
     826 000000df 9600-         MOV       @_c1brom_nmi_status,AL ; [CPU_] |271| 
     827                      .dwpsn  file "C:/work/grepos/bootrom/Boot_ROM/F2837x_bootROM-REVB/F2837x_bootROM_dev/F2837x_bootROM/c
     828 000000e0 4000-         TBIT      @_c1brom_nmi_status,#0 ; [CPU_] |130| 
     829 000000e1 56CD          BF        $C$L7,TC              ; [CPU_] |130| 
         000000e2 FF32 
     830                      ; branchcc occurs ; [] |130| 
     831 000000e3       $C$DW$L$_c1brom_handle_nmi_at_start$30$E:
     832                      .dwpsn  file "C:/work/grepos/bootrom/Boot_ROM/F2837x_bootROM-REVB/F2837x_bootROM_dev/F2837x_bootROM/c
     833 000000e3       $C$L21:    
     834 000000e3 FE82          SUBB      SP,#2                 ; [CPU_U] 
     835                      .dwcfi  cfa_offset, -2
TMS320C2000 Assembler PC v6.1.3 Thu Jan 30 10:26:14 2014

Tools Copyright (c) 1996-2012 Texas Instruments Incorporated
C:\Users\a0272466\AppData\Local\Temp\0274010                         PAGE   18

     836 000000e4 FF69          SPM       #0                    ; [CPU_] 
     837              $C$DW$43        .dwtag  DW_TAG_TI_branch
     838                      .dwattr $C$DW$43, DW_AT_low_pc(0x00)
     839                      .dwattr $C$DW$43, DW_AT_TI_return
     840 000000e5 0006          LRETR     ; [CPU_] 
     841                      ; return occurs ; [] 
     842              
     843              $C$DW$44        .dwtag  DW_TAG_TI_loop
     844                      .dwattr $C$DW$44, DW_AT_name("C:\\Users\\a0272466\\AppData\\Local\\Temp\\0274010:$C$L19:1:1391099172"
     845                      .dwattr $C$DW$44, DW_AT_TI_begin_file("C:/work/grepos/bootrom/Boot_ROM/F2837x_bootROM-REVB/F2837x_boo
     846                      .dwattr $C$DW$44, DW_AT_TI_begin_line(0x102)
     847                      .dwattr $C$DW$44, DW_AT_TI_end_line(0x102)
     848              $C$DW$45        .dwtag  DW_TAG_TI_loop_range
     849                      .dwattr $C$DW$45, DW_AT_low_pc($C$DW$L$_c1brom_handle_nmi_at_start$29$B)
     850                      .dwattr $C$DW$45, DW_AT_high_pc($C$DW$L$_c1brom_handle_nmi_at_start$29$E)
     851                      .dwendtag $C$DW$44
     852              
     853              
     854              $C$DW$46        .dwtag  DW_TAG_TI_loop
     855                      .dwattr $C$DW$46, DW_AT_name("C:\\Users\\a0272466\\AppData\\Local\\Temp\\0274010:$C$L17:1:1391099172"
     856                      .dwattr $C$DW$46, DW_AT_TI_begin_file("C:/work/grepos/bootrom/Boot_ROM/F2837x_bootROM-REVB/F2837x_boo
     857                      .dwattr $C$DW$46, DW_AT_TI_begin_line(0xf3)
     858                      .dwattr $C$DW$46, DW_AT_TI_end_line(0xf3)
     859              $C$DW$47        .dwtag  DW_TAG_TI_loop_range
     860                      .dwattr $C$DW$47, DW_AT_low_pc($C$DW$L$_c1brom_handle_nmi_at_start$26$B)
     861                      .dwattr $C$DW$47, DW_AT_high_pc($C$DW$L$_c1brom_handle_nmi_at_start$26$E)
     862                      .dwendtag $C$DW$46
     863              
     864              
     865              $C$DW$48        .dwtag  DW_TAG_TI_loop
     866                      .dwattr $C$DW$48, DW_AT_name("C:\\Users\\a0272466\\AppData\\Local\\Temp\\0274010:$C$L7:1:1391099172")
     867                      .dwattr $C$DW$48, DW_AT_TI_begin_file("C:/work/grepos/bootrom/Boot_ROM/F2837x_bootROM-REVB/F2837x_boo
     868                      .dwattr $C$DW$48, DW_AT_TI_begin_line(0x82)
     869                      .dwattr $C$DW$48, DW_AT_TI_end_line(0x111)
     870              $C$DW$49        .dwtag  DW_TAG_TI_loop_range
     871                      .dwattr $C$DW$49, DW_AT_low_pc($C$DW$L$_c1brom_handle_nmi_at_start$5$B)
     872                      .dwattr $C$DW$49, DW_AT_high_pc($C$DW$L$_c1brom_handle_nmi_at_start$5$E)
     873              $C$DW$50        .dwtag  DW_TAG_TI_loop_range
     874                      .dwattr $C$DW$50, DW_AT_low_pc($C$DW$L$_c1brom_handle_nmi_at_start$6$B)
     875                      .dwattr $C$DW$50, DW_AT_high_pc($C$DW$L$_c1brom_handle_nmi_at_start$6$E)
     876              $C$DW$51        .dwtag  DW_TAG_TI_loop_range
     877                      .dwattr $C$DW$51, DW_AT_low_pc($C$DW$L$_c1brom_handle_nmi_at_start$8$B)
     878                      .dwattr $C$DW$51, DW_AT_high_pc($C$DW$L$_c1brom_handle_nmi_at_start$8$E)
     879              $C$DW$52        .dwtag  DW_TAG_TI_loop_range
     880                      .dwattr $C$DW$52, DW_AT_low_pc($C$DW$L$_c1brom_handle_nmi_at_start$9$B)
     881                      .dwattr $C$DW$52, DW_AT_high_pc($C$DW$L$_c1brom_handle_nmi_at_start$9$E)
     882              $C$DW$53        .dwtag  DW_TAG_TI_loop_range
     883                      .dwattr $C$DW$53, DW_AT_low_pc($C$DW$L$_c1brom_handle_nmi_at_start$10$B)
     884                      .dwattr $C$DW$53, DW_AT_high_pc($C$DW$L$_c1brom_handle_nmi_at_start$10$E)
     885              $C$DW$54        .dwtag  DW_TAG_TI_loop_range
     886                      .dwattr $C$DW$54, DW_AT_low_pc($C$DW$L$_c1brom_handle_nmi_at_start$11$B)
     887                      .dwattr $C$DW$54, DW_AT_high_pc($C$DW$L$_c1brom_handle_nmi_at_start$11$E)
     888              $C$DW$55        .dwtag  DW_TAG_TI_loop_range
     889                      .dwattr $C$DW$55, DW_AT_low_pc($C$DW$L$_c1brom_handle_nmi_at_start$12$B)
     890                      .dwattr $C$DW$55, DW_AT_high_pc($C$DW$L$_c1brom_handle_nmi_at_start$12$E)
TMS320C2000 Assembler PC v6.1.3 Thu Jan 30 10:26:14 2014

Tools Copyright (c) 1996-2012 Texas Instruments Incorporated
C:\Users\a0272466\AppData\Local\Temp\0274010                         PAGE   19

     891              $C$DW$56        .dwtag  DW_TAG_TI_loop_range
     892                      .dwattr $C$DW$56, DW_AT_low_pc($C$DW$L$_c1brom_handle_nmi_at_start$13$B)
     893                      .dwattr $C$DW$56, DW_AT_high_pc($C$DW$L$_c1brom_handle_nmi_at_start$13$E)
     894              $C$DW$57        .dwtag  DW_TAG_TI_loop_range
     895                      .dwattr $C$DW$57, DW_AT_low_pc($C$DW$L$_c1brom_handle_nmi_at_start$14$B)
     896                      .dwattr $C$DW$57, DW_AT_high_pc($C$DW$L$_c1brom_handle_nmi_at_start$14$E)
     897              $C$DW$58        .dwtag  DW_TAG_TI_loop_range
     898                      .dwattr $C$DW$58, DW_AT_low_pc($C$DW$L$_c1brom_handle_nmi_at_start$15$B)
     899                      .dwattr $C$DW$58, DW_AT_high_pc($C$DW$L$_c1brom_handle_nmi_at_start$15$E)
     900              $C$DW$59        .dwtag  DW_TAG_TI_loop_range
     901                      .dwattr $C$DW$59, DW_AT_low_pc($C$DW$L$_c1brom_handle_nmi_at_start$16$B)
     902                      .dwattr $C$DW$59, DW_AT_high_pc($C$DW$L$_c1brom_handle_nmi_at_start$16$E)
     903              $C$DW$60        .dwtag  DW_TAG_TI_loop_range
     904                      .dwattr $C$DW$60, DW_AT_low_pc($C$DW$L$_c1brom_handle_nmi_at_start$17$B)
     905                      .dwattr $C$DW$60, DW_AT_high_pc($C$DW$L$_c1brom_handle_nmi_at_start$17$E)
     906              $C$DW$61        .dwtag  DW_TAG_TI_loop_range
     907                      .dwattr $C$DW$61, DW_AT_low_pc($C$DW$L$_c1brom_handle_nmi_at_start$18$B)
     908                      .dwattr $C$DW$61, DW_AT_high_pc($C$DW$L$_c1brom_handle_nmi_at_start$18$E)
     909              $C$DW$62        .dwtag  DW_TAG_TI_loop_range
     910                      .dwattr $C$DW$62, DW_AT_low_pc($C$DW$L$_c1brom_handle_nmi_at_start$19$B)
     911                      .dwattr $C$DW$62, DW_AT_high_pc($C$DW$L$_c1brom_handle_nmi_at_start$19$E)
     912              $C$DW$63        .dwtag  DW_TAG_TI_loop_range
     913                      .dwattr $C$DW$63, DW_AT_low_pc($C$DW$L$_c1brom_handle_nmi_at_start$20$B)
     914                      .dwattr $C$DW$63, DW_AT_high_pc($C$DW$L$_c1brom_handle_nmi_at_start$20$E)
     915              $C$DW$64        .dwtag  DW_TAG_TI_loop_range
     916                      .dwattr $C$DW$64, DW_AT_low_pc($C$DW$L$_c1brom_handle_nmi_at_start$21$B)
     917                      .dwattr $C$DW$64, DW_AT_high_pc($C$DW$L$_c1brom_handle_nmi_at_start$21$E)
     918              $C$DW$65        .dwtag  DW_TAG_TI_loop_range
     919                      .dwattr $C$DW$65, DW_AT_low_pc($C$DW$L$_c1brom_handle_nmi_at_start$22$B)
     920                      .dwattr $C$DW$65, DW_AT_high_pc($C$DW$L$_c1brom_handle_nmi_at_start$22$E)
     921              $C$DW$66        .dwtag  DW_TAG_TI_loop_range
     922                      .dwattr $C$DW$66, DW_AT_low_pc($C$DW$L$_c1brom_handle_nmi_at_start$23$B)
     923                      .dwattr $C$DW$66, DW_AT_high_pc($C$DW$L$_c1brom_handle_nmi_at_start$23$E)
     924              $C$DW$67        .dwtag  DW_TAG_TI_loop_range
     925                      .dwattr $C$DW$67, DW_AT_low_pc($C$DW$L$_c1brom_handle_nmi_at_start$24$B)
     926                      .dwattr $C$DW$67, DW_AT_high_pc($C$DW$L$_c1brom_handle_nmi_at_start$24$E)
     927              $C$DW$68        .dwtag  DW_TAG_TI_loop_range
     928                      .dwattr $C$DW$68, DW_AT_low_pc($C$DW$L$_c1brom_handle_nmi_at_start$27$B)
     929                      .dwattr $C$DW$68, DW_AT_high_pc($C$DW$L$_c1brom_handle_nmi_at_start$27$E)
     930              $C$DW$69        .dwtag  DW_TAG_TI_loop_range
     931                      .dwattr $C$DW$69, DW_AT_low_pc($C$DW$L$_c1brom_handle_nmi_at_start$30$B)
     932                      .dwattr $C$DW$69, DW_AT_high_pc($C$DW$L$_c1brom_handle_nmi_at_start$30$E)
     933                      .dwendtag $C$DW$48
     934              
     935                      .dwattr $C$DW$40, DW_AT_TI_end_file("C:/work/grepos/bootrom/Boot_ROM/F2837x_bootROM-REVB/F2837x_bootR
     936                      .dwattr $C$DW$40, DW_AT_TI_end_line(0x114)
     937                      .dwattr $C$DW$40, DW_AT_TI_end_column(0x01)
     938                      .dwendentry
     939                      .dwendtag $C$DW$40
     940              
     941 0000006b               .sect   ".text:retain"
     942                      .global _c1brom_handle_nmi
     943              
     944              $C$DW$70        .dwtag  DW_TAG_subprogram, DW_AT_name("c1brom_handle_nmi")
     945                      .dwattr $C$DW$70, DW_AT_low_pc(_c1brom_handle_nmi)
TMS320C2000 Assembler PC v6.1.3 Thu Jan 30 10:26:14 2014

Tools Copyright (c) 1996-2012 Texas Instruments Incorporated
C:\Users\a0272466\AppData\Local\Temp\0274010                         PAGE   20

     946                      .dwattr $C$DW$70, DW_AT_high_pc(0x00)
     947                      .dwattr $C$DW$70, DW_AT_TI_symbol_name("_c1brom_handle_nmi")
     948                      .dwattr $C$DW$70, DW_AT_external
     949                      .dwattr $C$DW$70, DW_AT_TI_begin_file("C:/work/grepos/bootrom/Boot_ROM/F2837x_bootROM-REVB/F2837x_boo
     950                      .dwattr $C$DW$70, DW_AT_TI_begin_line(0x119)
     951                      .dwattr $C$DW$70, DW_AT_TI_begin_column(0x10)
     952                      .dwattr $C$DW$70, DW_AT_TI_interrupt
     953                      .dwattr $C$DW$70, DW_AT_TI_max_frame_size(-28)
     954                      .dwpsn  file "C:/work/grepos/bootrom/Boot_ROM/F2837x_bootROM-REVB/F2837x_bootROM_dev/F2837x_bootROM/c
     955              
     956                      .dwfde $C$DW$CIE, _c1brom_handle_nmi
     957              
     958              ;***************************************************************
     959              ;* FNAME: _c1brom_handle_nmi            FR SIZE:  26           *
     960              ;*                                                             *
     961              ;* FUNCTION ENVIRONMENT                                        *
     962              ;*                                                             *
     963              ;* FUNCTION PROPERTIES                                         *
     964              ;*                            0 Parameter,  2 Auto, 24 SOE     *
     965              ;***************************************************************
     966              
     967 0000006b       _c1brom_handle_nmi:
     968 0000006b 761B          ASP       ; [CPU_] 
     969                      .dwcfi  cfa_offset, -2
     970                      .dwcfi  save_reg_to_mem, 26, 0
     971                      .dwcfi  save_reg_to_reg, 78, 26
     972 0000006c FFF0          PUSH      RB                    ; [CPU_] 
     973                      .dwcfi  save_reg_to_mem, 73, 2
     974                      .dwcfi  save_reg_to_mem, 74, 3
     975                      .dwcfi  cfa_offset, -4
     976 0000006d 0005          PUSH      AR1H:AR0H             ; [CPU_] 
     977                      .dwcfi  save_reg_to_mem, 5, 4
     978                      .dwcfi  save_reg_to_mem, 7, 5
     979                      .dwcfi  cfa_offset, -6
     980 0000006e ABBD          MOVL      *SP++,XT              ; [CPU_] 
     981                      .dwcfi  save_reg_to_mem, 21, 6
     982                      .dwcfi  save_reg_to_mem, 22, 7
     983                      .dwcfi  cfa_offset, -8
     984 0000006f A8BD          MOVL      *SP++,XAR4            ; [CPU_] 
     985                      .dwcfi  save_reg_to_mem, 12, 8
     986                      .dwcfi  save_reg_to_mem, 13, 9
     987                      .dwcfi  cfa_offset, -10
     988 00000070 A0BD          MOVL      *SP++,XAR5            ; [CPU_] 
     989                      .dwcfi  save_reg_to_mem, 14, 10
     990                      .dwcfi  save_reg_to_mem, 15, 11
     991                      .dwcfi  cfa_offset, -12
     992 00000071 C2BD          MOVL      *SP++,XAR6            ; [CPU_] 
     993                      .dwcfi  save_reg_to_mem, 16, 12
     994                      .dwcfi  save_reg_to_mem, 17, 13
     995                      .dwcfi  cfa_offset, -14
     996 00000072 C3BD          MOVL      *SP++,XAR7            ; [CPU_] 
     997                      .dwcfi  save_reg_to_mem, 18, 14
     998                      .dwcfi  save_reg_to_mem, 19, 15
     999                      .dwcfi  cfa_offset, -16
    1000 00000073 E200          MOV32     *SP++,STF             ; [CPU_] 
TMS320C2000 Assembler PC v6.1.3 Thu Jan 30 10:26:14 2014

Tools Copyright (c) 1996-2012 Texas Instruments Incorporated
C:\Users\a0272466\AppData\Local\Temp\0274010                         PAGE   21

         00000074 00BD 
    1001                      .dwcfi  save_reg_to_mem, 39, 16
    1002                      .dwcfi  save_reg_to_mem, 40, 17
    1003                      .dwcfi  cfa_offset, -18
    1004 00000075 E203          MOV32     *SP++,R0H             ; [CPU_] 
         00000076 00BD 
    1005                      .dwcfi  save_reg_to_mem, 43, 18
    1006                      .dwcfi  save_reg_to_mem, 44, 19
    1007                      .dwcfi  cfa_offset, -20
    1008 00000077 E203          MOV32     *SP++,R1H             ; [CPU_] 
         00000078 01BD 
    1009                      .dwcfi  save_reg_to_mem, 47, 20
    1010                      .dwcfi  save_reg_to_mem, 48, 21
    1011                      .dwcfi  cfa_offset, -22
    1012 00000079 E203          MOV32     *SP++,R2H             ; [CPU_] 
         0000007a 02BD 
    1013                      .dwcfi  save_reg_to_mem, 51, 22
    1014                      .dwcfi  save_reg_to_mem, 52, 23
    1015                      .dwcfi  cfa_offset, -24
    1016 0000007b E203          MOV32     *SP++,R3H             ; [CPU_] 
         0000007c 03BD 
    1017                      .dwcfi  save_reg_to_mem, 55, 24
    1018                      .dwcfi  save_reg_to_mem, 56, 25
    1019                      .dwcfi  cfa_offset, -26
    1020 0000007d E630          SETFLG    RNDF32=1, RNDF64=1    ; [CPU_] 
         0000007e 0600 
    1021 0000007f FE02          ADDB      SP,#2                 ; [CPU_U] 
    1022                      .dwcfi  cfa_offset, -28
    1023 00000080 FF69          SPM       0                     ; [CPU_] 
    1024 00000081 2942          CLRC      PAGE0,OVM             ; [CPU_] 
    1025 00000082 5616          CLRC      AMODE                 ; [CPU_] 
    1026              $C$DW$71        .dwtag  DW_TAG_variable, DW_AT_name("EntryAddr")
    1027                      .dwattr $C$DW$71, DW_AT_TI_symbol_name("_EntryAddr")
    1028                      .dwattr $C$DW$71, DW_AT_type(*$C$DW$T$161)
    1029                      .dwattr $C$DW$71, DW_AT_location[DW_OP_breg20 -2]
    1030                      .dwpsn  file "C:/work/grepos/bootrom/Boot_ROM/F2837x_bootROM-REVB/F2837x_bootROM_dev/F2837x_bootROM/c
    1031 00000083 8F07          MOVL      XAR4,#459738          ; [CPU_U] |285| 
         00000084 03DA 
    1032 00000085 06C4          MOVL      ACC,*+XAR4[0]         ; [CPU_] |285| 
    1033 00000086 1E42          MOVL      *-SP[2],ACC           ; [CPU_] |285| 
    1034                      .dwpsn  file "C:/work/grepos/bootrom/Boot_ROM/F2837x_bootROM-REVB/F2837x_bootROM_dev/F2837x_bootROM/c
    1035 00000087 0200          MOVB      ACC,#0                ; [CPU_] |287| 
    1036 00000088 1901          SUBB      ACC,#1                ; [CPU_] |287| 
    1037 00000089 0F42          CMPL      ACC,*-SP[2]           ; [CPU_] |287| 
    1038 0000008a EC05          BF        $C$L22,EQ             ; [CPU_] |287| 
    1039                      ; branchcc occurs ; [] |287| 
    1040 0000008b 0642          MOVL      ACC,*-SP[2]           ; [CPU_] |287| 
    1041 0000008c EC03          BF        $C$L22,EQ             ; [CPU_] |287| 
    1042                      ; branchcc occurs ; [] |287| 
    1043                      .dwpsn  file "C:/work/grepos/bootrom/Boot_ROM/F2837x_bootROM-REVB/F2837x_bootROM_dev/F2837x_bootROM/c
    1044 0000008d C542          MOVL      XAR7,*-SP[2]          ; [CPU_] |292| 
    1045              $C$DW$72        .dwtag  DW_TAG_TI_branch
    1046                      .dwattr $C$DW$72, DW_AT_low_pc(0x00)
    1047                      .dwattr $C$DW$72, DW_AT_TI_call
    1048                      .dwattr $C$DW$72, DW_AT_TI_indirect
TMS320C2000 Assembler PC v6.1.3 Thu Jan 30 10:26:14 2014

Tools Copyright (c) 1996-2012 Texas Instruments Incorporated
C:\Users\a0272466\AppData\Local\Temp\0274010                         PAGE   22

    1049 0000008e 3E67          LCR       *XAR7                 ; [CPU_] |292| 
    1050                      ; call occurs [XAR7] ; [] |292| 
    1051 0000008f       $C$L22:    
    1052                      .dwpsn  file "C:/work/grepos/bootrom/Boot_ROM/F2837x_bootROM-REVB/F2837x_bootROM_dev/F2837x_bootROM/c
    1053 0000008f 761F!         MOVW      DP,#_NmiIntruptRegs+1 ; [CPU_U] 
         00000090 0000 
    1054 00000091 9201!         MOV       AL,@_NmiIntruptRegs+1 ; [CPU_] |295| 
    1055 00000092 761F-         MOVW      DP,#_c1brom_nmi_status ; [CPU_U] 
         00000093 0000 
    1056 00000094 9600-         MOV       @_c1brom_nmi_status,AL ; [CPU_] |295| 
    1057 00000095       $C$L23:    
    1058 00000095       $C$DW$L$_c1brom_handle_nmi$5$B:
    1059                      .dwpsn  file "C:/work/grepos/bootrom/Boot_ROM/F2837x_bootROM-REVB/F2837x_bootROM_dev/F2837x_bootROM/c
    1060 00000095 4100-         TBIT      @_c1brom_nmi_status,#1 ; [CPU_] |298| 
    1061 00000096 EF20          BF        $C$L24,NTC            ; [CPU_] |298| 
    1062                      ; branchcc occurs ; [] |298| 
    1063 00000097       $C$DW$L$_c1brom_handle_nmi$5$E:
    1064 00000097       $C$DW$L$_c1brom_handle_nmi$6$B:
    1065                      .dwpsn  file "C:/work/grepos/bootrom/Boot_ROM/F2837x_bootROM-REVB/F2837x_bootROM_dev/F2837x_bootROM/c
    1066 00000097 761F!         MOVW      DP,#_c1brom_status+1  ; [CPU_U] 
         00000098 0000 
    1067 00000099 1A01!         OR        @_c1brom_status+1,#16384 ; [CPU_] |300| 
         0000009a 4000 
    1068                      .dwpsn  file "C:/work/grepos/bootrom/Boot_ROM/F2837x_bootROM-REVB/F2837x_bootROM_dev/F2837x_bootROM/c
    1069 0000009b 761F-         MOVW      DP,#_c1brom_nmi_status ; [CPU_U] 
         0000009c 0000 
    1070 0000009d 1800-         AND       @_c1brom_nmi_status,#0xfffd ; [CPU_] |301| 
         0000009e FFFD 
    1071                      .dwpsn  file "C:/work/grepos/bootrom/Boot_ROM/F2837x_bootROM-REVB/F2837x_bootROM_dev/F2837x_bootROM/c
    1072 0000009f 7622   EALLOW
    1073                      .dwpsn  file "C:/work/grepos/bootrom/Boot_ROM/F2837x_bootROM-REVB/F2837x_bootROM_dev/F2837x_bootROM/c
    1074 000000a0 761F!         MOVW      DP,#_NmiIntruptRegs+2 ; [CPU_U] 
         000000a1 0000 
    1075 000000a2 1A02!         OR        @_NmiIntruptRegs+2,#0x0002 ; [CPU_] |304| 
         000000a3 0002 
    1076                      .dwpsn  file "C:/work/grepos/bootrom/Boot_ROM/F2837x_bootROM-REVB/F2837x_bootROM_dev/F2837x_bootROM/c
    1077 000000a4 761A   EDIS
    1078                      .dwpsn  file "C:/work/grepos/bootrom/Boot_ROM/F2837x_bootROM-REVB/F2837x_bootROM_dev/F2837x_bootROM/c
    1079 000000a5 9201!         MOV       AL,@_NmiIntruptRegs+1 ; [CPU_] |307| 
    1080 000000a6 761F-         MOVW      DP,#_c1brom_nmi_status ; [CPU_U] 
         000000a7 0000 
    1081 000000a8 9600-         MOV       @_c1brom_nmi_status,AL ; [CPU_] |307| 
    1082                      .dwpsn  file "C:/work/grepos/bootrom/Boot_ROM/F2837x_bootROM-REVB/F2837x_bootROM_dev/F2837x_bootROM/c
    1083 000000a9 9200-         MOV       AL,@_c1brom_nmi_status ; [CPU_] |310| 
    1084 000000aa 5201          CMPB      AL,#1                 ; [CPU_] |310| 
    1085 000000ab ED0B          BF        $C$L24,NEQ            ; [CPU_] |310| 
    1086                      ; branchcc occurs ; [] |310| 
    1087 000000ac       $C$DW$L$_c1brom_handle_nmi$6$E:
    1088                      .dwpsn  file "C:/work/grepos/bootrom/Boot_ROM/F2837x_bootROM-REVB/F2837x_bootROM_dev/F2837x_bootROM/c
    1089 000000ac 1800-         AND       @_c1brom_nmi_status,#0xfffe ; [CPU_] |312| 
         000000ad FFFE 
    1090                      .dwpsn  file "C:/work/grepos/bootrom/Boot_ROM/F2837x_bootROM-REVB/F2837x_bootROM_dev/F2837x_bootROM/c
    1091 000000ae 7622   EALLOW
    1092                      .dwpsn  file "C:/work/grepos/bootrom/Boot_ROM/F2837x_bootROM-REVB/F2837x_bootROM_dev/F2837x_bootROM/c
    1093 000000af 761F!         MOVW      DP,#_NmiIntruptRegs+2 ; [CPU_U] 
TMS320C2000 Assembler PC v6.1.3 Thu Jan 30 10:26:14 2014

Tools Copyright (c) 1996-2012 Texas Instruments Incorporated
C:\Users\a0272466\AppData\Local\Temp\0274010                         PAGE   23

         000000b0 0000 
    1094 000000b1 1A02!         OR        @_NmiIntruptRegs+2,#0x0001 ; [CPU_] |315| 
         000000b2 0001 
    1095                      .dwpsn  file "C:/work/grepos/bootrom/Boot_ROM/F2837x_bootROM-REVB/F2837x_bootROM_dev/F2837x_bootROM/c
    1096 000000b3 761A   EDIS
    1097                      .dwpsn  file "C:/work/grepos/bootrom/Boot_ROM/F2837x_bootROM-REVB/F2837x_bootROM_dev/F2837x_bootROM/c
    1098 000000b4 FFEF          B         $C$L37,UNC            ; [CPU_] |318| 
         000000b5 00B1 
    1099                      ; branch occurs ; [] |318| 
    1100 000000b6       $C$L24:    
    1101 000000b6       $C$DW$L$_c1brom_handle_nmi$8$B:
    1102                      .dwpsn  file "C:/work/grepos/bootrom/Boot_ROM/F2837x_bootROM-REVB/F2837x_bootROM_dev/F2837x_bootROM/c
    1103 000000b6 4400-         TBIT      @_c1brom_nmi_status,#4 ; [CPU_] |322| 
    1104 000000b7 EF0F          BF        $C$L25,NTC            ; [CPU_] |322| 
    1105                      ; branchcc occurs ; [] |322| 
    1106 000000b8       $C$DW$L$_c1brom_handle_nmi$8$E:
    1107 000000b8       $C$DW$L$_c1brom_handle_nmi$9$B:
    1108                      .dwpsn  file "C:/work/grepos/bootrom/Boot_ROM/F2837x_bootROM-REVB/F2837x_bootROM_dev/F2837x_bootROM/c
    1109 000000b8 761F!         MOVW      DP,#_c1brom_status+1  ; [CPU_U] 
         000000b9 0000 
    1110 000000ba 1A01!         OR        @_c1brom_status+1,#2048 ; [CPU_] |324| 
         000000bb 0800 
    1111                      .dwpsn  file "C:/work/grepos/bootrom/Boot_ROM/F2837x_bootROM-REVB/F2837x_bootROM_dev/F2837x_bootROM/c
    1112 000000bc 761F-         MOVW      DP,#_c1brom_nmi_status ; [CPU_U] 
         000000bd 0000 
    1113 000000be 1800-         AND       @_c1brom_nmi_status,#0xffef ; [CPU_] |326| 
         000000bf FFEF 
    1114                      .dwpsn  file "C:/work/grepos/bootrom/Boot_ROM/F2837x_bootROM-REVB/F2837x_bootROM_dev/F2837x_bootROM/c
    1115 000000c0 7622   EALLOW
    1116                      .dwpsn  file "C:/work/grepos/bootrom/Boot_ROM/F2837x_bootROM-REVB/F2837x_bootROM_dev/F2837x_bootROM/c
    1117 000000c1 761F!         MOVW      DP,#_NmiIntruptRegs+2 ; [CPU_U] 
         000000c2 0000 
    1118 000000c3 1A02!         OR        @_NmiIntruptRegs+2,#0x0010 ; [CPU_] |328| 
         000000c4 0010 
    1119                      .dwpsn  file "C:/work/grepos/bootrom/Boot_ROM/F2837x_bootROM-REVB/F2837x_bootROM_dev/F2837x_bootROM/c
    1120 000000c5 761A   EDIS
    1121 000000c6       $C$DW$L$_c1brom_handle_nmi$9$E:
    1122 000000c6       $C$L25:    
    1123 000000c6       $C$DW$L$_c1brom_handle_nmi$10$B:
    1124                      .dwpsn  file "C:/work/grepos/bootrom/Boot_ROM/F2837x_bootROM-REVB/F2837x_bootROM_dev/F2837x_bootROM/c
    1125 000000c6 761F-         MOVW      DP,#_c1brom_nmi_status ; [CPU_U] 
         000000c7 0000 
    1126 000000c8 4500-         TBIT      @_c1brom_nmi_status,#5 ; [CPU_] |332| 
    1127 000000c9 EF0F          BF        $C$L26,NTC            ; [CPU_] |332| 
    1128                      ; branchcc occurs ; [] |332| 
    1129 000000ca       $C$DW$L$_c1brom_handle_nmi$10$E:
    1130 000000ca       $C$DW$L$_c1brom_handle_nmi$11$B:
    1131                      .dwpsn  file "C:/work/grepos/bootrom/Boot_ROM/F2837x_bootROM-REVB/F2837x_bootROM_dev/F2837x_bootROM/c
    1132 000000ca 761F!         MOVW      DP,#_c1brom_status+1  ; [CPU_U] 
         000000cb 0000 
    1133 000000cc 1A01!         OR        @_c1brom_status+1,#1024 ; [CPU_] |334| 
         000000cd 0400 
    1134                      .dwpsn  file "C:/work/grepos/bootrom/Boot_ROM/F2837x_bootROM-REVB/F2837x_bootROM_dev/F2837x_bootROM/c
    1135 000000ce 761F-         MOVW      DP,#_c1brom_nmi_status ; [CPU_U] 
         000000cf 0000 
TMS320C2000 Assembler PC v6.1.3 Thu Jan 30 10:26:14 2014

Tools Copyright (c) 1996-2012 Texas Instruments Incorporated
C:\Users\a0272466\AppData\Local\Temp\0274010                         PAGE   24

    1136 000000d0 1800-         AND       @_c1brom_nmi_status,#0xffdf ; [CPU_] |336| 
         000000d1 FFDF 
    1137                      .dwpsn  file "C:/work/grepos/bootrom/Boot_ROM/F2837x_bootROM-REVB/F2837x_bootROM_dev/F2837x_bootROM/c
    1138 000000d2 7622   EALLOW
    1139                      .dwpsn  file "C:/work/grepos/bootrom/Boot_ROM/F2837x_bootROM-REVB/F2837x_bootROM_dev/F2837x_bootROM/c
    1140 000000d3 761F!         MOVW      DP,#_NmiIntruptRegs+2 ; [CPU_U] 
         000000d4 0000 
    1141 000000d5 1A02!         OR        @_NmiIntruptRegs+2,#0x0020 ; [CPU_] |339| 
         000000d6 0020 
    1142                      .dwpsn  file "C:/work/grepos/bootrom/Boot_ROM/F2837x_bootROM-REVB/F2837x_bootROM_dev/F2837x_bootROM/c
    1143 000000d7 761A   EDIS
    1144 000000d8       $C$DW$L$_c1brom_handle_nmi$11$E:
    1145 000000d8       $C$L26:    
    1146 000000d8       $C$DW$L$_c1brom_handle_nmi$12$B:
    1147                      .dwpsn  file "C:/work/grepos/bootrom/Boot_ROM/F2837x_bootROM-REVB/F2837x_bootROM_dev/F2837x_bootROM/c
    1148 000000d8 761F-         MOVW      DP,#_c1brom_nmi_status ; [CPU_U] 
         000000d9 0000 
    1149 000000da 4600-         TBIT      @_c1brom_nmi_status,#6 ; [CPU_] |343| 
    1150 000000db EF0F          BF        $C$L27,NTC            ; [CPU_] |343| 
    1151                      ; branchcc occurs ; [] |343| 
    1152 000000dc       $C$DW$L$_c1brom_handle_nmi$12$E:
    1153 000000dc       $C$DW$L$_c1brom_handle_nmi$13$B:
    1154                      .dwpsn  file "C:/work/grepos/bootrom/Boot_ROM/F2837x_bootROM-REVB/F2837x_bootROM_dev/F2837x_bootROM/c
    1155 000000dc 761F!         MOVW      DP,#_c1brom_status+1  ; [CPU_U] 
         000000dd 0000 
    1156 000000de 1A01!         OR        @_c1brom_status+1,#512 ; [CPU_] |345| 
         000000df 0200 
    1157                      .dwpsn  file "C:/work/grepos/bootrom/Boot_ROM/F2837x_bootROM-REVB/F2837x_bootROM_dev/F2837x_bootROM/c
    1158 000000e0 761F-         MOVW      DP,#_c1brom_nmi_status ; [CPU_U] 
         000000e1 0000 
    1159 000000e2 1800-         AND       @_c1brom_nmi_status,#0xffbf ; [CPU_] |347| 
         000000e3 FFBF 
    1160                      .dwpsn  file "C:/work/grepos/bootrom/Boot_ROM/F2837x_bootROM-REVB/F2837x_bootROM_dev/F2837x_bootROM/c
    1161 000000e4 7622   EALLOW
    1162                      .dwpsn  file "C:/work/grepos/bootrom/Boot_ROM/F2837x_bootROM-REVB/F2837x_bootROM_dev/F2837x_bootROM/c
    1163 000000e5 761F!         MOVW      DP,#_NmiIntruptRegs+2 ; [CPU_U] 
         000000e6 0000 
    1164 000000e7 1A02!         OR        @_NmiIntruptRegs+2,#0x0040 ; [CPU_] |349| 
         000000e8 0040 
    1165                      .dwpsn  file "C:/work/grepos/bootrom/Boot_ROM/F2837x_bootROM-REVB/F2837x_bootROM_dev/F2837x_bootROM/c
    1166 000000e9 761A   EDIS
    1167 000000ea       $C$DW$L$_c1brom_handle_nmi$13$E:
    1168 000000ea       $C$L27:    
    1169 000000ea       $C$DW$L$_c1brom_handle_nmi$14$B:
    1170                      .dwpsn  file "C:/work/grepos/bootrom/Boot_ROM/F2837x_bootROM-REVB/F2837x_bootROM_dev/F2837x_bootROM/c
    1171 000000ea 761F-         MOVW      DP,#_c1brom_nmi_status ; [CPU_U] 
         000000eb 0000 
    1172 000000ec 4700-         TBIT      @_c1brom_nmi_status,#7 ; [CPU_] |352| 
    1173 000000ed EF0F          BF        $C$L28,NTC            ; [CPU_] |352| 
    1174                      ; branchcc occurs ; [] |352| 
    1175 000000ee       $C$DW$L$_c1brom_handle_nmi$14$E:
    1176 000000ee       $C$DW$L$_c1brom_handle_nmi$15$B:
    1177                      .dwpsn  file "C:/work/grepos/bootrom/Boot_ROM/F2837x_bootROM-REVB/F2837x_bootROM_dev/F2837x_bootROM/c
    1178 000000ee 761F!         MOVW      DP,#_c1brom_status+1  ; [CPU_U] 
         000000ef 0000 
TMS320C2000 Assembler PC v6.1.3 Thu Jan 30 10:26:14 2014

Tools Copyright (c) 1996-2012 Texas Instruments Incorporated
C:\Users\a0272466\AppData\Local\Temp\0274010                         PAGE   25

    1179 000000f0 1A01!         OR        @_c1brom_status+1,#256 ; [CPU_] |354| 
         000000f1 0100 
    1180                      .dwpsn  file "C:/work/grepos/bootrom/Boot_ROM/F2837x_bootROM-REVB/F2837x_bootROM_dev/F2837x_bootROM/c
    1181 000000f2 761F-         MOVW      DP,#_c1brom_nmi_status ; [CPU_U] 
         000000f3 0000 
    1182 000000f4 1800-         AND       @_c1brom_nmi_status,#0xff7f ; [CPU_] |356| 
         000000f5 FF7F 
    1183                      .dwpsn  file "C:/work/grepos/bootrom/Boot_ROM/F2837x_bootROM-REVB/F2837x_bootROM_dev/F2837x_bootROM/c
    1184 000000f6 7622   EALLOW
    1185                      .dwpsn  file "C:/work/grepos/bootrom/Boot_ROM/F2837x_bootROM-REVB/F2837x_bootROM_dev/F2837x_bootROM/c
    1186 000000f7 761F!         MOVW      DP,#_NmiIntruptRegs+2 ; [CPU_U] 
         000000f8 0000 
    1187 000000f9 1A02!         OR        @_NmiIntruptRegs+2,#0x0080 ; [CPU_] |358| 
         000000fa 0080 
    1188                      .dwpsn  file "C:/work/grepos/bootrom/Boot_ROM/F2837x_bootROM-REVB/F2837x_bootROM_dev/F2837x_bootROM/c
    1189 000000fb 761A   EDIS
    1190 000000fc       $C$DW$L$_c1brom_handle_nmi$15$E:
    1191 000000fc       $C$L28:    
    1192 000000fc       $C$DW$L$_c1brom_handle_nmi$16$B:
    1193                      .dwpsn  file "C:/work/grepos/bootrom/Boot_ROM/F2837x_bootROM-REVB/F2837x_bootROM_dev/F2837x_bootROM/c
    1194 000000fc 761F-         MOVW      DP,#_c1brom_nmi_status ; [CPU_U] 
         000000fd 0000 
    1195 000000fe 4800-         TBIT      @_c1brom_nmi_status,#8 ; [CPU_] |361| 
    1196 000000ff EF0F          BF        $C$L29,NTC            ; [CPU_] |361| 
    1197                      ; branchcc occurs ; [] |361| 
    1198 00000100       $C$DW$L$_c1brom_handle_nmi$16$E:
    1199 00000100       $C$DW$L$_c1brom_handle_nmi$17$B:
    1200                      .dwpsn  file "C:/work/grepos/bootrom/Boot_ROM/F2837x_bootROM-REVB/F2837x_bootROM_dev/F2837x_bootROM/c
    1201 00000100 761F!         MOVW      DP,#_c1brom_status+1  ; [CPU_U] 
         00000101 0000 
    1202 00000102 1A01!         OR        @_c1brom_status+1,#128 ; [CPU_] |363| 
         00000103 0080 
    1203                      .dwpsn  file "C:/work/grepos/bootrom/Boot_ROM/F2837x_bootROM-REVB/F2837x_bootROM_dev/F2837x_bootROM/c
    1204 00000104 761F-         MOVW      DP,#_c1brom_nmi_status ; [CPU_U] 
         00000105 0000 
    1205 00000106 1800-         AND       @_c1brom_nmi_status,#0xfeff ; [CPU_] |365| 
         00000107 FEFF 
    1206                      .dwpsn  file "C:/work/grepos/bootrom/Boot_ROM/F2837x_bootROM-REVB/F2837x_bootROM_dev/F2837x_bootROM/c
    1207 00000108 7622   EALLOW
    1208                      .dwpsn  file "C:/work/grepos/bootrom/Boot_ROM/F2837x_bootROM-REVB/F2837x_bootROM_dev/F2837x_bootROM/c
    1209 00000109 761F!         MOVW      DP,#_NmiIntruptRegs+2 ; [CPU_U] 
         0000010a 0000 
    1210 0000010b 1A02!         OR        @_NmiIntruptRegs+2,#0x0100 ; [CPU_] |367| 
         0000010c 0100 
    1211                      .dwpsn  file "C:/work/grepos/bootrom/Boot_ROM/F2837x_bootROM-REVB/F2837x_bootROM_dev/F2837x_bootROM/c
    1212 0000010d 761A   EDIS
    1213 0000010e       $C$DW$L$_c1brom_handle_nmi$17$E:
    1214 0000010e       $C$L29:    
    1215 0000010e       $C$DW$L$_c1brom_handle_nmi$18$B:
    1216                      .dwpsn  file "C:/work/grepos/bootrom/Boot_ROM/F2837x_bootROM-REVB/F2837x_bootROM_dev/F2837x_bootROM/c
    1217 0000010e 761F-         MOVW      DP,#_c1brom_nmi_status ; [CPU_U] 
         0000010f 0000 
    1218 00000110 4900-         TBIT      @_c1brom_nmi_status,#9 ; [CPU_] |370| 
    1219 00000111 EF0F          BF        $C$L30,NTC            ; [CPU_] |370| 
    1220                      ; branchcc occurs ; [] |370| 
TMS320C2000 Assembler PC v6.1.3 Thu Jan 30 10:26:14 2014

Tools Copyright (c) 1996-2012 Texas Instruments Incorporated
C:\Users\a0272466\AppData\Local\Temp\0274010                         PAGE   26

    1221 00000112       $C$DW$L$_c1brom_handle_nmi$18$E:
    1222 00000112       $C$DW$L$_c1brom_handle_nmi$19$B:
    1223                      .dwpsn  file "C:/work/grepos/bootrom/Boot_ROM/F2837x_bootROM-REVB/F2837x_bootROM_dev/F2837x_bootROM/c
    1224 00000112 761F!         MOVW      DP,#_c1brom_status+1  ; [CPU_U] 
         00000113 0000 
    1225 00000114 1A01!         OR        @_c1brom_status+1,#64 ; [CPU_] |372| 
         00000115 0040 
    1226                      .dwpsn  file "C:/work/grepos/bootrom/Boot_ROM/F2837x_bootROM-REVB/F2837x_bootROM_dev/F2837x_bootROM/c
    1227 00000116 761F-         MOVW      DP,#_c1brom_nmi_status ; [CPU_U] 
         00000117 0000 
    1228 00000118 1800-         AND       @_c1brom_nmi_status,#0xfdff ; [CPU_] |374| 
         00000119 FDFF 
    1229                      .dwpsn  file "C:/work/grepos/bootrom/Boot_ROM/F2837x_bootROM-REVB/F2837x_bootROM_dev/F2837x_bootROM/c
    1230 0000011a 7622   EALLOW
    1231                      .dwpsn  file "C:/work/grepos/bootrom/Boot_ROM/F2837x_bootROM-REVB/F2837x_bootROM_dev/F2837x_bootROM/c
    1232 0000011b 761F!         MOVW      DP,#_NmiIntruptRegs+2 ; [CPU_U] 
         0000011c 0000 
    1233 0000011d 1A02!         OR        @_NmiIntruptRegs+2,#0x0200 ; [CPU_] |376| 
         0000011e 0200 
    1234                      .dwpsn  file "C:/work/grepos/bootrom/Boot_ROM/F2837x_bootROM-REVB/F2837x_bootROM_dev/F2837x_bootROM/c
    1235 0000011f 761A   EDIS
    1236 00000120       $C$DW$L$_c1brom_handle_nmi$19$E:
    1237 00000120       $C$L30:    
    1238 00000120       $C$DW$L$_c1brom_handle_nmi$20$B:
    1239                      .dwpsn  file "C:/work/grepos/bootrom/Boot_ROM/F2837x_bootROM-REVB/F2837x_bootROM_dev/F2837x_bootROM/c
    1240 00000120 761F-         MOVW      DP,#_c1brom_nmi_status ; [CPU_U] 
         00000121 0000 
    1241 00000122 4A00-         TBIT      @_c1brom_nmi_status,#10 ; [CPU_] |380| 
    1242 00000123 EF0F          BF        $C$L31,NTC            ; [CPU_] |380| 
    1243                      ; branchcc occurs ; [] |380| 
    1244 00000124       $C$DW$L$_c1brom_handle_nmi$20$E:
    1245 00000124       $C$DW$L$_c1brom_handle_nmi$21$B:
    1246                      .dwpsn  file "C:/work/grepos/bootrom/Boot_ROM/F2837x_bootROM-REVB/F2837x_bootROM_dev/F2837x_bootROM/c
    1247 00000124 761F!         MOVW      DP,#_c1brom_status+1  ; [CPU_U] 
         00000125 0000 
    1248 00000126 1A01!         OR        @_c1brom_status+1,#64 ; [CPU_] |382| 
         00000127 0040 
    1249                      .dwpsn  file "C:/work/grepos/bootrom/Boot_ROM/F2837x_bootROM-REVB/F2837x_bootROM_dev/F2837x_bootROM/c
    1250 00000128 761F-         MOVW      DP,#_c1brom_nmi_status ; [CPU_U] 
         00000129 0000 
    1251 0000012a 1800-         AND       @_c1brom_nmi_status,#0xfbff ; [CPU_] |384| 
         0000012b FBFF 
    1252                      .dwpsn  file "C:/work/grepos/bootrom/Boot_ROM/F2837x_bootROM-REVB/F2837x_bootROM_dev/F2837x_bootROM/c
    1253 0000012c 7622   EALLOW
    1254                      .dwpsn  file "C:/work/grepos/bootrom/Boot_ROM/F2837x_bootROM-REVB/F2837x_bootROM_dev/F2837x_bootROM/c
    1255 0000012d 761F!         MOVW      DP,#_NmiIntruptRegs+2 ; [CPU_U] 
         0000012e 0000 
    1256 0000012f 1A02!         OR        @_NmiIntruptRegs+2,#0x0400 ; [CPU_] |386| 
         00000130 0400 
    1257                      .dwpsn  file "C:/work/grepos/bootrom/Boot_ROM/F2837x_bootROM-REVB/F2837x_bootROM_dev/F2837x_bootROM/c
    1258 00000131 761A   EDIS
    1259 00000132       $C$DW$L$_c1brom_handle_nmi$21$E:
    1260 00000132       $C$L31:    
    1261 00000132       $C$DW$L$_c1brom_handle_nmi$22$B:
    1262                      .dwpsn  file "C:/work/grepos/bootrom/Boot_ROM/F2837x_bootROM-REVB/F2837x_bootROM_dev/F2837x_bootROM/c
TMS320C2000 Assembler PC v6.1.3 Thu Jan 30 10:26:14 2014

Tools Copyright (c) 1996-2012 Texas Instruments Incorporated
C:\Users\a0272466\AppData\Local\Temp\0274010                         PAGE   27

    1263 00000132 761F-         MOVW      DP,#_c1brom_nmi_status ; [CPU_U] 
         00000133 0000 
    1264 00000134 4B00-         TBIT      @_c1brom_nmi_status,#11 ; [CPU_] |390| 
    1265 00000135 EF0F          BF        $C$L32,NTC            ; [CPU_] |390| 
    1266                      ; branchcc occurs ; [] |390| 
    1267 00000136       $C$DW$L$_c1brom_handle_nmi$22$E:
    1268 00000136       $C$DW$L$_c1brom_handle_nmi$23$B:
    1269                      .dwpsn  file "C:/work/grepos/bootrom/Boot_ROM/F2837x_bootROM-REVB/F2837x_bootROM_dev/F2837x_bootROM/c
    1270 00000136 761F!         MOVW      DP,#_c1brom_status+1  ; [CPU_U] 
         00000137 0000 
    1271 00000138 1A01!         OR        @_c1brom_status+1,#16 ; [CPU_] |392| 
         00000139 0010 
    1272                      .dwpsn  file "C:/work/grepos/bootrom/Boot_ROM/F2837x_bootROM-REVB/F2837x_bootROM_dev/F2837x_bootROM/c
    1273 0000013a 761F-         MOVW      DP,#_c1brom_nmi_status ; [CPU_U] 
         0000013b 0000 
    1274 0000013c 1800-         AND       @_c1brom_nmi_status,#0xf7ff ; [CPU_] |394| 
         0000013d F7FF 
    1275                      .dwpsn  file "C:/work/grepos/bootrom/Boot_ROM/F2837x_bootROM-REVB/F2837x_bootROM_dev/F2837x_bootROM/c
    1276 0000013e 7622   EALLOW
    1277                      .dwpsn  file "C:/work/grepos/bootrom/Boot_ROM/F2837x_bootROM-REVB/F2837x_bootROM_dev/F2837x_bootROM/c
    1278 0000013f 761F!         MOVW      DP,#_NmiIntruptRegs+2 ; [CPU_U] 
         00000140 0000 
    1279 00000141 1A02!         OR        @_NmiIntruptRegs+2,#0x0800 ; [CPU_] |396| 
         00000142 0800 
    1280                      .dwpsn  file "C:/work/grepos/bootrom/Boot_ROM/F2837x_bootROM-REVB/F2837x_bootROM_dev/F2837x_bootROM/c
    1281 00000143 761A   EDIS
    1282 00000144       $C$DW$L$_c1brom_handle_nmi$23$E:
    1283 00000144       $C$L32:    
    1284 00000144       $C$DW$L$_c1brom_handle_nmi$24$B:
    1285                      .dwpsn  file "C:/work/grepos/bootrom/Boot_ROM/F2837x_bootROM-REVB/F2837x_bootROM_dev/F2837x_bootROM/c
    1286 00000144 761F-         MOVW      DP,#_c1brom_nmi_status ; [CPU_U] 
         00000145 0000 
    1287 00000146 4200-         TBIT      @_c1brom_nmi_status,#2 ; [CPU_] |402| 
    1288 00000147 EF07          BF        $C$L34,NTC            ; [CPU_] |402| 
    1289                      ; branchcc occurs ; [] |402| 
    1290 00000148       $C$DW$L$_c1brom_handle_nmi$24$E:
    1291                      .dwpsn  file "C:/work/grepos/bootrom/Boot_ROM/F2837x_bootROM-REVB/F2837x_bootROM_dev/F2837x_bootROM/c
    1292 00000148 761F!         MOVW      DP,#_c1brom_status+1  ; [CPU_U] 
         00000149 0000 
    1293 0000014a 1A01!         OR        @_c1brom_status+1,#8192 ; [CPU_] |404| 
         0000014b 2000 
    1294                      .dwpsn  file "C:/work/grepos/bootrom/Boot_ROM/F2837x_bootROM-REVB/F2837x_bootROM_dev/F2837x_bootROM/c
    1295 0000014c 7625     ESTOP0
    1296                      .dwpsn  file "C:/work/grepos/bootrom/Boot_ROM/F2837x_bootROM-REVB/F2837x_bootROM_dev/F2837x_bootROM/c
    1297 0000014d       $C$L33:    
    1298 0000014d       $C$DW$L$_c1brom_handle_nmi$26$B:
    1299 0000014d 6F00          B         $C$L33,UNC            ; [CPU_] |410| 
    1300                      ; branch occurs ; [] |410| 
    1301 0000014e       $C$DW$L$_c1brom_handle_nmi$26$E:
    1302 0000014e       $C$L34:    
    1303 0000014e       $C$DW$L$_c1brom_handle_nmi$27$B:
    1304                      .dwpsn  file "C:/work/grepos/bootrom/Boot_ROM/F2837x_bootROM-REVB/F2837x_bootROM_dev/F2837x_bootROM/c
    1305 0000014e 4300-         TBIT      @_c1brom_nmi_status,#3 ; [CPU_] |417| 
    1306 0000014f EF07          BF        $C$L36,NTC            ; [CPU_] |417| 
    1307                      ; branchcc occurs ; [] |417| 
TMS320C2000 Assembler PC v6.1.3 Thu Jan 30 10:26:14 2014

Tools Copyright (c) 1996-2012 Texas Instruments Incorporated
C:\Users\a0272466\AppData\Local\Temp\0274010                         PAGE   28

    1308 00000150       $C$DW$L$_c1brom_handle_nmi$27$E:
    1309                      .dwpsn  file "C:/work/grepos/bootrom/Boot_ROM/F2837x_bootROM-REVB/F2837x_bootROM_dev/F2837x_bootROM/c
    1310 00000150 761F!         MOVW      DP,#_c1brom_status+1  ; [CPU_U] 
         00000151 0000 
    1311 00000152 1A01!         OR        @_c1brom_status+1,#4096 ; [CPU_] |419| 
         00000153 1000 
    1312                      .dwpsn  file "C:/work/grepos/bootrom/Boot_ROM/F2837x_bootROM-REVB/F2837x_bootROM_dev/F2837x_bootROM/c
    1313 00000154 7625     ESTOP0
    1314                      .dwpsn  file "C:/work/grepos/bootrom/Boot_ROM/F2837x_bootROM-REVB/F2837x_bootROM_dev/F2837x_bootROM/c
    1315 00000155       $C$L35:    
    1316 00000155       $C$DW$L$_c1brom_handle_nmi$29$B:
    1317 00000155 6F00          B         $C$L35,UNC            ; [CPU_] |425| 
    1318                      ; branch occurs ; [] |425| 
    1319 00000156       $C$DW$L$_c1brom_handle_nmi$29$E:
    1320 00000156       $C$L36:    
    1321 00000156       $C$DW$L$_c1brom_handle_nmi$30$B:
    1322                      .dwpsn  file "C:/work/grepos/bootrom/Boot_ROM/F2837x_bootROM-REVB/F2837x_bootROM_dev/F2837x_bootROM/c
    1323 00000156 1800-         AND       @_c1brom_nmi_status,#0xfffe ; [CPU_] |433| 
         00000157 FFFE 
    1324                      .dwpsn  file "C:/work/grepos/bootrom/Boot_ROM/F2837x_bootROM-REVB/F2837x_bootROM_dev/F2837x_bootROM/c
    1325 00000158 7622   EALLOW
    1326                      .dwpsn  file "C:/work/grepos/bootrom/Boot_ROM/F2837x_bootROM-REVB/F2837x_bootROM_dev/F2837x_bootROM/c
    1327 00000159 761F!         MOVW      DP,#_NmiIntruptRegs+2 ; [CPU_U] 
         0000015a 0000 
    1328 0000015b 1A02!         OR        @_NmiIntruptRegs+2,#0x0001 ; [CPU_] |435| 
         0000015c 0001 
    1329                      .dwpsn  file "C:/work/grepos/bootrom/Boot_ROM/F2837x_bootROM-REVB/F2837x_bootROM_dev/F2837x_bootROM/c
    1330 0000015d 761A   EDIS
    1331                      .dwpsn  file "C:/work/grepos/bootrom/Boot_ROM/F2837x_bootROM-REVB/F2837x_bootROM_dev/F2837x_bootROM/c
    1332 0000015e 9201!         MOV       AL,@_NmiIntruptRegs+1 ; [CPU_] |438| 
    1333 0000015f 761F-         MOVW      DP,#_c1brom_nmi_status ; [CPU_U] 
         00000160 0000 
    1334 00000161 9600-         MOV       @_c1brom_nmi_status,AL ; [CPU_] |438| 
    1335                      .dwpsn  file "C:/work/grepos/bootrom/Boot_ROM/F2837x_bootROM-REVB/F2837x_bootROM_dev/F2837x_bootROM/c
    1336 00000162 4000-         TBIT      @_c1brom_nmi_status,#0 ; [CPU_] |296| 
    1337 00000163 56CD          BF        $C$L23,TC             ; [CPU_] |296| 
         00000164 FF32 
    1338                      ; branchcc occurs ; [] |296| 
    1339 00000165       $C$DW$L$_c1brom_handle_nmi$30$E:
    1340                      .dwpsn  file "C:/work/grepos/bootrom/Boot_ROM/F2837x_bootROM-REVB/F2837x_bootROM_dev/F2837x_bootROM/c
    1341 00000165       $C$L37:    
    1342 00000165 FE82          SUBB      SP,#2                 ; [CPU_U] 
    1343                      .dwcfi  cfa_offset, -26
    1344 00000166 E2AF          MOV32     R3H,*--SP             ; [CPU_] 
         00000167 03BE 
    1345                      .dwcfi  cfa_offset, -24
    1346                      .dwcfi  restore_reg, 55
    1347                      .dwcfi  restore_reg, 56
    1348 00000168 E2AF          MOV32     R2H,*--SP             ; [CPU_] 
         00000169 02BE 
    1349                      .dwcfi  cfa_offset, -22
    1350                      .dwcfi  restore_reg, 51
    1351                      .dwcfi  restore_reg, 52
    1352 0000016a E2AF          MOV32     R1H,*--SP             ; [CPU_] 
         0000016b 01BE 
TMS320C2000 Assembler PC v6.1.3 Thu Jan 30 10:26:14 2014

Tools Copyright (c) 1996-2012 Texas Instruments Incorporated
C:\Users\a0272466\AppData\Local\Temp\0274010                         PAGE   29

    1353                      .dwcfi  cfa_offset, -20
    1354                      .dwcfi  restore_reg, 47
    1355                      .dwcfi  restore_reg, 48
    1356 0000016c E2AF          MOV32     R0H,*--SP             ; [CPU_] 
         0000016d 00BE 
    1357                      .dwcfi  cfa_offset, -18
    1358                      .dwcfi  restore_reg, 43
    1359                      .dwcfi  restore_reg, 44
    1360 0000016e E280          MOV32     STF,*--SP             ; [CPU_] 
         0000016f 00BE 
    1361                      .dwcfi  cfa_offset, -16
    1362                      .dwcfi  restore_reg, 39
    1363                      .dwcfi  restore_reg, 40
    1364 00000170 C5BE          MOVL      XAR7,*--SP            ; [CPU_] 
    1365                      .dwcfi  cfa_offset, -14
    1366                      .dwcfi  restore_reg, 18
    1367 00000171 C4BE          MOVL      XAR6,*--SP            ; [CPU_] 
    1368                      .dwcfi  cfa_offset, -12
    1369                      .dwcfi  restore_reg, 16
    1370 00000172 83BE          MOVL      XAR5,*--SP            ; [CPU_] 
    1371                      .dwcfi  cfa_offset, -10
    1372                      .dwcfi  restore_reg, 14
    1373 00000173 8ABE          MOVL      XAR4,*--SP            ; [CPU_] 
    1374                      .dwcfi  cfa_offset, -8
    1375                      .dwcfi  restore_reg, 12
    1376 00000174 87BE          MOVL      XT,*--SP              ; [CPU_] 
    1377                      .dwcfi  cfa_offset, -6
    1378                      .dwcfi  restore_reg, 22
    1379                      .dwcfi  restore_reg, 21
    1380 00000175 0003          POP       AR1H:AR0H             ; [CPU_] 
    1381                      .dwcfi  cfa_offset, -4
    1382                      .dwcfi  restore_reg, 5
    1383                      .dwcfi  restore_reg, 7
    1384 00000176 FFF1          POP       RB                    ; [CPU_] 
    1385                      .dwcfi  cfa_offset, -2
    1386                      .dwcfi  restore_reg, 73
    1387                      .dwcfi  restore_reg, 74
    1388 00000177 7617          NASP      ; [CPU_] 
    1389              $C$DW$73        .dwtag  DW_TAG_TI_branch
    1390                      .dwattr $C$DW$73, DW_AT_low_pc(0x00)
    1391                      .dwattr $C$DW$73, DW_AT_TI_return
    1392 00000178 7602          IRET      ; [CPU_] 
    1393                      ; return occurs ; [] 
    1394              
    1395              $C$DW$74        .dwtag  DW_TAG_TI_loop
    1396                      .dwattr $C$DW$74, DW_AT_name("C:\\Users\\a0272466\\AppData\\Local\\Temp\\0274010:$C$L35:1:1391099172"
    1397                      .dwattr $C$DW$74, DW_AT_TI_begin_file("C:/work/grepos/bootrom/Boot_ROM/F2837x_bootROM-REVB/F2837x_boo
    1398                      .dwattr $C$DW$74, DW_AT_TI_begin_line(0x1a9)
    1399                      .dwattr $C$DW$74, DW_AT_TI_end_line(0x1a9)
    1400              $C$DW$75        .dwtag  DW_TAG_TI_loop_range
    1401                      .dwattr $C$DW$75, DW_AT_low_pc($C$DW$L$_c1brom_handle_nmi$29$B)
    1402                      .dwattr $C$DW$75, DW_AT_high_pc($C$DW$L$_c1brom_handle_nmi$29$E)
    1403                      .dwendtag $C$DW$74
    1404              
    1405              
TMS320C2000 Assembler PC v6.1.3 Thu Jan 30 10:26:14 2014

Tools Copyright (c) 1996-2012 Texas Instruments Incorporated
C:\Users\a0272466\AppData\Local\Temp\0274010                         PAGE   30

    1406              $C$DW$76        .dwtag  DW_TAG_TI_loop
    1407                      .dwattr $C$DW$76, DW_AT_name("C:\\Users\\a0272466\\AppData\\Local\\Temp\\0274010:$C$L33:1:1391099172"
    1408                      .dwattr $C$DW$76, DW_AT_TI_begin_file("C:/work/grepos/bootrom/Boot_ROM/F2837x_bootROM-REVB/F2837x_boo
    1409                      .dwattr $C$DW$76, DW_AT_TI_begin_line(0x19a)
    1410                      .dwattr $C$DW$76, DW_AT_TI_end_line(0x19a)
    1411              $C$DW$77        .dwtag  DW_TAG_TI_loop_range
    1412                      .dwattr $C$DW$77, DW_AT_low_pc($C$DW$L$_c1brom_handle_nmi$26$B)
    1413                      .dwattr $C$DW$77, DW_AT_high_pc($C$DW$L$_c1brom_handle_nmi$26$E)
    1414                      .dwendtag $C$DW$76
    1415              
    1416              
    1417              $C$DW$78        .dwtag  DW_TAG_TI_loop
    1418                      .dwattr $C$DW$78, DW_AT_name("C:\\Users\\a0272466\\AppData\\Local\\Temp\\0274010:$C$L23:1:1391099172"
    1419                      .dwattr $C$DW$78, DW_AT_TI_begin_file("C:/work/grepos/bootrom/Boot_ROM/F2837x_bootROM-REVB/F2837x_boo
    1420                      .dwattr $C$DW$78, DW_AT_TI_begin_line(0x128)
    1421                      .dwattr $C$DW$78, DW_AT_TI_end_line(0x1b8)
    1422              $C$DW$79        .dwtag  DW_TAG_TI_loop_range
    1423                      .dwattr $C$DW$79, DW_AT_low_pc($C$DW$L$_c1brom_handle_nmi$5$B)
    1424                      .dwattr $C$DW$79, DW_AT_high_pc($C$DW$L$_c1brom_handle_nmi$5$E)
    1425              $C$DW$80        .dwtag  DW_TAG_TI_loop_range
    1426                      .dwattr $C$DW$80, DW_AT_low_pc($C$DW$L$_c1brom_handle_nmi$6$B)
    1427                      .dwattr $C$DW$80, DW_AT_high_pc($C$DW$L$_c1brom_handle_nmi$6$E)
    1428              $C$DW$81        .dwtag  DW_TAG_TI_loop_range
    1429                      .dwattr $C$DW$81, DW_AT_low_pc($C$DW$L$_c1brom_handle_nmi$8$B)
    1430                      .dwattr $C$DW$81, DW_AT_high_pc($C$DW$L$_c1brom_handle_nmi$8$E)
    1431              $C$DW$82        .dwtag  DW_TAG_TI_loop_range
    1432                      .dwattr $C$DW$82, DW_AT_low_pc($C$DW$L$_c1brom_handle_nmi$9$B)
    1433                      .dwattr $C$DW$82, DW_AT_high_pc($C$DW$L$_c1brom_handle_nmi$9$E)
    1434              $C$DW$83        .dwtag  DW_TAG_TI_loop_range
    1435                      .dwattr $C$DW$83, DW_AT_low_pc($C$DW$L$_c1brom_handle_nmi$10$B)
    1436                      .dwattr $C$DW$83, DW_AT_high_pc($C$DW$L$_c1brom_handle_nmi$10$E)
    1437              $C$DW$84        .dwtag  DW_TAG_TI_loop_range
    1438                      .dwattr $C$DW$84, DW_AT_low_pc($C$DW$L$_c1brom_handle_nmi$11$B)
    1439                      .dwattr $C$DW$84, DW_AT_high_pc($C$DW$L$_c1brom_handle_nmi$11$E)
    1440              $C$DW$85        .dwtag  DW_TAG_TI_loop_range
    1441                      .dwattr $C$DW$85, DW_AT_low_pc($C$DW$L$_c1brom_handle_nmi$12$B)
    1442                      .dwattr $C$DW$85, DW_AT_high_pc($C$DW$L$_c1brom_handle_nmi$12$E)
    1443              $C$DW$86        .dwtag  DW_TAG_TI_loop_range
    1444                      .dwattr $C$DW$86, DW_AT_low_pc($C$DW$L$_c1brom_handle_nmi$13$B)
    1445                      .dwattr $C$DW$86, DW_AT_high_pc($C$DW$L$_c1brom_handle_nmi$13$E)
    1446              $C$DW$87        .dwtag  DW_TAG_TI_loop_range
    1447                      .dwattr $C$DW$87, DW_AT_low_pc($C$DW$L$_c1brom_handle_nmi$14$B)
    1448                      .dwattr $C$DW$87, DW_AT_high_pc($C$DW$L$_c1brom_handle_nmi$14$E)
    1449              $C$DW$88        .dwtag  DW_TAG_TI_loop_range
    1450                      .dwattr $C$DW$88, DW_AT_low_pc($C$DW$L$_c1brom_handle_nmi$15$B)
    1451                      .dwattr $C$DW$88, DW_AT_high_pc($C$DW$L$_c1brom_handle_nmi$15$E)
    1452              $C$DW$89        .dwtag  DW_TAG_TI_loop_range
    1453                      .dwattr $C$DW$89, DW_AT_low_pc($C$DW$L$_c1brom_handle_nmi$16$B)
    1454                      .dwattr $C$DW$89, DW_AT_high_pc($C$DW$L$_c1brom_handle_nmi$16$E)
    1455              $C$DW$90        .dwtag  DW_TAG_TI_loop_range
    1456                      .dwattr $C$DW$90, DW_AT_low_pc($C$DW$L$_c1brom_handle_nmi$17$B)
    1457                      .dwattr $C$DW$90, DW_AT_high_pc($C$DW$L$_c1brom_handle_nmi$17$E)
    1458              $C$DW$91        .dwtag  DW_TAG_TI_loop_range
    1459                      .dwattr $C$DW$91, DW_AT_low_pc($C$DW$L$_c1brom_handle_nmi$18$B)
    1460                      .dwattr $C$DW$91, DW_AT_high_pc($C$DW$L$_c1brom_handle_nmi$18$E)
TMS320C2000 Assembler PC v6.1.3 Thu Jan 30 10:26:14 2014

Tools Copyright (c) 1996-2012 Texas Instruments Incorporated
C:\Users\a0272466\AppData\Local\Temp\0274010                         PAGE   31

    1461              $C$DW$92        .dwtag  DW_TAG_TI_loop_range
    1462                      .dwattr $C$DW$92, DW_AT_low_pc($C$DW$L$_c1brom_handle_nmi$19$B)
    1463                      .dwattr $C$DW$92, DW_AT_high_pc($C$DW$L$_c1brom_handle_nmi$19$E)
    1464              $C$DW$93        .dwtag  DW_TAG_TI_loop_range
    1465                      .dwattr $C$DW$93, DW_AT_low_pc($C$DW$L$_c1brom_handle_nmi$20$B)
    1466                      .dwattr $C$DW$93, DW_AT_high_pc($C$DW$L$_c1brom_handle_nmi$20$E)
    1467              $C$DW$94        .dwtag  DW_TAG_TI_loop_range
    1468                      .dwattr $C$DW$94, DW_AT_low_pc($C$DW$L$_c1brom_handle_nmi$21$B)
    1469                      .dwattr $C$DW$94, DW_AT_high_pc($C$DW$L$_c1brom_handle_nmi$21$E)
    1470              $C$DW$95        .dwtag  DW_TAG_TI_loop_range
    1471                      .dwattr $C$DW$95, DW_AT_low_pc($C$DW$L$_c1brom_handle_nmi$22$B)
    1472                      .dwattr $C$DW$95, DW_AT_high_pc($C$DW$L$_c1brom_handle_nmi$22$E)
    1473              $C$DW$96        .dwtag  DW_TAG_TI_loop_range
    1474                      .dwattr $C$DW$96, DW_AT_low_pc($C$DW$L$_c1brom_handle_nmi$23$B)
    1475                      .dwattr $C$DW$96, DW_AT_high_pc($C$DW$L$_c1brom_handle_nmi$23$E)
    1476              $C$DW$97        .dwtag  DW_TAG_TI_loop_range
    1477                      .dwattr $C$DW$97, DW_AT_low_pc($C$DW$L$_c1brom_handle_nmi$24$B)
    1478                      .dwattr $C$DW$97, DW_AT_high_pc($C$DW$L$_c1brom_handle_nmi$24$E)
    1479              $C$DW$98        .dwtag  DW_TAG_TI_loop_range
    1480                      .dwattr $C$DW$98, DW_AT_low_pc($C$DW$L$_c1brom_handle_nmi$27$B)
    1481                      .dwattr $C$DW$98, DW_AT_high_pc($C$DW$L$_c1brom_handle_nmi$27$E)
    1482              $C$DW$99        .dwtag  DW_TAG_TI_loop_range
    1483                      .dwattr $C$DW$99, DW_AT_low_pc($C$DW$L$_c1brom_handle_nmi$30$B)
    1484                      .dwattr $C$DW$99, DW_AT_high_pc($C$DW$L$_c1brom_handle_nmi$30$E)
    1485                      .dwendtag $C$DW$78
    1486              
    1487                      .dwattr $C$DW$70, DW_AT_TI_end_file("C:/work/grepos/bootrom/Boot_ROM/F2837x_bootROM-REVB/F2837x_bootR
    1488                      .dwattr $C$DW$70, DW_AT_TI_end_line(0x1bb)
    1489                      .dwattr $C$DW$70, DW_AT_TI_end_column(0x01)
    1490                      .dwendentry
    1491                      .dwendtag $C$DW$70
    1492              
    1493 00000179               .sect   ".text:retain"
    1494                      .global _c1brom_itrap_isr
    1495              
    1496              $C$DW$100       .dwtag  DW_TAG_subprogram, DW_AT_name("c1brom_itrap_isr")
    1497                      .dwattr $C$DW$100, DW_AT_low_pc(_c1brom_itrap_isr)
    1498                      .dwattr $C$DW$100, DW_AT_high_pc(0x00)
    1499                      .dwattr $C$DW$100, DW_AT_TI_symbol_name("_c1brom_itrap_isr")
    1500                      .dwattr $C$DW$100, DW_AT_external
    1501                      .dwattr $C$DW$100, DW_AT_TI_begin_file("C:/work/grepos/bootrom/Boot_ROM/F2837x_bootROM-REVB/F2837x_bo
    1502                      .dwattr $C$DW$100, DW_AT_TI_begin_line(0x1bf)
    1503                      .dwattr $C$DW$100, DW_AT_TI_begin_column(0x10)
    1504                      .dwattr $C$DW$100, DW_AT_TI_interrupt
    1505                      .dwattr $C$DW$100, DW_AT_TI_max_frame_size(-26)
    1506                      .dwpsn  file "C:/work/grepos/bootrom/Boot_ROM/F2837x_bootROM-REVB/F2837x_bootROM_dev/F2837x_bootROM/c
    1507              
    1508                      .dwfde $C$DW$CIE, _c1brom_itrap_isr
    1509              
    1510              ;***************************************************************
    1511              ;* FNAME: _c1brom_itrap_isr             FR SIZE:  24           *
    1512              ;*                                                             *
    1513              ;* FUNCTION ENVIRONMENT                                        *
    1514              ;*                                                             *
    1515              ;* FUNCTION PROPERTIES                                         *
TMS320C2000 Assembler PC v6.1.3 Thu Jan 30 10:26:14 2014

Tools Copyright (c) 1996-2012 Texas Instruments Incorporated
C:\Users\a0272466\AppData\Local\Temp\0274010                         PAGE   32

    1516              ;*                            0 Parameter,  0 Auto, 24 SOE     *
    1517              ;***************************************************************
    1518              
    1519 00000179       _c1brom_itrap_isr:
    1520 00000179 761B          ASP       ; [CPU_] 
    1521                      .dwcfi  cfa_offset, -2
    1522                      .dwcfi  save_reg_to_mem, 26, 0
    1523                      .dwcfi  save_reg_to_reg, 78, 26
    1524 0000017a FFF0          PUSH      RB                    ; [CPU_] 
    1525                      .dwcfi  save_reg_to_mem, 73, 2
    1526                      .dwcfi  save_reg_to_mem, 74, 3
    1527                      .dwcfi  cfa_offset, -4
    1528 0000017b 0005          PUSH      AR1H:AR0H             ; [CPU_] 
    1529                      .dwcfi  save_reg_to_mem, 5, 4
    1530                      .dwcfi  save_reg_to_mem, 7, 5
    1531                      .dwcfi  cfa_offset, -6
    1532 0000017c ABBD          MOVL      *SP++,XT              ; [CPU_] 
    1533                      .dwcfi  save_reg_to_mem, 21, 6
    1534                      .dwcfi  save_reg_to_mem, 22, 7
    1535                      .dwcfi  cfa_offset, -8
    1536 0000017d A8BD          MOVL      *SP++,XAR4            ; [CPU_] 
    1537                      .dwcfi  save_reg_to_mem, 12, 8
    1538                      .dwcfi  save_reg_to_mem, 13, 9
    1539                      .dwcfi  cfa_offset, -10
    1540 0000017e A0BD          MOVL      *SP++,XAR5            ; [CPU_] 
    1541                      .dwcfi  save_reg_to_mem, 14, 10
    1542                      .dwcfi  save_reg_to_mem, 15, 11
    1543                      .dwcfi  cfa_offset, -12
    1544 0000017f C2BD          MOVL      *SP++,XAR6            ; [CPU_] 
    1545                      .dwcfi  save_reg_to_mem, 16, 12
    1546                      .dwcfi  save_reg_to_mem, 17, 13
    1547                      .dwcfi  cfa_offset, -14
    1548 00000180 C3BD          MOVL      *SP++,XAR7            ; [CPU_] 
    1549                      .dwcfi  save_reg_to_mem, 18, 14
    1550                      .dwcfi  save_reg_to_mem, 19, 15
    1551                      .dwcfi  cfa_offset, -16
    1552 00000181 E200          MOV32     *SP++,STF             ; [CPU_] 
         00000182 00BD 
    1553                      .dwcfi  save_reg_to_mem, 39, 16
    1554                      .dwcfi  save_reg_to_mem, 40, 17
    1555                      .dwcfi  cfa_offset, -18
    1556 00000183 E203          MOV32     *SP++,R0H             ; [CPU_] 
         00000184 00BD 
    1557                      .dwcfi  save_reg_to_mem, 43, 18
    1558                      .dwcfi  save_reg_to_mem, 44, 19
    1559                      .dwcfi  cfa_offset, -20
    1560 00000185 E203          MOV32     *SP++,R1H             ; [CPU_] 
         00000186 01BD 
    1561                      .dwcfi  save_reg_to_mem, 47, 20
    1562                      .dwcfi  save_reg_to_mem, 48, 21
    1563                      .dwcfi  cfa_offset, -22
    1564 00000187 E203          MOV32     *SP++,R2H             ; [CPU_] 
         00000188 02BD 
    1565                      .dwcfi  save_reg_to_mem, 51, 22
    1566                      .dwcfi  save_reg_to_mem, 52, 23
TMS320C2000 Assembler PC v6.1.3 Thu Jan 30 10:26:14 2014

Tools Copyright (c) 1996-2012 Texas Instruments Incorporated
C:\Users\a0272466\AppData\Local\Temp\0274010                         PAGE   33

    1567                      .dwcfi  cfa_offset, -24
    1568 00000189 E203          MOV32     *SP++,R3H             ; [CPU_] 
         0000018a 03BD 
    1569                      .dwcfi  save_reg_to_mem, 55, 24
    1570                      .dwcfi  save_reg_to_mem, 56, 25
    1571                      .dwcfi  cfa_offset, -26
    1572 0000018b E630          SETFLG    RNDF32=1, RNDF64=1    ; [CPU_] 
         0000018c 0600 
    1573 0000018d FF69          SPM       0                     ; [CPU_] 
    1574 0000018e 2942          CLRC      PAGE0,OVM             ; [CPU_] 
    1575 0000018f 5616          CLRC      AMODE                 ; [CPU_] 
    1576                      .dwpsn  file "C:/work/grepos/bootrom/Boot_ROM/F2837x_bootROM-REVB/F2837x_bootROM_dev/F2837x_bootROM/c
    1577 00000190 761F!         MOVW      DP,#_c1brom_status+1  ; [CPU_U] 
         00000191 0000 
    1578 00000192 1A01!         OR        @_c1brom_status+1,#2  ; [CPU_] |451| 
         00000193 0002 
    1579                      .dwpsn  file "C:/work/grepos/bootrom/Boot_ROM/F2837x_bootROM-REVB/F2837x_bootROM_dev/F2837x_bootROM/c
    1580 00000194 0200          MOVB      ACC,#0                ; [CPU_] |456| 
    1581 00000195 761F-         MOVW      DP,#_iTrap_addr       ; [CPU_U] 
         00000196 0000 
    1582 00000197 1901          SUBB      ACC,#1                ; [CPU_] |456| 
    1583 00000198 1E02-         MOVL      @_iTrap_addr,ACC      ; [CPU_] |456| 
    1584                      .dwpsn  file "C:/work/grepos/bootrom/Boot_ROM/F2837x_bootROM-REVB/F2837x_bootROM_dev/F2837x_bootROM/c
    1585 00000199 8F00-         MOVL      XAR4,#_iTrap_addr     ; [CPU_U] |462| 
         0000019a 0002 
    1586              $C$DW$101       .dwtag  DW_TAG_TI_branch
    1587                      .dwattr $C$DW$101, DW_AT_low_pc(0x00)
    1588                      .dwattr $C$DW$101, DW_AT_name("_load_itrap_address")
    1589                      .dwattr $C$DW$101, DW_AT_TI_call
    1590 0000019b 7640!         LCR       #_load_itrap_address  ; [CPU_] |462| 
         0000019c 0000 
    1591                      ; call occurs [#_load_itrap_address] ; [] |462| 
    1592                      .dwpsn  file "C:/work/grepos/bootrom/Boot_ROM/F2837x_bootROM-REVB/F2837x_bootROM_dev/F2837x_bootROM/c
    1593 0000019d 761F-         MOVW      DP,#_iTrap_addr       ; [CPU_U] 
         0000019e 0000 
    1594 0000019f 0201          MOVB      ACC,#1                ; [CPU_] |465| 
    1595 000001a0 5641-         SUBL      @_iTrap_addr,ACC      ; [CPU_] |465| 
         000001a1 0002 
    1596                      .dwpsn  file "C:/work/grepos/bootrom/Boot_ROM/F2837x_bootROM-REVB/F2837x_bootROM_dev/F2837x_bootROM/c
    1597              $C$DW$102       .dwtag  DW_TAG_TI_branch
    1598                      .dwattr $C$DW$102, DW_AT_low_pc(0x00)
    1599                      .dwattr $C$DW$102, DW_AT_name("_sysctl_wdog_enable")
    1600                      .dwattr $C$DW$102, DW_AT_TI_call
    1601 000001a2 7640!         LCR       #_sysctl_wdog_enable  ; [CPU_] |470| 
         000001a3 0000 
    1602                      ; call occurs [#_sysctl_wdog_enable] ; [] |470| 
    1603                      .dwpsn  file "C:/work/grepos/bootrom/Boot_ROM/F2837x_bootROM-REVB/F2837x_bootROM_dev/F2837x_bootROM/c
    1604 000001a4 7625     ESTOP0
    1605                      .dwpsn  file "C:/work/grepos/bootrom/Boot_ROM/F2837x_bootROM-REVB/F2837x_bootROM_dev/F2837x_bootROM/c
    1606 000001a5       $C$L38:    
    1607 000001a5       $C$DW$L$_c1brom_itrap_isr$2$B:
    1608 000001a5 6F00          B         $C$L38,UNC            ; [CPU_] |474| 
    1609                      ; branch occurs ; [] |474| 
    1610 000001a6       $C$DW$L$_c1brom_itrap_isr$2$E:
    1611                      .dwcfi  cfa_offset, -26
TMS320C2000 Assembler PC v6.1.3 Thu Jan 30 10:26:14 2014

Tools Copyright (c) 1996-2012 Texas Instruments Incorporated
C:\Users\a0272466\AppData\Local\Temp\0274010                         PAGE   34

    1612                      .dwcfi  cfa_offset, -24
    1613                      .dwcfi  restore_reg, 55
    1614                      .dwcfi  restore_reg, 56
    1615                      .dwcfi  cfa_offset, -22
    1616                      .dwcfi  restore_reg, 51
    1617                      .dwcfi  restore_reg, 52
    1618                      .dwcfi  cfa_offset, -20
    1619                      .dwcfi  restore_reg, 47
    1620                      .dwcfi  restore_reg, 48
    1621                      .dwcfi  cfa_offset, -18
    1622                      .dwcfi  restore_reg, 43
    1623                      .dwcfi  restore_reg, 44
    1624                      .dwcfi  cfa_offset, -16
    1625                      .dwcfi  restore_reg, 39
    1626                      .dwcfi  restore_reg, 40
    1627                      .dwcfi  cfa_offset, -14
    1628                      .dwcfi  restore_reg, 18
    1629                      .dwcfi  cfa_offset, -12
    1630                      .dwcfi  restore_reg, 16
    1631                      .dwcfi  cfa_offset, -10
    1632                      .dwcfi  restore_reg, 14
    1633                      .dwcfi  cfa_offset, -8
    1634                      .dwcfi  restore_reg, 12
    1635                      .dwcfi  cfa_offset, -6
    1636                      .dwcfi  restore_reg, 22
    1637                      .dwcfi  restore_reg, 21
    1638                      .dwcfi  cfa_offset, -4
    1639                      .dwcfi  restore_reg, 5
    1640                      .dwcfi  restore_reg, 7
    1641                      .dwcfi  cfa_offset, -2
    1642                      .dwcfi  restore_reg, 73
    1643                      .dwcfi  restore_reg, 74
    1644              
    1645              $C$DW$103       .dwtag  DW_TAG_TI_loop
    1646                      .dwattr $C$DW$103, DW_AT_name("C:\\Users\\a0272466\\AppData\\Local\\Temp\\0274010:$C$L38:1:1391099172
    1647                      .dwattr $C$DW$103, DW_AT_TI_begin_file("C:/work/grepos/bootrom/Boot_ROM/F2837x_bootROM-REVB/F2837x_bo
    1648                      .dwattr $C$DW$103, DW_AT_TI_begin_line(0x1da)
    1649                      .dwattr $C$DW$103, DW_AT_TI_end_line(0x1da)
    1650              $C$DW$104       .dwtag  DW_TAG_TI_loop_range
    1651                      .dwattr $C$DW$104, DW_AT_low_pc($C$DW$L$_c1brom_itrap_isr$2$B)
    1652                      .dwattr $C$DW$104, DW_AT_high_pc($C$DW$L$_c1brom_itrap_isr$2$E)
    1653                      .dwendtag $C$DW$103
    1654              
    1655                      .dwattr $C$DW$100, DW_AT_TI_end_file("C:/work/grepos/bootrom/Boot_ROM/F2837x_bootROM-REVB/F2837x_boot
    1656                      .dwattr $C$DW$100, DW_AT_TI_end_line(0x1db)
    1657                      .dwattr $C$DW$100, DW_AT_TI_end_column(0x01)
    1658                      .dwendentry
    1659                      .dwendtag $C$DW$100
    1660              
    1661 000001a6               .sect   ".text:retain"
    1662                      .global _c1brom_c2c1_ipc_int1_isr
    1663              
    1664              $C$DW$105       .dwtag  DW_TAG_subprogram, DW_AT_name("c1brom_c2c1_ipc_int1_isr")
    1665                      .dwattr $C$DW$105, DW_AT_low_pc(_c1brom_c2c1_ipc_int1_isr)
    1666                      .dwattr $C$DW$105, DW_AT_high_pc(0x00)
TMS320C2000 Assembler PC v6.1.3 Thu Jan 30 10:26:14 2014

Tools Copyright (c) 1996-2012 Texas Instruments Incorporated
C:\Users\a0272466\AppData\Local\Temp\0274010                         PAGE   35

    1667                      .dwattr $C$DW$105, DW_AT_TI_symbol_name("_c1brom_c2c1_ipc_int1_isr")
    1668                      .dwattr $C$DW$105, DW_AT_external
    1669                      .dwattr $C$DW$105, DW_AT_TI_begin_file("C:/work/grepos/bootrom/Boot_ROM/F2837x_bootROM-REVB/F2837x_bo
    1670                      .dwattr $C$DW$105, DW_AT_TI_begin_line(0x1e3)
    1671                      .dwattr $C$DW$105, DW_AT_TI_begin_column(0x10)
    1672                      .dwattr $C$DW$105, DW_AT_TI_interrupt
    1673                      .dwattr $C$DW$105, DW_AT_TI_max_frame_size(-26)
    1674                      .dwpsn  file "C:/work/grepos/bootrom/Boot_ROM/F2837x_bootROM-REVB/F2837x_bootROM_dev/F2837x_bootROM/c
    1675              
    1676                      .dwfde $C$DW$CIE, _c1brom_c2c1_ipc_int1_isr
    1677              
    1678              ;***************************************************************
    1679              ;* FNAME: _c1brom_c2c1_ipc_int1_isr     FR SIZE:  24           *
    1680              ;*                                                             *
    1681              ;* FUNCTION ENVIRONMENT                                        *
    1682              ;*                                                             *
    1683              ;* FUNCTION PROPERTIES                                         *
    1684              ;*                            0 Parameter,  0 Auto, 24 SOE     *
    1685              ;***************************************************************
    1686              
    1687 000001a6       _c1brom_c2c1_ipc_int1_isr:
    1688 000001a6 761B          ASP       ; [CPU_] 
    1689                      .dwcfi  cfa_offset, -2
    1690                      .dwcfi  save_reg_to_mem, 26, 0
    1691                      .dwcfi  save_reg_to_reg, 78, 26
    1692 000001a7 FFF0          PUSH      RB                    ; [CPU_] 
    1693                      .dwcfi  save_reg_to_mem, 73, 2
    1694                      .dwcfi  save_reg_to_mem, 74, 3
    1695                      .dwcfi  cfa_offset, -4
    1696 000001a8 0005          PUSH      AR1H:AR0H             ; [CPU_] 
    1697                      .dwcfi  save_reg_to_mem, 5, 4
    1698                      .dwcfi  save_reg_to_mem, 7, 5
    1699                      .dwcfi  cfa_offset, -6
    1700 000001a9 ABBD          MOVL      *SP++,XT              ; [CPU_] 
    1701                      .dwcfi  save_reg_to_mem, 21, 6
    1702                      .dwcfi  save_reg_to_mem, 22, 7
    1703                      .dwcfi  cfa_offset, -8
    1704 000001aa A8BD          MOVL      *SP++,XAR4            ; [CPU_] 
    1705                      .dwcfi  save_reg_to_mem, 12, 8
    1706                      .dwcfi  save_reg_to_mem, 13, 9
    1707                      .dwcfi  cfa_offset, -10
    1708 000001ab A0BD          MOVL      *SP++,XAR5            ; [CPU_] 
    1709                      .dwcfi  save_reg_to_mem, 14, 10
    1710                      .dwcfi  save_reg_to_mem, 15, 11
    1711                      .dwcfi  cfa_offset, -12
    1712 000001ac C2BD          MOVL      *SP++,XAR6            ; [CPU_] 
    1713                      .dwcfi  save_reg_to_mem, 16, 12
    1714                      .dwcfi  save_reg_to_mem, 17, 13
    1715                      .dwcfi  cfa_offset, -14
    1716 000001ad C3BD          MOVL      *SP++,XAR7            ; [CPU_] 
    1717                      .dwcfi  save_reg_to_mem, 18, 14
    1718                      .dwcfi  save_reg_to_mem, 19, 15
    1719                      .dwcfi  cfa_offset, -16
    1720 000001ae E200          MOV32     *SP++,STF             ; [CPU_] 
         000001af 00BD 
TMS320C2000 Assembler PC v6.1.3 Thu Jan 30 10:26:14 2014

Tools Copyright (c) 1996-2012 Texas Instruments Incorporated
C:\Users\a0272466\AppData\Local\Temp\0274010                         PAGE   36

    1721                      .dwcfi  save_reg_to_mem, 39, 16
    1722                      .dwcfi  save_reg_to_mem, 40, 17
    1723                      .dwcfi  cfa_offset, -18
    1724 000001b0 E203          MOV32     *SP++,R0H             ; [CPU_] 
         000001b1 00BD 
    1725                      .dwcfi  save_reg_to_mem, 43, 18
    1726                      .dwcfi  save_reg_to_mem, 44, 19
    1727                      .dwcfi  cfa_offset, -20
    1728 000001b2 E203          MOV32     *SP++,R1H             ; [CPU_] 
         000001b3 01BD 
    1729                      .dwcfi  save_reg_to_mem, 47, 20
    1730                      .dwcfi  save_reg_to_mem, 48, 21
    1731                      .dwcfi  cfa_offset, -22
    1732 000001b4 E203          MOV32     *SP++,R2H             ; [CPU_] 
         000001b5 02BD 
    1733                      .dwcfi  save_reg_to_mem, 51, 22
    1734                      .dwcfi  save_reg_to_mem, 52, 23
    1735                      .dwcfi  cfa_offset, -24
    1736 000001b6 E203          MOV32     *SP++,R3H             ; [CPU_] 
         000001b7 03BD 
    1737                      .dwcfi  save_reg_to_mem, 55, 24
    1738                      .dwcfi  save_reg_to_mem, 56, 25
    1739                      .dwcfi  cfa_offset, -26
    1740 000001b8 E630          SETFLG    RNDF32=1, RNDF64=1    ; [CPU_] 
         000001b9 0600 
    1741 000001ba FF69          SPM       0                     ; [CPU_] 
    1742 000001bb 2942          CLRC      PAGE0,OVM             ; [CPU_] 
    1743 000001bc 5616          CLRC      AMODE                 ; [CPU_] 
    1744                      .dwpsn  file "C:/work/grepos/bootrom/Boot_ROM/F2837x_bootROM-REVB/F2837x_bootROM_dev/F2837x_bootROM/c
    1745 000001bd 9A00          MOVB      AL,#0                 ; [CPU_] |487| 
    1746 000001be 761F!         MOVW      DP,#_IpcRegs+2        ; [CPU_U] 
         000001bf 0000 
    1747 000001c0 4002!         TBIT      @_IpcRegs+2,#0        ; [CPU_] |487| 
    1748 000001c1 EF04          BF        $C$L39,NTC            ; [CPU_] |487| 
    1749                      ; branchcc occurs ; [] |487| 
    1750 000001c2 4F03!         TBIT      @_IpcRegs+3,#15       ; [CPU_] |487| 
    1751 000001c3 56BD          MOVB      AL,#1,TC              ; [CPU_] |487| 
         000001c4 01A9 
    1752 000001c5       $C$L39:    
    1753 000001c5 5200          CMPB      AL,#0                 ; [CPU_] |487| 
    1754 000001c6 ED10          BF        $C$L40,NEQ            ; [CPU_] |487| 
    1755                      ; branchcc occurs ; [] |487| 
    1756                      .dwpsn  file "C:/work/grepos/bootrom/Boot_ROM/F2837x_bootROM-REVB/F2837x_bootROM_dev/F2837x_bootROM/c
    1757 000001c7 761F!         MOVW      DP,#_c1brom_status    ; [CPU_U] 
         000001c8 0000 
    1758 000001c9 0600!         MOVL      ACC,@_c1brom_status   ; [CPU_] |490| 
    1759 000001ca 761F!         MOVW      DP,#_IpcRegs          ; [CPU_U] 
         000001cb 0000 
    1760 000001cc 5002          ORB       AL,#0x02              ; [CPU_] |490| 
    1761 000001cd 1A00!         OR        @_IpcRegs,#0x0001     ; [CPU_] |490| 
         000001ce 0001 
    1762 000001cf 1E1E!         MOVL      @_IpcRegs+30,ACC      ; [CPU_] |490| 
    1763                      .dwpsn  file "C:/work/grepos/bootrom/Boot_ROM/F2837x_bootROM-REVB/F2837x_bootROM_dev/F2837x_bootROM/c
    1764 000001d0 761F!         MOVW      DP,#_PieCtrlRegs+1    ; [CPU_U] 
         000001d1 0000 
TMS320C2000 Assembler PC v6.1.3 Thu Jan 30 10:26:14 2014

Tools Copyright (c) 1996-2012 Texas Instruments Incorporated
C:\Users\a0272466\AppData\Local\Temp\0274010                         PAGE   37

    1765 000001d2 56BF!         MOVB      @_PieCtrlRegs+1,#1,UNC ; [CPU_] |493| 
         000001d3 0101 
    1766                      .dwpsn  file "C:/work/grepos/bootrom/Boot_ROM/F2837x_bootROM-REVB/F2837x_bootROM_dev/F2837x_bootROM/c
    1767 000001d4 FFEF          B         $C$L63,UNC            ; [CPU_] |494| 
         000001d5 00EB 
    1768                      ; branch occurs ; [] |494| 
    1769 000001d6       $C$L40:    
    1770                      .dwpsn  file "C:/work/grepos/bootrom/Boot_ROM/F2837x_bootROM-REVB/F2837x_bootROM_dev/F2837x_bootROM/c
    1771 000001d6 761F!         MOVW      DP,#_c1brom_current_c2c1_ipc ; [CPU_U] 
         000001d7 0000 
    1772 000001d8 9200!         MOV       AL,@_c1brom_current_c2c1_ipc ; [CPU_] |498| 
    1773 000001d9 ED03          BF        $C$L41,NEQ            ; [CPU_] |498| 
    1774                      ; branchcc occurs ; [] |498| 
    1775 000001da 0602!         MOVL      ACC,@_c1brom_current_c2c1_ipc+2 ; [CPU_] |498| 
    1776 000001db EC10          BF        $C$L42,EQ             ; [CPU_] |498| 
    1777                      ; branchcc occurs ; [] |498| 
    1778 000001dc       $C$L41:    
    1779                      .dwpsn  file "C:/work/grepos/bootrom/Boot_ROM/F2837x_bootROM-REVB/F2837x_bootROM_dev/F2837x_bootROM/c
    1780 000001dc 761F!         MOVW      DP,#_c1brom_status    ; [CPU_U] 
         000001dd 0000 
    1781 000001de 0600!         MOVL      ACC,@_c1brom_status   ; [CPU_] |502| 
    1782 000001df 761F!         MOVW      DP,#_IpcRegs          ; [CPU_U] 
         000001e0 0000 
    1783 000001e1 5003          ORB       AL,#0x03              ; [CPU_] |502| 
    1784 000001e2 1A00!         OR        @_IpcRegs,#0x0001     ; [CPU_] |502| 
         000001e3 0001 
    1785 000001e4 1E1E!         MOVL      @_IpcRegs+30,ACC      ; [CPU_] |502| 
    1786                      .dwpsn  file "C:/work/grepos/bootrom/Boot_ROM/F2837x_bootROM-REVB/F2837x_bootROM_dev/F2837x_bootROM/c
    1787 000001e5 761F!         MOVW      DP,#_PieCtrlRegs+1    ; [CPU_U] 
         000001e6 0000 
    1788 000001e7 56BF!         MOVB      @_PieCtrlRegs+1,#1,UNC ; [CPU_] |503| 
         000001e8 0101 
    1789                      .dwpsn  file "C:/work/grepos/bootrom/Boot_ROM/F2837x_bootROM-REVB/F2837x_bootROM_dev/F2837x_bootROM/c
    1790 000001e9 FFEF          B         $C$L63,UNC            ; [CPU_] |504| 
         000001ea 00D6 
    1791                      ; branch occurs ; [] |504| 
    1792 000001eb       $C$L42:    
    1793                      .dwpsn  file "C:/work/grepos/bootrom/Boot_ROM/F2837x_bootROM-REVB/F2837x_bootROM_dev/F2837x_bootROM/c
    1794 000001eb 761F!         MOVW      DP,#_IpcRegs+24       ; [CPU_U] 
         000001ec 0000 
    1795 000001ed 0618!         MOVL      ACC,@_IpcRegs+24      ; [CPU_] |508| 
    1796 000001ee 761F!         MOVW      DP,#_c1brom_current_c2c1_ipc+2 ; [CPU_U] 
         000001ef 0000 
    1797 000001f0 1E02!         MOVL      @_c1brom_current_c2c1_ipc+2,ACC ; [CPU_] |508| 
    1798                      .dwpsn  file "C:/work/grepos/bootrom/Boot_ROM/F2837x_bootROM-REVB/F2837x_bootROM_dev/F2837x_bootROM/c
    1799 000001f1 56BF!         MOVB      @_c1brom_current_c2c1_ipc,#1,UNC ; [CPU_] |509| 
         000001f2 0100 
    1800                      .dwpsn  file "C:/work/grepos/bootrom/Boot_ROM/F2837x_bootROM-REVB/F2837x_bootROM_dev/F2837x_bootROM/c
    1801 000001f3 0602!         MOVL      ACC,@_c1brom_current_c2c1_ipc+2 ; [CPU_] |513| 
    1802 000001f4 EC04          BF        $C$L43,EQ             ; [CPU_] |513| 
    1803                      ; branchcc occurs ; [] |513| 
    1804 000001f5 0214          MOVB      ACC,#20               ; [CPU_] |513| 
    1805 000001f6 0F02!         CMPL      ACC,@_c1brom_current_c2c1_ipc+2 ; [CPU_] |513| 
    1806 000001f7 6613          B         $C$L44,HI             ; [CPU_] |513| 
    1807                      ; branchcc occurs ; [] |513| 
TMS320C2000 Assembler PC v6.1.3 Thu Jan 30 10:26:14 2014

Tools Copyright (c) 1996-2012 Texas Instruments Incorporated
C:\Users\a0272466\AppData\Local\Temp\0274010                         PAGE   38

    1808 000001f8       $C$L43:    
    1809                      .dwpsn  file "C:/work/grepos/bootrom/Boot_ROM/F2837x_bootROM-REVB/F2837x_bootROM_dev/F2837x_bootROM/c
    1810 000001f8 0200          MOVB      ACC,#0                ; [CPU_] |516| 
    1811 000001f9 1E02!         MOVL      @_c1brom_current_c2c1_ipc+2,ACC ; [CPU_] |516| 
    1812                      .dwpsn  file "C:/work/grepos/bootrom/Boot_ROM/F2837x_bootROM-REVB/F2837x_bootROM_dev/F2837x_bootROM/c
    1813 000001fa 2B00!         MOV       @_c1brom_current_c2c1_ipc,#0 ; [CPU_] |517| 
    1814                      .dwpsn  file "C:/work/grepos/bootrom/Boot_ROM/F2837x_bootROM-REVB/F2837x_bootROM_dev/F2837x_bootROM/c
    1815 000001fb 761F!         MOVW      DP,#_c1brom_status    ; [CPU_U] 
         000001fc 0000 
    1816 000001fd 0600!         MOVL      ACC,@_c1brom_status   ; [CPU_] |518| 
    1817 000001fe 761F!         MOVW      DP,#_IpcRegs          ; [CPU_U] 
         000001ff 0000 
    1818 00000200 5001          ORB       AL,#0x01              ; [CPU_] |518| 
    1819 00000201 1A00!         OR        @_IpcRegs,#0x0001     ; [CPU_] |518| 
         00000202 0001 
    1820 00000203 1E1E!         MOVL      @_IpcRegs+30,ACC      ; [CPU_] |518| 
    1821                      .dwpsn  file "C:/work/grepos/bootrom/Boot_ROM/F2837x_bootROM-REVB/F2837x_bootROM_dev/F2837x_bootROM/c
    1822 00000204 761F!         MOVW      DP,#_PieCtrlRegs+1    ; [CPU_U] 
         00000205 0000 
    1823 00000206 56BF!         MOVB      @_PieCtrlRegs+1,#1,UNC ; [CPU_] |519| 
         00000207 0101 
    1824                      .dwpsn  file "C:/work/grepos/bootrom/Boot_ROM/F2837x_bootROM-REVB/F2837x_bootROM_dev/F2837x_bootROM/c
    1825 00000208 FFEF          B         $C$L63,UNC            ; [CPU_] |520| 
         00000209 00B7 
    1826                      ; branch occurs ; [] |520| 
    1827 0000020a       $C$L44:    
    1828                      .dwpsn  file "C:/work/grepos/bootrom/Boot_ROM/F2837x_bootROM-REVB/F2837x_bootROM_dev/F2837x_bootROM/c
    1829 0000020a 0201          MOVB      ACC,#1                ; [CPU_] |524| 
    1830 0000020b 0F02!         CMPL      ACC,@_c1brom_current_c2c1_ipc+2 ; [CPU_] |524| 
    1831 0000020c ED08          BF        $C$L45,NEQ            ; [CPU_] |524| 
    1832                      ; branchcc occurs ; [] |524| 
    1833                      .dwpsn  file "C:/work/grepos/bootrom/Boot_ROM/F2837x_bootROM-REVB/F2837x_bootROM_dev/F2837x_bootROM/c
    1834              $C$DW$106       .dwtag  DW_TAG_TI_branch
    1835                      .dwattr $C$DW$106, DW_AT_low_pc(0x00)
    1836                      .dwattr $C$DW$106, DW_AT_name("_c1brom_c2c1_ipc_set_bits_16")
    1837                      .dwattr $C$DW$106, DW_AT_TI_call
    1838 0000020d 7640!         LCR       #_c1brom_c2c1_ipc_set_bits_16 ; [CPU_] |526| 
         0000020e 0000 
    1839                      ; call occurs [#_c1brom_c2c1_ipc_set_bits_16] ; [] |526| 
    1840 0000020f 761F!         MOVW      DP,#_c1brom_current_c2c1_ipc ; [CPU_U] 
         00000210 0000 
    1841 00000211 9600!         MOV       @_c1brom_current_c2c1_ipc,AL ; [CPU_] |526| 
    1842                      .dwpsn  file "C:/work/grepos/bootrom/Boot_ROM/F2837x_bootROM-REVB/F2837x_bootROM_dev/F2837x_bootROM/c
    1843 00000212 FFEF          B         $C$L61,UNC            ; [CPU_] |527| 
         00000213 008C 
    1844                      ; branch occurs ; [] |527| 
    1845 00000214       $C$L45:    
    1846                      .dwpsn  file "C:/work/grepos/bootrom/Boot_ROM/F2837x_bootROM-REVB/F2837x_bootROM_dev/F2837x_bootROM/c
    1847 00000214 0202          MOVB      ACC,#2                ; [CPU_] |528| 
    1848 00000215 0F02!         CMPL      ACC,@_c1brom_current_c2c1_ipc+2 ; [CPU_] |528| 
    1849 00000216 ED08          BF        $C$L46,NEQ            ; [CPU_] |528| 
    1850                      ; branchcc occurs ; [] |528| 
    1851                      .dwpsn  file "C:/work/grepos/bootrom/Boot_ROM/F2837x_bootROM-REVB/F2837x_bootROM_dev/F2837x_bootROM/c
    1852              $C$DW$107       .dwtag  DW_TAG_TI_branch
    1853                      .dwattr $C$DW$107, DW_AT_low_pc(0x00)
TMS320C2000 Assembler PC v6.1.3 Thu Jan 30 10:26:14 2014

Tools Copyright (c) 1996-2012 Texas Instruments Incorporated
C:\Users\a0272466\AppData\Local\Temp\0274010                         PAGE   39

    1854                      .dwattr $C$DW$107, DW_AT_name("_c1brom_c2c1_ipc_set_bits_32")
    1855                      .dwattr $C$DW$107, DW_AT_TI_call
    1856 00000217 7640!         LCR       #_c1brom_c2c1_ipc_set_bits_32 ; [CPU_] |530| 
         00000218 0000 
    1857                      ; call occurs [#_c1brom_c2c1_ipc_set_bits_32] ; [] |530| 
    1858 00000219 761F!         MOVW      DP,#_c1brom_current_c2c1_ipc ; [CPU_U] 
         0000021a 0000 
    1859 0000021b 9600!         MOV       @_c1brom_current_c2c1_ipc,AL ; [CPU_] |530| 
    1860                      .dwpsn  file "C:/work/grepos/bootrom/Boot_ROM/F2837x_bootROM-REVB/F2837x_bootROM_dev/F2837x_bootROM/c
    1861 0000021c FFEF          B         $C$L61,UNC            ; [CPU_] |531| 
         0000021d 0082 
    1862                      ; branch occurs ; [] |531| 
    1863 0000021e       $C$L46:    
    1864                      .dwpsn  file "C:/work/grepos/bootrom/Boot_ROM/F2837x_bootROM-REVB/F2837x_bootROM_dev/F2837x_bootROM/c
    1865 0000021e 0203          MOVB      ACC,#3                ; [CPU_] |532| 
    1866 0000021f 0F02!         CMPL      ACC,@_c1brom_current_c2c1_ipc+2 ; [CPU_] |532| 
    1867 00000220 ED07          BF        $C$L47,NEQ            ; [CPU_] |532| 
    1868                      ; branchcc occurs ; [] |532| 
    1869                      .dwpsn  file "C:/work/grepos/bootrom/Boot_ROM/F2837x_bootROM-REVB/F2837x_bootROM_dev/F2837x_bootROM/c
    1870              $C$DW$108       .dwtag  DW_TAG_TI_branch
    1871                      .dwattr $C$DW$108, DW_AT_low_pc(0x00)
    1872                      .dwattr $C$DW$108, DW_AT_name("_c1brom_c2c1_ipc_clear_bits_16")
    1873                      .dwattr $C$DW$108, DW_AT_TI_call
    1874 00000221 7640!         LCR       #_c1brom_c2c1_ipc_clear_bits_16 ; [CPU_] |534| 
         00000222 0000 
    1875                      ; call occurs [#_c1brom_c2c1_ipc_clear_bits_16] ; [] |534| 
    1876 00000223 761F!         MOVW      DP,#_c1brom_current_c2c1_ipc ; [CPU_U] 
         00000224 0000 
    1877 00000225 9600!         MOV       @_c1brom_current_c2c1_ipc,AL ; [CPU_] |534| 
    1878                      .dwpsn  file "C:/work/grepos/bootrom/Boot_ROM/F2837x_bootROM-REVB/F2837x_bootROM_dev/F2837x_bootROM/c
    1879 00000226 6F78          B         $C$L61,UNC            ; [CPU_] |535| 
    1880                      ; branch occurs ; [] |535| 
    1881 00000227       $C$L47:    
    1882                      .dwpsn  file "C:/work/grepos/bootrom/Boot_ROM/F2837x_bootROM-REVB/F2837x_bootROM_dev/F2837x_bootROM/c
    1883 00000227 0204          MOVB      ACC,#4                ; [CPU_] |536| 
    1884 00000228 0F02!         CMPL      ACC,@_c1brom_current_c2c1_ipc+2 ; [CPU_] |536| 
    1885 00000229 ED07          BF        $C$L48,NEQ            ; [CPU_] |536| 
    1886                      ; branchcc occurs ; [] |536| 
    1887                      .dwpsn  file "C:/work/grepos/bootrom/Boot_ROM/F2837x_bootROM-REVB/F2837x_bootROM_dev/F2837x_bootROM/c
    1888              $C$DW$109       .dwtag  DW_TAG_TI_branch
    1889                      .dwattr $C$DW$109, DW_AT_low_pc(0x00)
    1890                      .dwattr $C$DW$109, DW_AT_name("_c1brom_c2c1_ipc_clear_bits_32")
    1891                      .dwattr $C$DW$109, DW_AT_TI_call
    1892 0000022a 7640!         LCR       #_c1brom_c2c1_ipc_clear_bits_32 ; [CPU_] |538| 
         0000022b 0000 
    1893                      ; call occurs [#_c1brom_c2c1_ipc_clear_bits_32] ; [] |538| 
    1894 0000022c 761F!         MOVW      DP,#_c1brom_current_c2c1_ipc ; [CPU_U] 
         0000022d 0000 
    1895 0000022e 9600!         MOV       @_c1brom_current_c2c1_ipc,AL ; [CPU_] |538| 
    1896                      .dwpsn  file "C:/work/grepos/bootrom/Boot_ROM/F2837x_bootROM-REVB/F2837x_bootROM_dev/F2837x_bootROM/c
    1897 0000022f 6F6F          B         $C$L61,UNC            ; [CPU_] |539| 
    1898                      ; branch occurs ; [] |539| 
    1899 00000230       $C$L48:    
    1900                      .dwpsn  file "C:/work/grepos/bootrom/Boot_ROM/F2837x_bootROM-REVB/F2837x_bootROM_dev/F2837x_bootROM/c
    1901 00000230 0205          MOVB      ACC,#5                ; [CPU_] |540| 
TMS320C2000 Assembler PC v6.1.3 Thu Jan 30 10:26:14 2014

Tools Copyright (c) 1996-2012 Texas Instruments Incorporated
C:\Users\a0272466\AppData\Local\Temp\0274010                         PAGE   40

    1902 00000231 0F02!         CMPL      ACC,@_c1brom_current_c2c1_ipc+2 ; [CPU_] |540| 
    1903 00000232 ED07          BF        $C$L49,NEQ            ; [CPU_] |540| 
    1904                      ; branchcc occurs ; [] |540| 
    1905                      .dwpsn  file "C:/work/grepos/bootrom/Boot_ROM/F2837x_bootROM-REVB/F2837x_bootROM_dev/F2837x_bootROM/c
    1906              $C$DW$110       .dwtag  DW_TAG_TI_branch
    1907                      .dwattr $C$DW$110, DW_AT_low_pc(0x00)
    1908                      .dwattr $C$DW$110, DW_AT_name("_c1brom_c2c1_ipc_write_data_16")
    1909                      .dwattr $C$DW$110, DW_AT_TI_call
    1910 00000233 7640!         LCR       #_c1brom_c2c1_ipc_write_data_16 ; [CPU_] |542| 
         00000234 0000 
    1911                      ; call occurs [#_c1brom_c2c1_ipc_write_data_16] ; [] |542| 
    1912 00000235 761F!         MOVW      DP,#_c1brom_current_c2c1_ipc ; [CPU_U] 
         00000236 0000 
    1913 00000237 9600!         MOV       @_c1brom_current_c2c1_ipc,AL ; [CPU_] |542| 
    1914                      .dwpsn  file "C:/work/grepos/bootrom/Boot_ROM/F2837x_bootROM-REVB/F2837x_bootROM_dev/F2837x_bootROM/c
    1915 00000238 6F66          B         $C$L61,UNC            ; [CPU_] |543| 
    1916                      ; branch occurs ; [] |543| 
    1917 00000239       $C$L49:    
    1918                      .dwpsn  file "C:/work/grepos/bootrom/Boot_ROM/F2837x_bootROM-REVB/F2837x_bootROM_dev/F2837x_bootROM/c
    1919 00000239 0206          MOVB      ACC,#6                ; [CPU_] |544| 
    1920 0000023a 0F02!         CMPL      ACC,@_c1brom_current_c2c1_ipc+2 ; [CPU_] |544| 
    1921 0000023b ED07          BF        $C$L50,NEQ            ; [CPU_] |544| 
    1922                      ; branchcc occurs ; [] |544| 
    1923                      .dwpsn  file "C:/work/grepos/bootrom/Boot_ROM/F2837x_bootROM-REVB/F2837x_bootROM_dev/F2837x_bootROM/c
    1924              $C$DW$111       .dwtag  DW_TAG_TI_branch
    1925                      .dwattr $C$DW$111, DW_AT_low_pc(0x00)
    1926                      .dwattr $C$DW$111, DW_AT_name("_c1brom_c2c1_ipc_write_data_32")
    1927                      .dwattr $C$DW$111, DW_AT_TI_call
    1928 0000023c 7640!         LCR       #_c1brom_c2c1_ipc_write_data_32 ; [CPU_] |546| 
         0000023d 0000 
    1929                      ; call occurs [#_c1brom_c2c1_ipc_write_data_32] ; [] |546| 
    1930 0000023e 761F!         MOVW      DP,#_c1brom_current_c2c1_ipc ; [CPU_U] 
         0000023f 0000 
    1931 00000240 9600!         MOV       @_c1brom_current_c2c1_ipc,AL ; [CPU_] |546| 
    1932                      .dwpsn  file "C:/work/grepos/bootrom/Boot_ROM/F2837x_bootROM-REVB/F2837x_bootROM_dev/F2837x_bootROM/c
    1933 00000241 6F5D          B         $C$L61,UNC            ; [CPU_] |547| 
    1934                      ; branch occurs ; [] |547| 
    1935 00000242       $C$L50:    
    1936                      .dwpsn  file "C:/work/grepos/bootrom/Boot_ROM/F2837x_bootROM-REVB/F2837x_bootROM_dev/F2837x_bootROM/c
    1937 00000242 0207          MOVB      ACC,#7                ; [CPU_] |548| 
    1938 00000243 0F02!         CMPL      ACC,@_c1brom_current_c2c1_ipc+2 ; [CPU_] |548| 
    1939 00000244 ED07          BF        $C$L51,NEQ            ; [CPU_] |548| 
    1940                      ; branchcc occurs ; [] |548| 
    1941                      .dwpsn  file "C:/work/grepos/bootrom/Boot_ROM/F2837x_bootROM-REVB/F2837x_bootROM_dev/F2837x_bootROM/c
    1942              $C$DW$112       .dwtag  DW_TAG_TI_branch
    1943                      .dwattr $C$DW$112, DW_AT_low_pc(0x00)
    1944                      .dwattr $C$DW$112, DW_AT_name("_c1brom_c2c1_ipc_read_data_16")
    1945                      .dwattr $C$DW$112, DW_AT_TI_call
    1946 00000245 7640!         LCR       #_c1brom_c2c1_ipc_read_data_16 ; [CPU_] |550| 
         00000246 0000 
    1947                      ; call occurs [#_c1brom_c2c1_ipc_read_data_16] ; [] |550| 
    1948 00000247 761F!         MOVW      DP,#_c1brom_current_c2c1_ipc ; [CPU_U] 
         00000248 0000 
    1949 00000249 9600!         MOV       @_c1brom_current_c2c1_ipc,AL ; [CPU_] |550| 
    1950                      .dwpsn  file "C:/work/grepos/bootrom/Boot_ROM/F2837x_bootROM-REVB/F2837x_bootROM_dev/F2837x_bootROM/c
TMS320C2000 Assembler PC v6.1.3 Thu Jan 30 10:26:14 2014

Tools Copyright (c) 1996-2012 Texas Instruments Incorporated
C:\Users\a0272466\AppData\Local\Temp\0274010                         PAGE   41

    1951 0000024a 6F54          B         $C$L61,UNC            ; [CPU_] |551| 
    1952                      ; branch occurs ; [] |551| 
    1953 0000024b       $C$L51:    
    1954                      .dwpsn  file "C:/work/grepos/bootrom/Boot_ROM/F2837x_bootROM-REVB/F2837x_bootROM_dev/F2837x_bootROM/c
    1955 0000024b 0208          MOVB      ACC,#8                ; [CPU_] |552| 
    1956 0000024c 0F02!         CMPL      ACC,@_c1brom_current_c2c1_ipc+2 ; [CPU_] |552| 
    1957 0000024d ED07          BF        $C$L52,NEQ            ; [CPU_] |552| 
    1958                      ; branchcc occurs ; [] |552| 
    1959                      .dwpsn  file "C:/work/grepos/bootrom/Boot_ROM/F2837x_bootROM-REVB/F2837x_bootROM_dev/F2837x_bootROM/c
    1960              $C$DW$113       .dwtag  DW_TAG_TI_branch
    1961                      .dwattr $C$DW$113, DW_AT_low_pc(0x00)
    1962                      .dwattr $C$DW$113, DW_AT_name("_c1brom_c2c1_ipc_read_data_32")
    1963                      .dwattr $C$DW$113, DW_AT_TI_call
    1964 0000024e 7640!         LCR       #_c1brom_c2c1_ipc_read_data_32 ; [CPU_] |554| 
         0000024f 0000 
    1965                      ; call occurs [#_c1brom_c2c1_ipc_read_data_32] ; [] |554| 
    1966 00000250 761F!         MOVW      DP,#_c1brom_current_c2c1_ipc ; [CPU_U] 
         00000251 0000 
    1967 00000252 9600!         MOV       @_c1brom_current_c2c1_ipc,AL ; [CPU_] |554| 
    1968                      .dwpsn  file "C:/work/grepos/bootrom/Boot_ROM/F2837x_bootROM-REVB/F2837x_bootROM_dev/F2837x_bootROM/c
    1969 00000253 6F4B          B         $C$L61,UNC            ; [CPU_] |555| 
    1970                      ; branch occurs ; [] |555| 
    1971 00000254       $C$L52:    
    1972                      .dwpsn  file "C:/work/grepos/bootrom/Boot_ROM/F2837x_bootROM-REVB/F2837x_bootROM_dev/F2837x_bootROM/c
    1973 00000254 0209          MOVB      ACC,#9                ; [CPU_] |556| 
    1974 00000255 0F02!         CMPL      ACC,@_c1brom_current_c2c1_ipc+2 ; [CPU_] |556| 
    1975 00000256 ED07          BF        $C$L53,NEQ            ; [CPU_] |556| 
    1976                      ; branchcc occurs ; [] |556| 
    1977                      .dwpsn  file "C:/work/grepos/bootrom/Boot_ROM/F2837x_bootROM-REVB/F2837x_bootROM_dev/F2837x_bootROM/c
    1978              $C$DW$114       .dwtag  DW_TAG_TI_branch
    1979                      .dwattr $C$DW$114, DW_AT_low_pc(0x00)
    1980                      .dwattr $C$DW$114, DW_AT_name("_c1brom_c2c1_ipc_set_bits_protected_16")
    1981                      .dwattr $C$DW$114, DW_AT_TI_call
    1982 00000257 7640!         LCR       #_c1brom_c2c1_ipc_set_bits_protected_16 ; [CPU_] |558| 
         00000258 0000 
    1983                      ; call occurs [#_c1brom_c2c1_ipc_set_bits_protected_16] ; [] |558| 
    1984 00000259 761F!         MOVW      DP,#_c1brom_current_c2c1_ipc ; [CPU_U] 
         0000025a 0000 
    1985 0000025b 9600!         MOV       @_c1brom_current_c2c1_ipc,AL ; [CPU_] |558| 
    1986                      .dwpsn  file "C:/work/grepos/bootrom/Boot_ROM/F2837x_bootROM-REVB/F2837x_bootROM_dev/F2837x_bootROM/c
    1987 0000025c 6F42          B         $C$L61,UNC            ; [CPU_] |559| 
    1988                      ; branch occurs ; [] |559| 
    1989 0000025d       $C$L53:    
    1990                      .dwpsn  file "C:/work/grepos/bootrom/Boot_ROM/F2837x_bootROM-REVB/F2837x_bootROM_dev/F2837x_bootROM/c
    1991 0000025d 020A          MOVB      ACC,#10               ; [CPU_] |560| 
    1992 0000025e 0F02!         CMPL      ACC,@_c1brom_current_c2c1_ipc+2 ; [CPU_] |560| 
    1993 0000025f ED07          BF        $C$L54,NEQ            ; [CPU_] |560| 
    1994                      ; branchcc occurs ; [] |560| 
    1995                      .dwpsn  file "C:/work/grepos/bootrom/Boot_ROM/F2837x_bootROM-REVB/F2837x_bootROM_dev/F2837x_bootROM/c
    1996              $C$DW$115       .dwtag  DW_TAG_TI_branch
    1997                      .dwattr $C$DW$115, DW_AT_low_pc(0x00)
    1998                      .dwattr $C$DW$115, DW_AT_name("_c1brom_c2c1_ipc_set_bits_protected_32")
    1999                      .dwattr $C$DW$115, DW_AT_TI_call
    2000 00000260 7640!         LCR       #_c1brom_c2c1_ipc_set_bits_protected_32 ; [CPU_] |562| 
         00000261 0000 
TMS320C2000 Assembler PC v6.1.3 Thu Jan 30 10:26:14 2014

Tools Copyright (c) 1996-2012 Texas Instruments Incorporated
C:\Users\a0272466\AppData\Local\Temp\0274010                         PAGE   42

    2001                      ; call occurs [#_c1brom_c2c1_ipc_set_bits_protected_32] ; [] |562| 
    2002 00000262 761F!         MOVW      DP,#_c1brom_current_c2c1_ipc ; [CPU_U] 
         00000263 0000 
    2003 00000264 9600!         MOV       @_c1brom_current_c2c1_ipc,AL ; [CPU_] |562| 
    2004                      .dwpsn  file "C:/work/grepos/bootrom/Boot_ROM/F2837x_bootROM-REVB/F2837x_bootROM_dev/F2837x_bootROM/c
    2005 00000265 6F39          B         $C$L61,UNC            ; [CPU_] |563| 
    2006                      ; branch occurs ; [] |563| 
    2007 00000266       $C$L54:    
    2008                      .dwpsn  file "C:/work/grepos/bootrom/Boot_ROM/F2837x_bootROM-REVB/F2837x_bootROM_dev/F2837x_bootROM/c
    2009 00000266 020B          MOVB      ACC,#11               ; [CPU_] |564| 
    2010 00000267 0F02!         CMPL      ACC,@_c1brom_current_c2c1_ipc+2 ; [CPU_] |564| 
    2011 00000268 ED07          BF        $C$L55,NEQ            ; [CPU_] |564| 
    2012                      ; branchcc occurs ; [] |564| 
    2013                      .dwpsn  file "C:/work/grepos/bootrom/Boot_ROM/F2837x_bootROM-REVB/F2837x_bootROM_dev/F2837x_bootROM/c
    2014              $C$DW$116       .dwtag  DW_TAG_TI_branch
    2015                      .dwattr $C$DW$116, DW_AT_low_pc(0x00)
    2016                      .dwattr $C$DW$116, DW_AT_name("_c1brom_c2c1_ipc_clear_bits_protected_16")
    2017                      .dwattr $C$DW$116, DW_AT_TI_call
    2018 00000269 7640!         LCR       #_c1brom_c2c1_ipc_clear_bits_protected_16 ; [CPU_] |566| 
         0000026a 0000 
    2019                      ; call occurs [#_c1brom_c2c1_ipc_clear_bits_protected_16] ; [] |566| 
    2020 0000026b 761F!         MOVW      DP,#_c1brom_current_c2c1_ipc ; [CPU_U] 
         0000026c 0000 
    2021 0000026d 9600!         MOV       @_c1brom_current_c2c1_ipc,AL ; [CPU_] |566| 
    2022                      .dwpsn  file "C:/work/grepos/bootrom/Boot_ROM/F2837x_bootROM-REVB/F2837x_bootROM_dev/F2837x_bootROM/c
    2023 0000026e 6F30          B         $C$L61,UNC            ; [CPU_] |567| 
    2024                      ; branch occurs ; [] |567| 
    2025 0000026f       $C$L55:    
    2026                      .dwpsn  file "C:/work/grepos/bootrom/Boot_ROM/F2837x_bootROM-REVB/F2837x_bootROM_dev/F2837x_bootROM/c
    2027 0000026f 020C          MOVB      ACC,#12               ; [CPU_] |568| 
    2028 00000270 0F02!         CMPL      ACC,@_c1brom_current_c2c1_ipc+2 ; [CPU_] |568| 
    2029 00000271 ED07          BF        $C$L56,NEQ            ; [CPU_] |568| 
    2030                      ; branchcc occurs ; [] |568| 
    2031                      .dwpsn  file "C:/work/grepos/bootrom/Boot_ROM/F2837x_bootROM-REVB/F2837x_bootROM_dev/F2837x_bootROM/c
    2032              $C$DW$117       .dwtag  DW_TAG_TI_branch
    2033                      .dwattr $C$DW$117, DW_AT_low_pc(0x00)
    2034                      .dwattr $C$DW$117, DW_AT_name("_c1brom_c2c1_ipc_clear_bits_protected_32")
    2035                      .dwattr $C$DW$117, DW_AT_TI_call
    2036 00000272 7640!         LCR       #_c1brom_c2c1_ipc_clear_bits_protected_32 ; [CPU_] |570| 
         00000273 0000 
    2037                      ; call occurs [#_c1brom_c2c1_ipc_clear_bits_protected_32] ; [] |570| 
    2038 00000274 761F!         MOVW      DP,#_c1brom_current_c2c1_ipc ; [CPU_U] 
         00000275 0000 
    2039 00000276 9600!         MOV       @_c1brom_current_c2c1_ipc,AL ; [CPU_] |570| 
    2040                      .dwpsn  file "C:/work/grepos/bootrom/Boot_ROM/F2837x_bootROM-REVB/F2837x_bootROM_dev/F2837x_bootROM/c
    2041 00000277 6F27          B         $C$L61,UNC            ; [CPU_] |571| 
    2042                      ; branch occurs ; [] |571| 
    2043 00000278       $C$L56:    
    2044                      .dwpsn  file "C:/work/grepos/bootrom/Boot_ROM/F2837x_bootROM-REVB/F2837x_bootROM_dev/F2837x_bootROM/c
    2045 00000278 020D          MOVB      ACC,#13               ; [CPU_] |572| 
    2046 00000279 0F02!         CMPL      ACC,@_c1brom_current_c2c1_ipc+2 ; [CPU_] |572| 
    2047 0000027a ED07          BF        $C$L57,NEQ            ; [CPU_] |572| 
    2048                      ; branchcc occurs ; [] |572| 
    2049                      .dwpsn  file "C:/work/grepos/bootrom/Boot_ROM/F2837x_bootROM-REVB/F2837x_bootROM_dev/F2837x_bootROM/c
    2050              $C$DW$118       .dwtag  DW_TAG_TI_branch
TMS320C2000 Assembler PC v6.1.3 Thu Jan 30 10:26:14 2014

Tools Copyright (c) 1996-2012 Texas Instruments Incorporated
C:\Users\a0272466\AppData\Local\Temp\0274010                         PAGE   43

    2051                      .dwattr $C$DW$118, DW_AT_low_pc(0x00)
    2052                      .dwattr $C$DW$118, DW_AT_name("_c1brom_c2c1_ipc_write_data_protected_16")
    2053                      .dwattr $C$DW$118, DW_AT_TI_call
    2054 0000027b 7640!         LCR       #_c1brom_c2c1_ipc_write_data_protected_16 ; [CPU_] |574| 
         0000027c 0000 
    2055                      ; call occurs [#_c1brom_c2c1_ipc_write_data_protected_16] ; [] |574| 
    2056 0000027d 761F!         MOVW      DP,#_c1brom_current_c2c1_ipc ; [CPU_U] 
         0000027e 0000 
    2057 0000027f 9600!         MOV       @_c1brom_current_c2c1_ipc,AL ; [CPU_] |574| 
    2058                      .dwpsn  file "C:/work/grepos/bootrom/Boot_ROM/F2837x_bootROM-REVB/F2837x_bootROM_dev/F2837x_bootROM/c
    2059 00000280 6F1E          B         $C$L61,UNC            ; [CPU_] |575| 
    2060                      ; branch occurs ; [] |575| 
    2061 00000281       $C$L57:    
    2062                      .dwpsn  file "C:/work/grepos/bootrom/Boot_ROM/F2837x_bootROM-REVB/F2837x_bootROM_dev/F2837x_bootROM/c
    2063 00000281 020E          MOVB      ACC,#14               ; [CPU_] |576| 
    2064 00000282 0F02!         CMPL      ACC,@_c1brom_current_c2c1_ipc+2 ; [CPU_] |576| 
    2065 00000283 ED07          BF        $C$L58,NEQ            ; [CPU_] |576| 
    2066                      ; branchcc occurs ; [] |576| 
    2067                      .dwpsn  file "C:/work/grepos/bootrom/Boot_ROM/F2837x_bootROM-REVB/F2837x_bootROM_dev/F2837x_bootROM/c
    2068              $C$DW$119       .dwtag  DW_TAG_TI_branch
    2069                      .dwattr $C$DW$119, DW_AT_low_pc(0x00)
    2070                      .dwattr $C$DW$119, DW_AT_name("_c1brom_c2c1_ipc_write_data_protected_32")
    2071                      .dwattr $C$DW$119, DW_AT_TI_call
    2072 00000284 7640!         LCR       #_c1brom_c2c1_ipc_write_data_protected_32 ; [CPU_] |578| 
         00000285 0000 
    2073                      ; call occurs [#_c1brom_c2c1_ipc_write_data_protected_32] ; [] |578| 
    2074 00000286 761F!         MOVW      DP,#_c1brom_current_c2c1_ipc ; [CPU_U] 
         00000287 0000 
    2075 00000288 9600!         MOV       @_c1brom_current_c2c1_ipc,AL ; [CPU_] |578| 
    2076                      .dwpsn  file "C:/work/grepos/bootrom/Boot_ROM/F2837x_bootROM-REVB/F2837x_bootROM_dev/F2837x_bootROM/c
    2077 00000289 6F15          B         $C$L61,UNC            ; [CPU_] |579| 
    2078                      ; branch occurs ; [] |579| 
    2079 0000028a       $C$L58:    
    2080                      .dwpsn  file "C:/work/grepos/bootrom/Boot_ROM/F2837x_bootROM-REVB/F2837x_bootROM_dev/F2837x_bootROM/c
    2081 0000028a 020F          MOVB      ACC,#15               ; [CPU_] |580| 
    2082 0000028b 0F02!         CMPL      ACC,@_c1brom_current_c2c1_ipc+2 ; [CPU_] |580| 
    2083 0000028c ED07          BF        $C$L59,NEQ            ; [CPU_] |580| 
    2084                      ; branchcc occurs ; [] |580| 
    2085                      .dwpsn  file "C:/work/grepos/bootrom/Boot_ROM/F2837x_bootROM-REVB/F2837x_bootROM_dev/F2837x_bootROM/c
    2086              $C$DW$120       .dwtag  DW_TAG_TI_branch
    2087                      .dwattr $C$DW$120, DW_AT_low_pc(0x00)
    2088                      .dwattr $C$DW$120, DW_AT_name("_c1brom_c2c1_ipc_read_data_protected_16")
    2089                      .dwattr $C$DW$120, DW_AT_TI_call
    2090 0000028d 7640!         LCR       #_c1brom_c2c1_ipc_read_data_protected_16 ; [CPU_] |582| 
         0000028e 0000 
    2091                      ; call occurs [#_c1brom_c2c1_ipc_read_data_protected_16] ; [] |582| 
    2092 0000028f 761F!         MOVW      DP,#_c1brom_current_c2c1_ipc ; [CPU_U] 
         00000290 0000 
    2093 00000291 9600!         MOV       @_c1brom_current_c2c1_ipc,AL ; [CPU_] |582| 
    2094                      .dwpsn  file "C:/work/grepos/bootrom/Boot_ROM/F2837x_bootROM-REVB/F2837x_bootROM_dev/F2837x_bootROM/c
    2095 00000292 6F0C          B         $C$L61,UNC            ; [CPU_] |583| 
    2096                      ; branch occurs ; [] |583| 
    2097 00000293       $C$L59:    
    2098                      .dwpsn  file "C:/work/grepos/bootrom/Boot_ROM/F2837x_bootROM-REVB/F2837x_bootROM_dev/F2837x_bootROM/c
    2099 00000293 0210          MOVB      ACC,#16               ; [CPU_] |584| 
TMS320C2000 Assembler PC v6.1.3 Thu Jan 30 10:26:14 2014

Tools Copyright (c) 1996-2012 Texas Instruments Incorporated
C:\Users\a0272466\AppData\Local\Temp\0274010                         PAGE   44

    2100 00000294 0F02!         CMPL      ACC,@_c1brom_current_c2c1_ipc+2 ; [CPU_] |584| 
    2101 00000295 ED07          BF        $C$L60,NEQ            ; [CPU_] |584| 
    2102                      ; branchcc occurs ; [] |584| 
    2103                      .dwpsn  file "C:/work/grepos/bootrom/Boot_ROM/F2837x_bootROM-REVB/F2837x_bootROM_dev/F2837x_bootROM/c
    2104              $C$DW$121       .dwtag  DW_TAG_TI_branch
    2105                      .dwattr $C$DW$121, DW_AT_low_pc(0x00)
    2106                      .dwattr $C$DW$121, DW_AT_name("_c1brom_c2c1_ipc_read_data_protected_32")
    2107                      .dwattr $C$DW$121, DW_AT_TI_call
    2108 00000296 7640!         LCR       #_c1brom_c2c1_ipc_read_data_protected_32 ; [CPU_] |586| 
         00000297 0000 
    2109                      ; call occurs [#_c1brom_c2c1_ipc_read_data_protected_32] ; [] |586| 
    2110 00000298 761F!         MOVW      DP,#_c1brom_current_c2c1_ipc ; [CPU_U] 
         00000299 0000 
    2111 0000029a 9600!         MOV       @_c1brom_current_c2c1_ipc,AL ; [CPU_] |586| 
    2112                      .dwpsn  file "C:/work/grepos/bootrom/Boot_ROM/F2837x_bootROM-REVB/F2837x_bootROM_dev/F2837x_bootROM/c
    2113 0000029b 6F03          B         $C$L61,UNC            ; [CPU_] |587| 
    2114                      ; branch occurs ; [] |587| 
    2115 0000029c       $C$L60:    
    2116                      .dwpsn  file "C:/work/grepos/bootrom/Boot_ROM/F2837x_bootROM-REVB/F2837x_bootROM_dev/F2837x_bootROM/c
    2117 0000029c 56BF!         MOVB      @_c1brom_current_c2c1_ipc,#3,UNC ; [CPU_] |590| 
         0000029d 0300 
    2118 0000029e       $C$L61:    
    2119                      .dwpsn  file "C:/work/grepos/bootrom/Boot_ROM/F2837x_bootROM-REVB/F2837x_bootROM_dev/F2837x_bootROM/c
    2120 0000029e 9200!         MOV       AL,@_c1brom_current_c2c1_ipc ; [CPU_] |594| 
    2121 0000029f 5202          CMPB      AL,#2                 ; [CPU_] |594| 
    2122 000002a0 ED0F          BF        $C$L62,NEQ            ; [CPU_] |594| 
    2123                      ; branchcc occurs ; [] |594| 
    2124                      .dwpsn  file "C:/work/grepos/bootrom/Boot_ROM/F2837x_bootROM-REVB/F2837x_bootROM_dev/F2837x_bootROM/c
    2125 000002a1 0200          MOVB      ACC,#0                ; [CPU_] |596| 
    2126 000002a2 1E02!         MOVL      @_c1brom_current_c2c1_ipc+2,ACC ; [CPU_] |596| 
    2127                      .dwpsn  file "C:/work/grepos/bootrom/Boot_ROM/F2837x_bootROM-REVB/F2837x_bootROM_dev/F2837x_bootROM/c
    2128 000002a3 2B00!         MOV       @_c1brom_current_c2c1_ipc,#0 ; [CPU_] |597| 
    2129                      .dwpsn  file "C:/work/grepos/bootrom/Boot_ROM/F2837x_bootROM-REVB/F2837x_bootROM_dev/F2837x_bootROM/c
    2130 000002a4 761F!         MOVW      DP,#_IpcRegs          ; [CPU_U] 
         000002a5 0000 
    2131 000002a6 9A01          MOV       AL,#1                 ; [CPU_] |598| 
    2132 000002a7 28A8          MOV       AH,#32768             ; [CPU_] |598| 
         000002a8 8000 
    2133 000002a9 1E00!         MOVL      @_IpcRegs,ACC         ; [CPU_] |598| 
    2134                      .dwpsn  file "C:/work/grepos/bootrom/Boot_ROM/F2837x_bootROM-REVB/F2837x_bootROM_dev/F2837x_bootROM/c
    2135 000002aa 761F!         MOVW      DP,#_PieCtrlRegs+1    ; [CPU_U] 
         000002ab 0000 
    2136 000002ac 56BF!         MOVB      @_PieCtrlRegs+1,#1,UNC ; [CPU_] |599| 
         000002ad 0101 
    2137                      .dwpsn  file "C:/work/grepos/bootrom/Boot_ROM/F2837x_bootROM-REVB/F2837x_bootROM_dev/F2837x_bootROM/c
    2138 000002ae 6F11          B         $C$L63,UNC            ; [CPU_] |600| 
    2139                      ; branch occurs ; [] |600| 
    2140 000002af       $C$L62:    
    2141                      .dwpsn  file "C:/work/grepos/bootrom/Boot_ROM/F2837x_bootROM-REVB/F2837x_bootROM_dev/F2837x_bootROM/c
    2142 000002af 0200          MOVB      ACC,#0                ; [CPU_] |603| 
    2143 000002b0 1E02!         MOVL      @_c1brom_current_c2c1_ipc+2,ACC ; [CPU_] |603| 
    2144                      .dwpsn  file "C:/work/grepos/bootrom/Boot_ROM/F2837x_bootROM-REVB/F2837x_bootROM_dev/F2837x_bootROM/c
    2145 000002b1 2B00!         MOV       @_c1brom_current_c2c1_ipc,#0 ; [CPU_] |604| 
    2146                      .dwpsn  file "C:/work/grepos/bootrom/Boot_ROM/F2837x_bootROM-REVB/F2837x_bootROM_dev/F2837x_bootROM/c
    2147 000002b2 761F!         MOVW      DP,#_c1brom_status    ; [CPU_U] 
TMS320C2000 Assembler PC v6.1.3 Thu Jan 30 10:26:14 2014

Tools Copyright (c) 1996-2012 Texas Instruments Incorporated
C:\Users\a0272466\AppData\Local\Temp\0274010                         PAGE   45

         000002b3 0000 
    2148 000002b4 0600!         MOVL      ACC,@_c1brom_status   ; [CPU_] |605| 
    2149 000002b5 761F!         MOVW      DP,#_IpcRegs          ; [CPU_U] 
         000002b6 0000 
    2150 000002b7 5001          ORB       AL,#0x01              ; [CPU_] |605| 
    2151 000002b8 1A00!         OR        @_IpcRegs,#0x0001     ; [CPU_] |605| 
         000002b9 0001 
    2152 000002ba 1E1E!         MOVL      @_IpcRegs+30,ACC      ; [CPU_] |605| 
    2153                      .dwpsn  file "C:/work/grepos/bootrom/Boot_ROM/F2837x_bootROM-REVB/F2837x_bootROM_dev/F2837x_bootROM/c
    2154 000002bb 761F!         MOVW      DP,#_PieCtrlRegs+1    ; [CPU_U] 
         000002bc 0000 
    2155 000002bd 56BF!         MOVB      @_PieCtrlRegs+1,#1,UNC ; [CPU_] |606| 
         000002be 0101 
    2156                      .dwpsn  file "C:/work/grepos/bootrom/Boot_ROM/F2837x_bootROM-REVB/F2837x_bootROM_dev/F2837x_bootROM/c
    2157 000002bf       $C$L63:    
    2158                      .dwcfi  cfa_offset, -26
    2159 000002bf E2AF          MOV32     R3H,*--SP             ; [CPU_] 
         000002c0 03BE 
    2160                      .dwcfi  cfa_offset, -24
    2161                      .dwcfi  restore_reg, 55
    2162                      .dwcfi  restore_reg, 56
    2163 000002c1 E2AF          MOV32     R2H,*--SP             ; [CPU_] 
         000002c2 02BE 
    2164                      .dwcfi  cfa_offset, -22
    2165                      .dwcfi  restore_reg, 51
    2166                      .dwcfi  restore_reg, 52
    2167 000002c3 E2AF          MOV32     R1H,*--SP             ; [CPU_] 
         000002c4 01BE 
    2168                      .dwcfi  cfa_offset, -20
    2169                      .dwcfi  restore_reg, 47
    2170                      .dwcfi  restore_reg, 48
    2171 000002c5 E2AF          MOV32     R0H,*--SP             ; [CPU_] 
         000002c6 00BE 
    2172                      .dwcfi  cfa_offset, -18
    2173                      .dwcfi  restore_reg, 43
    2174                      .dwcfi  restore_reg, 44
    2175 000002c7 E280          MOV32     STF,*--SP             ; [CPU_] 
         000002c8 00BE 
    2176                      .dwcfi  cfa_offset, -16
    2177                      .dwcfi  restore_reg, 39
    2178                      .dwcfi  restore_reg, 40
    2179 000002c9 C5BE          MOVL      XAR7,*--SP            ; [CPU_] 
    2180                      .dwcfi  cfa_offset, -14
    2181                      .dwcfi  restore_reg, 18
    2182 000002ca C4BE          MOVL      XAR6,*--SP            ; [CPU_] 
    2183                      .dwcfi  cfa_offset, -12
    2184                      .dwcfi  restore_reg, 16
    2185 000002cb 83BE          MOVL      XAR5,*--SP            ; [CPU_] 
    2186                      .dwcfi  cfa_offset, -10
    2187                      .dwcfi  restore_reg, 14
    2188 000002cc 8ABE          MOVL      XAR4,*--SP            ; [CPU_] 
    2189                      .dwcfi  cfa_offset, -8
    2190                      .dwcfi  restore_reg, 12
    2191 000002cd 87BE          MOVL      XT,*--SP              ; [CPU_] 
    2192                      .dwcfi  cfa_offset, -6
TMS320C2000 Assembler PC v6.1.3 Thu Jan 30 10:26:14 2014

Tools Copyright (c) 1996-2012 Texas Instruments Incorporated
C:\Users\a0272466\AppData\Local\Temp\0274010                         PAGE   46

    2193                      .dwcfi  restore_reg, 22
    2194                      .dwcfi  restore_reg, 21
    2195 000002ce 0003          POP       AR1H:AR0H             ; [CPU_] 
    2196                      .dwcfi  cfa_offset, -4
    2197                      .dwcfi  restore_reg, 5
    2198                      .dwcfi  restore_reg, 7
    2199 000002cf FFF1          POP       RB                    ; [CPU_] 
    2200                      .dwcfi  cfa_offset, -2
    2201                      .dwcfi  restore_reg, 73
    2202                      .dwcfi  restore_reg, 74
    2203 000002d0 7617          NASP      ; [CPU_] 
    2204              $C$DW$122       .dwtag  DW_TAG_TI_branch
    2205                      .dwattr $C$DW$122, DW_AT_low_pc(0x00)
    2206                      .dwattr $C$DW$122, DW_AT_TI_return
    2207 000002d1 7602          IRET      ; [CPU_] 
    2208                      ; return occurs ; [] 
    2209                      .dwattr $C$DW$105, DW_AT_TI_end_file("C:/work/grepos/bootrom/Boot_ROM/F2837x_bootROM-REVB/F2837x_boot
    2210                      .dwattr $C$DW$105, DW_AT_TI_end_line(0x260)
    2211                      .dwattr $C$DW$105, DW_AT_TI_end_column(0x01)
    2212                      .dwendentry
    2213                      .dwendtag $C$DW$105
    2214              
    2215 000000e6               .sect   ".text"
    2216                      .global _c1brom_init_pie_vect_table
    2217              
    2218              $C$DW$123       .dwtag  DW_TAG_subprogram, DW_AT_name("c1brom_init_pie_vect_table")
    2219                      .dwattr $C$DW$123, DW_AT_low_pc(_c1brom_init_pie_vect_table)
    2220                      .dwattr $C$DW$123, DW_AT_high_pc(0x00)
    2221                      .dwattr $C$DW$123, DW_AT_TI_symbol_name("_c1brom_init_pie_vect_table")
    2222                      .dwattr $C$DW$123, DW_AT_external
    2223                      .dwattr $C$DW$123, DW_AT_TI_begin_file("C:/work/grepos/bootrom/Boot_ROM/F2837x_bootROM-REVB/F2837x_bo
    2224                      .dwattr $C$DW$123, DW_AT_TI_begin_line(0x26b)
    2225                      .dwattr $C$DW$123, DW_AT_TI_begin_column(0x06)
    2226                      .dwattr $C$DW$123, DW_AT_TI_max_frame_size(-6)
    2227                      .dwpsn  file "C:/work/grepos/bootrom/Boot_ROM/F2837x_bootROM-REVB/F2837x_bootROM_dev/F2837x_bootROM/c
    2228              
    2229                      .dwfde $C$DW$CIE, _c1brom_init_pie_vect_table
    2230              
    2231              ;***************************************************************
    2232              ;* FNAME: _c1brom_init_pie_vect_table   FR SIZE:   4           *
    2233              ;*                                                             *
    2234              ;* FUNCTION ENVIRONMENT                                        *
    2235              ;*                                                             *
    2236              ;* FUNCTION PROPERTIES                                         *
    2237              ;*                            0 Parameter,  4 Auto,  0 SOE     *
    2238              ;***************************************************************
    2239              
    2240 000000e6       _c1brom_init_pie_vect_table:
    2241                      .dwcfi  cfa_offset, -2
    2242                      .dwcfi  save_reg_to_mem, 26, 0
    2243                      .dwcfi  save_reg_to_reg, 78, 26
    2244 000000e6 FE04          ADDB      SP,#4                 ; [CPU_U] 
    2245                      .dwcfi  cfa_offset, -6
    2246              $C$DW$124       .dwtag  DW_TAG_variable, DW_AT_name("i")
    2247                      .dwattr $C$DW$124, DW_AT_TI_symbol_name("_i")
TMS320C2000 Assembler PC v6.1.3 Thu Jan 30 10:26:14 2014

Tools Copyright (c) 1996-2012 Texas Instruments Incorporated
C:\Users\a0272466\AppData\Local\Temp\0274010                         PAGE   47

    2248                      .dwattr $C$DW$124, DW_AT_type(*$C$DW$T$210)
    2249                      .dwattr $C$DW$124, DW_AT_location[DW_OP_breg20 -1]
    2250              $C$DW$125       .dwtag  DW_TAG_variable, DW_AT_name("Dest")
    2251                      .dwattr $C$DW$125, DW_AT_TI_symbol_name("_Dest")
    2252                      .dwattr $C$DW$125, DW_AT_type(*$C$DW$T$205)
    2253                      .dwattr $C$DW$125, DW_AT_location[DW_OP_breg20 -4]
    2254                      .dwpsn  file "C:/work/grepos/bootrom/Boot_ROM/F2837x_bootROM-REVB/F2837x_bootROM_dev/F2837x_bootROM/c
    2255 000000e7 8F00!         MOVL      XAR4,#_PieVectTable   ; [CPU_U] |622| 
         000000e8 0000 
    2256 000000e9 A844          MOVL      *-SP[4],XAR4          ; [CPU_] |622| 
    2257                      .dwpsn  file "C:/work/grepos/bootrom/Boot_ROM/F2837x_bootROM-REVB/F2837x_bootROM_dev/F2837x_bootROM/c
    2258 000000ea 2841          MOV       *-SP[1],#448          ; [CPU_] |624| 
         000000eb 01C0 
    2259                      .dwpsn  file "C:/work/grepos/bootrom/Boot_ROM/F2837x_bootROM-REVB/F2837x_bootROM_dev/F2837x_bootROM/c
    2260 000000ec 9A03          MOVB      AL,#3                 ; [CPU_] |625| 
    2261 000000ed 7441          SUB       *-SP[1],AL            ; [CPU_] |625| 
    2262                      .dwpsn  file "C:/work/grepos/bootrom/Boot_ROM/F2837x_bootROM-REVB/F2837x_bootROM_dev/F2837x_bootROM/c
    2263 000000ee 0206          MOVB      ACC,#6                ; [CPU_] |626| 
    2264 000000ef 5601          ADDL      *-SP[4],ACC           ; [CPU_] |626| 
         000000f0 0044 
    2265                      .dwpsn  file "C:/work/grepos/bootrom/Boot_ROM/F2837x_bootROM-REVB/F2837x_bootROM_dev/F2837x_bootROM/c
    2266 000000f1 7622   EALLOW
    2267                      .dwpsn  file "C:/work/grepos/bootrom/Boot_ROM/F2837x_bootROM-REVB/F2837x_bootROM_dev/F2837x_bootROM/c
    2268 000000f2 9241          MOV       AL,*-SP[1]            ; [CPU_] |629| 
    2269 000000f3 650B          B         $C$L65,LEQ            ; [CPU_] |629| 
    2270                      ; branchcc occurs ; [] |629| 
    2271 000000f4       $C$L64:    
    2272 000000f4       $C$DW$L$_c1brom_init_pie_vect_table$2$B:
    2273                      .dwpsn  file "C:/work/grepos/bootrom/Boot_ROM/F2837x_bootROM-REVB/F2837x_bootROM_dev/F2837x_bootROM/c
    2274 000000f4 8A44          MOVL      XAR4,*-SP[4]          ; [CPU_] |631| 
    2275 000000f5 A8A9          MOVL      ACC,XAR4              ; [CPU_] |631| 
    2276 000000f6 8F40+         MOVL      XAR5,#_c1brom_pie_isr_not_supported ; [CPU_U] |631| 
         000000f7 0000 
    2277 000000f8 0902          ADDB      ACC,#2                ; [CPU_U] |631| 
    2278 000000f9 1E44          MOVL      *-SP[4],ACC           ; [CPU_] |631| 
    2279 000000fa A0C4          MOVL      *+XAR4[0],XAR5        ; [CPU_] |631| 
    2280                      .dwpsn  file "C:/work/grepos/bootrom/Boot_ROM/F2837x_bootROM-REVB/F2837x_bootROM_dev/F2837x_bootROM/c
    2281 000000fb 0B41          DEC       *-SP[1]               ; [CPU_] |629| 
    2282                      .dwpsn  file "C:/work/grepos/bootrom/Boot_ROM/F2837x_bootROM-REVB/F2837x_bootROM_dev/F2837x_bootROM/c
    2283 000000fc 9241          MOV       AL,*-SP[1]            ; [CPU_] |629| 
    2284 000000fd 62F7          B         $C$L64,GT             ; [CPU_] |629| 
    2285                      ; branchcc occurs ; [] |629| 
    2286 000000fe       $C$DW$L$_c1brom_init_pie_vect_table$2$E:
    2287 000000fe       $C$L65:    
    2288                      .dwpsn  file "C:/work/grepos/bootrom/Boot_ROM/F2837x_bootROM-REVB/F2837x_bootROM_dev/F2837x_bootROM/c
    2289 000000fe 761A   EDIS
    2290                      .dwpsn  file "C:/work/grepos/bootrom/Boot_ROM/F2837x_bootROM-REVB/F2837x_bootROM_dev/F2837x_bootROM/c
    2291 000000ff 761F!         MOVW      DP,#_PieCtrlRegs      ; [CPU_U] 
         00000100 0000 
    2292 00000101 1A00!         OR        @_PieCtrlRegs,#0x0001 ; [CPU_] |636| 
         00000102 0001 
    2293                      .dwpsn  file "C:/work/grepos/bootrom/Boot_ROM/F2837x_bootROM-REVB/F2837x_bootROM_dev/F2837x_bootROM/c
    2294 00000103 FE84          SUBB      SP,#4                 ; [CPU_U] 
    2295                      .dwcfi  cfa_offset, -2
    2296 00000104 FF69          SPM       #0                    ; [CPU_] 
TMS320C2000 Assembler PC v6.1.3 Thu Jan 30 10:26:14 2014

Tools Copyright (c) 1996-2012 Texas Instruments Incorporated
C:\Users\a0272466\AppData\Local\Temp\0274010                         PAGE   48

    2297              $C$DW$126       .dwtag  DW_TAG_TI_branch
    2298                      .dwattr $C$DW$126, DW_AT_low_pc(0x00)
    2299                      .dwattr $C$DW$126, DW_AT_TI_return
    2300 00000105 0006          LRETR     ; [CPU_] 
    2301                      ; return occurs ; [] 
    2302              
    2303              $C$DW$127       .dwtag  DW_TAG_TI_loop
    2304                      .dwattr $C$DW$127, DW_AT_name("C:\\Users\\a0272466\\AppData\\Local\\Temp\\0274010:$C$L64:1:1391099172
    2305                      .dwattr $C$DW$127, DW_AT_TI_begin_file("C:/work/grepos/bootrom/Boot_ROM/F2837x_bootROM-REVB/F2837x_bo
    2306                      .dwattr $C$DW$127, DW_AT_TI_begin_line(0x275)
    2307                      .dwattr $C$DW$127, DW_AT_TI_end_line(0x278)
    2308              $C$DW$128       .dwtag  DW_TAG_TI_loop_range
    2309                      .dwattr $C$DW$128, DW_AT_low_pc($C$DW$L$_c1brom_init_pie_vect_table$2$B)
    2310                      .dwattr $C$DW$128, DW_AT_high_pc($C$DW$L$_c1brom_init_pie_vect_table$2$E)
    2311                      .dwendtag $C$DW$127
    2312              
    2313                      .dwattr $C$DW$123, DW_AT_TI_end_file("C:/work/grepos/bootrom/Boot_ROM/F2837x_bootROM-REVB/F2837x_boot
    2314                      .dwattr $C$DW$123, DW_AT_TI_end_line(0x27e)
    2315                      .dwattr $C$DW$123, DW_AT_TI_end_column(0x01)
    2316                      .dwendentry
    2317                      .dwendtag $C$DW$123
    2318              
    2319 00000106               .sect   ".text"
    2320                      .global _c1brom_init_pie_control
    2321              
    2322              $C$DW$129       .dwtag  DW_TAG_subprogram, DW_AT_name("c1brom_init_pie_control")
    2323                      .dwattr $C$DW$129, DW_AT_low_pc(_c1brom_init_pie_control)
    2324                      .dwattr $C$DW$129, DW_AT_high_pc(0x00)
    2325                      .dwattr $C$DW$129, DW_AT_TI_symbol_name("_c1brom_init_pie_control")
    2326                      .dwattr $C$DW$129, DW_AT_external
    2327                      .dwattr $C$DW$129, DW_AT_TI_begin_file("C:/work/grepos/bootrom/Boot_ROM/F2837x_bootROM-REVB/F2837x_bo
    2328                      .dwattr $C$DW$129, DW_AT_TI_begin_line(0x286)
    2329                      .dwattr $C$DW$129, DW_AT_TI_begin_column(0x06)
    2330                      .dwattr $C$DW$129, DW_AT_TI_max_frame_size(-2)
    2331                      .dwpsn  file "C:/work/grepos/bootrom/Boot_ROM/F2837x_bootROM-REVB/F2837x_bootROM_dev/F2837x_bootROM/c
    2332              
    2333                      .dwfde $C$DW$CIE, _c1brom_init_pie_control
    2334              
    2335              ;***************************************************************
    2336              ;* FNAME: _c1brom_init_pie_control      FR SIZE:   0           *
    2337              ;*                                                             *
    2338              ;* FUNCTION ENVIRONMENT                                        *
    2339              ;*                                                             *
    2340              ;* FUNCTION PROPERTIES                                         *
    2341              ;*                            0 Parameter,  0 Auto,  0 SOE     *
    2342              ;***************************************************************
    2343              
    2344 00000106       _c1brom_init_pie_control:
    2345                      .dwcfi  cfa_offset, -2
    2346                      .dwcfi  save_reg_to_mem, 26, 0
    2347                      .dwcfi  save_reg_to_reg, 78, 26
    2348                      .dwpsn  file "C:/work/grepos/bootrom/Boot_ROM/F2837x_bootROM-REVB/F2837x_bootROM_dev/F2837x_bootROM/c
    2349 00000106 3B10   setc INTM
    2350                      .dwpsn  file "C:/work/grepos/bootrom/Boot_ROM/F2837x_bootROM-REVB/F2837x_bootROM_dev/F2837x_bootROM/c
    2351 00000107 761F!         MOVW      DP,#_PieCtrlRegs      ; [CPU_U] 
TMS320C2000 Assembler PC v6.1.3 Thu Jan 30 10:26:14 2014

Tools Copyright (c) 1996-2012 Texas Instruments Incorporated
C:\Users\a0272466\AppData\Local\Temp\0274010                         PAGE   49

         00000108 0000 
    2352 00000109 1800!         AND       @_PieCtrlRegs,#0xfffe ; [CPU_] |652| 
         0000010a FFFE 
    2353                      .dwpsn  file "C:/work/grepos/bootrom/Boot_ROM/F2837x_bootROM-REVB/F2837x_bootROM_dev/F2837x_bootROM/c
    2354 0000010b 2B02!         MOV       @_PieCtrlRegs+2,#0    ; [CPU_] |655| 
    2355                      .dwpsn  file "C:/work/grepos/bootrom/Boot_ROM/F2837x_bootROM-REVB/F2837x_bootROM_dev/F2837x_bootROM/c
    2356 0000010c 2B04!         MOV       @_PieCtrlRegs+4,#0    ; [CPU_] |656| 
    2357                      .dwpsn  file "C:/work/grepos/bootrom/Boot_ROM/F2837x_bootROM-REVB/F2837x_bootROM_dev/F2837x_bootROM/c
    2358 0000010d 2B06!         MOV       @_PieCtrlRegs+6,#0    ; [CPU_] |657| 
    2359                      .dwpsn  file "C:/work/grepos/bootrom/Boot_ROM/F2837x_bootROM-REVB/F2837x_bootROM_dev/F2837x_bootROM/c
    2360 0000010e 2B08!         MOV       @_PieCtrlRegs+8,#0    ; [CPU_] |658| 
    2361                      .dwpsn  file "C:/work/grepos/bootrom/Boot_ROM/F2837x_bootROM-REVB/F2837x_bootROM_dev/F2837x_bootROM/c
    2362 0000010f 2B0A!         MOV       @_PieCtrlRegs+10,#0   ; [CPU_] |659| 
    2363                      .dwpsn  file "C:/work/grepos/bootrom/Boot_ROM/F2837x_bootROM-REVB/F2837x_bootROM_dev/F2837x_bootROM/c
    2364 00000110 2B0C!         MOV       @_PieCtrlRegs+12,#0   ; [CPU_] |660| 
    2365                      .dwpsn  file "C:/work/grepos/bootrom/Boot_ROM/F2837x_bootROM-REVB/F2837x_bootROM_dev/F2837x_bootROM/c
    2366 00000111 2B0E!         MOV       @_PieCtrlRegs+14,#0   ; [CPU_] |661| 
    2367                      .dwpsn  file "C:/work/grepos/bootrom/Boot_ROM/F2837x_bootROM-REVB/F2837x_bootROM_dev/F2837x_bootROM/c
    2368 00000112 2B10!         MOV       @_PieCtrlRegs+16,#0   ; [CPU_] |662| 
    2369                      .dwpsn  file "C:/work/grepos/bootrom/Boot_ROM/F2837x_bootROM-REVB/F2837x_bootROM_dev/F2837x_bootROM/c
    2370 00000113 2B12!         MOV       @_PieCtrlRegs+18,#0   ; [CPU_] |663| 
    2371                      .dwpsn  file "C:/work/grepos/bootrom/Boot_ROM/F2837x_bootROM-REVB/F2837x_bootROM_dev/F2837x_bootROM/c
    2372 00000114 2B14!         MOV       @_PieCtrlRegs+20,#0   ; [CPU_] |664| 
    2373                      .dwpsn  file "C:/work/grepos/bootrom/Boot_ROM/F2837x_bootROM-REVB/F2837x_bootROM_dev/F2837x_bootROM/c
    2374 00000115 2B16!         MOV       @_PieCtrlRegs+22,#0   ; [CPU_] |665| 
    2375                      .dwpsn  file "C:/work/grepos/bootrom/Boot_ROM/F2837x_bootROM-REVB/F2837x_bootROM_dev/F2837x_bootROM/c
    2376 00000116 2B18!         MOV       @_PieCtrlRegs+24,#0   ; [CPU_] |666| 
    2377                      .dwpsn  file "C:/work/grepos/bootrom/Boot_ROM/F2837x_bootROM-REVB/F2837x_bootROM_dev/F2837x_bootROM/c
    2378 00000117 2B03!         MOV       @_PieCtrlRegs+3,#0    ; [CPU_] |669| 
    2379                      .dwpsn  file "C:/work/grepos/bootrom/Boot_ROM/F2837x_bootROM-REVB/F2837x_bootROM_dev/F2837x_bootROM/c
    2380 00000118 2B05!         MOV       @_PieCtrlRegs+5,#0    ; [CPU_] |670| 
    2381                      .dwpsn  file "C:/work/grepos/bootrom/Boot_ROM/F2837x_bootROM-REVB/F2837x_bootROM_dev/F2837x_bootROM/c
    2382 00000119 2B07!         MOV       @_PieCtrlRegs+7,#0    ; [CPU_] |671| 
    2383                      .dwpsn  file "C:/work/grepos/bootrom/Boot_ROM/F2837x_bootROM-REVB/F2837x_bootROM_dev/F2837x_bootROM/c
    2384 0000011a 2B09!         MOV       @_PieCtrlRegs+9,#0    ; [CPU_] |672| 
    2385                      .dwpsn  file "C:/work/grepos/bootrom/Boot_ROM/F2837x_bootROM-REVB/F2837x_bootROM_dev/F2837x_bootROM/c
    2386 0000011b 2B0B!         MOV       @_PieCtrlRegs+11,#0   ; [CPU_] |673| 
    2387                      .dwpsn  file "C:/work/grepos/bootrom/Boot_ROM/F2837x_bootROM-REVB/F2837x_bootROM_dev/F2837x_bootROM/c
    2388 0000011c 2B0D!         MOV       @_PieCtrlRegs+13,#0   ; [CPU_] |674| 
    2389                      .dwpsn  file "C:/work/grepos/bootrom/Boot_ROM/F2837x_bootROM-REVB/F2837x_bootROM_dev/F2837x_bootROM/c
    2390 0000011d 2B0F!         MOV       @_PieCtrlRegs+15,#0   ; [CPU_] |675| 
    2391                      .dwpsn  file "C:/work/grepos/bootrom/Boot_ROM/F2837x_bootROM-REVB/F2837x_bootROM_dev/F2837x_bootROM/c
    2392 0000011e 2B11!         MOV       @_PieCtrlRegs+17,#0   ; [CPU_] |676| 
    2393                      .dwpsn  file "C:/work/grepos/bootrom/Boot_ROM/F2837x_bootROM-REVB/F2837x_bootROM_dev/F2837x_bootROM/c
    2394 0000011f 2B13!         MOV       @_PieCtrlRegs+19,#0   ; [CPU_] |677| 
    2395                      .dwpsn  file "C:/work/grepos/bootrom/Boot_ROM/F2837x_bootROM-REVB/F2837x_bootROM_dev/F2837x_bootROM/c
    2396 00000120 2B15!         MOV       @_PieCtrlRegs+21,#0   ; [CPU_] |678| 
    2397                      .dwpsn  file "C:/work/grepos/bootrom/Boot_ROM/F2837x_bootROM-REVB/F2837x_bootROM_dev/F2837x_bootROM/c
    2398 00000121 2B17!         MOV       @_PieCtrlRegs+23,#0   ; [CPU_] |679| 
    2399                      .dwpsn  file "C:/work/grepos/bootrom/Boot_ROM/F2837x_bootROM-REVB/F2837x_bootROM_dev/F2837x_bootROM/c
    2400 00000122 2B19!         MOV       @_PieCtrlRegs+25,#0   ; [CPU_] |680| 
    2401                      .dwpsn  file "C:/work/grepos/bootrom/Boot_ROM/F2837x_bootROM-REVB/F2837x_bootROM_dev/F2837x_bootROM/c
    2402 00000123 1A00!         OR        @_PieCtrlRegs,#0x0001 ; [CPU_] |683| 
         00000124 0001 
    2403                      .dwpsn  file "C:/work/grepos/bootrom/Boot_ROM/F2837x_bootROM-REVB/F2837x_bootROM_dev/F2837x_bootROM/c
TMS320C2000 Assembler PC v6.1.3 Thu Jan 30 10:26:14 2014

Tools Copyright (c) 1996-2012 Texas Instruments Incorporated
C:\Users\a0272466\AppData\Local\Temp\0274010                         PAGE   50

    2404 00000125 2801!         MOV       @_PieCtrlRegs+1,#65535 ; [CPU_] |686| 
         00000126 FFFF 
    2405                      .dwpsn  file "C:/work/grepos/bootrom/Boot_ROM/F2837x_bootROM-REVB/F2837x_bootROM_dev/F2837x_bootROM/c
    2406 00000127 2910   clrc INTM
    2407                      .dwpsn  file "C:/work/grepos/bootrom/Boot_ROM/F2837x_bootROM-REVB/F2837x_bootROM_dev/F2837x_bootROM/c
    2408 00000128 FF69          SPM       #0                    ; [CPU_] 
    2409              $C$DW$130       .dwtag  DW_TAG_TI_branch
    2410                      .dwattr $C$DW$130, DW_AT_low_pc(0x00)
    2411                      .dwattr $C$DW$130, DW_AT_TI_return
    2412 00000129 0006          LRETR     ; [CPU_] 
    2413                      ; return occurs ; [] 
    2414                      .dwattr $C$DW$129, DW_AT_TI_end_file("C:/work/grepos/bootrom/Boot_ROM/F2837x_bootROM-REVB/F2837x_boot
    2415                      .dwattr $C$DW$129, DW_AT_TI_end_line(0x2b3)
    2416                      .dwattr $C$DW$129, DW_AT_TI_end_column(0x01)
    2417                      .dwendentry
    2418                      .dwendtag $C$DW$129
    2419              
    2420              ;**************************************************************
    2421              ;* UNDEFINED EXTERNAL REFERENCES                              *
    2422              ;**************************************************************
    2423                      .global _load_itrap_address
    2424                      .global _c1brom_c2c1_ipc_clear_bits_32
    2425                      .global _c1brom_c2c1_ipc_clear_bits_16
    2426                      .global _c1brom_c2c1_ipc_write_data_32
    2427                      .global _c1brom_c2c1_ipc_write_data_16
    2428                      .global _sysctl_wdog_enable
    2429                      .global _c1brom_c2c1_ipc_set_bits_32
    2430                      .global _c1brom_c2c1_ipc_set_bits_16
    2431                      .global _c1brom_c2c1_ipc_read_data_16
    2432                      .global _c1brom_c2c1_ipc_clear_bits_protected_32
    2433                      .global _c1brom_c2c1_ipc_write_data_protected_16
    2434                      .global _c1brom_c2c1_ipc_set_bits_protected_32
    2435                      .global _c1brom_c2c1_ipc_clear_bits_protected_16
    2436                      .global _c1brom_c2c1_ipc_read_data_protected_32
    2437                      .global _c1brom_c2c1_ipc_read_data_32
    2438                      .global _c1brom_c2c1_ipc_write_data_protected_32
    2439                      .global _c1brom_c2c1_ipc_read_data_protected_16
    2440                      .global _c1brom_c2c1_ipc_set_bits_protected_16
    2441                      .global _c1brom_status
    2442                      .global _c1brom_current_c2c1_ipc
    2443                      .global _NmiIntruptRegs
    2444                      .global _PieCtrlRegs
    2445                      .global _IpcRegs
    2446                      .global _CpuSysRegs
    2447                      .global _PieVectTable
    2448              
    2449              ;***************************************************************
    2450              ;* TYPE INFORMATION                                            *
    2451              ;***************************************************************
    2452              
    2453              $C$DW$T$159     .dwtag  DW_TAG_enumeration_type
    2454                      .dwattr $C$DW$T$159, DW_AT_byte_size(0x01)
    2455              $C$DW$131       .dwtag  DW_TAG_enumerator, DW_AT_name("COMMAND_STATUS_INVALID"), DW_AT_const_value(0x00)
    2456              $C$DW$132       .dwtag  DW_TAG_enumerator, DW_AT_name("COMMAND_PENDING"), DW_AT_const_value(0x01)
    2457              $C$DW$133       .dwtag  DW_TAG_enumerator, DW_AT_name("COMMAND_COMPLETE_SUCCESS"), DW_AT_const_value(0x02)
TMS320C2000 Assembler PC v6.1.3 Thu Jan 30 10:26:14 2014

Tools Copyright (c) 1996-2012 Texas Instruments Incorporated
C:\Users\a0272466\AppData\Local\Temp\0274010                         PAGE   51

    2458              $C$DW$134       .dwtag  DW_TAG_enumerator, DW_AT_name("COMMAND_COMPLETE_FAILURE"), DW_AT_const_value(0x03)
    2459                      .dwendtag $C$DW$T$159
    2460              
    2461              $C$DW$T$160     .dwtag  DW_TAG_typedef, DW_AT_name("command_status_t")
    2462                      .dwattr $C$DW$T$160, DW_AT_type(*$C$DW$T$159)
    2463                      .dwattr $C$DW$T$160, DW_AT_language(DW_LANG_C)
    2464              
    2465              $C$DW$T$20      .dwtag  DW_TAG_structure_type
    2466                      .dwattr $C$DW$T$20, DW_AT_name("CCR_BITS")
    2467                      .dwattr $C$DW$T$20, DW_AT_byte_size(0x02)
    2468              $C$DW$135       .dwtag  DW_TAG_member
    2469                      .dwattr $C$DW$135, DW_AT_type(*$C$DW$T$19)
    2470                      .dwattr $C$DW$135, DW_AT_name("VMAPS")
    2471                      .dwattr $C$DW$135, DW_AT_TI_symbol_name("_VMAPS")
    2472                      .dwattr $C$DW$135, DW_AT_bit_offset(0x0f), DW_AT_bit_size(0x01)
    2473                      .dwattr $C$DW$135, DW_AT_data_member_location[DW_OP_plus_uconst 0x0]
    2474                      .dwattr $C$DW$135, DW_AT_accessibility(DW_ACCESS_public)
    2475              $C$DW$136       .dwtag  DW_TAG_member
    2476                      .dwattr $C$DW$136, DW_AT_type(*$C$DW$T$19)
    2477                      .dwattr $C$DW$136, DW_AT_name("MONPRIV")
    2478                      .dwattr $C$DW$136, DW_AT_TI_symbol_name("_MONPRIV")
    2479                      .dwattr $C$DW$136, DW_AT_bit_offset(0x0e), DW_AT_bit_size(0x01)
    2480                      .dwattr $C$DW$136, DW_AT_data_member_location[DW_OP_plus_uconst 0x0]
    2481                      .dwattr $C$DW$136, DW_AT_accessibility(DW_ACCESS_public)
    2482              $C$DW$137       .dwtag  DW_TAG_member
    2483                      .dwattr $C$DW$137, DW_AT_type(*$C$DW$T$19)
    2484                      .dwattr $C$DW$137, DW_AT_name("ENPROT")
    2485                      .dwattr $C$DW$137, DW_AT_TI_symbol_name("_ENPROT")
    2486                      .dwattr $C$DW$137, DW_AT_bit_offset(0x0d), DW_AT_bit_size(0x01)
    2487                      .dwattr $C$DW$137, DW_AT_data_member_location[DW_OP_plus_uconst 0x0]
    2488                      .dwattr $C$DW$137, DW_AT_accessibility(DW_ACCESS_public)
    2489              $C$DW$138       .dwtag  DW_TAG_member
    2490                      .dwattr $C$DW$138, DW_AT_type(*$C$DW$T$19)
    2491                      .dwattr $C$DW$138, DW_AT_name("rsvd1")
    2492                      .dwattr $C$DW$138, DW_AT_TI_symbol_name("_rsvd1")
    2493                      .dwattr $C$DW$138, DW_AT_bit_offset(0x00), DW_AT_bit_size(0x0d)
    2494                      .dwattr $C$DW$138, DW_AT_data_member_location[DW_OP_plus_uconst 0x0]
    2495                      .dwattr $C$DW$138, DW_AT_accessibility(DW_ACCESS_public)
    2496              $C$DW$139       .dwtag  DW_TAG_member
    2497                      .dwattr $C$DW$139, DW_AT_type(*$C$DW$T$19)
    2498                      .dwattr $C$DW$139, DW_AT_name("rsvd2")
    2499                      .dwattr $C$DW$139, DW_AT_TI_symbol_name("_rsvd2")
    2500                      .dwattr $C$DW$139, DW_AT_bit_offset(0x00), DW_AT_bit_size(0x10)
    2501                      .dwattr $C$DW$139, DW_AT_data_member_location[DW_OP_plus_uconst 0x1]
    2502                      .dwattr $C$DW$139, DW_AT_accessibility(DW_ACCESS_public)
    2503                      .dwendtag $C$DW$T$20
    2504              
    2505              
    2506              $C$DW$T$22      .dwtag  DW_TAG_union_type
    2507                      .dwattr $C$DW$T$22, DW_AT_name("CCR_REG")
    2508                      .dwattr $C$DW$T$22, DW_AT_byte_size(0x02)
    2509              $C$DW$140       .dwtag  DW_TAG_member
    2510                      .dwattr $C$DW$140, DW_AT_type(*$C$DW$T$21)
    2511                      .dwattr $C$DW$140, DW_AT_name("all")
    2512                      .dwattr $C$DW$140, DW_AT_TI_symbol_name("_all")
TMS320C2000 Assembler PC v6.1.3 Thu Jan 30 10:26:14 2014

Tools Copyright (c) 1996-2012 Texas Instruments Incorporated
C:\Users\a0272466\AppData\Local\Temp\0274010                         PAGE   52

    2513                      .dwattr $C$DW$140, DW_AT_data_member_location[DW_OP_plus_uconst 0x0]
    2514                      .dwattr $C$DW$140, DW_AT_accessibility(DW_ACCESS_public)
    2515              $C$DW$141       .dwtag  DW_TAG_member
    2516                      .dwattr $C$DW$141, DW_AT_type(*$C$DW$T$20)
    2517                      .dwattr $C$DW$141, DW_AT_name("bit")
    2518                      .dwattr $C$DW$141, DW_AT_TI_symbol_name("_bit")
    2519                      .dwattr $C$DW$141, DW_AT_data_member_location[DW_OP_plus_uconst 0x0]
    2520                      .dwattr $C$DW$141, DW_AT_accessibility(DW_ACCESS_public)
    2521                      .dwendtag $C$DW$T$22
    2522              
    2523              
    2524              $C$DW$T$23      .dwtag  DW_TAG_structure_type
    2525                      .dwattr $C$DW$T$23, DW_AT_name("CPUSYSLOCK1_BITS")
    2526                      .dwattr $C$DW$T$23, DW_AT_byte_size(0x02)
    2527              $C$DW$142       .dwtag  DW_TAG_member
    2528                      .dwattr $C$DW$142, DW_AT_type(*$C$DW$T$19)
    2529                      .dwattr $C$DW$142, DW_AT_name("HIBBOOTMODE")
    2530                      .dwattr $C$DW$142, DW_AT_TI_symbol_name("_HIBBOOTMODE")
    2531                      .dwattr $C$DW$142, DW_AT_bit_offset(0x0f), DW_AT_bit_size(0x01)
    2532                      .dwattr $C$DW$142, DW_AT_data_member_location[DW_OP_plus_uconst 0x0]
    2533                      .dwattr $C$DW$142, DW_AT_accessibility(DW_ACCESS_public)
    2534              $C$DW$143       .dwtag  DW_TAG_member
    2535                      .dwattr $C$DW$143, DW_AT_type(*$C$DW$T$19)
    2536                      .dwattr $C$DW$143, DW_AT_name("IORESTOREADDR")
    2537                      .dwattr $C$DW$143, DW_AT_TI_symbol_name("_IORESTOREADDR")
    2538                      .dwattr $C$DW$143, DW_AT_bit_offset(0x0e), DW_AT_bit_size(0x01)
    2539                      .dwattr $C$DW$143, DW_AT_data_member_location[DW_OP_plus_uconst 0x0]
    2540                      .dwattr $C$DW$143, DW_AT_accessibility(DW_ACCESS_public)
    2541              $C$DW$144       .dwtag  DW_TAG_member
    2542                      .dwattr $C$DW$144, DW_AT_type(*$C$DW$T$19)
    2543                      .dwattr $C$DW$144, DW_AT_name("PIEVERRADDR")
    2544                      .dwattr $C$DW$144, DW_AT_TI_symbol_name("_PIEVERRADDR")
    2545                      .dwattr $C$DW$144, DW_AT_bit_offset(0x0d), DW_AT_bit_size(0x01)
    2546                      .dwattr $C$DW$144, DW_AT_data_member_location[DW_OP_plus_uconst 0x0]
    2547                      .dwattr $C$DW$144, DW_AT_accessibility(DW_ACCESS_public)
    2548              $C$DW$145       .dwtag  DW_TAG_member
    2549                      .dwattr $C$DW$145, DW_AT_type(*$C$DW$T$19)
    2550                      .dwattr $C$DW$145, DW_AT_name("PCLKCR0")
    2551                      .dwattr $C$DW$145, DW_AT_TI_symbol_name("_PCLKCR0")
    2552                      .dwattr $C$DW$145, DW_AT_bit_offset(0x0c), DW_AT_bit_size(0x01)
    2553                      .dwattr $C$DW$145, DW_AT_data_member_location[DW_OP_plus_uconst 0x0]
    2554                      .dwattr $C$DW$145, DW_AT_accessibility(DW_ACCESS_public)
    2555              $C$DW$146       .dwtag  DW_TAG_member
    2556                      .dwattr $C$DW$146, DW_AT_type(*$C$DW$T$19)
    2557                      .dwattr $C$DW$146, DW_AT_name("PCLKCR1")
    2558                      .dwattr $C$DW$146, DW_AT_TI_symbol_name("_PCLKCR1")
    2559                      .dwattr $C$DW$146, DW_AT_bit_offset(0x0b), DW_AT_bit_size(0x01)
    2560                      .dwattr $C$DW$146, DW_AT_data_member_location[DW_OP_plus_uconst 0x0]
    2561                      .dwattr $C$DW$146, DW_AT_accessibility(DW_ACCESS_public)
    2562              $C$DW$147       .dwtag  DW_TAG_member
    2563                      .dwattr $C$DW$147, DW_AT_type(*$C$DW$T$19)
    2564                      .dwattr $C$DW$147, DW_AT_name("PCLKCR2")
    2565                      .dwattr $C$DW$147, DW_AT_TI_symbol_name("_PCLKCR2")
    2566                      .dwattr $C$DW$147, DW_AT_bit_offset(0x0a), DW_AT_bit_size(0x01)
    2567                      .dwattr $C$DW$147, DW_AT_data_member_location[DW_OP_plus_uconst 0x0]
TMS320C2000 Assembler PC v6.1.3 Thu Jan 30 10:26:14 2014

Tools Copyright (c) 1996-2012 Texas Instruments Incorporated
C:\Users\a0272466\AppData\Local\Temp\0274010                         PAGE   53

    2568                      .dwattr $C$DW$147, DW_AT_accessibility(DW_ACCESS_public)
    2569              $C$DW$148       .dwtag  DW_TAG_member
    2570                      .dwattr $C$DW$148, DW_AT_type(*$C$DW$T$19)
    2571                      .dwattr $C$DW$148, DW_AT_name("PCLKCR3")
    2572                      .dwattr $C$DW$148, DW_AT_TI_symbol_name("_PCLKCR3")
    2573                      .dwattr $C$DW$148, DW_AT_bit_offset(0x09), DW_AT_bit_size(0x01)
    2574                      .dwattr $C$DW$148, DW_AT_data_member_location[DW_OP_plus_uconst 0x0]
    2575                      .dwattr $C$DW$148, DW_AT_accessibility(DW_ACCESS_public)
    2576              $C$DW$149       .dwtag  DW_TAG_member
    2577                      .dwattr $C$DW$149, DW_AT_type(*$C$DW$T$19)
    2578                      .dwattr $C$DW$149, DW_AT_name("PCLKCR4")
    2579                      .dwattr $C$DW$149, DW_AT_TI_symbol_name("_PCLKCR4")
    2580                      .dwattr $C$DW$149, DW_AT_bit_offset(0x08), DW_AT_bit_size(0x01)
    2581                      .dwattr $C$DW$149, DW_AT_data_member_location[DW_OP_plus_uconst 0x0]
    2582                      .dwattr $C$DW$149, DW_AT_accessibility(DW_ACCESS_public)
    2583              $C$DW$150       .dwtag  DW_TAG_member
    2584                      .dwattr $C$DW$150, DW_AT_type(*$C$DW$T$19)
    2585                      .dwattr $C$DW$150, DW_AT_name("PCLKCR5")
    2586                      .dwattr $C$DW$150, DW_AT_TI_symbol_name("_PCLKCR5")
    2587                      .dwattr $C$DW$150, DW_AT_bit_offset(0x07), DW_AT_bit_size(0x01)
    2588                      .dwattr $C$DW$150, DW_AT_data_member_location[DW_OP_plus_uconst 0x0]
    2589                      .dwattr $C$DW$150, DW_AT_accessibility(DW_ACCESS_public)
    2590              $C$DW$151       .dwtag  DW_TAG_member
    2591                      .dwattr $C$DW$151, DW_AT_type(*$C$DW$T$19)
    2592                      .dwattr $C$DW$151, DW_AT_name("PCLKCR6")
    2593                      .dwattr $C$DW$151, DW_AT_TI_symbol_name("_PCLKCR6")
    2594                      .dwattr $C$DW$151, DW_AT_bit_offset(0x06), DW_AT_bit_size(0x01)
    2595                      .dwattr $C$DW$151, DW_AT_data_member_location[DW_OP_plus_uconst 0x0]
    2596                      .dwattr $C$DW$151, DW_AT_accessibility(DW_ACCESS_public)
    2597              $C$DW$152       .dwtag  DW_TAG_member
    2598                      .dwattr $C$DW$152, DW_AT_type(*$C$DW$T$19)
    2599                      .dwattr $C$DW$152, DW_AT_name("PCLKCR7")
    2600                      .dwattr $C$DW$152, DW_AT_TI_symbol_name("_PCLKCR7")
    2601                      .dwattr $C$DW$152, DW_AT_bit_offset(0x05), DW_AT_bit_size(0x01)
    2602                      .dwattr $C$DW$152, DW_AT_data_member_location[DW_OP_plus_uconst 0x0]
    2603                      .dwattr $C$DW$152, DW_AT_accessibility(DW_ACCESS_public)
    2604              $C$DW$153       .dwtag  DW_TAG_member
    2605                      .dwattr $C$DW$153, DW_AT_type(*$C$DW$T$19)
    2606                      .dwattr $C$DW$153, DW_AT_name("PCLKCR8")
    2607                      .dwattr $C$DW$153, DW_AT_TI_symbol_name("_PCLKCR8")
    2608                      .dwattr $C$DW$153, DW_AT_bit_offset(0x04), DW_AT_bit_size(0x01)
    2609                      .dwattr $C$DW$153, DW_AT_data_member_location[DW_OP_plus_uconst 0x0]
    2610                      .dwattr $C$DW$153, DW_AT_accessibility(DW_ACCESS_public)
    2611              $C$DW$154       .dwtag  DW_TAG_member
    2612                      .dwattr $C$DW$154, DW_AT_type(*$C$DW$T$19)
    2613                      .dwattr $C$DW$154, DW_AT_name("PCLKCR9")
    2614                      .dwattr $C$DW$154, DW_AT_TI_symbol_name("_PCLKCR9")
    2615                      .dwattr $C$DW$154, DW_AT_bit_offset(0x03), DW_AT_bit_size(0x01)
    2616                      .dwattr $C$DW$154, DW_AT_data_member_location[DW_OP_plus_uconst 0x0]
    2617                      .dwattr $C$DW$154, DW_AT_accessibility(DW_ACCESS_public)
    2618              $C$DW$155       .dwtag  DW_TAG_member
    2619                      .dwattr $C$DW$155, DW_AT_type(*$C$DW$T$19)
    2620                      .dwattr $C$DW$155, DW_AT_name("PCLKCR10")
    2621                      .dwattr $C$DW$155, DW_AT_TI_symbol_name("_PCLKCR10")
    2622                      .dwattr $C$DW$155, DW_AT_bit_offset(0x02), DW_AT_bit_size(0x01)
TMS320C2000 Assembler PC v6.1.3 Thu Jan 30 10:26:14 2014

Tools Copyright (c) 1996-2012 Texas Instruments Incorporated
C:\Users\a0272466\AppData\Local\Temp\0274010                         PAGE   54

    2623                      .dwattr $C$DW$155, DW_AT_data_member_location[DW_OP_plus_uconst 0x0]
    2624                      .dwattr $C$DW$155, DW_AT_accessibility(DW_ACCESS_public)
    2625              $C$DW$156       .dwtag  DW_TAG_member
    2626                      .dwattr $C$DW$156, DW_AT_type(*$C$DW$T$19)
    2627                      .dwattr $C$DW$156, DW_AT_name("PCLKCR11")
    2628                      .dwattr $C$DW$156, DW_AT_TI_symbol_name("_PCLKCR11")
    2629                      .dwattr $C$DW$156, DW_AT_bit_offset(0x01), DW_AT_bit_size(0x01)
    2630                      .dwattr $C$DW$156, DW_AT_data_member_location[DW_OP_plus_uconst 0x0]
    2631                      .dwattr $C$DW$156, DW_AT_accessibility(DW_ACCESS_public)
    2632              $C$DW$157       .dwtag  DW_TAG_member
    2633                      .dwattr $C$DW$157, DW_AT_type(*$C$DW$T$19)
    2634                      .dwattr $C$DW$157, DW_AT_name("PCLKCR12")
    2635                      .dwattr $C$DW$157, DW_AT_TI_symbol_name("_PCLKCR12")
    2636                      .dwattr $C$DW$157, DW_AT_bit_offset(0x00), DW_AT_bit_size(0x01)
    2637                      .dwattr $C$DW$157, DW_AT_data_member_location[DW_OP_plus_uconst 0x0]
    2638                      .dwattr $C$DW$157, DW_AT_accessibility(DW_ACCESS_public)
    2639              $C$DW$158       .dwtag  DW_TAG_member
    2640                      .dwattr $C$DW$158, DW_AT_type(*$C$DW$T$19)
    2641                      .dwattr $C$DW$158, DW_AT_name("PCLKCR13")
    2642                      .dwattr $C$DW$158, DW_AT_TI_symbol_name("_PCLKCR13")
    2643                      .dwattr $C$DW$158, DW_AT_bit_offset(0x0f), DW_AT_bit_size(0x01)
    2644                      .dwattr $C$DW$158, DW_AT_data_member_location[DW_OP_plus_uconst 0x1]
    2645                      .dwattr $C$DW$158, DW_AT_accessibility(DW_ACCESS_public)
    2646              $C$DW$159       .dwtag  DW_TAG_member
    2647                      .dwattr $C$DW$159, DW_AT_type(*$C$DW$T$19)
    2648                      .dwattr $C$DW$159, DW_AT_name("PCLKCR14")
    2649                      .dwattr $C$DW$159, DW_AT_TI_symbol_name("_PCLKCR14")
    2650                      .dwattr $C$DW$159, DW_AT_bit_offset(0x0e), DW_AT_bit_size(0x01)
    2651                      .dwattr $C$DW$159, DW_AT_data_member_location[DW_OP_plus_uconst 0x1]
    2652                      .dwattr $C$DW$159, DW_AT_accessibility(DW_ACCESS_public)
    2653              $C$DW$160       .dwtag  DW_TAG_member
    2654                      .dwattr $C$DW$160, DW_AT_type(*$C$DW$T$19)
    2655                      .dwattr $C$DW$160, DW_AT_name("PCLKCR15")
    2656                      .dwattr $C$DW$160, DW_AT_TI_symbol_name("_PCLKCR15")
    2657                      .dwattr $C$DW$160, DW_AT_bit_offset(0x0d), DW_AT_bit_size(0x01)
    2658                      .dwattr $C$DW$160, DW_AT_data_member_location[DW_OP_plus_uconst 0x1]
    2659                      .dwattr $C$DW$160, DW_AT_accessibility(DW_ACCESS_public)
    2660              $C$DW$161       .dwtag  DW_TAG_member
    2661                      .dwattr $C$DW$161, DW_AT_type(*$C$DW$T$19)
    2662                      .dwattr $C$DW$161, DW_AT_name("PCLKCR16")
    2663                      .dwattr $C$DW$161, DW_AT_TI_symbol_name("_PCLKCR16")
    2664                      .dwattr $C$DW$161, DW_AT_bit_offset(0x0c), DW_AT_bit_size(0x01)
    2665                      .dwattr $C$DW$161, DW_AT_data_member_location[DW_OP_plus_uconst 0x1]
    2666                      .dwattr $C$DW$161, DW_AT_accessibility(DW_ACCESS_public)
    2667              $C$DW$162       .dwtag  DW_TAG_member
    2668                      .dwattr $C$DW$162, DW_AT_type(*$C$DW$T$19)
    2669                      .dwattr $C$DW$162, DW_AT_name("SECMSEL")
    2670                      .dwattr $C$DW$162, DW_AT_TI_symbol_name("_SECMSEL")
    2671                      .dwattr $C$DW$162, DW_AT_bit_offset(0x0b), DW_AT_bit_size(0x01)
    2672                      .dwattr $C$DW$162, DW_AT_data_member_location[DW_OP_plus_uconst 0x1]
    2673                      .dwattr $C$DW$162, DW_AT_accessibility(DW_ACCESS_public)
    2674              $C$DW$163       .dwtag  DW_TAG_member
    2675                      .dwattr $C$DW$163, DW_AT_type(*$C$DW$T$19)
    2676                      .dwattr $C$DW$163, DW_AT_name("LPMCR")
    2677                      .dwattr $C$DW$163, DW_AT_TI_symbol_name("_LPMCR")
TMS320C2000 Assembler PC v6.1.3 Thu Jan 30 10:26:14 2014

Tools Copyright (c) 1996-2012 Texas Instruments Incorporated
C:\Users\a0272466\AppData\Local\Temp\0274010                         PAGE   55

    2678                      .dwattr $C$DW$163, DW_AT_bit_offset(0x0a), DW_AT_bit_size(0x01)
    2679                      .dwattr $C$DW$163, DW_AT_data_member_location[DW_OP_plus_uconst 0x1]
    2680                      .dwattr $C$DW$163, DW_AT_accessibility(DW_ACCESS_public)
    2681              $C$DW$164       .dwtag  DW_TAG_member
    2682                      .dwattr $C$DW$164, DW_AT_type(*$C$DW$T$19)
    2683                      .dwattr $C$DW$164, DW_AT_name("GPIOLPMSEL0")
    2684                      .dwattr $C$DW$164, DW_AT_TI_symbol_name("_GPIOLPMSEL0")
    2685                      .dwattr $C$DW$164, DW_AT_bit_offset(0x09), DW_AT_bit_size(0x01)
    2686                      .dwattr $C$DW$164, DW_AT_data_member_location[DW_OP_plus_uconst 0x1]
    2687                      .dwattr $C$DW$164, DW_AT_accessibility(DW_ACCESS_public)
    2688              $C$DW$165       .dwtag  DW_TAG_member
    2689                      .dwattr $C$DW$165, DW_AT_type(*$C$DW$T$19)
    2690                      .dwattr $C$DW$165, DW_AT_name("GPIOLPMSEL1")
    2691                      .dwattr $C$DW$165, DW_AT_TI_symbol_name("_GPIOLPMSEL1")
    2692                      .dwattr $C$DW$165, DW_AT_bit_offset(0x08), DW_AT_bit_size(0x01)
    2693                      .dwattr $C$DW$165, DW_AT_data_member_location[DW_OP_plus_uconst 0x1]
    2694                      .dwattr $C$DW$165, DW_AT_accessibility(DW_ACCESS_public)
    2695              $C$DW$166       .dwtag  DW_TAG_member
    2696                      .dwattr $C$DW$166, DW_AT_type(*$C$DW$T$19)
    2697                      .dwattr $C$DW$166, DW_AT_name("rsvd1")
    2698                      .dwattr $C$DW$166, DW_AT_TI_symbol_name("_rsvd1")
    2699                      .dwattr $C$DW$166, DW_AT_bit_offset(0x00), DW_AT_bit_size(0x08)
    2700                      .dwattr $C$DW$166, DW_AT_data_member_location[DW_OP_plus_uconst 0x1]
    2701                      .dwattr $C$DW$166, DW_AT_accessibility(DW_ACCESS_public)
    2702                      .dwendtag $C$DW$T$23
    2703              
    2704              
    2705              $C$DW$T$24      .dwtag  DW_TAG_union_type
    2706                      .dwattr $C$DW$T$24, DW_AT_name("CPUSYSLOCK1_REG")
    2707                      .dwattr $C$DW$T$24, DW_AT_byte_size(0x02)
    2708              $C$DW$167       .dwtag  DW_TAG_member
    2709                      .dwattr $C$DW$167, DW_AT_type(*$C$DW$T$21)
    2710                      .dwattr $C$DW$167, DW_AT_name("all")
    2711                      .dwattr $C$DW$167, DW_AT_TI_symbol_name("_all")
    2712                      .dwattr $C$DW$167, DW_AT_data_member_location[DW_OP_plus_uconst 0x0]
    2713                      .dwattr $C$DW$167, DW_AT_accessibility(DW_ACCESS_public)
    2714              $C$DW$168       .dwtag  DW_TAG_member
    2715                      .dwattr $C$DW$168, DW_AT_type(*$C$DW$T$23)
    2716                      .dwattr $C$DW$168, DW_AT_name("bit")
    2717                      .dwattr $C$DW$168, DW_AT_TI_symbol_name("_bit")
    2718                      .dwattr $C$DW$168, DW_AT_data_member_location[DW_OP_plus_uconst 0x0]
    2719                      .dwattr $C$DW$168, DW_AT_accessibility(DW_ACCESS_public)
    2720                      .dwendtag $C$DW$T$24
    2721              
    2722              
    2723              $C$DW$T$29      .dwtag  DW_TAG_structure_type
    2724                      .dwattr $C$DW$T$29, DW_AT_name("CPU_SYS_REGS")
    2725                      .dwattr $C$DW$T$29, DW_AT_byte_size(0x82)
    2726              $C$DW$169       .dwtag  DW_TAG_member
    2727                      .dwattr $C$DW$169, DW_AT_type(*$C$DW$T$24)
    2728                      .dwattr $C$DW$169, DW_AT_name("CPUSYSLOCK1")
    2729                      .dwattr $C$DW$169, DW_AT_TI_symbol_name("_CPUSYSLOCK1")
    2730                      .dwattr $C$DW$169, DW_AT_data_member_location[DW_OP_plus_uconst 0x0]
    2731                      .dwattr $C$DW$169, DW_AT_accessibility(DW_ACCESS_public)
    2732              $C$DW$170       .dwtag  DW_TAG_member
TMS320C2000 Assembler PC v6.1.3 Thu Jan 30 10:26:14 2014

Tools Copyright (c) 1996-2012 Texas Instruments Incorporated
C:\Users\a0272466\AppData\Local\Temp\0274010                         PAGE   56

    2733                      .dwattr $C$DW$170, DW_AT_type(*$C$DW$T$25)
    2734                      .dwattr $C$DW$170, DW_AT_name("rsvd1")
    2735                      .dwattr $C$DW$170, DW_AT_TI_symbol_name("_rsvd1")
    2736                      .dwattr $C$DW$170, DW_AT_data_member_location[DW_OP_plus_uconst 0x2]
    2737                      .dwattr $C$DW$170, DW_AT_accessibility(DW_ACCESS_public)
    2738              $C$DW$171       .dwtag  DW_TAG_member
    2739                      .dwattr $C$DW$171, DW_AT_type(*$C$DW$T$21)
    2740                      .dwattr $C$DW$171, DW_AT_name("HIBBOOTMODE")
    2741                      .dwattr $C$DW$171, DW_AT_TI_symbol_name("_HIBBOOTMODE")
    2742                      .dwattr $C$DW$171, DW_AT_data_member_location[DW_OP_plus_uconst 0x6]
    2743                      .dwattr $C$DW$171, DW_AT_accessibility(DW_ACCESS_public)
    2744              $C$DW$172       .dwtag  DW_TAG_member
    2745                      .dwattr $C$DW$172, DW_AT_type(*$C$DW$T$35)
    2746                      .dwattr $C$DW$172, DW_AT_name("IORESTOREADDR")
    2747                      .dwattr $C$DW$172, DW_AT_TI_symbol_name("_IORESTOREADDR")
    2748                      .dwattr $C$DW$172, DW_AT_data_member_location[DW_OP_plus_uconst 0x8]
    2749                      .dwattr $C$DW$172, DW_AT_accessibility(DW_ACCESS_public)
    2750              $C$DW$173       .dwtag  DW_TAG_member
    2751                      .dwattr $C$DW$173, DW_AT_type(*$C$DW$T$145)
    2752                      .dwattr $C$DW$173, DW_AT_name("PIEVERRADDR")
    2753                      .dwattr $C$DW$173, DW_AT_TI_symbol_name("_PIEVERRADDR")
    2754                      .dwattr $C$DW$173, DW_AT_data_member_location[DW_OP_plus_uconst 0xa]
    2755                      .dwattr $C$DW$173, DW_AT_accessibility(DW_ACCESS_public)
    2756              $C$DW$174       .dwtag  DW_TAG_member
    2757                      .dwattr $C$DW$174, DW_AT_type(*$C$DW$T$26)
    2758                      .dwattr $C$DW$174, DW_AT_name("rsvd2")
    2759                      .dwattr $C$DW$174, DW_AT_TI_symbol_name("_rsvd2")
    2760                      .dwattr $C$DW$174, DW_AT_data_member_location[DW_OP_plus_uconst 0xc]
    2761                      .dwattr $C$DW$174, DW_AT_accessibility(DW_ACCESS_public)
    2762              $C$DW$175       .dwtag  DW_TAG_member
    2763                      .dwattr $C$DW$175, DW_AT_type(*$C$DW$T$61)
    2764                      .dwattr $C$DW$175, DW_AT_name("PCLKCR0")
    2765                      .dwattr $C$DW$175, DW_AT_TI_symbol_name("_PCLKCR0")
    2766                      .dwattr $C$DW$175, DW_AT_data_member_location[DW_OP_plus_uconst 0x22]
    2767                      .dwattr $C$DW$175, DW_AT_accessibility(DW_ACCESS_public)
    2768              $C$DW$176       .dwtag  DW_TAG_member
    2769                      .dwattr $C$DW$176, DW_AT_type(*$C$DW$T$75)
    2770                      .dwattr $C$DW$176, DW_AT_name("PCLKCR1")
    2771                      .dwattr $C$DW$176, DW_AT_TI_symbol_name("_PCLKCR1")
    2772                      .dwattr $C$DW$176, DW_AT_data_member_location[DW_OP_plus_uconst 0x24]
    2773                      .dwattr $C$DW$176, DW_AT_accessibility(DW_ACCESS_public)
    2774              $C$DW$177       .dwtag  DW_TAG_member
    2775                      .dwattr $C$DW$177, DW_AT_type(*$C$DW$T$77)
    2776                      .dwattr $C$DW$177, DW_AT_name("PCLKCR2")
    2777                      .dwattr $C$DW$177, DW_AT_TI_symbol_name("_PCLKCR2")
    2778                      .dwattr $C$DW$177, DW_AT_data_member_location[DW_OP_plus_uconst 0x26]
    2779                      .dwattr $C$DW$177, DW_AT_accessibility(DW_ACCESS_public)
    2780              $C$DW$178       .dwtag  DW_TAG_member
    2781                      .dwattr $C$DW$178, DW_AT_type(*$C$DW$T$79)
    2782                      .dwattr $C$DW$178, DW_AT_name("PCLKCR3")
    2783                      .dwattr $C$DW$178, DW_AT_TI_symbol_name("_PCLKCR3")
    2784                      .dwattr $C$DW$178, DW_AT_data_member_location[DW_OP_plus_uconst 0x28]
    2785                      .dwattr $C$DW$178, DW_AT_accessibility(DW_ACCESS_public)
    2786              $C$DW$179       .dwtag  DW_TAG_member
    2787                      .dwattr $C$DW$179, DW_AT_type(*$C$DW$T$81)
TMS320C2000 Assembler PC v6.1.3 Thu Jan 30 10:26:14 2014

Tools Copyright (c) 1996-2012 Texas Instruments Incorporated
C:\Users\a0272466\AppData\Local\Temp\0274010                         PAGE   57

    2788                      .dwattr $C$DW$179, DW_AT_name("PCLKCR4")
    2789                      .dwattr $C$DW$179, DW_AT_TI_symbol_name("_PCLKCR4")
    2790                      .dwattr $C$DW$179, DW_AT_data_member_location[DW_OP_plus_uconst 0x2a]
    2791                      .dwattr $C$DW$179, DW_AT_accessibility(DW_ACCESS_public)
    2792              $C$DW$180       .dwtag  DW_TAG_member
    2793                      .dwattr $C$DW$180, DW_AT_type(*$C$DW$T$83)
    2794                      .dwattr $C$DW$180, DW_AT_name("PCLKCR5")
    2795                      .dwattr $C$DW$180, DW_AT_TI_symbol_name("_PCLKCR5")
    2796                      .dwattr $C$DW$180, DW_AT_data_member_location[DW_OP_plus_uconst 0x2c]
    2797                      .dwattr $C$DW$180, DW_AT_accessibility(DW_ACCESS_public)
    2798              $C$DW$181       .dwtag  DW_TAG_member
    2799                      .dwattr $C$DW$181, DW_AT_type(*$C$DW$T$85)
    2800                      .dwattr $C$DW$181, DW_AT_name("PCLKCR6")
    2801                      .dwattr $C$DW$181, DW_AT_TI_symbol_name("_PCLKCR6")
    2802                      .dwattr $C$DW$181, DW_AT_data_member_location[DW_OP_plus_uconst 0x2e]
    2803                      .dwattr $C$DW$181, DW_AT_accessibility(DW_ACCESS_public)
    2804              $C$DW$182       .dwtag  DW_TAG_member
    2805                      .dwattr $C$DW$182, DW_AT_type(*$C$DW$T$87)
    2806                      .dwattr $C$DW$182, DW_AT_name("PCLKCR7")
    2807                      .dwattr $C$DW$182, DW_AT_TI_symbol_name("_PCLKCR7")
    2808                      .dwattr $C$DW$182, DW_AT_data_member_location[DW_OP_plus_uconst 0x30]
    2809                      .dwattr $C$DW$182, DW_AT_accessibility(DW_ACCESS_public)
    2810              $C$DW$183       .dwtag  DW_TAG_member
    2811                      .dwattr $C$DW$183, DW_AT_type(*$C$DW$T$89)
    2812                      .dwattr $C$DW$183, DW_AT_name("PCLKCR8")
    2813                      .dwattr $C$DW$183, DW_AT_TI_symbol_name("_PCLKCR8")
    2814                      .dwattr $C$DW$183, DW_AT_data_member_location[DW_OP_plus_uconst 0x32]
    2815                      .dwattr $C$DW$183, DW_AT_accessibility(DW_ACCESS_public)
    2816              $C$DW$184       .dwtag  DW_TAG_member
    2817                      .dwattr $C$DW$184, DW_AT_type(*$C$DW$T$91)
    2818                      .dwattr $C$DW$184, DW_AT_name("PCLKCR9")
    2819                      .dwattr $C$DW$184, DW_AT_TI_symbol_name("_PCLKCR9")
    2820                      .dwattr $C$DW$184, DW_AT_data_member_location[DW_OP_plus_uconst 0x34]
    2821                      .dwattr $C$DW$184, DW_AT_accessibility(DW_ACCESS_public)
    2822              $C$DW$185       .dwtag  DW_TAG_member
    2823                      .dwattr $C$DW$185, DW_AT_type(*$C$DW$T$63)
    2824                      .dwattr $C$DW$185, DW_AT_name("PCLKCR10")
    2825                      .dwattr $C$DW$185, DW_AT_TI_symbol_name("_PCLKCR10")
    2826                      .dwattr $C$DW$185, DW_AT_data_member_location[DW_OP_plus_uconst 0x36]
    2827                      .dwattr $C$DW$185, DW_AT_accessibility(DW_ACCESS_public)
    2828              $C$DW$186       .dwtag  DW_TAG_member
    2829                      .dwattr $C$DW$186, DW_AT_type(*$C$DW$T$65)
    2830                      .dwattr $C$DW$186, DW_AT_name("PCLKCR11")
    2831                      .dwattr $C$DW$186, DW_AT_TI_symbol_name("_PCLKCR11")
    2832                      .dwattr $C$DW$186, DW_AT_data_member_location[DW_OP_plus_uconst 0x38]
    2833                      .dwattr $C$DW$186, DW_AT_accessibility(DW_ACCESS_public)
    2834              $C$DW$187       .dwtag  DW_TAG_member
    2835                      .dwattr $C$DW$187, DW_AT_type(*$C$DW$T$67)
    2836                      .dwattr $C$DW$187, DW_AT_name("PCLKCR12")
    2837                      .dwattr $C$DW$187, DW_AT_TI_symbol_name("_PCLKCR12")
    2838                      .dwattr $C$DW$187, DW_AT_data_member_location[DW_OP_plus_uconst 0x3a]
    2839                      .dwattr $C$DW$187, DW_AT_accessibility(DW_ACCESS_public)
    2840              $C$DW$188       .dwtag  DW_TAG_member
    2841                      .dwattr $C$DW$188, DW_AT_type(*$C$DW$T$69)
    2842                      .dwattr $C$DW$188, DW_AT_name("PCLKCR13")
TMS320C2000 Assembler PC v6.1.3 Thu Jan 30 10:26:14 2014

Tools Copyright (c) 1996-2012 Texas Instruments Incorporated
C:\Users\a0272466\AppData\Local\Temp\0274010                         PAGE   58

    2843                      .dwattr $C$DW$188, DW_AT_TI_symbol_name("_PCLKCR13")
    2844                      .dwattr $C$DW$188, DW_AT_data_member_location[DW_OP_plus_uconst 0x3c]
    2845                      .dwattr $C$DW$188, DW_AT_accessibility(DW_ACCESS_public)
    2846              $C$DW$189       .dwtag  DW_TAG_member
    2847                      .dwattr $C$DW$189, DW_AT_type(*$C$DW$T$71)
    2848                      .dwattr $C$DW$189, DW_AT_name("PCLKCR14")
    2849                      .dwattr $C$DW$189, DW_AT_TI_symbol_name("_PCLKCR14")
    2850                      .dwattr $C$DW$189, DW_AT_data_member_location[DW_OP_plus_uconst 0x3e]
    2851                      .dwattr $C$DW$189, DW_AT_accessibility(DW_ACCESS_public)
    2852              $C$DW$190       .dwtag  DW_TAG_member
    2853                      .dwattr $C$DW$190, DW_AT_type(*$C$DW$T$27)
    2854                      .dwattr $C$DW$190, DW_AT_name("rsvd3")
    2855                      .dwattr $C$DW$190, DW_AT_TI_symbol_name("_rsvd3")
    2856                      .dwattr $C$DW$190, DW_AT_data_member_location[DW_OP_plus_uconst 0x40]
    2857                      .dwattr $C$DW$190, DW_AT_accessibility(DW_ACCESS_public)
    2858              $C$DW$191       .dwtag  DW_TAG_member
    2859                      .dwattr $C$DW$191, DW_AT_type(*$C$DW$T$73)
    2860                      .dwattr $C$DW$191, DW_AT_name("PCLKCR16")
    2861                      .dwattr $C$DW$191, DW_AT_TI_symbol_name("_PCLKCR16")
    2862                      .dwattr $C$DW$191, DW_AT_data_member_location[DW_OP_plus_uconst 0x42]
    2863                      .dwattr $C$DW$191, DW_AT_accessibility(DW_ACCESS_public)
    2864              $C$DW$192       .dwtag  DW_TAG_member
    2865                      .dwattr $C$DW$192, DW_AT_type(*$C$DW$T$28)
    2866                      .dwattr $C$DW$192, DW_AT_name("rsvd4")
    2867                      .dwattr $C$DW$192, DW_AT_TI_symbol_name("_rsvd4")
    2868                      .dwattr $C$DW$192, DW_AT_data_member_location[DW_OP_plus_uconst 0x44]
    2869                      .dwattr $C$DW$192, DW_AT_accessibility(DW_ACCESS_public)
    2870              $C$DW$193       .dwtag  DW_TAG_member
    2871                      .dwattr $C$DW$193, DW_AT_type(*$C$DW$T$22)
    2872                      .dwattr $C$DW$193, DW_AT_name("CCR")
    2873                      .dwattr $C$DW$193, DW_AT_TI_symbol_name("_CCR")
    2874                      .dwattr $C$DW$193, DW_AT_data_member_location[DW_OP_plus_uconst 0x72]
    2875                      .dwattr $C$DW$193, DW_AT_accessibility(DW_ACCESS_public)
    2876              $C$DW$194       .dwtag  DW_TAG_member
    2877                      .dwattr $C$DW$194, DW_AT_type(*$C$DW$T$156)
    2878                      .dwattr $C$DW$194, DW_AT_name("SECMSEL")
    2879                      .dwattr $C$DW$194, DW_AT_TI_symbol_name("_SECMSEL")
    2880                      .dwattr $C$DW$194, DW_AT_data_member_location[DW_OP_plus_uconst 0x74]
    2881                      .dwattr $C$DW$194, DW_AT_accessibility(DW_ACCESS_public)
    2882              $C$DW$195       .dwtag  DW_TAG_member
    2883                      .dwattr $C$DW$195, DW_AT_type(*$C$DW$T$48)
    2884                      .dwattr $C$DW$195, DW_AT_name("LPMCR")
    2885                      .dwattr $C$DW$195, DW_AT_TI_symbol_name("_LPMCR")
    2886                      .dwattr $C$DW$195, DW_AT_data_member_location[DW_OP_plus_uconst 0x76]
    2887                      .dwattr $C$DW$195, DW_AT_accessibility(DW_ACCESS_public)
    2888              $C$DW$196       .dwtag  DW_TAG_member
    2889                      .dwattr $C$DW$196, DW_AT_type(*$C$DW$T$31)
    2890                      .dwattr $C$DW$196, DW_AT_name("GPIOLPMSEL0")
    2891                      .dwattr $C$DW$196, DW_AT_TI_symbol_name("_GPIOLPMSEL0")
    2892                      .dwattr $C$DW$196, DW_AT_data_member_location[DW_OP_plus_uconst 0x78]
    2893                      .dwattr $C$DW$196, DW_AT_accessibility(DW_ACCESS_public)
    2894              $C$DW$197       .dwtag  DW_TAG_member
    2895                      .dwattr $C$DW$197, DW_AT_type(*$C$DW$T$33)
    2896                      .dwattr $C$DW$197, DW_AT_name("GPIOLPMSEL1")
    2897                      .dwattr $C$DW$197, DW_AT_TI_symbol_name("_GPIOLPMSEL1")
TMS320C2000 Assembler PC v6.1.3 Thu Jan 30 10:26:14 2014

Tools Copyright (c) 1996-2012 Texas Instruments Incorporated
C:\Users\a0272466\AppData\Local\Temp\0274010                         PAGE   59

    2898                      .dwattr $C$DW$197, DW_AT_data_member_location[DW_OP_plus_uconst 0x7a]
    2899                      .dwattr $C$DW$197, DW_AT_accessibility(DW_ACCESS_public)
    2900              $C$DW$198       .dwtag  DW_TAG_member
    2901                      .dwattr $C$DW$198, DW_AT_type(*$C$DW$T$158)
    2902                      .dwattr $C$DW$198, DW_AT_name("TMR2CLKCTL")
    2903                      .dwattr $C$DW$198, DW_AT_TI_symbol_name("_TMR2CLKCTL")
    2904                      .dwattr $C$DW$198, DW_AT_data_member_location[DW_OP_plus_uconst 0x7c]
    2905                      .dwattr $C$DW$198, DW_AT_accessibility(DW_ACCESS_public)
    2906              $C$DW$199       .dwtag  DW_TAG_member
    2907                      .dwattr $C$DW$199, DW_AT_type(*$C$DW$T$27)
    2908                      .dwattr $C$DW$199, DW_AT_name("rsvd5")
    2909                      .dwattr $C$DW$199, DW_AT_TI_symbol_name("_rsvd5")
    2910                      .dwattr $C$DW$199, DW_AT_data_member_location[DW_OP_plus_uconst 0x7e]
    2911                      .dwattr $C$DW$199, DW_AT_accessibility(DW_ACCESS_public)
    2912              $C$DW$200       .dwtag  DW_TAG_member
    2913                      .dwattr $C$DW$200, DW_AT_type(*$C$DW$T$154)
    2914                      .dwattr $C$DW$200, DW_AT_name("RESC")
    2915                      .dwattr $C$DW$200, DW_AT_TI_symbol_name("_RESC")
    2916                      .dwattr $C$DW$200, DW_AT_data_member_location[DW_OP_plus_uconst 0x80]
    2917                      .dwattr $C$DW$200, DW_AT_accessibility(DW_ACCESS_public)
    2918                      .dwendtag $C$DW$T$29
    2919              
    2920              $C$DW$201       .dwtag  DW_TAG_TI_far_type
    2921                      .dwattr $C$DW$201, DW_AT_type(*$C$DW$T$29)
    2922              $C$DW$T$165     .dwtag  DW_TAG_volatile_type
    2923                      .dwattr $C$DW$T$165, DW_AT_type(*$C$DW$201)
    2924              
    2925              $C$DW$T$30      .dwtag  DW_TAG_structure_type
    2926                      .dwattr $C$DW$T$30, DW_AT_name("GPIOLPMSEL0_BITS")
    2927                      .dwattr $C$DW$T$30, DW_AT_byte_size(0x02)
    2928              $C$DW$202       .dwtag  DW_TAG_member
    2929                      .dwattr $C$DW$202, DW_AT_type(*$C$DW$T$19)
    2930                      .dwattr $C$DW$202, DW_AT_name("GPIO0")
    2931                      .dwattr $C$DW$202, DW_AT_TI_symbol_name("_GPIO0")
    2932                      .dwattr $C$DW$202, DW_AT_bit_offset(0x0f), DW_AT_bit_size(0x01)
    2933                      .dwattr $C$DW$202, DW_AT_data_member_location[DW_OP_plus_uconst 0x0]
    2934                      .dwattr $C$DW$202, DW_AT_accessibility(DW_ACCESS_public)
    2935              $C$DW$203       .dwtag  DW_TAG_member
    2936                      .dwattr $C$DW$203, DW_AT_type(*$C$DW$T$19)
    2937                      .dwattr $C$DW$203, DW_AT_name("GPIO1")
    2938                      .dwattr $C$DW$203, DW_AT_TI_symbol_name("_GPIO1")
    2939                      .dwattr $C$DW$203, DW_AT_bit_offset(0x0e), DW_AT_bit_size(0x01)
    2940                      .dwattr $C$DW$203, DW_AT_data_member_location[DW_OP_plus_uconst 0x0]
    2941                      .dwattr $C$DW$203, DW_AT_accessibility(DW_ACCESS_public)
    2942              $C$DW$204       .dwtag  DW_TAG_member
    2943                      .dwattr $C$DW$204, DW_AT_type(*$C$DW$T$19)
    2944                      .dwattr $C$DW$204, DW_AT_name("GPIO2")
    2945                      .dwattr $C$DW$204, DW_AT_TI_symbol_name("_GPIO2")
    2946                      .dwattr $C$DW$204, DW_AT_bit_offset(0x0d), DW_AT_bit_size(0x01)
    2947                      .dwattr $C$DW$204, DW_AT_data_member_location[DW_OP_plus_uconst 0x0]
    2948                      .dwattr $C$DW$204, DW_AT_accessibility(DW_ACCESS_public)
    2949              $C$DW$205       .dwtag  DW_TAG_member
    2950                      .dwattr $C$DW$205, DW_AT_type(*$C$DW$T$19)
    2951                      .dwattr $C$DW$205, DW_AT_name("GPIO3")
    2952                      .dwattr $C$DW$205, DW_AT_TI_symbol_name("_GPIO3")
TMS320C2000 Assembler PC v6.1.3 Thu Jan 30 10:26:14 2014

Tools Copyright (c) 1996-2012 Texas Instruments Incorporated
C:\Users\a0272466\AppData\Local\Temp\0274010                         PAGE   60

    2953                      .dwattr $C$DW$205, DW_AT_bit_offset(0x0c), DW_AT_bit_size(0x01)
    2954                      .dwattr $C$DW$205, DW_AT_data_member_location[DW_OP_plus_uconst 0x0]
    2955                      .dwattr $C$DW$205, DW_AT_accessibility(DW_ACCESS_public)
    2956              $C$DW$206       .dwtag  DW_TAG_member
    2957                      .dwattr $C$DW$206, DW_AT_type(*$C$DW$T$19)
    2958                      .dwattr $C$DW$206, DW_AT_name("GPIO4")
    2959                      .dwattr $C$DW$206, DW_AT_TI_symbol_name("_GPIO4")
    2960                      .dwattr $C$DW$206, DW_AT_bit_offset(0x0b), DW_AT_bit_size(0x01)
    2961                      .dwattr $C$DW$206, DW_AT_data_member_location[DW_OP_plus_uconst 0x0]
    2962                      .dwattr $C$DW$206, DW_AT_accessibility(DW_ACCESS_public)
    2963              $C$DW$207       .dwtag  DW_TAG_member
    2964                      .dwattr $C$DW$207, DW_AT_type(*$C$DW$T$19)
    2965                      .dwattr $C$DW$207, DW_AT_name("GPIO5")
    2966                      .dwattr $C$DW$207, DW_AT_TI_symbol_name("_GPIO5")
    2967                      .dwattr $C$DW$207, DW_AT_bit_offset(0x0a), DW_AT_bit_size(0x01)
    2968                      .dwattr $C$DW$207, DW_AT_data_member_location[DW_OP_plus_uconst 0x0]
    2969                      .dwattr $C$DW$207, DW_AT_accessibility(DW_ACCESS_public)
    2970              $C$DW$208       .dwtag  DW_TAG_member
    2971                      .dwattr $C$DW$208, DW_AT_type(*$C$DW$T$19)
    2972                      .dwattr $C$DW$208, DW_AT_name("GPIO6")
    2973                      .dwattr $C$DW$208, DW_AT_TI_symbol_name("_GPIO6")
    2974                      .dwattr $C$DW$208, DW_AT_bit_offset(0x09), DW_AT_bit_size(0x01)
    2975                      .dwattr $C$DW$208, DW_AT_data_member_location[DW_OP_plus_uconst 0x0]
    2976                      .dwattr $C$DW$208, DW_AT_accessibility(DW_ACCESS_public)
    2977              $C$DW$209       .dwtag  DW_TAG_member
    2978                      .dwattr $C$DW$209, DW_AT_type(*$C$DW$T$19)
    2979                      .dwattr $C$DW$209, DW_AT_name("GPIO7")
    2980                      .dwattr $C$DW$209, DW_AT_TI_symbol_name("_GPIO7")
    2981                      .dwattr $C$DW$209, DW_AT_bit_offset(0x08), DW_AT_bit_size(0x01)
    2982                      .dwattr $C$DW$209, DW_AT_data_member_location[DW_OP_plus_uconst 0x0]
    2983                      .dwattr $C$DW$209, DW_AT_accessibility(DW_ACCESS_public)
    2984              $C$DW$210       .dwtag  DW_TAG_member
    2985                      .dwattr $C$DW$210, DW_AT_type(*$C$DW$T$19)
    2986                      .dwattr $C$DW$210, DW_AT_name("GPIO8")
    2987                      .dwattr $C$DW$210, DW_AT_TI_symbol_name("_GPIO8")
    2988                      .dwattr $C$DW$210, DW_AT_bit_offset(0x07), DW_AT_bit_size(0x01)
    2989                      .dwattr $C$DW$210, DW_AT_data_member_location[DW_OP_plus_uconst 0x0]
    2990                      .dwattr $C$DW$210, DW_AT_accessibility(DW_ACCESS_public)
    2991              $C$DW$211       .dwtag  DW_TAG_member
    2992                      .dwattr $C$DW$211, DW_AT_type(*$C$DW$T$19)
    2993                      .dwattr $C$DW$211, DW_AT_name("GPIO9")
    2994                      .dwattr $C$DW$211, DW_AT_TI_symbol_name("_GPIO9")
    2995                      .dwattr $C$DW$211, DW_AT_bit_offset(0x06), DW_AT_bit_size(0x01)
    2996                      .dwattr $C$DW$211, DW_AT_data_member_location[DW_OP_plus_uconst 0x0]
    2997                      .dwattr $C$DW$211, DW_AT_accessibility(DW_ACCESS_public)
    2998              $C$DW$212       .dwtag  DW_TAG_member
    2999                      .dwattr $C$DW$212, DW_AT_type(*$C$DW$T$19)
    3000                      .dwattr $C$DW$212, DW_AT_name("GPIO10")
    3001                      .dwattr $C$DW$212, DW_AT_TI_symbol_name("_GPIO10")
    3002                      .dwattr $C$DW$212, DW_AT_bit_offset(0x05), DW_AT_bit_size(0x01)
    3003                      .dwattr $C$DW$212, DW_AT_data_member_location[DW_OP_plus_uconst 0x0]
    3004                      .dwattr $C$DW$212, DW_AT_accessibility(DW_ACCESS_public)
    3005              $C$DW$213       .dwtag  DW_TAG_member
    3006                      .dwattr $C$DW$213, DW_AT_type(*$C$DW$T$19)
    3007                      .dwattr $C$DW$213, DW_AT_name("GPIO11")
TMS320C2000 Assembler PC v6.1.3 Thu Jan 30 10:26:14 2014

Tools Copyright (c) 1996-2012 Texas Instruments Incorporated
C:\Users\a0272466\AppData\Local\Temp\0274010                         PAGE   61

    3008                      .dwattr $C$DW$213, DW_AT_TI_symbol_name("_GPIO11")
    3009                      .dwattr $C$DW$213, DW_AT_bit_offset(0x04), DW_AT_bit_size(0x01)
    3010                      .dwattr $C$DW$213, DW_AT_data_member_location[DW_OP_plus_uconst 0x0]
    3011                      .dwattr $C$DW$213, DW_AT_accessibility(DW_ACCESS_public)
    3012              $C$DW$214       .dwtag  DW_TAG_member
    3013                      .dwattr $C$DW$214, DW_AT_type(*$C$DW$T$19)
    3014                      .dwattr $C$DW$214, DW_AT_name("GPIO12")
    3015                      .dwattr $C$DW$214, DW_AT_TI_symbol_name("_GPIO12")
    3016                      .dwattr $C$DW$214, DW_AT_bit_offset(0x03), DW_AT_bit_size(0x01)
    3017                      .dwattr $C$DW$214, DW_AT_data_member_location[DW_OP_plus_uconst 0x0]
    3018                      .dwattr $C$DW$214, DW_AT_accessibility(DW_ACCESS_public)
    3019              $C$DW$215       .dwtag  DW_TAG_member
    3020                      .dwattr $C$DW$215, DW_AT_type(*$C$DW$T$19)
    3021                      .dwattr $C$DW$215, DW_AT_name("GPIO13")
    3022                      .dwattr $C$DW$215, DW_AT_TI_symbol_name("_GPIO13")
    3023                      .dwattr $C$DW$215, DW_AT_bit_offset(0x02), DW_AT_bit_size(0x01)
    3024                      .dwattr $C$DW$215, DW_AT_data_member_location[DW_OP_plus_uconst 0x0]
    3025                      .dwattr $C$DW$215, DW_AT_accessibility(DW_ACCESS_public)
    3026              $C$DW$216       .dwtag  DW_TAG_member
    3027                      .dwattr $C$DW$216, DW_AT_type(*$C$DW$T$19)
    3028                      .dwattr $C$DW$216, DW_AT_name("GPIO14")
    3029                      .dwattr $C$DW$216, DW_AT_TI_symbol_name("_GPIO14")
    3030                      .dwattr $C$DW$216, DW_AT_bit_offset(0x01), DW_AT_bit_size(0x01)
    3031                      .dwattr $C$DW$216, DW_AT_data_member_location[DW_OP_plus_uconst 0x0]
    3032                      .dwattr $C$DW$216, DW_AT_accessibility(DW_ACCESS_public)
    3033              $C$DW$217       .dwtag  DW_TAG_member
    3034                      .dwattr $C$DW$217, DW_AT_type(*$C$DW$T$19)
    3035                      .dwattr $C$DW$217, DW_AT_name("GPIO15")
    3036                      .dwattr $C$DW$217, DW_AT_TI_symbol_name("_GPIO15")
    3037                      .dwattr $C$DW$217, DW_AT_bit_offset(0x00), DW_AT_bit_size(0x01)
    3038                      .dwattr $C$DW$217, DW_AT_data_member_location[DW_OP_plus_uconst 0x0]
    3039                      .dwattr $C$DW$217, DW_AT_accessibility(DW_ACCESS_public)
    3040              $C$DW$218       .dwtag  DW_TAG_member
    3041                      .dwattr $C$DW$218, DW_AT_type(*$C$DW$T$19)
    3042                      .dwattr $C$DW$218, DW_AT_name("GPIO16")
    3043                      .dwattr $C$DW$218, DW_AT_TI_symbol_name("_GPIO16")
    3044                      .dwattr $C$DW$218, DW_AT_bit_offset(0x0f), DW_AT_bit_size(0x01)
    3045                      .dwattr $C$DW$218, DW_AT_data_member_location[DW_OP_plus_uconst 0x1]
    3046                      .dwattr $C$DW$218, DW_AT_accessibility(DW_ACCESS_public)
    3047              $C$DW$219       .dwtag  DW_TAG_member
    3048                      .dwattr $C$DW$219, DW_AT_type(*$C$DW$T$19)
    3049                      .dwattr $C$DW$219, DW_AT_name("GPIO17")
    3050                      .dwattr $C$DW$219, DW_AT_TI_symbol_name("_GPIO17")
    3051                      .dwattr $C$DW$219, DW_AT_bit_offset(0x0e), DW_AT_bit_size(0x01)
    3052                      .dwattr $C$DW$219, DW_AT_data_member_location[DW_OP_plus_uconst 0x1]
    3053                      .dwattr $C$DW$219, DW_AT_accessibility(DW_ACCESS_public)
    3054              $C$DW$220       .dwtag  DW_TAG_member
    3055                      .dwattr $C$DW$220, DW_AT_type(*$C$DW$T$19)
    3056                      .dwattr $C$DW$220, DW_AT_name("GPIO18")
    3057                      .dwattr $C$DW$220, DW_AT_TI_symbol_name("_GPIO18")
    3058                      .dwattr $C$DW$220, DW_AT_bit_offset(0x0d), DW_AT_bit_size(0x01)
    3059                      .dwattr $C$DW$220, DW_AT_data_member_location[DW_OP_plus_uconst 0x1]
    3060                      .dwattr $C$DW$220, DW_AT_accessibility(DW_ACCESS_public)
    3061              $C$DW$221       .dwtag  DW_TAG_member
    3062                      .dwattr $C$DW$221, DW_AT_type(*$C$DW$T$19)
TMS320C2000 Assembler PC v6.1.3 Thu Jan 30 10:26:14 2014

Tools Copyright (c) 1996-2012 Texas Instruments Incorporated
C:\Users\a0272466\AppData\Local\Temp\0274010                         PAGE   62

    3063                      .dwattr $C$DW$221, DW_AT_name("GPIO19")
    3064                      .dwattr $C$DW$221, DW_AT_TI_symbol_name("_GPIO19")
    3065                      .dwattr $C$DW$221, DW_AT_bit_offset(0x0c), DW_AT_bit_size(0x01)
    3066                      .dwattr $C$DW$221, DW_AT_data_member_location[DW_OP_plus_uconst 0x1]
    3067                      .dwattr $C$DW$221, DW_AT_accessibility(DW_ACCESS_public)
    3068              $C$DW$222       .dwtag  DW_TAG_member
    3069                      .dwattr $C$DW$222, DW_AT_type(*$C$DW$T$19)
    3070                      .dwattr $C$DW$222, DW_AT_name("GPIO20")
    3071                      .dwattr $C$DW$222, DW_AT_TI_symbol_name("_GPIO20")
    3072                      .dwattr $C$DW$222, DW_AT_bit_offset(0x0b), DW_AT_bit_size(0x01)
    3073                      .dwattr $C$DW$222, DW_AT_data_member_location[DW_OP_plus_uconst 0x1]
    3074                      .dwattr $C$DW$222, DW_AT_accessibility(DW_ACCESS_public)
    3075              $C$DW$223       .dwtag  DW_TAG_member
    3076                      .dwattr $C$DW$223, DW_AT_type(*$C$DW$T$19)
    3077                      .dwattr $C$DW$223, DW_AT_name("GPIO21")
    3078                      .dwattr $C$DW$223, DW_AT_TI_symbol_name("_GPIO21")
    3079                      .dwattr $C$DW$223, DW_AT_bit_offset(0x0a), DW_AT_bit_size(0x01)
    3080                      .dwattr $C$DW$223, DW_AT_data_member_location[DW_OP_plus_uconst 0x1]
    3081                      .dwattr $C$DW$223, DW_AT_accessibility(DW_ACCESS_public)
    3082              $C$DW$224       .dwtag  DW_TAG_member
    3083                      .dwattr $C$DW$224, DW_AT_type(*$C$DW$T$19)
    3084                      .dwattr $C$DW$224, DW_AT_name("GPIO22")
    3085                      .dwattr $C$DW$224, DW_AT_TI_symbol_name("_GPIO22")
    3086                      .dwattr $C$DW$224, DW_AT_bit_offset(0x09), DW_AT_bit_size(0x01)
    3087                      .dwattr $C$DW$224, DW_AT_data_member_location[DW_OP_plus_uconst 0x1]
    3088                      .dwattr $C$DW$224, DW_AT_accessibility(DW_ACCESS_public)
    3089              $C$DW$225       .dwtag  DW_TAG_member
    3090                      .dwattr $C$DW$225, DW_AT_type(*$C$DW$T$19)
    3091                      .dwattr $C$DW$225, DW_AT_name("GPIO23")
    3092                      .dwattr $C$DW$225, DW_AT_TI_symbol_name("_GPIO23")
    3093                      .dwattr $C$DW$225, DW_AT_bit_offset(0x08), DW_AT_bit_size(0x01)
    3094                      .dwattr $C$DW$225, DW_AT_data_member_location[DW_OP_plus_uconst 0x1]
    3095                      .dwattr $C$DW$225, DW_AT_accessibility(DW_ACCESS_public)
    3096              $C$DW$226       .dwtag  DW_TAG_member
    3097                      .dwattr $C$DW$226, DW_AT_type(*$C$DW$T$19)
    3098                      .dwattr $C$DW$226, DW_AT_name("GPIO24")
    3099                      .dwattr $C$DW$226, DW_AT_TI_symbol_name("_GPIO24")
    3100                      .dwattr $C$DW$226, DW_AT_bit_offset(0x07), DW_AT_bit_size(0x01)
    3101                      .dwattr $C$DW$226, DW_AT_data_member_location[DW_OP_plus_uconst 0x1]
    3102                      .dwattr $C$DW$226, DW_AT_accessibility(DW_ACCESS_public)
    3103              $C$DW$227       .dwtag  DW_TAG_member
    3104                      .dwattr $C$DW$227, DW_AT_type(*$C$DW$T$19)
    3105                      .dwattr $C$DW$227, DW_AT_name("GPIO25")
    3106                      .dwattr $C$DW$227, DW_AT_TI_symbol_name("_GPIO25")
    3107                      .dwattr $C$DW$227, DW_AT_bit_offset(0x06), DW_AT_bit_size(0x01)
    3108                      .dwattr $C$DW$227, DW_AT_data_member_location[DW_OP_plus_uconst 0x1]
    3109                      .dwattr $C$DW$227, DW_AT_accessibility(DW_ACCESS_public)
    3110              $C$DW$228       .dwtag  DW_TAG_member
    3111                      .dwattr $C$DW$228, DW_AT_type(*$C$DW$T$19)
    3112                      .dwattr $C$DW$228, DW_AT_name("GPIO26")
    3113                      .dwattr $C$DW$228, DW_AT_TI_symbol_name("_GPIO26")
    3114                      .dwattr $C$DW$228, DW_AT_bit_offset(0x05), DW_AT_bit_size(0x01)
    3115                      .dwattr $C$DW$228, DW_AT_data_member_location[DW_OP_plus_uconst 0x1]
    3116                      .dwattr $C$DW$228, DW_AT_accessibility(DW_ACCESS_public)
    3117              $C$DW$229       .dwtag  DW_TAG_member
TMS320C2000 Assembler PC v6.1.3 Thu Jan 30 10:26:14 2014

Tools Copyright (c) 1996-2012 Texas Instruments Incorporated
C:\Users\a0272466\AppData\Local\Temp\0274010                         PAGE   63

    3118                      .dwattr $C$DW$229, DW_AT_type(*$C$DW$T$19)
    3119                      .dwattr $C$DW$229, DW_AT_name("GPIO27")
    3120                      .dwattr $C$DW$229, DW_AT_TI_symbol_name("_GPIO27")
    3121                      .dwattr $C$DW$229, DW_AT_bit_offset(0x04), DW_AT_bit_size(0x01)
    3122                      .dwattr $C$DW$229, DW_AT_data_member_location[DW_OP_plus_uconst 0x1]
    3123                      .dwattr $C$DW$229, DW_AT_accessibility(DW_ACCESS_public)
    3124              $C$DW$230       .dwtag  DW_TAG_member
    3125                      .dwattr $C$DW$230, DW_AT_type(*$C$DW$T$19)
    3126                      .dwattr $C$DW$230, DW_AT_name("GPIO28")
    3127                      .dwattr $C$DW$230, DW_AT_TI_symbol_name("_GPIO28")
    3128                      .dwattr $C$DW$230, DW_AT_bit_offset(0x03), DW_AT_bit_size(0x01)
    3129                      .dwattr $C$DW$230, DW_AT_data_member_location[DW_OP_plus_uconst 0x1]
    3130                      .dwattr $C$DW$230, DW_AT_accessibility(DW_ACCESS_public)
    3131              $C$DW$231       .dwtag  DW_TAG_member
    3132                      .dwattr $C$DW$231, DW_AT_type(*$C$DW$T$19)
    3133                      .dwattr $C$DW$231, DW_AT_name("GPIO29")
    3134                      .dwattr $C$DW$231, DW_AT_TI_symbol_name("_GPIO29")
    3135                      .dwattr $C$DW$231, DW_AT_bit_offset(0x02), DW_AT_bit_size(0x01)
    3136                      .dwattr $C$DW$231, DW_AT_data_member_location[DW_OP_plus_uconst 0x1]
    3137                      .dwattr $C$DW$231, DW_AT_accessibility(DW_ACCESS_public)
    3138              $C$DW$232       .dwtag  DW_TAG_member
    3139                      .dwattr $C$DW$232, DW_AT_type(*$C$DW$T$19)
    3140                      .dwattr $C$DW$232, DW_AT_name("GPIO30")
    3141                      .dwattr $C$DW$232, DW_AT_TI_symbol_name("_GPIO30")
    3142                      .dwattr $C$DW$232, DW_AT_bit_offset(0x01), DW_AT_bit_size(0x01)
    3143                      .dwattr $C$DW$232, DW_AT_data_member_location[DW_OP_plus_uconst 0x1]
    3144                      .dwattr $C$DW$232, DW_AT_accessibility(DW_ACCESS_public)
    3145              $C$DW$233       .dwtag  DW_TAG_member
    3146                      .dwattr $C$DW$233, DW_AT_type(*$C$DW$T$19)
    3147                      .dwattr $C$DW$233, DW_AT_name("GPIO31")
    3148                      .dwattr $C$DW$233, DW_AT_TI_symbol_name("_GPIO31")
    3149                      .dwattr $C$DW$233, DW_AT_bit_offset(0x00), DW_AT_bit_size(0x01)
    3150                      .dwattr $C$DW$233, DW_AT_data_member_location[DW_OP_plus_uconst 0x1]
    3151                      .dwattr $C$DW$233, DW_AT_accessibility(DW_ACCESS_public)
    3152                      .dwendtag $C$DW$T$30
    3153              
    3154              
    3155              $C$DW$T$31      .dwtag  DW_TAG_union_type
    3156                      .dwattr $C$DW$T$31, DW_AT_name("GPIOLPMSEL0_REG")
    3157                      .dwattr $C$DW$T$31, DW_AT_byte_size(0x02)
    3158              $C$DW$234       .dwtag  DW_TAG_member
    3159                      .dwattr $C$DW$234, DW_AT_type(*$C$DW$T$21)
    3160                      .dwattr $C$DW$234, DW_AT_name("all")
    3161                      .dwattr $C$DW$234, DW_AT_TI_symbol_name("_all")
    3162                      .dwattr $C$DW$234, DW_AT_data_member_location[DW_OP_plus_uconst 0x0]
    3163                      .dwattr $C$DW$234, DW_AT_accessibility(DW_ACCESS_public)
    3164              $C$DW$235       .dwtag  DW_TAG_member
    3165                      .dwattr $C$DW$235, DW_AT_type(*$C$DW$T$30)
    3166                      .dwattr $C$DW$235, DW_AT_name("bit")
    3167                      .dwattr $C$DW$235, DW_AT_TI_symbol_name("_bit")
    3168                      .dwattr $C$DW$235, DW_AT_data_member_location[DW_OP_plus_uconst 0x0]
    3169                      .dwattr $C$DW$235, DW_AT_accessibility(DW_ACCESS_public)
    3170                      .dwendtag $C$DW$T$31
    3171              
    3172              
TMS320C2000 Assembler PC v6.1.3 Thu Jan 30 10:26:14 2014

Tools Copyright (c) 1996-2012 Texas Instruments Incorporated
C:\Users\a0272466\AppData\Local\Temp\0274010                         PAGE   64

    3173              $C$DW$T$32      .dwtag  DW_TAG_structure_type
    3174                      .dwattr $C$DW$T$32, DW_AT_name("GPIOLPMSEL1_BITS")
    3175                      .dwattr $C$DW$T$32, DW_AT_byte_size(0x02)
    3176              $C$DW$236       .dwtag  DW_TAG_member
    3177                      .dwattr $C$DW$236, DW_AT_type(*$C$DW$T$19)
    3178                      .dwattr $C$DW$236, DW_AT_name("GPIO32")
    3179                      .dwattr $C$DW$236, DW_AT_TI_symbol_name("_GPIO32")
    3180                      .dwattr $C$DW$236, DW_AT_bit_offset(0x0f), DW_AT_bit_size(0x01)
    3181                      .dwattr $C$DW$236, DW_AT_data_member_location[DW_OP_plus_uconst 0x0]
    3182                      .dwattr $C$DW$236, DW_AT_accessibility(DW_ACCESS_public)
    3183              $C$DW$237       .dwtag  DW_TAG_member
    3184                      .dwattr $C$DW$237, DW_AT_type(*$C$DW$T$19)
    3185                      .dwattr $C$DW$237, DW_AT_name("GPIO33")
    3186                      .dwattr $C$DW$237, DW_AT_TI_symbol_name("_GPIO33")
    3187                      .dwattr $C$DW$237, DW_AT_bit_offset(0x0e), DW_AT_bit_size(0x01)
    3188                      .dwattr $C$DW$237, DW_AT_data_member_location[DW_OP_plus_uconst 0x0]
    3189                      .dwattr $C$DW$237, DW_AT_accessibility(DW_ACCESS_public)
    3190              $C$DW$238       .dwtag  DW_TAG_member
    3191                      .dwattr $C$DW$238, DW_AT_type(*$C$DW$T$19)
    3192                      .dwattr $C$DW$238, DW_AT_name("GPIO34")
    3193                      .dwattr $C$DW$238, DW_AT_TI_symbol_name("_GPIO34")
    3194                      .dwattr $C$DW$238, DW_AT_bit_offset(0x0d), DW_AT_bit_size(0x01)
    3195                      .dwattr $C$DW$238, DW_AT_data_member_location[DW_OP_plus_uconst 0x0]
    3196                      .dwattr $C$DW$238, DW_AT_accessibility(DW_ACCESS_public)
    3197              $C$DW$239       .dwtag  DW_TAG_member
    3198                      .dwattr $C$DW$239, DW_AT_type(*$C$DW$T$19)
    3199                      .dwattr $C$DW$239, DW_AT_name("GPIO35")
    3200                      .dwattr $C$DW$239, DW_AT_TI_symbol_name("_GPIO35")
    3201                      .dwattr $C$DW$239, DW_AT_bit_offset(0x0c), DW_AT_bit_size(0x01)
    3202                      .dwattr $C$DW$239, DW_AT_data_member_location[DW_OP_plus_uconst 0x0]
    3203                      .dwattr $C$DW$239, DW_AT_accessibility(DW_ACCESS_public)
    3204              $C$DW$240       .dwtag  DW_TAG_member
    3205                      .dwattr $C$DW$240, DW_AT_type(*$C$DW$T$19)
    3206                      .dwattr $C$DW$240, DW_AT_name("GPIO36")
    3207                      .dwattr $C$DW$240, DW_AT_TI_symbol_name("_GPIO36")
    3208                      .dwattr $C$DW$240, DW_AT_bit_offset(0x0b), DW_AT_bit_size(0x01)
    3209                      .dwattr $C$DW$240, DW_AT_data_member_location[DW_OP_plus_uconst 0x0]
    3210                      .dwattr $C$DW$240, DW_AT_accessibility(DW_ACCESS_public)
    3211              $C$DW$241       .dwtag  DW_TAG_member
    3212                      .dwattr $C$DW$241, DW_AT_type(*$C$DW$T$19)
    3213                      .dwattr $C$DW$241, DW_AT_name("GPIO37")
    3214                      .dwattr $C$DW$241, DW_AT_TI_symbol_name("_GPIO37")
    3215                      .dwattr $C$DW$241, DW_AT_bit_offset(0x0a), DW_AT_bit_size(0x01)
    3216                      .dwattr $C$DW$241, DW_AT_data_member_location[DW_OP_plus_uconst 0x0]
    3217                      .dwattr $C$DW$241, DW_AT_accessibility(DW_ACCESS_public)
    3218              $C$DW$242       .dwtag  DW_TAG_member
    3219                      .dwattr $C$DW$242, DW_AT_type(*$C$DW$T$19)
    3220                      .dwattr $C$DW$242, DW_AT_name("GPIO38")
    3221                      .dwattr $C$DW$242, DW_AT_TI_symbol_name("_GPIO38")
    3222                      .dwattr $C$DW$242, DW_AT_bit_offset(0x09), DW_AT_bit_size(0x01)
    3223                      .dwattr $C$DW$242, DW_AT_data_member_location[DW_OP_plus_uconst 0x0]
    3224                      .dwattr $C$DW$242, DW_AT_accessibility(DW_ACCESS_public)
    3225              $C$DW$243       .dwtag  DW_TAG_member
    3226                      .dwattr $C$DW$243, DW_AT_type(*$C$DW$T$19)
    3227                      .dwattr $C$DW$243, DW_AT_name("GPIO39")
TMS320C2000 Assembler PC v6.1.3 Thu Jan 30 10:26:14 2014

Tools Copyright (c) 1996-2012 Texas Instruments Incorporated
C:\Users\a0272466\AppData\Local\Temp\0274010                         PAGE   65

    3228                      .dwattr $C$DW$243, DW_AT_TI_symbol_name("_GPIO39")
    3229                      .dwattr $C$DW$243, DW_AT_bit_offset(0x08), DW_AT_bit_size(0x01)
    3230                      .dwattr $C$DW$243, DW_AT_data_member_location[DW_OP_plus_uconst 0x0]
    3231                      .dwattr $C$DW$243, DW_AT_accessibility(DW_ACCESS_public)
    3232              $C$DW$244       .dwtag  DW_TAG_member
    3233                      .dwattr $C$DW$244, DW_AT_type(*$C$DW$T$19)
    3234                      .dwattr $C$DW$244, DW_AT_name("GPIO40")
    3235                      .dwattr $C$DW$244, DW_AT_TI_symbol_name("_GPIO40")
    3236                      .dwattr $C$DW$244, DW_AT_bit_offset(0x07), DW_AT_bit_size(0x01)
    3237                      .dwattr $C$DW$244, DW_AT_data_member_location[DW_OP_plus_uconst 0x0]
    3238                      .dwattr $C$DW$244, DW_AT_accessibility(DW_ACCESS_public)
    3239              $C$DW$245       .dwtag  DW_TAG_member
    3240                      .dwattr $C$DW$245, DW_AT_type(*$C$DW$T$19)
    3241                      .dwattr $C$DW$245, DW_AT_name("GPIO41")
    3242                      .dwattr $C$DW$245, DW_AT_TI_symbol_name("_GPIO41")
    3243                      .dwattr $C$DW$245, DW_AT_bit_offset(0x06), DW_AT_bit_size(0x01)
    3244                      .dwattr $C$DW$245, DW_AT_data_member_location[DW_OP_plus_uconst 0x0]
    3245                      .dwattr $C$DW$245, DW_AT_accessibility(DW_ACCESS_public)
    3246              $C$DW$246       .dwtag  DW_TAG_member
    3247                      .dwattr $C$DW$246, DW_AT_type(*$C$DW$T$19)
    3248                      .dwattr $C$DW$246, DW_AT_name("GPIO42")
    3249                      .dwattr $C$DW$246, DW_AT_TI_symbol_name("_GPIO42")
    3250                      .dwattr $C$DW$246, DW_AT_bit_offset(0x05), DW_AT_bit_size(0x01)
    3251                      .dwattr $C$DW$246, DW_AT_data_member_location[DW_OP_plus_uconst 0x0]
    3252                      .dwattr $C$DW$246, DW_AT_accessibility(DW_ACCESS_public)
    3253              $C$DW$247       .dwtag  DW_TAG_member
    3254                      .dwattr $C$DW$247, DW_AT_type(*$C$DW$T$19)
    3255                      .dwattr $C$DW$247, DW_AT_name("GPIO43")
    3256                      .dwattr $C$DW$247, DW_AT_TI_symbol_name("_GPIO43")
    3257                      .dwattr $C$DW$247, DW_AT_bit_offset(0x04), DW_AT_bit_size(0x01)
    3258                      .dwattr $C$DW$247, DW_AT_data_member_location[DW_OP_plus_uconst 0x0]
    3259                      .dwattr $C$DW$247, DW_AT_accessibility(DW_ACCESS_public)
    3260              $C$DW$248       .dwtag  DW_TAG_member
    3261                      .dwattr $C$DW$248, DW_AT_type(*$C$DW$T$19)
    3262                      .dwattr $C$DW$248, DW_AT_name("GPIO44")
    3263                      .dwattr $C$DW$248, DW_AT_TI_symbol_name("_GPIO44")
    3264                      .dwattr $C$DW$248, DW_AT_bit_offset(0x03), DW_AT_bit_size(0x01)
    3265                      .dwattr $C$DW$248, DW_AT_data_member_location[DW_OP_plus_uconst 0x0]
    3266                      .dwattr $C$DW$248, DW_AT_accessibility(DW_ACCESS_public)
    3267              $C$DW$249       .dwtag  DW_TAG_member
    3268                      .dwattr $C$DW$249, DW_AT_type(*$C$DW$T$19)
    3269                      .dwattr $C$DW$249, DW_AT_name("GPIO45")
    3270                      .dwattr $C$DW$249, DW_AT_TI_symbol_name("_GPIO45")
    3271                      .dwattr $C$DW$249, DW_AT_bit_offset(0x02), DW_AT_bit_size(0x01)
    3272                      .dwattr $C$DW$249, DW_AT_data_member_location[DW_OP_plus_uconst 0x0]
    3273                      .dwattr $C$DW$249, DW_AT_accessibility(DW_ACCESS_public)
    3274              $C$DW$250       .dwtag  DW_TAG_member
    3275                      .dwattr $C$DW$250, DW_AT_type(*$C$DW$T$19)
    3276                      .dwattr $C$DW$250, DW_AT_name("GPIO46")
    3277                      .dwattr $C$DW$250, DW_AT_TI_symbol_name("_GPIO46")
    3278                      .dwattr $C$DW$250, DW_AT_bit_offset(0x01), DW_AT_bit_size(0x01)
    3279                      .dwattr $C$DW$250, DW_AT_data_member_location[DW_OP_plus_uconst 0x0]
    3280                      .dwattr $C$DW$250, DW_AT_accessibility(DW_ACCESS_public)
    3281              $C$DW$251       .dwtag  DW_TAG_member
    3282                      .dwattr $C$DW$251, DW_AT_type(*$C$DW$T$19)
TMS320C2000 Assembler PC v6.1.3 Thu Jan 30 10:26:14 2014

Tools Copyright (c) 1996-2012 Texas Instruments Incorporated
C:\Users\a0272466\AppData\Local\Temp\0274010                         PAGE   66

    3283                      .dwattr $C$DW$251, DW_AT_name("GPIO47")
    3284                      .dwattr $C$DW$251, DW_AT_TI_symbol_name("_GPIO47")
    3285                      .dwattr $C$DW$251, DW_AT_bit_offset(0x00), DW_AT_bit_size(0x01)
    3286                      .dwattr $C$DW$251, DW_AT_data_member_location[DW_OP_plus_uconst 0x0]
    3287                      .dwattr $C$DW$251, DW_AT_accessibility(DW_ACCESS_public)
    3288              $C$DW$252       .dwtag  DW_TAG_member
    3289                      .dwattr $C$DW$252, DW_AT_type(*$C$DW$T$19)
    3290                      .dwattr $C$DW$252, DW_AT_name("GPIO48")
    3291                      .dwattr $C$DW$252, DW_AT_TI_symbol_name("_GPIO48")
    3292                      .dwattr $C$DW$252, DW_AT_bit_offset(0x0f), DW_AT_bit_size(0x01)
    3293                      .dwattr $C$DW$252, DW_AT_data_member_location[DW_OP_plus_uconst 0x1]
    3294                      .dwattr $C$DW$252, DW_AT_accessibility(DW_ACCESS_public)
    3295              $C$DW$253       .dwtag  DW_TAG_member
    3296                      .dwattr $C$DW$253, DW_AT_type(*$C$DW$T$19)
    3297                      .dwattr $C$DW$253, DW_AT_name("GPIO49")
    3298                      .dwattr $C$DW$253, DW_AT_TI_symbol_name("_GPIO49")
    3299                      .dwattr $C$DW$253, DW_AT_bit_offset(0x0e), DW_AT_bit_size(0x01)
    3300                      .dwattr $C$DW$253, DW_AT_data_member_location[DW_OP_plus_uconst 0x1]
    3301                      .dwattr $C$DW$253, DW_AT_accessibility(DW_ACCESS_public)
    3302              $C$DW$254       .dwtag  DW_TAG_member
    3303                      .dwattr $C$DW$254, DW_AT_type(*$C$DW$T$19)
    3304                      .dwattr $C$DW$254, DW_AT_name("GPIO50")
    3305                      .dwattr $C$DW$254, DW_AT_TI_symbol_name("_GPIO50")
    3306                      .dwattr $C$DW$254, DW_AT_bit_offset(0x0d), DW_AT_bit_size(0x01)
    3307                      .dwattr $C$DW$254, DW_AT_data_member_location[DW_OP_plus_uconst 0x1]
    3308                      .dwattr $C$DW$254, DW_AT_accessibility(DW_ACCESS_public)
    3309              $C$DW$255       .dwtag  DW_TAG_member
    3310                      .dwattr $C$DW$255, DW_AT_type(*$C$DW$T$19)
    3311                      .dwattr $C$DW$255, DW_AT_name("GPIO51")
    3312                      .dwattr $C$DW$255, DW_AT_TI_symbol_name("_GPIO51")
    3313                      .dwattr $C$DW$255, DW_AT_bit_offset(0x0c), DW_AT_bit_size(0x01)
    3314                      .dwattr $C$DW$255, DW_AT_data_member_location[DW_OP_plus_uconst 0x1]
    3315                      .dwattr $C$DW$255, DW_AT_accessibility(DW_ACCESS_public)
    3316              $C$DW$256       .dwtag  DW_TAG_member
    3317                      .dwattr $C$DW$256, DW_AT_type(*$C$DW$T$19)
    3318                      .dwattr $C$DW$256, DW_AT_name("GPIO52")
    3319                      .dwattr $C$DW$256, DW_AT_TI_symbol_name("_GPIO52")
    3320                      .dwattr $C$DW$256, DW_AT_bit_offset(0x0b), DW_AT_bit_size(0x01)
    3321                      .dwattr $C$DW$256, DW_AT_data_member_location[DW_OP_plus_uconst 0x1]
    3322                      .dwattr $C$DW$256, DW_AT_accessibility(DW_ACCESS_public)
    3323              $C$DW$257       .dwtag  DW_TAG_member
    3324                      .dwattr $C$DW$257, DW_AT_type(*$C$DW$T$19)
    3325                      .dwattr $C$DW$257, DW_AT_name("GPIO53")
    3326                      .dwattr $C$DW$257, DW_AT_TI_symbol_name("_GPIO53")
    3327                      .dwattr $C$DW$257, DW_AT_bit_offset(0x0a), DW_AT_bit_size(0x01)
    3328                      .dwattr $C$DW$257, DW_AT_data_member_location[DW_OP_plus_uconst 0x1]
    3329                      .dwattr $C$DW$257, DW_AT_accessibility(DW_ACCESS_public)
    3330              $C$DW$258       .dwtag  DW_TAG_member
    3331                      .dwattr $C$DW$258, DW_AT_type(*$C$DW$T$19)
    3332                      .dwattr $C$DW$258, DW_AT_name("GPIO54")
    3333                      .dwattr $C$DW$258, DW_AT_TI_symbol_name("_GPIO54")
    3334                      .dwattr $C$DW$258, DW_AT_bit_offset(0x09), DW_AT_bit_size(0x01)
    3335                      .dwattr $C$DW$258, DW_AT_data_member_location[DW_OP_plus_uconst 0x1]
    3336                      .dwattr $C$DW$258, DW_AT_accessibility(DW_ACCESS_public)
    3337              $C$DW$259       .dwtag  DW_TAG_member
TMS320C2000 Assembler PC v6.1.3 Thu Jan 30 10:26:14 2014

Tools Copyright (c) 1996-2012 Texas Instruments Incorporated
C:\Users\a0272466\AppData\Local\Temp\0274010                         PAGE   67

    3338                      .dwattr $C$DW$259, DW_AT_type(*$C$DW$T$19)
    3339                      .dwattr $C$DW$259, DW_AT_name("GPIO55")
    3340                      .dwattr $C$DW$259, DW_AT_TI_symbol_name("_GPIO55")
    3341                      .dwattr $C$DW$259, DW_AT_bit_offset(0x08), DW_AT_bit_size(0x01)
    3342                      .dwattr $C$DW$259, DW_AT_data_member_location[DW_OP_plus_uconst 0x1]
    3343                      .dwattr $C$DW$259, DW_AT_accessibility(DW_ACCESS_public)
    3344              $C$DW$260       .dwtag  DW_TAG_member
    3345                      .dwattr $C$DW$260, DW_AT_type(*$C$DW$T$19)
    3346                      .dwattr $C$DW$260, DW_AT_name("GPIO56")
    3347                      .dwattr $C$DW$260, DW_AT_TI_symbol_name("_GPIO56")
    3348                      .dwattr $C$DW$260, DW_AT_bit_offset(0x07), DW_AT_bit_size(0x01)
    3349                      .dwattr $C$DW$260, DW_AT_data_member_location[DW_OP_plus_uconst 0x1]
    3350                      .dwattr $C$DW$260, DW_AT_accessibility(DW_ACCESS_public)
    3351              $C$DW$261       .dwtag  DW_TAG_member
    3352                      .dwattr $C$DW$261, DW_AT_type(*$C$DW$T$19)
    3353                      .dwattr $C$DW$261, DW_AT_name("GPIO57")
    3354                      .dwattr $C$DW$261, DW_AT_TI_symbol_name("_GPIO57")
    3355                      .dwattr $C$DW$261, DW_AT_bit_offset(0x06), DW_AT_bit_size(0x01)
    3356                      .dwattr $C$DW$261, DW_AT_data_member_location[DW_OP_plus_uconst 0x1]
    3357                      .dwattr $C$DW$261, DW_AT_accessibility(DW_ACCESS_public)
    3358              $C$DW$262       .dwtag  DW_TAG_member
    3359                      .dwattr $C$DW$262, DW_AT_type(*$C$DW$T$19)
    3360                      .dwattr $C$DW$262, DW_AT_name("GPIO58")
    3361                      .dwattr $C$DW$262, DW_AT_TI_symbol_name("_GPIO58")
    3362                      .dwattr $C$DW$262, DW_AT_bit_offset(0x05), DW_AT_bit_size(0x01)
    3363                      .dwattr $C$DW$262, DW_AT_data_member_location[DW_OP_plus_uconst 0x1]
    3364                      .dwattr $C$DW$262, DW_AT_accessibility(DW_ACCESS_public)
    3365              $C$DW$263       .dwtag  DW_TAG_member
    3366                      .dwattr $C$DW$263, DW_AT_type(*$C$DW$T$19)
    3367                      .dwattr $C$DW$263, DW_AT_name("GPIO59")
    3368                      .dwattr $C$DW$263, DW_AT_TI_symbol_name("_GPIO59")
    3369                      .dwattr $C$DW$263, DW_AT_bit_offset(0x04), DW_AT_bit_size(0x01)
    3370                      .dwattr $C$DW$263, DW_AT_data_member_location[DW_OP_plus_uconst 0x1]
    3371                      .dwattr $C$DW$263, DW_AT_accessibility(DW_ACCESS_public)
    3372              $C$DW$264       .dwtag  DW_TAG_member
    3373                      .dwattr $C$DW$264, DW_AT_type(*$C$DW$T$19)
    3374                      .dwattr $C$DW$264, DW_AT_name("GPIO60")
    3375                      .dwattr $C$DW$264, DW_AT_TI_symbol_name("_GPIO60")
    3376                      .dwattr $C$DW$264, DW_AT_bit_offset(0x03), DW_AT_bit_size(0x01)
    3377                      .dwattr $C$DW$264, DW_AT_data_member_location[DW_OP_plus_uconst 0x1]
    3378                      .dwattr $C$DW$264, DW_AT_accessibility(DW_ACCESS_public)
    3379              $C$DW$265       .dwtag  DW_TAG_member
    3380                      .dwattr $C$DW$265, DW_AT_type(*$C$DW$T$19)
    3381                      .dwattr $C$DW$265, DW_AT_name("GPIO61")
    3382                      .dwattr $C$DW$265, DW_AT_TI_symbol_name("_GPIO61")
    3383                      .dwattr $C$DW$265, DW_AT_bit_offset(0x02), DW_AT_bit_size(0x01)
    3384                      .dwattr $C$DW$265, DW_AT_data_member_location[DW_OP_plus_uconst 0x1]
    3385                      .dwattr $C$DW$265, DW_AT_accessibility(DW_ACCESS_public)
    3386              $C$DW$266       .dwtag  DW_TAG_member
    3387                      .dwattr $C$DW$266, DW_AT_type(*$C$DW$T$19)
    3388                      .dwattr $C$DW$266, DW_AT_name("GPIO62")
    3389                      .dwattr $C$DW$266, DW_AT_TI_symbol_name("_GPIO62")
    3390                      .dwattr $C$DW$266, DW_AT_bit_offset(0x01), DW_AT_bit_size(0x01)
    3391                      .dwattr $C$DW$266, DW_AT_data_member_location[DW_OP_plus_uconst 0x1]
    3392                      .dwattr $C$DW$266, DW_AT_accessibility(DW_ACCESS_public)
TMS320C2000 Assembler PC v6.1.3 Thu Jan 30 10:26:14 2014

Tools Copyright (c) 1996-2012 Texas Instruments Incorporated
C:\Users\a0272466\AppData\Local\Temp\0274010                         PAGE   68

    3393              $C$DW$267       .dwtag  DW_TAG_member
    3394                      .dwattr $C$DW$267, DW_AT_type(*$C$DW$T$19)
    3395                      .dwattr $C$DW$267, DW_AT_name("GPIO63")
    3396                      .dwattr $C$DW$267, DW_AT_TI_symbol_name("_GPIO63")
    3397                      .dwattr $C$DW$267, DW_AT_bit_offset(0x00), DW_AT_bit_size(0x01)
    3398                      .dwattr $C$DW$267, DW_AT_data_member_location[DW_OP_plus_uconst 0x1]
    3399                      .dwattr $C$DW$267, DW_AT_accessibility(DW_ACCESS_public)
    3400                      .dwendtag $C$DW$T$32
    3401              
    3402              
    3403              $C$DW$T$33      .dwtag  DW_TAG_union_type
    3404                      .dwattr $C$DW$T$33, DW_AT_name("GPIOLPMSEL1_REG")
    3405                      .dwattr $C$DW$T$33, DW_AT_byte_size(0x02)
    3406              $C$DW$268       .dwtag  DW_TAG_member
    3407                      .dwattr $C$DW$268, DW_AT_type(*$C$DW$T$21)
    3408                      .dwattr $C$DW$268, DW_AT_name("all")
    3409                      .dwattr $C$DW$268, DW_AT_TI_symbol_name("_all")
    3410                      .dwattr $C$DW$268, DW_AT_data_member_location[DW_OP_plus_uconst 0x0]
    3411                      .dwattr $C$DW$268, DW_AT_accessibility(DW_ACCESS_public)
    3412              $C$DW$269       .dwtag  DW_TAG_member
    3413                      .dwattr $C$DW$269, DW_AT_type(*$C$DW$T$32)
    3414                      .dwattr $C$DW$269, DW_AT_name("bit")
    3415                      .dwattr $C$DW$269, DW_AT_TI_symbol_name("_bit")
    3416                      .dwattr $C$DW$269, DW_AT_data_member_location[DW_OP_plus_uconst 0x0]
    3417                      .dwattr $C$DW$269, DW_AT_accessibility(DW_ACCESS_public)
    3418                      .dwendtag $C$DW$T$33
    3419              
    3420              
    3421              $C$DW$T$34      .dwtag  DW_TAG_structure_type
    3422                      .dwattr $C$DW$T$34, DW_AT_name("IORESTOREADDR_BITS")
    3423                      .dwattr $C$DW$T$34, DW_AT_byte_size(0x02)
    3424              $C$DW$270       .dwtag  DW_TAG_member
    3425                      .dwattr $C$DW$270, DW_AT_type(*$C$DW$T$21)
    3426                      .dwattr $C$DW$270, DW_AT_name("ADDR")
    3427                      .dwattr $C$DW$270, DW_AT_TI_symbol_name("_ADDR")
    3428                      .dwattr $C$DW$270, DW_AT_bit_offset(0x0a), DW_AT_bit_size(0x16)
    3429                      .dwattr $C$DW$270, DW_AT_data_member_location[DW_OP_plus_uconst 0x0]
    3430                      .dwattr $C$DW$270, DW_AT_accessibility(DW_ACCESS_public)
    3431              $C$DW$271       .dwtag  DW_TAG_member
    3432                      .dwattr $C$DW$271, DW_AT_type(*$C$DW$T$19)
    3433                      .dwattr $C$DW$271, DW_AT_name("rsvd1")
    3434                      .dwattr $C$DW$271, DW_AT_TI_symbol_name("_rsvd1")
    3435                      .dwattr $C$DW$271, DW_AT_bit_offset(0x00), DW_AT_bit_size(0x0a)
    3436                      .dwattr $C$DW$271, DW_AT_data_member_location[DW_OP_plus_uconst 0x1]
    3437                      .dwattr $C$DW$271, DW_AT_accessibility(DW_ACCESS_public)
    3438                      .dwendtag $C$DW$T$34
    3439              
    3440              
    3441              $C$DW$T$35      .dwtag  DW_TAG_union_type
    3442                      .dwattr $C$DW$T$35, DW_AT_name("IORESTOREADDR_REG")
    3443                      .dwattr $C$DW$T$35, DW_AT_byte_size(0x02)
    3444              $C$DW$272       .dwtag  DW_TAG_member
    3445                      .dwattr $C$DW$272, DW_AT_type(*$C$DW$T$21)
    3446                      .dwattr $C$DW$272, DW_AT_name("all")
    3447                      .dwattr $C$DW$272, DW_AT_TI_symbol_name("_all")
TMS320C2000 Assembler PC v6.1.3 Thu Jan 30 10:26:14 2014

Tools Copyright (c) 1996-2012 Texas Instruments Incorporated
C:\Users\a0272466\AppData\Local\Temp\0274010                         PAGE   69

    3448                      .dwattr $C$DW$272, DW_AT_data_member_location[DW_OP_plus_uconst 0x0]
    3449                      .dwattr $C$DW$272, DW_AT_accessibility(DW_ACCESS_public)
    3450              $C$DW$273       .dwtag  DW_TAG_member
    3451                      .dwattr $C$DW$273, DW_AT_type(*$C$DW$T$34)
    3452                      .dwattr $C$DW$273, DW_AT_name("bit")
    3453                      .dwattr $C$DW$273, DW_AT_TI_symbol_name("_bit")
    3454                      .dwattr $C$DW$273, DW_AT_data_member_location[DW_OP_plus_uconst 0x0]
    3455                      .dwattr $C$DW$273, DW_AT_accessibility(DW_ACCESS_public)
    3456                      .dwendtag $C$DW$T$35
    3457              
    3458              
    3459              $C$DW$T$36      .dwtag  DW_TAG_structure_type
    3460                      .dwattr $C$DW$T$36, DW_AT_name("IPCACK_BITS")
    3461                      .dwattr $C$DW$T$36, DW_AT_byte_size(0x02)
    3462              $C$DW$274       .dwtag  DW_TAG_member
    3463                      .dwattr $C$DW$274, DW_AT_type(*$C$DW$T$19)
    3464                      .dwattr $C$DW$274, DW_AT_name("IPC0")
    3465                      .dwattr $C$DW$274, DW_AT_TI_symbol_name("_IPC0")
    3466                      .dwattr $C$DW$274, DW_AT_bit_offset(0x0f), DW_AT_bit_size(0x01)
    3467                      .dwattr $C$DW$274, DW_AT_data_member_location[DW_OP_plus_uconst 0x0]
    3468                      .dwattr $C$DW$274, DW_AT_accessibility(DW_ACCESS_public)
    3469              $C$DW$275       .dwtag  DW_TAG_member
    3470                      .dwattr $C$DW$275, DW_AT_type(*$C$DW$T$19)
    3471                      .dwattr $C$DW$275, DW_AT_name("IPC1")
    3472                      .dwattr $C$DW$275, DW_AT_TI_symbol_name("_IPC1")
    3473                      .dwattr $C$DW$275, DW_AT_bit_offset(0x0e), DW_AT_bit_size(0x01)
    3474                      .dwattr $C$DW$275, DW_AT_data_member_location[DW_OP_plus_uconst 0x0]
    3475                      .dwattr $C$DW$275, DW_AT_accessibility(DW_ACCESS_public)
    3476              $C$DW$276       .dwtag  DW_TAG_member
    3477                      .dwattr $C$DW$276, DW_AT_type(*$C$DW$T$19)
    3478                      .dwattr $C$DW$276, DW_AT_name("IPC2")
    3479                      .dwattr $C$DW$276, DW_AT_TI_symbol_name("_IPC2")
    3480                      .dwattr $C$DW$276, DW_AT_bit_offset(0x0d), DW_AT_bit_size(0x01)
    3481                      .dwattr $C$DW$276, DW_AT_data_member_location[DW_OP_plus_uconst 0x0]
    3482                      .dwattr $C$DW$276, DW_AT_accessibility(DW_ACCESS_public)
    3483              $C$DW$277       .dwtag  DW_TAG_member
    3484                      .dwattr $C$DW$277, DW_AT_type(*$C$DW$T$19)
    3485                      .dwattr $C$DW$277, DW_AT_name("IPC3")
    3486                      .dwattr $C$DW$277, DW_AT_TI_symbol_name("_IPC3")
    3487                      .dwattr $C$DW$277, DW_AT_bit_offset(0x0c), DW_AT_bit_size(0x01)
    3488                      .dwattr $C$DW$277, DW_AT_data_member_location[DW_OP_plus_uconst 0x0]
    3489                      .dwattr $C$DW$277, DW_AT_accessibility(DW_ACCESS_public)
    3490              $C$DW$278       .dwtag  DW_TAG_member
    3491                      .dwattr $C$DW$278, DW_AT_type(*$C$DW$T$19)
    3492                      .dwattr $C$DW$278, DW_AT_name("IPC4")
    3493                      .dwattr $C$DW$278, DW_AT_TI_symbol_name("_IPC4")
    3494                      .dwattr $C$DW$278, DW_AT_bit_offset(0x0b), DW_AT_bit_size(0x01)
    3495                      .dwattr $C$DW$278, DW_AT_data_member_location[DW_OP_plus_uconst 0x0]
    3496                      .dwattr $C$DW$278, DW_AT_accessibility(DW_ACCESS_public)
    3497              $C$DW$279       .dwtag  DW_TAG_member
    3498                      .dwattr $C$DW$279, DW_AT_type(*$C$DW$T$19)
    3499                      .dwattr $C$DW$279, DW_AT_name("IPC5")
    3500                      .dwattr $C$DW$279, DW_AT_TI_symbol_name("_IPC5")
    3501                      .dwattr $C$DW$279, DW_AT_bit_offset(0x0a), DW_AT_bit_size(0x01)
    3502                      .dwattr $C$DW$279, DW_AT_data_member_location[DW_OP_plus_uconst 0x0]
TMS320C2000 Assembler PC v6.1.3 Thu Jan 30 10:26:14 2014

Tools Copyright (c) 1996-2012 Texas Instruments Incorporated
C:\Users\a0272466\AppData\Local\Temp\0274010                         PAGE   70

    3503                      .dwattr $C$DW$279, DW_AT_accessibility(DW_ACCESS_public)
    3504              $C$DW$280       .dwtag  DW_TAG_member
    3505                      .dwattr $C$DW$280, DW_AT_type(*$C$DW$T$19)
    3506                      .dwattr $C$DW$280, DW_AT_name("IPC6")
    3507                      .dwattr $C$DW$280, DW_AT_TI_symbol_name("_IPC6")
    3508                      .dwattr $C$DW$280, DW_AT_bit_offset(0x09), DW_AT_bit_size(0x01)
    3509                      .dwattr $C$DW$280, DW_AT_data_member_location[DW_OP_plus_uconst 0x0]
    3510                      .dwattr $C$DW$280, DW_AT_accessibility(DW_ACCESS_public)
    3511              $C$DW$281       .dwtag  DW_TAG_member
    3512                      .dwattr $C$DW$281, DW_AT_type(*$C$DW$T$19)
    3513                      .dwattr $C$DW$281, DW_AT_name("IPC7")
    3514                      .dwattr $C$DW$281, DW_AT_TI_symbol_name("_IPC7")
    3515                      .dwattr $C$DW$281, DW_AT_bit_offset(0x08), DW_AT_bit_size(0x01)
    3516                      .dwattr $C$DW$281, DW_AT_data_member_location[DW_OP_plus_uconst 0x0]
    3517                      .dwattr $C$DW$281, DW_AT_accessibility(DW_ACCESS_public)
    3518              $C$DW$282       .dwtag  DW_TAG_member
    3519                      .dwattr $C$DW$282, DW_AT_type(*$C$DW$T$19)
    3520                      .dwattr $C$DW$282, DW_AT_name("IPC8")
    3521                      .dwattr $C$DW$282, DW_AT_TI_symbol_name("_IPC8")
    3522                      .dwattr $C$DW$282, DW_AT_bit_offset(0x07), DW_AT_bit_size(0x01)
    3523                      .dwattr $C$DW$282, DW_AT_data_member_location[DW_OP_plus_uconst 0x0]
    3524                      .dwattr $C$DW$282, DW_AT_accessibility(DW_ACCESS_public)
    3525              $C$DW$283       .dwtag  DW_TAG_member
    3526                      .dwattr $C$DW$283, DW_AT_type(*$C$DW$T$19)
    3527                      .dwattr $C$DW$283, DW_AT_name("IPC9")
    3528                      .dwattr $C$DW$283, DW_AT_TI_symbol_name("_IPC9")
    3529                      .dwattr $C$DW$283, DW_AT_bit_offset(0x06), DW_AT_bit_size(0x01)
    3530                      .dwattr $C$DW$283, DW_AT_data_member_location[DW_OP_plus_uconst 0x0]
    3531                      .dwattr $C$DW$283, DW_AT_accessibility(DW_ACCESS_public)
    3532              $C$DW$284       .dwtag  DW_TAG_member
    3533                      .dwattr $C$DW$284, DW_AT_type(*$C$DW$T$19)
    3534                      .dwattr $C$DW$284, DW_AT_name("IPC10")
    3535                      .dwattr $C$DW$284, DW_AT_TI_symbol_name("_IPC10")
    3536                      .dwattr $C$DW$284, DW_AT_bit_offset(0x05), DW_AT_bit_size(0x01)
    3537                      .dwattr $C$DW$284, DW_AT_data_member_location[DW_OP_plus_uconst 0x0]
    3538                      .dwattr $C$DW$284, DW_AT_accessibility(DW_ACCESS_public)
    3539              $C$DW$285       .dwtag  DW_TAG_member
    3540                      .dwattr $C$DW$285, DW_AT_type(*$C$DW$T$19)
    3541                      .dwattr $C$DW$285, DW_AT_name("IPC11")
    3542                      .dwattr $C$DW$285, DW_AT_TI_symbol_name("_IPC11")
    3543                      .dwattr $C$DW$285, DW_AT_bit_offset(0x04), DW_AT_bit_size(0x01)
    3544                      .dwattr $C$DW$285, DW_AT_data_member_location[DW_OP_plus_uconst 0x0]
    3545                      .dwattr $C$DW$285, DW_AT_accessibility(DW_ACCESS_public)
    3546              $C$DW$286       .dwtag  DW_TAG_member
    3547                      .dwattr $C$DW$286, DW_AT_type(*$C$DW$T$19)
    3548                      .dwattr $C$DW$286, DW_AT_name("IPC12")
    3549                      .dwattr $C$DW$286, DW_AT_TI_symbol_name("_IPC12")
    3550                      .dwattr $C$DW$286, DW_AT_bit_offset(0x03), DW_AT_bit_size(0x01)
    3551                      .dwattr $C$DW$286, DW_AT_data_member_location[DW_OP_plus_uconst 0x0]
    3552                      .dwattr $C$DW$286, DW_AT_accessibility(DW_ACCESS_public)
    3553              $C$DW$287       .dwtag  DW_TAG_member
    3554                      .dwattr $C$DW$287, DW_AT_type(*$C$DW$T$19)
    3555                      .dwattr $C$DW$287, DW_AT_name("IPC13")
    3556                      .dwattr $C$DW$287, DW_AT_TI_symbol_name("_IPC13")
    3557                      .dwattr $C$DW$287, DW_AT_bit_offset(0x02), DW_AT_bit_size(0x01)
TMS320C2000 Assembler PC v6.1.3 Thu Jan 30 10:26:14 2014

Tools Copyright (c) 1996-2012 Texas Instruments Incorporated
C:\Users\a0272466\AppData\Local\Temp\0274010                         PAGE   71

    3558                      .dwattr $C$DW$287, DW_AT_data_member_location[DW_OP_plus_uconst 0x0]
    3559                      .dwattr $C$DW$287, DW_AT_accessibility(DW_ACCESS_public)
    3560              $C$DW$288       .dwtag  DW_TAG_member
    3561                      .dwattr $C$DW$288, DW_AT_type(*$C$DW$T$19)
    3562                      .dwattr $C$DW$288, DW_AT_name("IPC14")
    3563                      .dwattr $C$DW$288, DW_AT_TI_symbol_name("_IPC14")
    3564                      .dwattr $C$DW$288, DW_AT_bit_offset(0x01), DW_AT_bit_size(0x01)
    3565                      .dwattr $C$DW$288, DW_AT_data_member_location[DW_OP_plus_uconst 0x0]
    3566                      .dwattr $C$DW$288, DW_AT_accessibility(DW_ACCESS_public)
    3567              $C$DW$289       .dwtag  DW_TAG_member
    3568                      .dwattr $C$DW$289, DW_AT_type(*$C$DW$T$19)
    3569                      .dwattr $C$DW$289, DW_AT_name("IPC15")
    3570                      .dwattr $C$DW$289, DW_AT_TI_symbol_name("_IPC15")
    3571                      .dwattr $C$DW$289, DW_AT_bit_offset(0x00), DW_AT_bit_size(0x01)
    3572                      .dwattr $C$DW$289, DW_AT_data_member_location[DW_OP_plus_uconst 0x0]
    3573                      .dwattr $C$DW$289, DW_AT_accessibility(DW_ACCESS_public)
    3574              $C$DW$290       .dwtag  DW_TAG_member
    3575                      .dwattr $C$DW$290, DW_AT_type(*$C$DW$T$19)
    3576                      .dwattr $C$DW$290, DW_AT_name("IPC16")
    3577                      .dwattr $C$DW$290, DW_AT_TI_symbol_name("_IPC16")
    3578                      .dwattr $C$DW$290, DW_AT_bit_offset(0x0f), DW_AT_bit_size(0x01)
    3579                      .dwattr $C$DW$290, DW_AT_data_member_location[DW_OP_plus_uconst 0x1]
    3580                      .dwattr $C$DW$290, DW_AT_accessibility(DW_ACCESS_public)
    3581              $C$DW$291       .dwtag  DW_TAG_member
    3582                      .dwattr $C$DW$291, DW_AT_type(*$C$DW$T$19)
    3583                      .dwattr $C$DW$291, DW_AT_name("IPC17")
    3584                      .dwattr $C$DW$291, DW_AT_TI_symbol_name("_IPC17")
    3585                      .dwattr $C$DW$291, DW_AT_bit_offset(0x0e), DW_AT_bit_size(0x01)
    3586                      .dwattr $C$DW$291, DW_AT_data_member_location[DW_OP_plus_uconst 0x1]
    3587                      .dwattr $C$DW$291, DW_AT_accessibility(DW_ACCESS_public)
    3588              $C$DW$292       .dwtag  DW_TAG_member
    3589                      .dwattr $C$DW$292, DW_AT_type(*$C$DW$T$19)
    3590                      .dwattr $C$DW$292, DW_AT_name("IPC18")
    3591                      .dwattr $C$DW$292, DW_AT_TI_symbol_name("_IPC18")
    3592                      .dwattr $C$DW$292, DW_AT_bit_offset(0x0d), DW_AT_bit_size(0x01)
    3593                      .dwattr $C$DW$292, DW_AT_data_member_location[DW_OP_plus_uconst 0x1]
    3594                      .dwattr $C$DW$292, DW_AT_accessibility(DW_ACCESS_public)
    3595              $C$DW$293       .dwtag  DW_TAG_member
    3596                      .dwattr $C$DW$293, DW_AT_type(*$C$DW$T$19)
    3597                      .dwattr $C$DW$293, DW_AT_name("IPC19")
    3598                      .dwattr $C$DW$293, DW_AT_TI_symbol_name("_IPC19")
    3599                      .dwattr $C$DW$293, DW_AT_bit_offset(0x0c), DW_AT_bit_size(0x01)
    3600                      .dwattr $C$DW$293, DW_AT_data_member_location[DW_OP_plus_uconst 0x1]
    3601                      .dwattr $C$DW$293, DW_AT_accessibility(DW_ACCESS_public)
    3602              $C$DW$294       .dwtag  DW_TAG_member
    3603                      .dwattr $C$DW$294, DW_AT_type(*$C$DW$T$19)
    3604                      .dwattr $C$DW$294, DW_AT_name("IPC20")
    3605                      .dwattr $C$DW$294, DW_AT_TI_symbol_name("_IPC20")
    3606                      .dwattr $C$DW$294, DW_AT_bit_offset(0x0b), DW_AT_bit_size(0x01)
    3607                      .dwattr $C$DW$294, DW_AT_data_member_location[DW_OP_plus_uconst 0x1]
    3608                      .dwattr $C$DW$294, DW_AT_accessibility(DW_ACCESS_public)
    3609              $C$DW$295       .dwtag  DW_TAG_member
    3610                      .dwattr $C$DW$295, DW_AT_type(*$C$DW$T$19)
    3611                      .dwattr $C$DW$295, DW_AT_name("IPC21")
    3612                      .dwattr $C$DW$295, DW_AT_TI_symbol_name("_IPC21")
TMS320C2000 Assembler PC v6.1.3 Thu Jan 30 10:26:14 2014

Tools Copyright (c) 1996-2012 Texas Instruments Incorporated
C:\Users\a0272466\AppData\Local\Temp\0274010                         PAGE   72

    3613                      .dwattr $C$DW$295, DW_AT_bit_offset(0x0a), DW_AT_bit_size(0x01)
    3614                      .dwattr $C$DW$295, DW_AT_data_member_location[DW_OP_plus_uconst 0x1]
    3615                      .dwattr $C$DW$295, DW_AT_accessibility(DW_ACCESS_public)
    3616              $C$DW$296       .dwtag  DW_TAG_member
    3617                      .dwattr $C$DW$296, DW_AT_type(*$C$DW$T$19)
    3618                      .dwattr $C$DW$296, DW_AT_name("IPC22")
    3619                      .dwattr $C$DW$296, DW_AT_TI_symbol_name("_IPC22")
    3620                      .dwattr $C$DW$296, DW_AT_bit_offset(0x09), DW_AT_bit_size(0x01)
    3621                      .dwattr $C$DW$296, DW_AT_data_member_location[DW_OP_plus_uconst 0x1]
    3622                      .dwattr $C$DW$296, DW_AT_accessibility(DW_ACCESS_public)
    3623              $C$DW$297       .dwtag  DW_TAG_member
    3624                      .dwattr $C$DW$297, DW_AT_type(*$C$DW$T$19)
    3625                      .dwattr $C$DW$297, DW_AT_name("IPC23")
    3626                      .dwattr $C$DW$297, DW_AT_TI_symbol_name("_IPC23")
    3627                      .dwattr $C$DW$297, DW_AT_bit_offset(0x08), DW_AT_bit_size(0x01)
    3628                      .dwattr $C$DW$297, DW_AT_data_member_location[DW_OP_plus_uconst 0x1]
    3629                      .dwattr $C$DW$297, DW_AT_accessibility(DW_ACCESS_public)
    3630              $C$DW$298       .dwtag  DW_TAG_member
    3631                      .dwattr $C$DW$298, DW_AT_type(*$C$DW$T$19)
    3632                      .dwattr $C$DW$298, DW_AT_name("IPC24")
    3633                      .dwattr $C$DW$298, DW_AT_TI_symbol_name("_IPC24")
    3634                      .dwattr $C$DW$298, DW_AT_bit_offset(0x07), DW_AT_bit_size(0x01)
    3635                      .dwattr $C$DW$298, DW_AT_data_member_location[DW_OP_plus_uconst 0x1]
    3636                      .dwattr $C$DW$298, DW_AT_accessibility(DW_ACCESS_public)
    3637              $C$DW$299       .dwtag  DW_TAG_member
    3638                      .dwattr $C$DW$299, DW_AT_type(*$C$DW$T$19)
    3639                      .dwattr $C$DW$299, DW_AT_name("IPC25")
    3640                      .dwattr $C$DW$299, DW_AT_TI_symbol_name("_IPC25")
    3641                      .dwattr $C$DW$299, DW_AT_bit_offset(0x06), DW_AT_bit_size(0x01)
    3642                      .dwattr $C$DW$299, DW_AT_data_member_location[DW_OP_plus_uconst 0x1]
    3643                      .dwattr $C$DW$299, DW_AT_accessibility(DW_ACCESS_public)
    3644              $C$DW$300       .dwtag  DW_TAG_member
    3645                      .dwattr $C$DW$300, DW_AT_type(*$C$DW$T$19)
    3646                      .dwattr $C$DW$300, DW_AT_name("IPC26")
    3647                      .dwattr $C$DW$300, DW_AT_TI_symbol_name("_IPC26")
    3648                      .dwattr $C$DW$300, DW_AT_bit_offset(0x05), DW_AT_bit_size(0x01)
    3649                      .dwattr $C$DW$300, DW_AT_data_member_location[DW_OP_plus_uconst 0x1]
    3650                      .dwattr $C$DW$300, DW_AT_accessibility(DW_ACCESS_public)
    3651              $C$DW$301       .dwtag  DW_TAG_member
    3652                      .dwattr $C$DW$301, DW_AT_type(*$C$DW$T$19)
    3653                      .dwattr $C$DW$301, DW_AT_name("IPC27")
    3654                      .dwattr $C$DW$301, DW_AT_TI_symbol_name("_IPC27")
    3655                      .dwattr $C$DW$301, DW_AT_bit_offset(0x04), DW_AT_bit_size(0x01)
    3656                      .dwattr $C$DW$301, DW_AT_data_member_location[DW_OP_plus_uconst 0x1]
    3657                      .dwattr $C$DW$301, DW_AT_accessibility(DW_ACCESS_public)
    3658              $C$DW$302       .dwtag  DW_TAG_member
    3659                      .dwattr $C$DW$302, DW_AT_type(*$C$DW$T$19)
    3660                      .dwattr $C$DW$302, DW_AT_name("IPC28")
    3661                      .dwattr $C$DW$302, DW_AT_TI_symbol_name("_IPC28")
    3662                      .dwattr $C$DW$302, DW_AT_bit_offset(0x03), DW_AT_bit_size(0x01)
    3663                      .dwattr $C$DW$302, DW_AT_data_member_location[DW_OP_plus_uconst 0x1]
    3664                      .dwattr $C$DW$302, DW_AT_accessibility(DW_ACCESS_public)
    3665              $C$DW$303       .dwtag  DW_TAG_member
    3666                      .dwattr $C$DW$303, DW_AT_type(*$C$DW$T$19)
    3667                      .dwattr $C$DW$303, DW_AT_name("IPC29")
TMS320C2000 Assembler PC v6.1.3 Thu Jan 30 10:26:14 2014

Tools Copyright (c) 1996-2012 Texas Instruments Incorporated
C:\Users\a0272466\AppData\Local\Temp\0274010                         PAGE   73

    3668                      .dwattr $C$DW$303, DW_AT_TI_symbol_name("_IPC29")
    3669                      .dwattr $C$DW$303, DW_AT_bit_offset(0x02), DW_AT_bit_size(0x01)
    3670                      .dwattr $C$DW$303, DW_AT_data_member_location[DW_OP_plus_uconst 0x1]
    3671                      .dwattr $C$DW$303, DW_AT_accessibility(DW_ACCESS_public)
    3672              $C$DW$304       .dwtag  DW_TAG_member
    3673                      .dwattr $C$DW$304, DW_AT_type(*$C$DW$T$19)
    3674                      .dwattr $C$DW$304, DW_AT_name("IPC30")
    3675                      .dwattr $C$DW$304, DW_AT_TI_symbol_name("_IPC30")
    3676                      .dwattr $C$DW$304, DW_AT_bit_offset(0x01), DW_AT_bit_size(0x01)
    3677                      .dwattr $C$DW$304, DW_AT_data_member_location[DW_OP_plus_uconst 0x1]
    3678                      .dwattr $C$DW$304, DW_AT_accessibility(DW_ACCESS_public)
    3679              $C$DW$305       .dwtag  DW_TAG_member
    3680                      .dwattr $C$DW$305, DW_AT_type(*$C$DW$T$19)
    3681                      .dwattr $C$DW$305, DW_AT_name("IPC31")
    3682                      .dwattr $C$DW$305, DW_AT_TI_symbol_name("_IPC31")
    3683                      .dwattr $C$DW$305, DW_AT_bit_offset(0x00), DW_AT_bit_size(0x01)
    3684                      .dwattr $C$DW$305, DW_AT_data_member_location[DW_OP_plus_uconst 0x1]
    3685                      .dwattr $C$DW$305, DW_AT_accessibility(DW_ACCESS_public)
    3686                      .dwendtag $C$DW$T$36
    3687              
    3688              
    3689              $C$DW$T$37      .dwtag  DW_TAG_union_type
    3690                      .dwattr $C$DW$T$37, DW_AT_name("IPCACK_REG")
    3691                      .dwattr $C$DW$T$37, DW_AT_byte_size(0x02)
    3692              $C$DW$306       .dwtag  DW_TAG_member
    3693                      .dwattr $C$DW$306, DW_AT_type(*$C$DW$T$21)
    3694                      .dwattr $C$DW$306, DW_AT_name("all")
    3695                      .dwattr $C$DW$306, DW_AT_TI_symbol_name("_all")
    3696                      .dwattr $C$DW$306, DW_AT_data_member_location[DW_OP_plus_uconst 0x0]
    3697                      .dwattr $C$DW$306, DW_AT_accessibility(DW_ACCESS_public)
    3698              $C$DW$307       .dwtag  DW_TAG_member
    3699                      .dwattr $C$DW$307, DW_AT_type(*$C$DW$T$36)
    3700                      .dwattr $C$DW$307, DW_AT_name("bit")
    3701                      .dwattr $C$DW$307, DW_AT_TI_symbol_name("_bit")
    3702                      .dwattr $C$DW$307, DW_AT_data_member_location[DW_OP_plus_uconst 0x0]
    3703                      .dwattr $C$DW$307, DW_AT_accessibility(DW_ACCESS_public)
    3704                      .dwendtag $C$DW$T$37
    3705              
    3706              
    3707              $C$DW$T$38      .dwtag  DW_TAG_structure_type
    3708                      .dwattr $C$DW$T$38, DW_AT_name("IPCCLR_BITS")
    3709                      .dwattr $C$DW$T$38, DW_AT_byte_size(0x02)
    3710              $C$DW$308       .dwtag  DW_TAG_member
    3711                      .dwattr $C$DW$308, DW_AT_type(*$C$DW$T$19)
    3712                      .dwattr $C$DW$308, DW_AT_name("IPC0")
    3713                      .dwattr $C$DW$308, DW_AT_TI_symbol_name("_IPC0")
    3714                      .dwattr $C$DW$308, DW_AT_bit_offset(0x0f), DW_AT_bit_size(0x01)
    3715                      .dwattr $C$DW$308, DW_AT_data_member_location[DW_OP_plus_uconst 0x0]
    3716                      .dwattr $C$DW$308, DW_AT_accessibility(DW_ACCESS_public)
    3717              $C$DW$309       .dwtag  DW_TAG_member
    3718                      .dwattr $C$DW$309, DW_AT_type(*$C$DW$T$19)
    3719                      .dwattr $C$DW$309, DW_AT_name("IPC1")
    3720                      .dwattr $C$DW$309, DW_AT_TI_symbol_name("_IPC1")
    3721                      .dwattr $C$DW$309, DW_AT_bit_offset(0x0e), DW_AT_bit_size(0x01)
    3722                      .dwattr $C$DW$309, DW_AT_data_member_location[DW_OP_plus_uconst 0x0]
TMS320C2000 Assembler PC v6.1.3 Thu Jan 30 10:26:14 2014

Tools Copyright (c) 1996-2012 Texas Instruments Incorporated
C:\Users\a0272466\AppData\Local\Temp\0274010                         PAGE   74

    3723                      .dwattr $C$DW$309, DW_AT_accessibility(DW_ACCESS_public)
    3724              $C$DW$310       .dwtag  DW_TAG_member
    3725                      .dwattr $C$DW$310, DW_AT_type(*$C$DW$T$19)
    3726                      .dwattr $C$DW$310, DW_AT_name("IPC2")
    3727                      .dwattr $C$DW$310, DW_AT_TI_symbol_name("_IPC2")
    3728                      .dwattr $C$DW$310, DW_AT_bit_offset(0x0d), DW_AT_bit_size(0x01)
    3729                      .dwattr $C$DW$310, DW_AT_data_member_location[DW_OP_plus_uconst 0x0]
    3730                      .dwattr $C$DW$310, DW_AT_accessibility(DW_ACCESS_public)
    3731              $C$DW$311       .dwtag  DW_TAG_member
    3732                      .dwattr $C$DW$311, DW_AT_type(*$C$DW$T$19)
    3733                      .dwattr $C$DW$311, DW_AT_name("IPC3")
    3734                      .dwattr $C$DW$311, DW_AT_TI_symbol_name("_IPC3")
    3735                      .dwattr $C$DW$311, DW_AT_bit_offset(0x0c), DW_AT_bit_size(0x01)
    3736                      .dwattr $C$DW$311, DW_AT_data_member_location[DW_OP_plus_uconst 0x0]
    3737                      .dwattr $C$DW$311, DW_AT_accessibility(DW_ACCESS_public)
    3738              $C$DW$312       .dwtag  DW_TAG_member
    3739                      .dwattr $C$DW$312, DW_AT_type(*$C$DW$T$19)
    3740                      .dwattr $C$DW$312, DW_AT_name("IPC4")
    3741                      .dwattr $C$DW$312, DW_AT_TI_symbol_name("_IPC4")
    3742                      .dwattr $C$DW$312, DW_AT_bit_offset(0x0b), DW_AT_bit_size(0x01)
    3743                      .dwattr $C$DW$312, DW_AT_data_member_location[DW_OP_plus_uconst 0x0]
    3744                      .dwattr $C$DW$312, DW_AT_accessibility(DW_ACCESS_public)
    3745              $C$DW$313       .dwtag  DW_TAG_member
    3746                      .dwattr $C$DW$313, DW_AT_type(*$C$DW$T$19)
    3747                      .dwattr $C$DW$313, DW_AT_name("IPC5")
    3748                      .dwattr $C$DW$313, DW_AT_TI_symbol_name("_IPC5")
    3749                      .dwattr $C$DW$313, DW_AT_bit_offset(0x0a), DW_AT_bit_size(0x01)
    3750                      .dwattr $C$DW$313, DW_AT_data_member_location[DW_OP_plus_uconst 0x0]
    3751                      .dwattr $C$DW$313, DW_AT_accessibility(DW_ACCESS_public)
    3752              $C$DW$314       .dwtag  DW_TAG_member
    3753                      .dwattr $C$DW$314, DW_AT_type(*$C$DW$T$19)
    3754                      .dwattr $C$DW$314, DW_AT_name("IPC6")
    3755                      .dwattr $C$DW$314, DW_AT_TI_symbol_name("_IPC6")
    3756                      .dwattr $C$DW$314, DW_AT_bit_offset(0x09), DW_AT_bit_size(0x01)
    3757                      .dwattr $C$DW$314, DW_AT_data_member_location[DW_OP_plus_uconst 0x0]
    3758                      .dwattr $C$DW$314, DW_AT_accessibility(DW_ACCESS_public)
    3759              $C$DW$315       .dwtag  DW_TAG_member
    3760                      .dwattr $C$DW$315, DW_AT_type(*$C$DW$T$19)
    3761                      .dwattr $C$DW$315, DW_AT_name("IPC7")
    3762                      .dwattr $C$DW$315, DW_AT_TI_symbol_name("_IPC7")
    3763                      .dwattr $C$DW$315, DW_AT_bit_offset(0x08), DW_AT_bit_size(0x01)
    3764                      .dwattr $C$DW$315, DW_AT_data_member_location[DW_OP_plus_uconst 0x0]
    3765                      .dwattr $C$DW$315, DW_AT_accessibility(DW_ACCESS_public)
    3766              $C$DW$316       .dwtag  DW_TAG_member
    3767                      .dwattr $C$DW$316, DW_AT_type(*$C$DW$T$19)
    3768                      .dwattr $C$DW$316, DW_AT_name("IPC8")
    3769                      .dwattr $C$DW$316, DW_AT_TI_symbol_name("_IPC8")
    3770                      .dwattr $C$DW$316, DW_AT_bit_offset(0x07), DW_AT_bit_size(0x01)
    3771                      .dwattr $C$DW$316, DW_AT_data_member_location[DW_OP_plus_uconst 0x0]
    3772                      .dwattr $C$DW$316, DW_AT_accessibility(DW_ACCESS_public)
    3773              $C$DW$317       .dwtag  DW_TAG_member
    3774                      .dwattr $C$DW$317, DW_AT_type(*$C$DW$T$19)
    3775                      .dwattr $C$DW$317, DW_AT_name("IPC9")
    3776                      .dwattr $C$DW$317, DW_AT_TI_symbol_name("_IPC9")
    3777                      .dwattr $C$DW$317, DW_AT_bit_offset(0x06), DW_AT_bit_size(0x01)
TMS320C2000 Assembler PC v6.1.3 Thu Jan 30 10:26:14 2014

Tools Copyright (c) 1996-2012 Texas Instruments Incorporated
C:\Users\a0272466\AppData\Local\Temp\0274010                         PAGE   75

    3778                      .dwattr $C$DW$317, DW_AT_data_member_location[DW_OP_plus_uconst 0x0]
    3779                      .dwattr $C$DW$317, DW_AT_accessibility(DW_ACCESS_public)
    3780              $C$DW$318       .dwtag  DW_TAG_member
    3781                      .dwattr $C$DW$318, DW_AT_type(*$C$DW$T$19)
    3782                      .dwattr $C$DW$318, DW_AT_name("IPC10")
    3783                      .dwattr $C$DW$318, DW_AT_TI_symbol_name("_IPC10")
    3784                      .dwattr $C$DW$318, DW_AT_bit_offset(0x05), DW_AT_bit_size(0x01)
    3785                      .dwattr $C$DW$318, DW_AT_data_member_location[DW_OP_plus_uconst 0x0]
    3786                      .dwattr $C$DW$318, DW_AT_accessibility(DW_ACCESS_public)
    3787              $C$DW$319       .dwtag  DW_TAG_member
    3788                      .dwattr $C$DW$319, DW_AT_type(*$C$DW$T$19)
    3789                      .dwattr $C$DW$319, DW_AT_name("IPC11")
    3790                      .dwattr $C$DW$319, DW_AT_TI_symbol_name("_IPC11")
    3791                      .dwattr $C$DW$319, DW_AT_bit_offset(0x04), DW_AT_bit_size(0x01)
    3792                      .dwattr $C$DW$319, DW_AT_data_member_location[DW_OP_plus_uconst 0x0]
    3793                      .dwattr $C$DW$319, DW_AT_accessibility(DW_ACCESS_public)
    3794              $C$DW$320       .dwtag  DW_TAG_member
    3795                      .dwattr $C$DW$320, DW_AT_type(*$C$DW$T$19)
    3796                      .dwattr $C$DW$320, DW_AT_name("IPC12")
    3797                      .dwattr $C$DW$320, DW_AT_TI_symbol_name("_IPC12")
    3798                      .dwattr $C$DW$320, DW_AT_bit_offset(0x03), DW_AT_bit_size(0x01)
    3799                      .dwattr $C$DW$320, DW_AT_data_member_location[DW_OP_plus_uconst 0x0]
    3800                      .dwattr $C$DW$320, DW_AT_accessibility(DW_ACCESS_public)
    3801              $C$DW$321       .dwtag  DW_TAG_member
    3802                      .dwattr $C$DW$321, DW_AT_type(*$C$DW$T$19)
    3803                      .dwattr $C$DW$321, DW_AT_name("IPC13")
    3804                      .dwattr $C$DW$321, DW_AT_TI_symbol_name("_IPC13")
    3805                      .dwattr $C$DW$321, DW_AT_bit_offset(0x02), DW_AT_bit_size(0x01)
    3806                      .dwattr $C$DW$321, DW_AT_data_member_location[DW_OP_plus_uconst 0x0]
    3807                      .dwattr $C$DW$321, DW_AT_accessibility(DW_ACCESS_public)
    3808              $C$DW$322       .dwtag  DW_TAG_member
    3809                      .dwattr $C$DW$322, DW_AT_type(*$C$DW$T$19)
    3810                      .dwattr $C$DW$322, DW_AT_name("IPC14")
    3811                      .dwattr $C$DW$322, DW_AT_TI_symbol_name("_IPC14")
    3812                      .dwattr $C$DW$322, DW_AT_bit_offset(0x01), DW_AT_bit_size(0x01)
    3813                      .dwattr $C$DW$322, DW_AT_data_member_location[DW_OP_plus_uconst 0x0]
    3814                      .dwattr $C$DW$322, DW_AT_accessibility(DW_ACCESS_public)
    3815              $C$DW$323       .dwtag  DW_TAG_member
    3816                      .dwattr $C$DW$323, DW_AT_type(*$C$DW$T$19)
    3817                      .dwattr $C$DW$323, DW_AT_name("IPC15")
    3818                      .dwattr $C$DW$323, DW_AT_TI_symbol_name("_IPC15")
    3819                      .dwattr $C$DW$323, DW_AT_bit_offset(0x00), DW_AT_bit_size(0x01)
    3820                      .dwattr $C$DW$323, DW_AT_data_member_location[DW_OP_plus_uconst 0x0]
    3821                      .dwattr $C$DW$323, DW_AT_accessibility(DW_ACCESS_public)
    3822              $C$DW$324       .dwtag  DW_TAG_member
    3823                      .dwattr $C$DW$324, DW_AT_type(*$C$DW$T$19)
    3824                      .dwattr $C$DW$324, DW_AT_name("IPC16")
    3825                      .dwattr $C$DW$324, DW_AT_TI_symbol_name("_IPC16")
    3826                      .dwattr $C$DW$324, DW_AT_bit_offset(0x0f), DW_AT_bit_size(0x01)
    3827                      .dwattr $C$DW$324, DW_AT_data_member_location[DW_OP_plus_uconst 0x1]
    3828                      .dwattr $C$DW$324, DW_AT_accessibility(DW_ACCESS_public)
    3829              $C$DW$325       .dwtag  DW_TAG_member
    3830                      .dwattr $C$DW$325, DW_AT_type(*$C$DW$T$19)
    3831                      .dwattr $C$DW$325, DW_AT_name("IPC17")
    3832                      .dwattr $C$DW$325, DW_AT_TI_symbol_name("_IPC17")
TMS320C2000 Assembler PC v6.1.3 Thu Jan 30 10:26:14 2014

Tools Copyright (c) 1996-2012 Texas Instruments Incorporated
C:\Users\a0272466\AppData\Local\Temp\0274010                         PAGE   76

    3833                      .dwattr $C$DW$325, DW_AT_bit_offset(0x0e), DW_AT_bit_size(0x01)
    3834                      .dwattr $C$DW$325, DW_AT_data_member_location[DW_OP_plus_uconst 0x1]
    3835                      .dwattr $C$DW$325, DW_AT_accessibility(DW_ACCESS_public)
    3836              $C$DW$326       .dwtag  DW_TAG_member
    3837                      .dwattr $C$DW$326, DW_AT_type(*$C$DW$T$19)
    3838                      .dwattr $C$DW$326, DW_AT_name("IPC18")
    3839                      .dwattr $C$DW$326, DW_AT_TI_symbol_name("_IPC18")
    3840                      .dwattr $C$DW$326, DW_AT_bit_offset(0x0d), DW_AT_bit_size(0x01)
    3841                      .dwattr $C$DW$326, DW_AT_data_member_location[DW_OP_plus_uconst 0x1]
    3842                      .dwattr $C$DW$326, DW_AT_accessibility(DW_ACCESS_public)
    3843              $C$DW$327       .dwtag  DW_TAG_member
    3844                      .dwattr $C$DW$327, DW_AT_type(*$C$DW$T$19)
    3845                      .dwattr $C$DW$327, DW_AT_name("IPC19")
    3846                      .dwattr $C$DW$327, DW_AT_TI_symbol_name("_IPC19")
    3847                      .dwattr $C$DW$327, DW_AT_bit_offset(0x0c), DW_AT_bit_size(0x01)
    3848                      .dwattr $C$DW$327, DW_AT_data_member_location[DW_OP_plus_uconst 0x1]
    3849                      .dwattr $C$DW$327, DW_AT_accessibility(DW_ACCESS_public)
    3850              $C$DW$328       .dwtag  DW_TAG_member
    3851                      .dwattr $C$DW$328, DW_AT_type(*$C$DW$T$19)
    3852                      .dwattr $C$DW$328, DW_AT_name("IPC20")
    3853                      .dwattr $C$DW$328, DW_AT_TI_symbol_name("_IPC20")
    3854                      .dwattr $C$DW$328, DW_AT_bit_offset(0x0b), DW_AT_bit_size(0x01)
    3855                      .dwattr $C$DW$328, DW_AT_data_member_location[DW_OP_plus_uconst 0x1]
    3856                      .dwattr $C$DW$328, DW_AT_accessibility(DW_ACCESS_public)
    3857              $C$DW$329       .dwtag  DW_TAG_member
    3858                      .dwattr $C$DW$329, DW_AT_type(*$C$DW$T$19)
    3859                      .dwattr $C$DW$329, DW_AT_name("IPC21")
    3860                      .dwattr $C$DW$329, DW_AT_TI_symbol_name("_IPC21")
    3861                      .dwattr $C$DW$329, DW_AT_bit_offset(0x0a), DW_AT_bit_size(0x01)
    3862                      .dwattr $C$DW$329, DW_AT_data_member_location[DW_OP_plus_uconst 0x1]
    3863                      .dwattr $C$DW$329, DW_AT_accessibility(DW_ACCESS_public)
    3864              $C$DW$330       .dwtag  DW_TAG_member
    3865                      .dwattr $C$DW$330, DW_AT_type(*$C$DW$T$19)
    3866                      .dwattr $C$DW$330, DW_AT_name("IPC22")
    3867                      .dwattr $C$DW$330, DW_AT_TI_symbol_name("_IPC22")
    3868                      .dwattr $C$DW$330, DW_AT_bit_offset(0x09), DW_AT_bit_size(0x01)
    3869                      .dwattr $C$DW$330, DW_AT_data_member_location[DW_OP_plus_uconst 0x1]
    3870                      .dwattr $C$DW$330, DW_AT_accessibility(DW_ACCESS_public)
    3871              $C$DW$331       .dwtag  DW_TAG_member
    3872                      .dwattr $C$DW$331, DW_AT_type(*$C$DW$T$19)
    3873                      .dwattr $C$DW$331, DW_AT_name("IPC23")
    3874                      .dwattr $C$DW$331, DW_AT_TI_symbol_name("_IPC23")
    3875                      .dwattr $C$DW$331, DW_AT_bit_offset(0x08), DW_AT_bit_size(0x01)
    3876                      .dwattr $C$DW$331, DW_AT_data_member_location[DW_OP_plus_uconst 0x1]
    3877                      .dwattr $C$DW$331, DW_AT_accessibility(DW_ACCESS_public)
    3878              $C$DW$332       .dwtag  DW_TAG_member
    3879                      .dwattr $C$DW$332, DW_AT_type(*$C$DW$T$19)
    3880                      .dwattr $C$DW$332, DW_AT_name("IPC24")
    3881                      .dwattr $C$DW$332, DW_AT_TI_symbol_name("_IPC24")
    3882                      .dwattr $C$DW$332, DW_AT_bit_offset(0x07), DW_AT_bit_size(0x01)
    3883                      .dwattr $C$DW$332, DW_AT_data_member_location[DW_OP_plus_uconst 0x1]
    3884                      .dwattr $C$DW$332, DW_AT_accessibility(DW_ACCESS_public)
    3885              $C$DW$333       .dwtag  DW_TAG_member
    3886                      .dwattr $C$DW$333, DW_AT_type(*$C$DW$T$19)
    3887                      .dwattr $C$DW$333, DW_AT_name("IPC25")
TMS320C2000 Assembler PC v6.1.3 Thu Jan 30 10:26:14 2014

Tools Copyright (c) 1996-2012 Texas Instruments Incorporated
C:\Users\a0272466\AppData\Local\Temp\0274010                         PAGE   77

    3888                      .dwattr $C$DW$333, DW_AT_TI_symbol_name("_IPC25")
    3889                      .dwattr $C$DW$333, DW_AT_bit_offset(0x06), DW_AT_bit_size(0x01)
    3890                      .dwattr $C$DW$333, DW_AT_data_member_location[DW_OP_plus_uconst 0x1]
    3891                      .dwattr $C$DW$333, DW_AT_accessibility(DW_ACCESS_public)
    3892              $C$DW$334       .dwtag  DW_TAG_member
    3893                      .dwattr $C$DW$334, DW_AT_type(*$C$DW$T$19)
    3894                      .dwattr $C$DW$334, DW_AT_name("IPC26")
    3895                      .dwattr $C$DW$334, DW_AT_TI_symbol_name("_IPC26")
    3896                      .dwattr $C$DW$334, DW_AT_bit_offset(0x05), DW_AT_bit_size(0x01)
    3897                      .dwattr $C$DW$334, DW_AT_data_member_location[DW_OP_plus_uconst 0x1]
    3898                      .dwattr $C$DW$334, DW_AT_accessibility(DW_ACCESS_public)
    3899              $C$DW$335       .dwtag  DW_TAG_member
    3900                      .dwattr $C$DW$335, DW_AT_type(*$C$DW$T$19)
    3901                      .dwattr $C$DW$335, DW_AT_name("IPC27")
    3902                      .dwattr $C$DW$335, DW_AT_TI_symbol_name("_IPC27")
    3903                      .dwattr $C$DW$335, DW_AT_bit_offset(0x04), DW_AT_bit_size(0x01)
    3904                      .dwattr $C$DW$335, DW_AT_data_member_location[DW_OP_plus_uconst 0x1]
    3905                      .dwattr $C$DW$335, DW_AT_accessibility(DW_ACCESS_public)
    3906              $C$DW$336       .dwtag  DW_TAG_member
    3907                      .dwattr $C$DW$336, DW_AT_type(*$C$DW$T$19)
    3908                      .dwattr $C$DW$336, DW_AT_name("IPC28")
    3909                      .dwattr $C$DW$336, DW_AT_TI_symbol_name("_IPC28")
    3910                      .dwattr $C$DW$336, DW_AT_bit_offset(0x03), DW_AT_bit_size(0x01)
    3911                      .dwattr $C$DW$336, DW_AT_data_member_location[DW_OP_plus_uconst 0x1]
    3912                      .dwattr $C$DW$336, DW_AT_accessibility(DW_ACCESS_public)
    3913              $C$DW$337       .dwtag  DW_TAG_member
    3914                      .dwattr $C$DW$337, DW_AT_type(*$C$DW$T$19)
    3915                      .dwattr $C$DW$337, DW_AT_name("IPC29")
    3916                      .dwattr $C$DW$337, DW_AT_TI_symbol_name("_IPC29")
    3917                      .dwattr $C$DW$337, DW_AT_bit_offset(0x02), DW_AT_bit_size(0x01)
    3918                      .dwattr $C$DW$337, DW_AT_data_member_location[DW_OP_plus_uconst 0x1]
    3919                      .dwattr $C$DW$337, DW_AT_accessibility(DW_ACCESS_public)
    3920              $C$DW$338       .dwtag  DW_TAG_member
    3921                      .dwattr $C$DW$338, DW_AT_type(*$C$DW$T$19)
    3922                      .dwattr $C$DW$338, DW_AT_name("IPC30")
    3923                      .dwattr $C$DW$338, DW_AT_TI_symbol_name("_IPC30")
    3924                      .dwattr $C$DW$338, DW_AT_bit_offset(0x01), DW_AT_bit_size(0x01)
    3925                      .dwattr $C$DW$338, DW_AT_data_member_location[DW_OP_plus_uconst 0x1]
    3926                      .dwattr $C$DW$338, DW_AT_accessibility(DW_ACCESS_public)
    3927              $C$DW$339       .dwtag  DW_TAG_member
    3928                      .dwattr $C$DW$339, DW_AT_type(*$C$DW$T$19)
    3929                      .dwattr $C$DW$339, DW_AT_name("IPC31")
    3930                      .dwattr $C$DW$339, DW_AT_TI_symbol_name("_IPC31")
    3931                      .dwattr $C$DW$339, DW_AT_bit_offset(0x00), DW_AT_bit_size(0x01)
    3932                      .dwattr $C$DW$339, DW_AT_data_member_location[DW_OP_plus_uconst 0x1]
    3933                      .dwattr $C$DW$339, DW_AT_accessibility(DW_ACCESS_public)
    3934                      .dwendtag $C$DW$T$38
    3935              
    3936              
    3937              $C$DW$T$39      .dwtag  DW_TAG_union_type
    3938                      .dwattr $C$DW$T$39, DW_AT_name("IPCCLR_REG")
    3939                      .dwattr $C$DW$T$39, DW_AT_byte_size(0x02)
    3940              $C$DW$340       .dwtag  DW_TAG_member
    3941                      .dwattr $C$DW$340, DW_AT_type(*$C$DW$T$21)
    3942                      .dwattr $C$DW$340, DW_AT_name("all")
TMS320C2000 Assembler PC v6.1.3 Thu Jan 30 10:26:14 2014

Tools Copyright (c) 1996-2012 Texas Instruments Incorporated
C:\Users\a0272466\AppData\Local\Temp\0274010                         PAGE   78

    3943                      .dwattr $C$DW$340, DW_AT_TI_symbol_name("_all")
    3944                      .dwattr $C$DW$340, DW_AT_data_member_location[DW_OP_plus_uconst 0x0]
    3945                      .dwattr $C$DW$340, DW_AT_accessibility(DW_ACCESS_public)
    3946              $C$DW$341       .dwtag  DW_TAG_member
    3947                      .dwattr $C$DW$341, DW_AT_type(*$C$DW$T$38)
    3948                      .dwattr $C$DW$341, DW_AT_name("bit")
    3949                      .dwattr $C$DW$341, DW_AT_TI_symbol_name("_bit")
    3950                      .dwattr $C$DW$341, DW_AT_data_member_location[DW_OP_plus_uconst 0x0]
    3951                      .dwattr $C$DW$341, DW_AT_accessibility(DW_ACCESS_public)
    3952                      .dwendtag $C$DW$T$39
    3953              
    3954              
    3955              $C$DW$T$40      .dwtag  DW_TAG_structure_type
    3956                      .dwattr $C$DW$T$40, DW_AT_name("IPCFLG_BITS")
    3957                      .dwattr $C$DW$T$40, DW_AT_byte_size(0x02)
    3958              $C$DW$342       .dwtag  DW_TAG_member
    3959                      .dwattr $C$DW$342, DW_AT_type(*$C$DW$T$19)
    3960                      .dwattr $C$DW$342, DW_AT_name("IPC0")
    3961                      .dwattr $C$DW$342, DW_AT_TI_symbol_name("_IPC0")
    3962                      .dwattr $C$DW$342, DW_AT_bit_offset(0x0f), DW_AT_bit_size(0x01)
    3963                      .dwattr $C$DW$342, DW_AT_data_member_location[DW_OP_plus_uconst 0x0]
    3964                      .dwattr $C$DW$342, DW_AT_accessibility(DW_ACCESS_public)
    3965              $C$DW$343       .dwtag  DW_TAG_member
    3966                      .dwattr $C$DW$343, DW_AT_type(*$C$DW$T$19)
    3967                      .dwattr $C$DW$343, DW_AT_name("IPC1")
    3968                      .dwattr $C$DW$343, DW_AT_TI_symbol_name("_IPC1")
    3969                      .dwattr $C$DW$343, DW_AT_bit_offset(0x0e), DW_AT_bit_size(0x01)
    3970                      .dwattr $C$DW$343, DW_AT_data_member_location[DW_OP_plus_uconst 0x0]
    3971                      .dwattr $C$DW$343, DW_AT_accessibility(DW_ACCESS_public)
    3972              $C$DW$344       .dwtag  DW_TAG_member
    3973                      .dwattr $C$DW$344, DW_AT_type(*$C$DW$T$19)
    3974                      .dwattr $C$DW$344, DW_AT_name("IPC2")
    3975                      .dwattr $C$DW$344, DW_AT_TI_symbol_name("_IPC2")
    3976                      .dwattr $C$DW$344, DW_AT_bit_offset(0x0d), DW_AT_bit_size(0x01)
    3977                      .dwattr $C$DW$344, DW_AT_data_member_location[DW_OP_plus_uconst 0x0]
    3978                      .dwattr $C$DW$344, DW_AT_accessibility(DW_ACCESS_public)
    3979              $C$DW$345       .dwtag  DW_TAG_member
    3980                      .dwattr $C$DW$345, DW_AT_type(*$C$DW$T$19)
    3981                      .dwattr $C$DW$345, DW_AT_name("IPC3")
    3982                      .dwattr $C$DW$345, DW_AT_TI_symbol_name("_IPC3")
    3983                      .dwattr $C$DW$345, DW_AT_bit_offset(0x0c), DW_AT_bit_size(0x01)
    3984                      .dwattr $C$DW$345, DW_AT_data_member_location[DW_OP_plus_uconst 0x0]
    3985                      .dwattr $C$DW$345, DW_AT_accessibility(DW_ACCESS_public)
    3986              $C$DW$346       .dwtag  DW_TAG_member
    3987                      .dwattr $C$DW$346, DW_AT_type(*$C$DW$T$19)
    3988                      .dwattr $C$DW$346, DW_AT_name("IPC4")
    3989                      .dwattr $C$DW$346, DW_AT_TI_symbol_name("_IPC4")
    3990                      .dwattr $C$DW$346, DW_AT_bit_offset(0x0b), DW_AT_bit_size(0x01)
    3991                      .dwattr $C$DW$346, DW_AT_data_member_location[DW_OP_plus_uconst 0x0]
    3992                      .dwattr $C$DW$346, DW_AT_accessibility(DW_ACCESS_public)
    3993              $C$DW$347       .dwtag  DW_TAG_member
    3994                      .dwattr $C$DW$347, DW_AT_type(*$C$DW$T$19)
    3995                      .dwattr $C$DW$347, DW_AT_name("IPC5")
    3996                      .dwattr $C$DW$347, DW_AT_TI_symbol_name("_IPC5")
    3997                      .dwattr $C$DW$347, DW_AT_bit_offset(0x0a), DW_AT_bit_size(0x01)
TMS320C2000 Assembler PC v6.1.3 Thu Jan 30 10:26:14 2014

Tools Copyright (c) 1996-2012 Texas Instruments Incorporated
C:\Users\a0272466\AppData\Local\Temp\0274010                         PAGE   79

    3998                      .dwattr $C$DW$347, DW_AT_data_member_location[DW_OP_plus_uconst 0x0]
    3999                      .dwattr $C$DW$347, DW_AT_accessibility(DW_ACCESS_public)
    4000              $C$DW$348       .dwtag  DW_TAG_member
    4001                      .dwattr $C$DW$348, DW_AT_type(*$C$DW$T$19)
    4002                      .dwattr $C$DW$348, DW_AT_name("IPC6")
    4003                      .dwattr $C$DW$348, DW_AT_TI_symbol_name("_IPC6")
    4004                      .dwattr $C$DW$348, DW_AT_bit_offset(0x09), DW_AT_bit_size(0x01)
    4005                      .dwattr $C$DW$348, DW_AT_data_member_location[DW_OP_plus_uconst 0x0]
    4006                      .dwattr $C$DW$348, DW_AT_accessibility(DW_ACCESS_public)
    4007              $C$DW$349       .dwtag  DW_TAG_member
    4008                      .dwattr $C$DW$349, DW_AT_type(*$C$DW$T$19)
    4009                      .dwattr $C$DW$349, DW_AT_name("IPC7")
    4010                      .dwattr $C$DW$349, DW_AT_TI_symbol_name("_IPC7")
    4011                      .dwattr $C$DW$349, DW_AT_bit_offset(0x08), DW_AT_bit_size(0x01)
    4012                      .dwattr $C$DW$349, DW_AT_data_member_location[DW_OP_plus_uconst 0x0]
    4013                      .dwattr $C$DW$349, DW_AT_accessibility(DW_ACCESS_public)
    4014              $C$DW$350       .dwtag  DW_TAG_member
    4015                      .dwattr $C$DW$350, DW_AT_type(*$C$DW$T$19)
    4016                      .dwattr $C$DW$350, DW_AT_name("IPC8")
    4017                      .dwattr $C$DW$350, DW_AT_TI_symbol_name("_IPC8")
    4018                      .dwattr $C$DW$350, DW_AT_bit_offset(0x07), DW_AT_bit_size(0x01)
    4019                      .dwattr $C$DW$350, DW_AT_data_member_location[DW_OP_plus_uconst 0x0]
    4020                      .dwattr $C$DW$350, DW_AT_accessibility(DW_ACCESS_public)
    4021              $C$DW$351       .dwtag  DW_TAG_member
    4022                      .dwattr $C$DW$351, DW_AT_type(*$C$DW$T$19)
    4023                      .dwattr $C$DW$351, DW_AT_name("IPC9")
    4024                      .dwattr $C$DW$351, DW_AT_TI_symbol_name("_IPC9")
    4025                      .dwattr $C$DW$351, DW_AT_bit_offset(0x06), DW_AT_bit_size(0x01)
    4026                      .dwattr $C$DW$351, DW_AT_data_member_location[DW_OP_plus_uconst 0x0]
    4027                      .dwattr $C$DW$351, DW_AT_accessibility(DW_ACCESS_public)
    4028              $C$DW$352       .dwtag  DW_TAG_member
    4029                      .dwattr $C$DW$352, DW_AT_type(*$C$DW$T$19)
    4030                      .dwattr $C$DW$352, DW_AT_name("IPC10")
    4031                      .dwattr $C$DW$352, DW_AT_TI_symbol_name("_IPC10")
    4032                      .dwattr $C$DW$352, DW_AT_bit_offset(0x05), DW_AT_bit_size(0x01)
    4033                      .dwattr $C$DW$352, DW_AT_data_member_location[DW_OP_plus_uconst 0x0]
    4034                      .dwattr $C$DW$352, DW_AT_accessibility(DW_ACCESS_public)
    4035              $C$DW$353       .dwtag  DW_TAG_member
    4036                      .dwattr $C$DW$353, DW_AT_type(*$C$DW$T$19)
    4037                      .dwattr $C$DW$353, DW_AT_name("IPC11")
    4038                      .dwattr $C$DW$353, DW_AT_TI_symbol_name("_IPC11")
    4039                      .dwattr $C$DW$353, DW_AT_bit_offset(0x04), DW_AT_bit_size(0x01)
    4040                      .dwattr $C$DW$353, DW_AT_data_member_location[DW_OP_plus_uconst 0x0]
    4041                      .dwattr $C$DW$353, DW_AT_accessibility(DW_ACCESS_public)
    4042              $C$DW$354       .dwtag  DW_TAG_member
    4043                      .dwattr $C$DW$354, DW_AT_type(*$C$DW$T$19)
    4044                      .dwattr $C$DW$354, DW_AT_name("IPC12")
    4045                      .dwattr $C$DW$354, DW_AT_TI_symbol_name("_IPC12")
    4046                      .dwattr $C$DW$354, DW_AT_bit_offset(0x03), DW_AT_bit_size(0x01)
    4047                      .dwattr $C$DW$354, DW_AT_data_member_location[DW_OP_plus_uconst 0x0]
    4048                      .dwattr $C$DW$354, DW_AT_accessibility(DW_ACCESS_public)
    4049              $C$DW$355       .dwtag  DW_TAG_member
    4050                      .dwattr $C$DW$355, DW_AT_type(*$C$DW$T$19)
    4051                      .dwattr $C$DW$355, DW_AT_name("IPC13")
    4052                      .dwattr $C$DW$355, DW_AT_TI_symbol_name("_IPC13")
TMS320C2000 Assembler PC v6.1.3 Thu Jan 30 10:26:14 2014

Tools Copyright (c) 1996-2012 Texas Instruments Incorporated
C:\Users\a0272466\AppData\Local\Temp\0274010                         PAGE   80

    4053                      .dwattr $C$DW$355, DW_AT_bit_offset(0x02), DW_AT_bit_size(0x01)
    4054                      .dwattr $C$DW$355, DW_AT_data_member_location[DW_OP_plus_uconst 0x0]
    4055                      .dwattr $C$DW$355, DW_AT_accessibility(DW_ACCESS_public)
    4056              $C$DW$356       .dwtag  DW_TAG_member
    4057                      .dwattr $C$DW$356, DW_AT_type(*$C$DW$T$19)
    4058                      .dwattr $C$DW$356, DW_AT_name("IPC14")
    4059                      .dwattr $C$DW$356, DW_AT_TI_symbol_name("_IPC14")
    4060                      .dwattr $C$DW$356, DW_AT_bit_offset(0x01), DW_AT_bit_size(0x01)
    4061                      .dwattr $C$DW$356, DW_AT_data_member_location[DW_OP_plus_uconst 0x0]
    4062                      .dwattr $C$DW$356, DW_AT_accessibility(DW_ACCESS_public)
    4063              $C$DW$357       .dwtag  DW_TAG_member
    4064                      .dwattr $C$DW$357, DW_AT_type(*$C$DW$T$19)
    4065                      .dwattr $C$DW$357, DW_AT_name("IPC15")
    4066                      .dwattr $C$DW$357, DW_AT_TI_symbol_name("_IPC15")
    4067                      .dwattr $C$DW$357, DW_AT_bit_offset(0x00), DW_AT_bit_size(0x01)
    4068                      .dwattr $C$DW$357, DW_AT_data_member_location[DW_OP_plus_uconst 0x0]
    4069                      .dwattr $C$DW$357, DW_AT_accessibility(DW_ACCESS_public)
    4070              $C$DW$358       .dwtag  DW_TAG_member
    4071                      .dwattr $C$DW$358, DW_AT_type(*$C$DW$T$19)
    4072                      .dwattr $C$DW$358, DW_AT_name("IPC16")
    4073                      .dwattr $C$DW$358, DW_AT_TI_symbol_name("_IPC16")
    4074                      .dwattr $C$DW$358, DW_AT_bit_offset(0x0f), DW_AT_bit_size(0x01)
    4075                      .dwattr $C$DW$358, DW_AT_data_member_location[DW_OP_plus_uconst 0x1]
    4076                      .dwattr $C$DW$358, DW_AT_accessibility(DW_ACCESS_public)
    4077              $C$DW$359       .dwtag  DW_TAG_member
    4078                      .dwattr $C$DW$359, DW_AT_type(*$C$DW$T$19)
    4079                      .dwattr $C$DW$359, DW_AT_name("IPC17")
    4080                      .dwattr $C$DW$359, DW_AT_TI_symbol_name("_IPC17")
    4081                      .dwattr $C$DW$359, DW_AT_bit_offset(0x0e), DW_AT_bit_size(0x01)
    4082                      .dwattr $C$DW$359, DW_AT_data_member_location[DW_OP_plus_uconst 0x1]
    4083                      .dwattr $C$DW$359, DW_AT_accessibility(DW_ACCESS_public)
    4084              $C$DW$360       .dwtag  DW_TAG_member
    4085                      .dwattr $C$DW$360, DW_AT_type(*$C$DW$T$19)
    4086                      .dwattr $C$DW$360, DW_AT_name("IPC18")
    4087                      .dwattr $C$DW$360, DW_AT_TI_symbol_name("_IPC18")
    4088                      .dwattr $C$DW$360, DW_AT_bit_offset(0x0d), DW_AT_bit_size(0x01)
    4089                      .dwattr $C$DW$360, DW_AT_data_member_location[DW_OP_plus_uconst 0x1]
    4090                      .dwattr $C$DW$360, DW_AT_accessibility(DW_ACCESS_public)
    4091              $C$DW$361       .dwtag  DW_TAG_member
    4092                      .dwattr $C$DW$361, DW_AT_type(*$C$DW$T$19)
    4093                      .dwattr $C$DW$361, DW_AT_name("IPC19")
    4094                      .dwattr $C$DW$361, DW_AT_TI_symbol_name("_IPC19")
    4095                      .dwattr $C$DW$361, DW_AT_bit_offset(0x0c), DW_AT_bit_size(0x01)
    4096                      .dwattr $C$DW$361, DW_AT_data_member_location[DW_OP_plus_uconst 0x1]
    4097                      .dwattr $C$DW$361, DW_AT_accessibility(DW_ACCESS_public)
    4098              $C$DW$362       .dwtag  DW_TAG_member
    4099                      .dwattr $C$DW$362, DW_AT_type(*$C$DW$T$19)
    4100                      .dwattr $C$DW$362, DW_AT_name("IPC20")
    4101                      .dwattr $C$DW$362, DW_AT_TI_symbol_name("_IPC20")
    4102                      .dwattr $C$DW$362, DW_AT_bit_offset(0x0b), DW_AT_bit_size(0x01)
    4103                      .dwattr $C$DW$362, DW_AT_data_member_location[DW_OP_plus_uconst 0x1]
    4104                      .dwattr $C$DW$362, DW_AT_accessibility(DW_ACCESS_public)
    4105              $C$DW$363       .dwtag  DW_TAG_member
    4106                      .dwattr $C$DW$363, DW_AT_type(*$C$DW$T$19)
    4107                      .dwattr $C$DW$363, DW_AT_name("IPC21")
TMS320C2000 Assembler PC v6.1.3 Thu Jan 30 10:26:14 2014

Tools Copyright (c) 1996-2012 Texas Instruments Incorporated
C:\Users\a0272466\AppData\Local\Temp\0274010                         PAGE   81

    4108                      .dwattr $C$DW$363, DW_AT_TI_symbol_name("_IPC21")
    4109                      .dwattr $C$DW$363, DW_AT_bit_offset(0x0a), DW_AT_bit_size(0x01)
    4110                      .dwattr $C$DW$363, DW_AT_data_member_location[DW_OP_plus_uconst 0x1]
    4111                      .dwattr $C$DW$363, DW_AT_accessibility(DW_ACCESS_public)
    4112              $C$DW$364       .dwtag  DW_TAG_member
    4113                      .dwattr $C$DW$364, DW_AT_type(*$C$DW$T$19)
    4114                      .dwattr $C$DW$364, DW_AT_name("IPC22")
    4115                      .dwattr $C$DW$364, DW_AT_TI_symbol_name("_IPC22")
    4116                      .dwattr $C$DW$364, DW_AT_bit_offset(0x09), DW_AT_bit_size(0x01)
    4117                      .dwattr $C$DW$364, DW_AT_data_member_location[DW_OP_plus_uconst 0x1]
    4118                      .dwattr $C$DW$364, DW_AT_accessibility(DW_ACCESS_public)
    4119              $C$DW$365       .dwtag  DW_TAG_member
    4120                      .dwattr $C$DW$365, DW_AT_type(*$C$DW$T$19)
    4121                      .dwattr $C$DW$365, DW_AT_name("IPC23")
    4122                      .dwattr $C$DW$365, DW_AT_TI_symbol_name("_IPC23")
    4123                      .dwattr $C$DW$365, DW_AT_bit_offset(0x08), DW_AT_bit_size(0x01)
    4124                      .dwattr $C$DW$365, DW_AT_data_member_location[DW_OP_plus_uconst 0x1]
    4125                      .dwattr $C$DW$365, DW_AT_accessibility(DW_ACCESS_public)
    4126              $C$DW$366       .dwtag  DW_TAG_member
    4127                      .dwattr $C$DW$366, DW_AT_type(*$C$DW$T$19)
    4128                      .dwattr $C$DW$366, DW_AT_name("IPC24")
    4129                      .dwattr $C$DW$366, DW_AT_TI_symbol_name("_IPC24")
    4130                      .dwattr $C$DW$366, DW_AT_bit_offset(0x07), DW_AT_bit_size(0x01)
    4131                      .dwattr $C$DW$366, DW_AT_data_member_location[DW_OP_plus_uconst 0x1]
    4132                      .dwattr $C$DW$366, DW_AT_accessibility(DW_ACCESS_public)
    4133              $C$DW$367       .dwtag  DW_TAG_member
    4134                      .dwattr $C$DW$367, DW_AT_type(*$C$DW$T$19)
    4135                      .dwattr $C$DW$367, DW_AT_name("IPC25")
    4136                      .dwattr $C$DW$367, DW_AT_TI_symbol_name("_IPC25")
    4137                      .dwattr $C$DW$367, DW_AT_bit_offset(0x06), DW_AT_bit_size(0x01)
    4138                      .dwattr $C$DW$367, DW_AT_data_member_location[DW_OP_plus_uconst 0x1]
    4139                      .dwattr $C$DW$367, DW_AT_accessibility(DW_ACCESS_public)
    4140              $C$DW$368       .dwtag  DW_TAG_member
    4141                      .dwattr $C$DW$368, DW_AT_type(*$C$DW$T$19)
    4142                      .dwattr $C$DW$368, DW_AT_name("IPC26")
    4143                      .dwattr $C$DW$368, DW_AT_TI_symbol_name("_IPC26")
    4144                      .dwattr $C$DW$368, DW_AT_bit_offset(0x05), DW_AT_bit_size(0x01)
    4145                      .dwattr $C$DW$368, DW_AT_data_member_location[DW_OP_plus_uconst 0x1]
    4146                      .dwattr $C$DW$368, DW_AT_accessibility(DW_ACCESS_public)
    4147              $C$DW$369       .dwtag  DW_TAG_member
    4148                      .dwattr $C$DW$369, DW_AT_type(*$C$DW$T$19)
    4149                      .dwattr $C$DW$369, DW_AT_name("IPC27")
    4150                      .dwattr $C$DW$369, DW_AT_TI_symbol_name("_IPC27")
    4151                      .dwattr $C$DW$369, DW_AT_bit_offset(0x04), DW_AT_bit_size(0x01)
    4152                      .dwattr $C$DW$369, DW_AT_data_member_location[DW_OP_plus_uconst 0x1]
    4153                      .dwattr $C$DW$369, DW_AT_accessibility(DW_ACCESS_public)
    4154              $C$DW$370       .dwtag  DW_TAG_member
    4155                      .dwattr $C$DW$370, DW_AT_type(*$C$DW$T$19)
    4156                      .dwattr $C$DW$370, DW_AT_name("IPC28")
    4157                      .dwattr $C$DW$370, DW_AT_TI_symbol_name("_IPC28")
    4158                      .dwattr $C$DW$370, DW_AT_bit_offset(0x03), DW_AT_bit_size(0x01)
    4159                      .dwattr $C$DW$370, DW_AT_data_member_location[DW_OP_plus_uconst 0x1]
    4160                      .dwattr $C$DW$370, DW_AT_accessibility(DW_ACCESS_public)
    4161              $C$DW$371       .dwtag  DW_TAG_member
    4162                      .dwattr $C$DW$371, DW_AT_type(*$C$DW$T$19)
TMS320C2000 Assembler PC v6.1.3 Thu Jan 30 10:26:14 2014

Tools Copyright (c) 1996-2012 Texas Instruments Incorporated
C:\Users\a0272466\AppData\Local\Temp\0274010                         PAGE   82

    4163                      .dwattr $C$DW$371, DW_AT_name("IPC29")
    4164                      .dwattr $C$DW$371, DW_AT_TI_symbol_name("_IPC29")
    4165                      .dwattr $C$DW$371, DW_AT_bit_offset(0x02), DW_AT_bit_size(0x01)
    4166                      .dwattr $C$DW$371, DW_AT_data_member_location[DW_OP_plus_uconst 0x1]
    4167                      .dwattr $C$DW$371, DW_AT_accessibility(DW_ACCESS_public)
    4168              $C$DW$372       .dwtag  DW_TAG_member
    4169                      .dwattr $C$DW$372, DW_AT_type(*$C$DW$T$19)
    4170                      .dwattr $C$DW$372, DW_AT_name("IPC30")
    4171                      .dwattr $C$DW$372, DW_AT_TI_symbol_name("_IPC30")
    4172                      .dwattr $C$DW$372, DW_AT_bit_offset(0x01), DW_AT_bit_size(0x01)
    4173                      .dwattr $C$DW$372, DW_AT_data_member_location[DW_OP_plus_uconst 0x1]
    4174                      .dwattr $C$DW$372, DW_AT_accessibility(DW_ACCESS_public)
    4175              $C$DW$373       .dwtag  DW_TAG_member
    4176                      .dwattr $C$DW$373, DW_AT_type(*$C$DW$T$19)
    4177                      .dwattr $C$DW$373, DW_AT_name("IPC31")
    4178                      .dwattr $C$DW$373, DW_AT_TI_symbol_name("_IPC31")
    4179                      .dwattr $C$DW$373, DW_AT_bit_offset(0x00), DW_AT_bit_size(0x01)
    4180                      .dwattr $C$DW$373, DW_AT_data_member_location[DW_OP_plus_uconst 0x1]
    4181                      .dwattr $C$DW$373, DW_AT_accessibility(DW_ACCESS_public)
    4182                      .dwendtag $C$DW$T$40
    4183              
    4184              
    4185              $C$DW$T$41      .dwtag  DW_TAG_union_type
    4186                      .dwattr $C$DW$T$41, DW_AT_name("IPCFLG_REG")
    4187                      .dwattr $C$DW$T$41, DW_AT_byte_size(0x02)
    4188              $C$DW$374       .dwtag  DW_TAG_member
    4189                      .dwattr $C$DW$374, DW_AT_type(*$C$DW$T$21)
    4190                      .dwattr $C$DW$374, DW_AT_name("all")
    4191                      .dwattr $C$DW$374, DW_AT_TI_symbol_name("_all")
    4192                      .dwattr $C$DW$374, DW_AT_data_member_location[DW_OP_plus_uconst 0x0]
    4193                      .dwattr $C$DW$374, DW_AT_accessibility(DW_ACCESS_public)
    4194              $C$DW$375       .dwtag  DW_TAG_member
    4195                      .dwattr $C$DW$375, DW_AT_type(*$C$DW$T$40)
    4196                      .dwattr $C$DW$375, DW_AT_name("bit")
    4197                      .dwattr $C$DW$375, DW_AT_TI_symbol_name("_bit")
    4198                      .dwattr $C$DW$375, DW_AT_data_member_location[DW_OP_plus_uconst 0x0]
    4199                      .dwattr $C$DW$375, DW_AT_accessibility(DW_ACCESS_public)
    4200                      .dwendtag $C$DW$T$41
    4201              
    4202              
    4203              $C$DW$T$42      .dwtag  DW_TAG_structure_type
    4204                      .dwattr $C$DW$T$42, DW_AT_name("IPCSET_BITS")
    4205                      .dwattr $C$DW$T$42, DW_AT_byte_size(0x02)
    4206              $C$DW$376       .dwtag  DW_TAG_member
    4207                      .dwattr $C$DW$376, DW_AT_type(*$C$DW$T$19)
    4208                      .dwattr $C$DW$376, DW_AT_name("IPC0")
    4209                      .dwattr $C$DW$376, DW_AT_TI_symbol_name("_IPC0")
    4210                      .dwattr $C$DW$376, DW_AT_bit_offset(0x0f), DW_AT_bit_size(0x01)
    4211                      .dwattr $C$DW$376, DW_AT_data_member_location[DW_OP_plus_uconst 0x0]
    4212                      .dwattr $C$DW$376, DW_AT_accessibility(DW_ACCESS_public)
    4213              $C$DW$377       .dwtag  DW_TAG_member
    4214                      .dwattr $C$DW$377, DW_AT_type(*$C$DW$T$19)
    4215                      .dwattr $C$DW$377, DW_AT_name("IPC1")
    4216                      .dwattr $C$DW$377, DW_AT_TI_symbol_name("_IPC1")
    4217                      .dwattr $C$DW$377, DW_AT_bit_offset(0x0e), DW_AT_bit_size(0x01)
TMS320C2000 Assembler PC v6.1.3 Thu Jan 30 10:26:14 2014

Tools Copyright (c) 1996-2012 Texas Instruments Incorporated
C:\Users\a0272466\AppData\Local\Temp\0274010                         PAGE   83

    4218                      .dwattr $C$DW$377, DW_AT_data_member_location[DW_OP_plus_uconst 0x0]
    4219                      .dwattr $C$DW$377, DW_AT_accessibility(DW_ACCESS_public)
    4220              $C$DW$378       .dwtag  DW_TAG_member
    4221                      .dwattr $C$DW$378, DW_AT_type(*$C$DW$T$19)
    4222                      .dwattr $C$DW$378, DW_AT_name("IPC2")
    4223                      .dwattr $C$DW$378, DW_AT_TI_symbol_name("_IPC2")
    4224                      .dwattr $C$DW$378, DW_AT_bit_offset(0x0d), DW_AT_bit_size(0x01)
    4225                      .dwattr $C$DW$378, DW_AT_data_member_location[DW_OP_plus_uconst 0x0]
    4226                      .dwattr $C$DW$378, DW_AT_accessibility(DW_ACCESS_public)
    4227              $C$DW$379       .dwtag  DW_TAG_member
    4228                      .dwattr $C$DW$379, DW_AT_type(*$C$DW$T$19)
    4229                      .dwattr $C$DW$379, DW_AT_name("IPC3")
    4230                      .dwattr $C$DW$379, DW_AT_TI_symbol_name("_IPC3")
    4231                      .dwattr $C$DW$379, DW_AT_bit_offset(0x0c), DW_AT_bit_size(0x01)
    4232                      .dwattr $C$DW$379, DW_AT_data_member_location[DW_OP_plus_uconst 0x0]
    4233                      .dwattr $C$DW$379, DW_AT_accessibility(DW_ACCESS_public)
    4234              $C$DW$380       .dwtag  DW_TAG_member
    4235                      .dwattr $C$DW$380, DW_AT_type(*$C$DW$T$19)
    4236                      .dwattr $C$DW$380, DW_AT_name("IPC4")
    4237                      .dwattr $C$DW$380, DW_AT_TI_symbol_name("_IPC4")
    4238                      .dwattr $C$DW$380, DW_AT_bit_offset(0x0b), DW_AT_bit_size(0x01)
    4239                      .dwattr $C$DW$380, DW_AT_data_member_location[DW_OP_plus_uconst 0x0]
    4240                      .dwattr $C$DW$380, DW_AT_accessibility(DW_ACCESS_public)
    4241              $C$DW$381       .dwtag  DW_TAG_member
    4242                      .dwattr $C$DW$381, DW_AT_type(*$C$DW$T$19)
    4243                      .dwattr $C$DW$381, DW_AT_name("IPC5")
    4244                      .dwattr $C$DW$381, DW_AT_TI_symbol_name("_IPC5")
    4245                      .dwattr $C$DW$381, DW_AT_bit_offset(0x0a), DW_AT_bit_size(0x01)
    4246                      .dwattr $C$DW$381, DW_AT_data_member_location[DW_OP_plus_uconst 0x0]
    4247                      .dwattr $C$DW$381, DW_AT_accessibility(DW_ACCESS_public)
    4248              $C$DW$382       .dwtag  DW_TAG_member
    4249                      .dwattr $C$DW$382, DW_AT_type(*$C$DW$T$19)
    4250                      .dwattr $C$DW$382, DW_AT_name("IPC6")
    4251                      .dwattr $C$DW$382, DW_AT_TI_symbol_name("_IPC6")
    4252                      .dwattr $C$DW$382, DW_AT_bit_offset(0x09), DW_AT_bit_size(0x01)
    4253                      .dwattr $C$DW$382, DW_AT_data_member_location[DW_OP_plus_uconst 0x0]
    4254                      .dwattr $C$DW$382, DW_AT_accessibility(DW_ACCESS_public)
    4255              $C$DW$383       .dwtag  DW_TAG_member
    4256                      .dwattr $C$DW$383, DW_AT_type(*$C$DW$T$19)
    4257                      .dwattr $C$DW$383, DW_AT_name("IPC7")
    4258                      .dwattr $C$DW$383, DW_AT_TI_symbol_name("_IPC7")
    4259                      .dwattr $C$DW$383, DW_AT_bit_offset(0x08), DW_AT_bit_size(0x01)
    4260                      .dwattr $C$DW$383, DW_AT_data_member_location[DW_OP_plus_uconst 0x0]
    4261                      .dwattr $C$DW$383, DW_AT_accessibility(DW_ACCESS_public)
    4262              $C$DW$384       .dwtag  DW_TAG_member
    4263                      .dwattr $C$DW$384, DW_AT_type(*$C$DW$T$19)
    4264                      .dwattr $C$DW$384, DW_AT_name("IPC8")
    4265                      .dwattr $C$DW$384, DW_AT_TI_symbol_name("_IPC8")
    4266                      .dwattr $C$DW$384, DW_AT_bit_offset(0x07), DW_AT_bit_size(0x01)
    4267                      .dwattr $C$DW$384, DW_AT_data_member_location[DW_OP_plus_uconst 0x0]
    4268                      .dwattr $C$DW$384, DW_AT_accessibility(DW_ACCESS_public)
    4269              $C$DW$385       .dwtag  DW_TAG_member
    4270                      .dwattr $C$DW$385, DW_AT_type(*$C$DW$T$19)
    4271                      .dwattr $C$DW$385, DW_AT_name("IPC9")
    4272                      .dwattr $C$DW$385, DW_AT_TI_symbol_name("_IPC9")
TMS320C2000 Assembler PC v6.1.3 Thu Jan 30 10:26:14 2014

Tools Copyright (c) 1996-2012 Texas Instruments Incorporated
C:\Users\a0272466\AppData\Local\Temp\0274010                         PAGE   84

    4273                      .dwattr $C$DW$385, DW_AT_bit_offset(0x06), DW_AT_bit_size(0x01)
    4274                      .dwattr $C$DW$385, DW_AT_data_member_location[DW_OP_plus_uconst 0x0]
    4275                      .dwattr $C$DW$385, DW_AT_accessibility(DW_ACCESS_public)
    4276              $C$DW$386       .dwtag  DW_TAG_member
    4277                      .dwattr $C$DW$386, DW_AT_type(*$C$DW$T$19)
    4278                      .dwattr $C$DW$386, DW_AT_name("IPC10")
    4279                      .dwattr $C$DW$386, DW_AT_TI_symbol_name("_IPC10")
    4280                      .dwattr $C$DW$386, DW_AT_bit_offset(0x05), DW_AT_bit_size(0x01)
    4281                      .dwattr $C$DW$386, DW_AT_data_member_location[DW_OP_plus_uconst 0x0]
    4282                      .dwattr $C$DW$386, DW_AT_accessibility(DW_ACCESS_public)
    4283              $C$DW$387       .dwtag  DW_TAG_member
    4284                      .dwattr $C$DW$387, DW_AT_type(*$C$DW$T$19)
    4285                      .dwattr $C$DW$387, DW_AT_name("IPC11")
    4286                      .dwattr $C$DW$387, DW_AT_TI_symbol_name("_IPC11")
    4287                      .dwattr $C$DW$387, DW_AT_bit_offset(0x04), DW_AT_bit_size(0x01)
    4288                      .dwattr $C$DW$387, DW_AT_data_member_location[DW_OP_plus_uconst 0x0]
    4289                      .dwattr $C$DW$387, DW_AT_accessibility(DW_ACCESS_public)
    4290              $C$DW$388       .dwtag  DW_TAG_member
    4291                      .dwattr $C$DW$388, DW_AT_type(*$C$DW$T$19)
    4292                      .dwattr $C$DW$388, DW_AT_name("IPC12")
    4293                      .dwattr $C$DW$388, DW_AT_TI_symbol_name("_IPC12")
    4294                      .dwattr $C$DW$388, DW_AT_bit_offset(0x03), DW_AT_bit_size(0x01)
    4295                      .dwattr $C$DW$388, DW_AT_data_member_location[DW_OP_plus_uconst 0x0]
    4296                      .dwattr $C$DW$388, DW_AT_accessibility(DW_ACCESS_public)
    4297              $C$DW$389       .dwtag  DW_TAG_member
    4298                      .dwattr $C$DW$389, DW_AT_type(*$C$DW$T$19)
    4299                      .dwattr $C$DW$389, DW_AT_name("IPC13")
    4300                      .dwattr $C$DW$389, DW_AT_TI_symbol_name("_IPC13")
    4301                      .dwattr $C$DW$389, DW_AT_bit_offset(0x02), DW_AT_bit_size(0x01)
    4302                      .dwattr $C$DW$389, DW_AT_data_member_location[DW_OP_plus_uconst 0x0]
    4303                      .dwattr $C$DW$389, DW_AT_accessibility(DW_ACCESS_public)
    4304              $C$DW$390       .dwtag  DW_TAG_member
    4305                      .dwattr $C$DW$390, DW_AT_type(*$C$DW$T$19)
    4306                      .dwattr $C$DW$390, DW_AT_name("IPC14")
    4307                      .dwattr $C$DW$390, DW_AT_TI_symbol_name("_IPC14")
    4308                      .dwattr $C$DW$390, DW_AT_bit_offset(0x01), DW_AT_bit_size(0x01)
    4309                      .dwattr $C$DW$390, DW_AT_data_member_location[DW_OP_plus_uconst 0x0]
    4310                      .dwattr $C$DW$390, DW_AT_accessibility(DW_ACCESS_public)
    4311              $C$DW$391       .dwtag  DW_TAG_member
    4312                      .dwattr $C$DW$391, DW_AT_type(*$C$DW$T$19)
    4313                      .dwattr $C$DW$391, DW_AT_name("IPC15")
    4314                      .dwattr $C$DW$391, DW_AT_TI_symbol_name("_IPC15")
    4315                      .dwattr $C$DW$391, DW_AT_bit_offset(0x00), DW_AT_bit_size(0x01)
    4316                      .dwattr $C$DW$391, DW_AT_data_member_location[DW_OP_plus_uconst 0x0]
    4317                      .dwattr $C$DW$391, DW_AT_accessibility(DW_ACCESS_public)
    4318              $C$DW$392       .dwtag  DW_TAG_member
    4319                      .dwattr $C$DW$392, DW_AT_type(*$C$DW$T$19)
    4320                      .dwattr $C$DW$392, DW_AT_name("IPC16")
    4321                      .dwattr $C$DW$392, DW_AT_TI_symbol_name("_IPC16")
    4322                      .dwattr $C$DW$392, DW_AT_bit_offset(0x0f), DW_AT_bit_size(0x01)
    4323                      .dwattr $C$DW$392, DW_AT_data_member_location[DW_OP_plus_uconst 0x1]
    4324                      .dwattr $C$DW$392, DW_AT_accessibility(DW_ACCESS_public)
    4325              $C$DW$393       .dwtag  DW_TAG_member
    4326                      .dwattr $C$DW$393, DW_AT_type(*$C$DW$T$19)
    4327                      .dwattr $C$DW$393, DW_AT_name("IPC17")
TMS320C2000 Assembler PC v6.1.3 Thu Jan 30 10:26:14 2014

Tools Copyright (c) 1996-2012 Texas Instruments Incorporated
C:\Users\a0272466\AppData\Local\Temp\0274010                         PAGE   85

    4328                      .dwattr $C$DW$393, DW_AT_TI_symbol_name("_IPC17")
    4329                      .dwattr $C$DW$393, DW_AT_bit_offset(0x0e), DW_AT_bit_size(0x01)
    4330                      .dwattr $C$DW$393, DW_AT_data_member_location[DW_OP_plus_uconst 0x1]
    4331                      .dwattr $C$DW$393, DW_AT_accessibility(DW_ACCESS_public)
    4332              $C$DW$394       .dwtag  DW_TAG_member
    4333                      .dwattr $C$DW$394, DW_AT_type(*$C$DW$T$19)
    4334                      .dwattr $C$DW$394, DW_AT_name("IPC18")
    4335                      .dwattr $C$DW$394, DW_AT_TI_symbol_name("_IPC18")
    4336                      .dwattr $C$DW$394, DW_AT_bit_offset(0x0d), DW_AT_bit_size(0x01)
    4337                      .dwattr $C$DW$394, DW_AT_data_member_location[DW_OP_plus_uconst 0x1]
    4338                      .dwattr $C$DW$394, DW_AT_accessibility(DW_ACCESS_public)
    4339              $C$DW$395       .dwtag  DW_TAG_member
    4340                      .dwattr $C$DW$395, DW_AT_type(*$C$DW$T$19)
    4341                      .dwattr $C$DW$395, DW_AT_name("IPC19")
    4342                      .dwattr $C$DW$395, DW_AT_TI_symbol_name("_IPC19")
    4343                      .dwattr $C$DW$395, DW_AT_bit_offset(0x0c), DW_AT_bit_size(0x01)
    4344                      .dwattr $C$DW$395, DW_AT_data_member_location[DW_OP_plus_uconst 0x1]
    4345                      .dwattr $C$DW$395, DW_AT_accessibility(DW_ACCESS_public)
    4346              $C$DW$396       .dwtag  DW_TAG_member
    4347                      .dwattr $C$DW$396, DW_AT_type(*$C$DW$T$19)
    4348                      .dwattr $C$DW$396, DW_AT_name("IPC20")
    4349                      .dwattr $C$DW$396, DW_AT_TI_symbol_name("_IPC20")
    4350                      .dwattr $C$DW$396, DW_AT_bit_offset(0x0b), DW_AT_bit_size(0x01)
    4351                      .dwattr $C$DW$396, DW_AT_data_member_location[DW_OP_plus_uconst 0x1]
    4352                      .dwattr $C$DW$396, DW_AT_accessibility(DW_ACCESS_public)
    4353              $C$DW$397       .dwtag  DW_TAG_member
    4354                      .dwattr $C$DW$397, DW_AT_type(*$C$DW$T$19)
    4355                      .dwattr $C$DW$397, DW_AT_name("IPC21")
    4356                      .dwattr $C$DW$397, DW_AT_TI_symbol_name("_IPC21")
    4357                      .dwattr $C$DW$397, DW_AT_bit_offset(0x0a), DW_AT_bit_size(0x01)
    4358                      .dwattr $C$DW$397, DW_AT_data_member_location[DW_OP_plus_uconst 0x1]
    4359                      .dwattr $C$DW$397, DW_AT_accessibility(DW_ACCESS_public)
    4360              $C$DW$398       .dwtag  DW_TAG_member
    4361                      .dwattr $C$DW$398, DW_AT_type(*$C$DW$T$19)
    4362                      .dwattr $C$DW$398, DW_AT_name("IPC22")
    4363                      .dwattr $C$DW$398, DW_AT_TI_symbol_name("_IPC22")
    4364                      .dwattr $C$DW$398, DW_AT_bit_offset(0x09), DW_AT_bit_size(0x01)
    4365                      .dwattr $C$DW$398, DW_AT_data_member_location[DW_OP_plus_uconst 0x1]
    4366                      .dwattr $C$DW$398, DW_AT_accessibility(DW_ACCESS_public)
    4367              $C$DW$399       .dwtag  DW_TAG_member
    4368                      .dwattr $C$DW$399, DW_AT_type(*$C$DW$T$19)
    4369                      .dwattr $C$DW$399, DW_AT_name("IPC23")
    4370                      .dwattr $C$DW$399, DW_AT_TI_symbol_name("_IPC23")
    4371                      .dwattr $C$DW$399, DW_AT_bit_offset(0x08), DW_AT_bit_size(0x01)
    4372                      .dwattr $C$DW$399, DW_AT_data_member_location[DW_OP_plus_uconst 0x1]
    4373                      .dwattr $C$DW$399, DW_AT_accessibility(DW_ACCESS_public)
    4374              $C$DW$400       .dwtag  DW_TAG_member
    4375                      .dwattr $C$DW$400, DW_AT_type(*$C$DW$T$19)
    4376                      .dwattr $C$DW$400, DW_AT_name("IPC24")
    4377                      .dwattr $C$DW$400, DW_AT_TI_symbol_name("_IPC24")
    4378                      .dwattr $C$DW$400, DW_AT_bit_offset(0x07), DW_AT_bit_size(0x01)
    4379                      .dwattr $C$DW$400, DW_AT_data_member_location[DW_OP_plus_uconst 0x1]
    4380                      .dwattr $C$DW$400, DW_AT_accessibility(DW_ACCESS_public)
    4381              $C$DW$401       .dwtag  DW_TAG_member
    4382                      .dwattr $C$DW$401, DW_AT_type(*$C$DW$T$19)
TMS320C2000 Assembler PC v6.1.3 Thu Jan 30 10:26:14 2014

Tools Copyright (c) 1996-2012 Texas Instruments Incorporated
C:\Users\a0272466\AppData\Local\Temp\0274010                         PAGE   86

    4383                      .dwattr $C$DW$401, DW_AT_name("IPC25")
    4384                      .dwattr $C$DW$401, DW_AT_TI_symbol_name("_IPC25")
    4385                      .dwattr $C$DW$401, DW_AT_bit_offset(0x06), DW_AT_bit_size(0x01)
    4386                      .dwattr $C$DW$401, DW_AT_data_member_location[DW_OP_plus_uconst 0x1]
    4387                      .dwattr $C$DW$401, DW_AT_accessibility(DW_ACCESS_public)
    4388              $C$DW$402       .dwtag  DW_TAG_member
    4389                      .dwattr $C$DW$402, DW_AT_type(*$C$DW$T$19)
    4390                      .dwattr $C$DW$402, DW_AT_name("IPC26")
    4391                      .dwattr $C$DW$402, DW_AT_TI_symbol_name("_IPC26")
    4392                      .dwattr $C$DW$402, DW_AT_bit_offset(0x05), DW_AT_bit_size(0x01)
    4393                      .dwattr $C$DW$402, DW_AT_data_member_location[DW_OP_plus_uconst 0x1]
    4394                      .dwattr $C$DW$402, DW_AT_accessibility(DW_ACCESS_public)
    4395              $C$DW$403       .dwtag  DW_TAG_member
    4396                      .dwattr $C$DW$403, DW_AT_type(*$C$DW$T$19)
    4397                      .dwattr $C$DW$403, DW_AT_name("IPC27")
    4398                      .dwattr $C$DW$403, DW_AT_TI_symbol_name("_IPC27")
    4399                      .dwattr $C$DW$403, DW_AT_bit_offset(0x04), DW_AT_bit_size(0x01)
    4400                      .dwattr $C$DW$403, DW_AT_data_member_location[DW_OP_plus_uconst 0x1]
    4401                      .dwattr $C$DW$403, DW_AT_accessibility(DW_ACCESS_public)
    4402              $C$DW$404       .dwtag  DW_TAG_member
    4403                      .dwattr $C$DW$404, DW_AT_type(*$C$DW$T$19)
    4404                      .dwattr $C$DW$404, DW_AT_name("IPC28")
    4405                      .dwattr $C$DW$404, DW_AT_TI_symbol_name("_IPC28")
    4406                      .dwattr $C$DW$404, DW_AT_bit_offset(0x03), DW_AT_bit_size(0x01)
    4407                      .dwattr $C$DW$404, DW_AT_data_member_location[DW_OP_plus_uconst 0x1]
    4408                      .dwattr $C$DW$404, DW_AT_accessibility(DW_ACCESS_public)
    4409              $C$DW$405       .dwtag  DW_TAG_member
    4410                      .dwattr $C$DW$405, DW_AT_type(*$C$DW$T$19)
    4411                      .dwattr $C$DW$405, DW_AT_name("IPC29")
    4412                      .dwattr $C$DW$405, DW_AT_TI_symbol_name("_IPC29")
    4413                      .dwattr $C$DW$405, DW_AT_bit_offset(0x02), DW_AT_bit_size(0x01)
    4414                      .dwattr $C$DW$405, DW_AT_data_member_location[DW_OP_plus_uconst 0x1]
    4415                      .dwattr $C$DW$405, DW_AT_accessibility(DW_ACCESS_public)
    4416              $C$DW$406       .dwtag  DW_TAG_member
    4417                      .dwattr $C$DW$406, DW_AT_type(*$C$DW$T$19)
    4418                      .dwattr $C$DW$406, DW_AT_name("IPC30")
    4419                      .dwattr $C$DW$406, DW_AT_TI_symbol_name("_IPC30")
    4420                      .dwattr $C$DW$406, DW_AT_bit_offset(0x01), DW_AT_bit_size(0x01)
    4421                      .dwattr $C$DW$406, DW_AT_data_member_location[DW_OP_plus_uconst 0x1]
    4422                      .dwattr $C$DW$406, DW_AT_accessibility(DW_ACCESS_public)
    4423              $C$DW$407       .dwtag  DW_TAG_member
    4424                      .dwattr $C$DW$407, DW_AT_type(*$C$DW$T$19)
    4425                      .dwattr $C$DW$407, DW_AT_name("IPC31")
    4426                      .dwattr $C$DW$407, DW_AT_TI_symbol_name("_IPC31")
    4427                      .dwattr $C$DW$407, DW_AT_bit_offset(0x00), DW_AT_bit_size(0x01)
    4428                      .dwattr $C$DW$407, DW_AT_data_member_location[DW_OP_plus_uconst 0x1]
    4429                      .dwattr $C$DW$407, DW_AT_accessibility(DW_ACCESS_public)
    4430                      .dwendtag $C$DW$T$42
    4431              
    4432              
    4433              $C$DW$T$43      .dwtag  DW_TAG_union_type
    4434                      .dwattr $C$DW$T$43, DW_AT_name("IPCSET_REG")
    4435                      .dwattr $C$DW$T$43, DW_AT_byte_size(0x02)
    4436              $C$DW$408       .dwtag  DW_TAG_member
    4437                      .dwattr $C$DW$408, DW_AT_type(*$C$DW$T$21)
TMS320C2000 Assembler PC v6.1.3 Thu Jan 30 10:26:14 2014

Tools Copyright (c) 1996-2012 Texas Instruments Incorporated
C:\Users\a0272466\AppData\Local\Temp\0274010                         PAGE   87

    4438                      .dwattr $C$DW$408, DW_AT_name("all")
    4439                      .dwattr $C$DW$408, DW_AT_TI_symbol_name("_all")
    4440                      .dwattr $C$DW$408, DW_AT_data_member_location[DW_OP_plus_uconst 0x0]
    4441                      .dwattr $C$DW$408, DW_AT_accessibility(DW_ACCESS_public)
    4442              $C$DW$409       .dwtag  DW_TAG_member
    4443                      .dwattr $C$DW$409, DW_AT_type(*$C$DW$T$42)
    4444                      .dwattr $C$DW$409, DW_AT_name("bit")
    4445                      .dwattr $C$DW$409, DW_AT_TI_symbol_name("_bit")
    4446                      .dwattr $C$DW$409, DW_AT_data_member_location[DW_OP_plus_uconst 0x0]
    4447                      .dwattr $C$DW$409, DW_AT_accessibility(DW_ACCESS_public)
    4448                      .dwendtag $C$DW$T$43
    4449              
    4450              
    4451              $C$DW$T$44      .dwtag  DW_TAG_structure_type
    4452                      .dwattr $C$DW$T$44, DW_AT_name("IPCSTS_BITS")
    4453                      .dwattr $C$DW$T$44, DW_AT_byte_size(0x02)
    4454              $C$DW$410       .dwtag  DW_TAG_member
    4455                      .dwattr $C$DW$410, DW_AT_type(*$C$DW$T$19)
    4456                      .dwattr $C$DW$410, DW_AT_name("IPC0")
    4457                      .dwattr $C$DW$410, DW_AT_TI_symbol_name("_IPC0")
    4458                      .dwattr $C$DW$410, DW_AT_bit_offset(0x0f), DW_AT_bit_size(0x01)
    4459                      .dwattr $C$DW$410, DW_AT_data_member_location[DW_OP_plus_uconst 0x0]
    4460                      .dwattr $C$DW$410, DW_AT_accessibility(DW_ACCESS_public)
    4461              $C$DW$411       .dwtag  DW_TAG_member
    4462                      .dwattr $C$DW$411, DW_AT_type(*$C$DW$T$19)
    4463                      .dwattr $C$DW$411, DW_AT_name("IPC1")
    4464                      .dwattr $C$DW$411, DW_AT_TI_symbol_name("_IPC1")
    4465                      .dwattr $C$DW$411, DW_AT_bit_offset(0x0e), DW_AT_bit_size(0x01)
    4466                      .dwattr $C$DW$411, DW_AT_data_member_location[DW_OP_plus_uconst 0x0]
    4467                      .dwattr $C$DW$411, DW_AT_accessibility(DW_ACCESS_public)
    4468              $C$DW$412       .dwtag  DW_TAG_member
    4469                      .dwattr $C$DW$412, DW_AT_type(*$C$DW$T$19)
    4470                      .dwattr $C$DW$412, DW_AT_name("IPC2")
    4471                      .dwattr $C$DW$412, DW_AT_TI_symbol_name("_IPC2")
    4472                      .dwattr $C$DW$412, DW_AT_bit_offset(0x0d), DW_AT_bit_size(0x01)
    4473                      .dwattr $C$DW$412, DW_AT_data_member_location[DW_OP_plus_uconst 0x0]
    4474                      .dwattr $C$DW$412, DW_AT_accessibility(DW_ACCESS_public)
    4475              $C$DW$413       .dwtag  DW_TAG_member
    4476                      .dwattr $C$DW$413, DW_AT_type(*$C$DW$T$19)
    4477                      .dwattr $C$DW$413, DW_AT_name("IPC3")
    4478                      .dwattr $C$DW$413, DW_AT_TI_symbol_name("_IPC3")
    4479                      .dwattr $C$DW$413, DW_AT_bit_offset(0x0c), DW_AT_bit_size(0x01)
    4480                      .dwattr $C$DW$413, DW_AT_data_member_location[DW_OP_plus_uconst 0x0]
    4481                      .dwattr $C$DW$413, DW_AT_accessibility(DW_ACCESS_public)
    4482              $C$DW$414       .dwtag  DW_TAG_member
    4483                      .dwattr $C$DW$414, DW_AT_type(*$C$DW$T$19)
    4484                      .dwattr $C$DW$414, DW_AT_name("IPC4")
    4485                      .dwattr $C$DW$414, DW_AT_TI_symbol_name("_IPC4")
    4486                      .dwattr $C$DW$414, DW_AT_bit_offset(0x0b), DW_AT_bit_size(0x01)
    4487                      .dwattr $C$DW$414, DW_AT_data_member_location[DW_OP_plus_uconst 0x0]
    4488                      .dwattr $C$DW$414, DW_AT_accessibility(DW_ACCESS_public)
    4489              $C$DW$415       .dwtag  DW_TAG_member
    4490                      .dwattr $C$DW$415, DW_AT_type(*$C$DW$T$19)
    4491                      .dwattr $C$DW$415, DW_AT_name("IPC5")
    4492                      .dwattr $C$DW$415, DW_AT_TI_symbol_name("_IPC5")
TMS320C2000 Assembler PC v6.1.3 Thu Jan 30 10:26:14 2014

Tools Copyright (c) 1996-2012 Texas Instruments Incorporated
C:\Users\a0272466\AppData\Local\Temp\0274010                         PAGE   88

    4493                      .dwattr $C$DW$415, DW_AT_bit_offset(0x0a), DW_AT_bit_size(0x01)
    4494                      .dwattr $C$DW$415, DW_AT_data_member_location[DW_OP_plus_uconst 0x0]
    4495                      .dwattr $C$DW$415, DW_AT_accessibility(DW_ACCESS_public)
    4496              $C$DW$416       .dwtag  DW_TAG_member
    4497                      .dwattr $C$DW$416, DW_AT_type(*$C$DW$T$19)
    4498                      .dwattr $C$DW$416, DW_AT_name("IPC6")
    4499                      .dwattr $C$DW$416, DW_AT_TI_symbol_name("_IPC6")
    4500                      .dwattr $C$DW$416, DW_AT_bit_offset(0x09), DW_AT_bit_size(0x01)
    4501                      .dwattr $C$DW$416, DW_AT_data_member_location[DW_OP_plus_uconst 0x0]
    4502                      .dwattr $C$DW$416, DW_AT_accessibility(DW_ACCESS_public)
    4503              $C$DW$417       .dwtag  DW_TAG_member
    4504                      .dwattr $C$DW$417, DW_AT_type(*$C$DW$T$19)
    4505                      .dwattr $C$DW$417, DW_AT_name("IPC7")
    4506                      .dwattr $C$DW$417, DW_AT_TI_symbol_name("_IPC7")
    4507                      .dwattr $C$DW$417, DW_AT_bit_offset(0x08), DW_AT_bit_size(0x01)
    4508                      .dwattr $C$DW$417, DW_AT_data_member_location[DW_OP_plus_uconst 0x0]
    4509                      .dwattr $C$DW$417, DW_AT_accessibility(DW_ACCESS_public)
    4510              $C$DW$418       .dwtag  DW_TAG_member
    4511                      .dwattr $C$DW$418, DW_AT_type(*$C$DW$T$19)
    4512                      .dwattr $C$DW$418, DW_AT_name("IPC8")
    4513                      .dwattr $C$DW$418, DW_AT_TI_symbol_name("_IPC8")
    4514                      .dwattr $C$DW$418, DW_AT_bit_offset(0x07), DW_AT_bit_size(0x01)
    4515                      .dwattr $C$DW$418, DW_AT_data_member_location[DW_OP_plus_uconst 0x0]
    4516                      .dwattr $C$DW$418, DW_AT_accessibility(DW_ACCESS_public)
    4517              $C$DW$419       .dwtag  DW_TAG_member
    4518                      .dwattr $C$DW$419, DW_AT_type(*$C$DW$T$19)
    4519                      .dwattr $C$DW$419, DW_AT_name("IPC9")
    4520                      .dwattr $C$DW$419, DW_AT_TI_symbol_name("_IPC9")
    4521                      .dwattr $C$DW$419, DW_AT_bit_offset(0x06), DW_AT_bit_size(0x01)
    4522                      .dwattr $C$DW$419, DW_AT_data_member_location[DW_OP_plus_uconst 0x0]
    4523                      .dwattr $C$DW$419, DW_AT_accessibility(DW_ACCESS_public)
    4524              $C$DW$420       .dwtag  DW_TAG_member
    4525                      .dwattr $C$DW$420, DW_AT_type(*$C$DW$T$19)
    4526                      .dwattr $C$DW$420, DW_AT_name("IPC10")
    4527                      .dwattr $C$DW$420, DW_AT_TI_symbol_name("_IPC10")
    4528                      .dwattr $C$DW$420, DW_AT_bit_offset(0x05), DW_AT_bit_size(0x01)
    4529                      .dwattr $C$DW$420, DW_AT_data_member_location[DW_OP_plus_uconst 0x0]
    4530                      .dwattr $C$DW$420, DW_AT_accessibility(DW_ACCESS_public)
    4531              $C$DW$421       .dwtag  DW_TAG_member
    4532                      .dwattr $C$DW$421, DW_AT_type(*$C$DW$T$19)
    4533                      .dwattr $C$DW$421, DW_AT_name("IPC11")
    4534                      .dwattr $C$DW$421, DW_AT_TI_symbol_name("_IPC11")
    4535                      .dwattr $C$DW$421, DW_AT_bit_offset(0x04), DW_AT_bit_size(0x01)
    4536                      .dwattr $C$DW$421, DW_AT_data_member_location[DW_OP_plus_uconst 0x0]
    4537                      .dwattr $C$DW$421, DW_AT_accessibility(DW_ACCESS_public)
    4538              $C$DW$422       .dwtag  DW_TAG_member
    4539                      .dwattr $C$DW$422, DW_AT_type(*$C$DW$T$19)
    4540                      .dwattr $C$DW$422, DW_AT_name("IPC12")
    4541                      .dwattr $C$DW$422, DW_AT_TI_symbol_name("_IPC12")
    4542                      .dwattr $C$DW$422, DW_AT_bit_offset(0x03), DW_AT_bit_size(0x01)
    4543                      .dwattr $C$DW$422, DW_AT_data_member_location[DW_OP_plus_uconst 0x0]
    4544                      .dwattr $C$DW$422, DW_AT_accessibility(DW_ACCESS_public)
    4545              $C$DW$423       .dwtag  DW_TAG_member
    4546                      .dwattr $C$DW$423, DW_AT_type(*$C$DW$T$19)
    4547                      .dwattr $C$DW$423, DW_AT_name("IPC13")
TMS320C2000 Assembler PC v6.1.3 Thu Jan 30 10:26:14 2014

Tools Copyright (c) 1996-2012 Texas Instruments Incorporated
C:\Users\a0272466\AppData\Local\Temp\0274010                         PAGE   89

    4548                      .dwattr $C$DW$423, DW_AT_TI_symbol_name("_IPC13")
    4549                      .dwattr $C$DW$423, DW_AT_bit_offset(0x02), DW_AT_bit_size(0x01)
    4550                      .dwattr $C$DW$423, DW_AT_data_member_location[DW_OP_plus_uconst 0x0]
    4551                      .dwattr $C$DW$423, DW_AT_accessibility(DW_ACCESS_public)
    4552              $C$DW$424       .dwtag  DW_TAG_member
    4553                      .dwattr $C$DW$424, DW_AT_type(*$C$DW$T$19)
    4554                      .dwattr $C$DW$424, DW_AT_name("IPC14")
    4555                      .dwattr $C$DW$424, DW_AT_TI_symbol_name("_IPC14")
    4556                      .dwattr $C$DW$424, DW_AT_bit_offset(0x01), DW_AT_bit_size(0x01)
    4557                      .dwattr $C$DW$424, DW_AT_data_member_location[DW_OP_plus_uconst 0x0]
    4558                      .dwattr $C$DW$424, DW_AT_accessibility(DW_ACCESS_public)
    4559              $C$DW$425       .dwtag  DW_TAG_member
    4560                      .dwattr $C$DW$425, DW_AT_type(*$C$DW$T$19)
    4561                      .dwattr $C$DW$425, DW_AT_name("IPC15")
    4562                      .dwattr $C$DW$425, DW_AT_TI_symbol_name("_IPC15")
    4563                      .dwattr $C$DW$425, DW_AT_bit_offset(0x00), DW_AT_bit_size(0x01)
    4564                      .dwattr $C$DW$425, DW_AT_data_member_location[DW_OP_plus_uconst 0x0]
    4565                      .dwattr $C$DW$425, DW_AT_accessibility(DW_ACCESS_public)
    4566              $C$DW$426       .dwtag  DW_TAG_member
    4567                      .dwattr $C$DW$426, DW_AT_type(*$C$DW$T$19)
    4568                      .dwattr $C$DW$426, DW_AT_name("IPC16")
    4569                      .dwattr $C$DW$426, DW_AT_TI_symbol_name("_IPC16")
    4570                      .dwattr $C$DW$426, DW_AT_bit_offset(0x0f), DW_AT_bit_size(0x01)
    4571                      .dwattr $C$DW$426, DW_AT_data_member_location[DW_OP_plus_uconst 0x1]
    4572                      .dwattr $C$DW$426, DW_AT_accessibility(DW_ACCESS_public)
    4573              $C$DW$427       .dwtag  DW_TAG_member
    4574                      .dwattr $C$DW$427, DW_AT_type(*$C$DW$T$19)
    4575                      .dwattr $C$DW$427, DW_AT_name("IPC17")
    4576                      .dwattr $C$DW$427, DW_AT_TI_symbol_name("_IPC17")
    4577                      .dwattr $C$DW$427, DW_AT_bit_offset(0x0e), DW_AT_bit_size(0x01)
    4578                      .dwattr $C$DW$427, DW_AT_data_member_location[DW_OP_plus_uconst 0x1]
    4579                      .dwattr $C$DW$427, DW_AT_accessibility(DW_ACCESS_public)
    4580              $C$DW$428       .dwtag  DW_TAG_member
    4581                      .dwattr $C$DW$428, DW_AT_type(*$C$DW$T$19)
    4582                      .dwattr $C$DW$428, DW_AT_name("IPC18")
    4583                      .dwattr $C$DW$428, DW_AT_TI_symbol_name("_IPC18")
    4584                      .dwattr $C$DW$428, DW_AT_bit_offset(0x0d), DW_AT_bit_size(0x01)
    4585                      .dwattr $C$DW$428, DW_AT_data_member_location[DW_OP_plus_uconst 0x1]
    4586                      .dwattr $C$DW$428, DW_AT_accessibility(DW_ACCESS_public)
    4587              $C$DW$429       .dwtag  DW_TAG_member
    4588                      .dwattr $C$DW$429, DW_AT_type(*$C$DW$T$19)
    4589                      .dwattr $C$DW$429, DW_AT_name("IPC19")
    4590                      .dwattr $C$DW$429, DW_AT_TI_symbol_name("_IPC19")
    4591                      .dwattr $C$DW$429, DW_AT_bit_offset(0x0c), DW_AT_bit_size(0x01)
    4592                      .dwattr $C$DW$429, DW_AT_data_member_location[DW_OP_plus_uconst 0x1]
    4593                      .dwattr $C$DW$429, DW_AT_accessibility(DW_ACCESS_public)
    4594              $C$DW$430       .dwtag  DW_TAG_member
    4595                      .dwattr $C$DW$430, DW_AT_type(*$C$DW$T$19)
    4596                      .dwattr $C$DW$430, DW_AT_name("IPC20")
    4597                      .dwattr $C$DW$430, DW_AT_TI_symbol_name("_IPC20")
    4598                      .dwattr $C$DW$430, DW_AT_bit_offset(0x0b), DW_AT_bit_size(0x01)
    4599                      .dwattr $C$DW$430, DW_AT_data_member_location[DW_OP_plus_uconst 0x1]
    4600                      .dwattr $C$DW$430, DW_AT_accessibility(DW_ACCESS_public)
    4601              $C$DW$431       .dwtag  DW_TAG_member
    4602                      .dwattr $C$DW$431, DW_AT_type(*$C$DW$T$19)
TMS320C2000 Assembler PC v6.1.3 Thu Jan 30 10:26:14 2014

Tools Copyright (c) 1996-2012 Texas Instruments Incorporated
C:\Users\a0272466\AppData\Local\Temp\0274010                         PAGE   90

    4603                      .dwattr $C$DW$431, DW_AT_name("IPC21")
    4604                      .dwattr $C$DW$431, DW_AT_TI_symbol_name("_IPC21")
    4605                      .dwattr $C$DW$431, DW_AT_bit_offset(0x0a), DW_AT_bit_size(0x01)
    4606                      .dwattr $C$DW$431, DW_AT_data_member_location[DW_OP_plus_uconst 0x1]
    4607                      .dwattr $C$DW$431, DW_AT_accessibility(DW_ACCESS_public)
    4608              $C$DW$432       .dwtag  DW_TAG_member
    4609                      .dwattr $C$DW$432, DW_AT_type(*$C$DW$T$19)
    4610                      .dwattr $C$DW$432, DW_AT_name("IPC22")
    4611                      .dwattr $C$DW$432, DW_AT_TI_symbol_name("_IPC22")
    4612                      .dwattr $C$DW$432, DW_AT_bit_offset(0x09), DW_AT_bit_size(0x01)
    4613                      .dwattr $C$DW$432, DW_AT_data_member_location[DW_OP_plus_uconst 0x1]
    4614                      .dwattr $C$DW$432, DW_AT_accessibility(DW_ACCESS_public)
    4615              $C$DW$433       .dwtag  DW_TAG_member
    4616                      .dwattr $C$DW$433, DW_AT_type(*$C$DW$T$19)
    4617                      .dwattr $C$DW$433, DW_AT_name("IPC23")
    4618                      .dwattr $C$DW$433, DW_AT_TI_symbol_name("_IPC23")
    4619                      .dwattr $C$DW$433, DW_AT_bit_offset(0x08), DW_AT_bit_size(0x01)
    4620                      .dwattr $C$DW$433, DW_AT_data_member_location[DW_OP_plus_uconst 0x1]
    4621                      .dwattr $C$DW$433, DW_AT_accessibility(DW_ACCESS_public)
    4622              $C$DW$434       .dwtag  DW_TAG_member
    4623                      .dwattr $C$DW$434, DW_AT_type(*$C$DW$T$19)
    4624                      .dwattr $C$DW$434, DW_AT_name("IPC24")
    4625                      .dwattr $C$DW$434, DW_AT_TI_symbol_name("_IPC24")
    4626                      .dwattr $C$DW$434, DW_AT_bit_offset(0x07), DW_AT_bit_size(0x01)
    4627                      .dwattr $C$DW$434, DW_AT_data_member_location[DW_OP_plus_uconst 0x1]
    4628                      .dwattr $C$DW$434, DW_AT_accessibility(DW_ACCESS_public)
    4629              $C$DW$435       .dwtag  DW_TAG_member
    4630                      .dwattr $C$DW$435, DW_AT_type(*$C$DW$T$19)
    4631                      .dwattr $C$DW$435, DW_AT_name("IPC25")
    4632                      .dwattr $C$DW$435, DW_AT_TI_symbol_name("_IPC25")
    4633                      .dwattr $C$DW$435, DW_AT_bit_offset(0x06), DW_AT_bit_size(0x01)
    4634                      .dwattr $C$DW$435, DW_AT_data_member_location[DW_OP_plus_uconst 0x1]
    4635                      .dwattr $C$DW$435, DW_AT_accessibility(DW_ACCESS_public)
    4636              $C$DW$436       .dwtag  DW_TAG_member
    4637                      .dwattr $C$DW$436, DW_AT_type(*$C$DW$T$19)
    4638                      .dwattr $C$DW$436, DW_AT_name("IPC26")
    4639                      .dwattr $C$DW$436, DW_AT_TI_symbol_name("_IPC26")
    4640                      .dwattr $C$DW$436, DW_AT_bit_offset(0x05), DW_AT_bit_size(0x01)
    4641                      .dwattr $C$DW$436, DW_AT_data_member_location[DW_OP_plus_uconst 0x1]
    4642                      .dwattr $C$DW$436, DW_AT_accessibility(DW_ACCESS_public)
    4643              $C$DW$437       .dwtag  DW_TAG_member
    4644                      .dwattr $C$DW$437, DW_AT_type(*$C$DW$T$19)
    4645                      .dwattr $C$DW$437, DW_AT_name("IPC27")
    4646                      .dwattr $C$DW$437, DW_AT_TI_symbol_name("_IPC27")
    4647                      .dwattr $C$DW$437, DW_AT_bit_offset(0x04), DW_AT_bit_size(0x01)
    4648                      .dwattr $C$DW$437, DW_AT_data_member_location[DW_OP_plus_uconst 0x1]
    4649                      .dwattr $C$DW$437, DW_AT_accessibility(DW_ACCESS_public)
    4650              $C$DW$438       .dwtag  DW_TAG_member
    4651                      .dwattr $C$DW$438, DW_AT_type(*$C$DW$T$19)
    4652                      .dwattr $C$DW$438, DW_AT_name("IPC28")
    4653                      .dwattr $C$DW$438, DW_AT_TI_symbol_name("_IPC28")
    4654                      .dwattr $C$DW$438, DW_AT_bit_offset(0x03), DW_AT_bit_size(0x01)
    4655                      .dwattr $C$DW$438, DW_AT_data_member_location[DW_OP_plus_uconst 0x1]
    4656                      .dwattr $C$DW$438, DW_AT_accessibility(DW_ACCESS_public)
    4657              $C$DW$439       .dwtag  DW_TAG_member
TMS320C2000 Assembler PC v6.1.3 Thu Jan 30 10:26:14 2014

Tools Copyright (c) 1996-2012 Texas Instruments Incorporated
C:\Users\a0272466\AppData\Local\Temp\0274010                         PAGE   91

    4658                      .dwattr $C$DW$439, DW_AT_type(*$C$DW$T$19)
    4659                      .dwattr $C$DW$439, DW_AT_name("IPC29")
    4660                      .dwattr $C$DW$439, DW_AT_TI_symbol_name("_IPC29")
    4661                      .dwattr $C$DW$439, DW_AT_bit_offset(0x02), DW_AT_bit_size(0x01)
    4662                      .dwattr $C$DW$439, DW_AT_data_member_location[DW_OP_plus_uconst 0x1]
    4663                      .dwattr $C$DW$439, DW_AT_accessibility(DW_ACCESS_public)
    4664              $C$DW$440       .dwtag  DW_TAG_member
    4665                      .dwattr $C$DW$440, DW_AT_type(*$C$DW$T$19)
    4666                      .dwattr $C$DW$440, DW_AT_name("IPC30")
    4667                      .dwattr $C$DW$440, DW_AT_TI_symbol_name("_IPC30")
    4668                      .dwattr $C$DW$440, DW_AT_bit_offset(0x01), DW_AT_bit_size(0x01)
    4669                      .dwattr $C$DW$440, DW_AT_data_member_location[DW_OP_plus_uconst 0x1]
    4670                      .dwattr $C$DW$440, DW_AT_accessibility(DW_ACCESS_public)
    4671              $C$DW$441       .dwtag  DW_TAG_member
    4672                      .dwattr $C$DW$441, DW_AT_type(*$C$DW$T$19)
    4673                      .dwattr $C$DW$441, DW_AT_name("IPC31")
    4674                      .dwattr $C$DW$441, DW_AT_TI_symbol_name("_IPC31")
    4675                      .dwattr $C$DW$441, DW_AT_bit_offset(0x00), DW_AT_bit_size(0x01)
    4676                      .dwattr $C$DW$441, DW_AT_data_member_location[DW_OP_plus_uconst 0x1]
    4677                      .dwattr $C$DW$441, DW_AT_accessibility(DW_ACCESS_public)
    4678                      .dwendtag $C$DW$T$44
    4679              
    4680              
    4681              $C$DW$T$45      .dwtag  DW_TAG_union_type
    4682                      .dwattr $C$DW$T$45, DW_AT_name("IPCSTS_REG")
    4683                      .dwattr $C$DW$T$45, DW_AT_byte_size(0x02)
    4684              $C$DW$442       .dwtag  DW_TAG_member
    4685                      .dwattr $C$DW$442, DW_AT_type(*$C$DW$T$21)
    4686                      .dwattr $C$DW$442, DW_AT_name("all")
    4687                      .dwattr $C$DW$442, DW_AT_TI_symbol_name("_all")
    4688                      .dwattr $C$DW$442, DW_AT_data_member_location[DW_OP_plus_uconst 0x0]
    4689                      .dwattr $C$DW$442, DW_AT_accessibility(DW_ACCESS_public)
    4690              $C$DW$443       .dwtag  DW_TAG_member
    4691                      .dwattr $C$DW$443, DW_AT_type(*$C$DW$T$44)
    4692                      .dwattr $C$DW$443, DW_AT_name("bit")
    4693                      .dwattr $C$DW$443, DW_AT_TI_symbol_name("_bit")
    4694                      .dwattr $C$DW$443, DW_AT_data_member_location[DW_OP_plus_uconst 0x0]
    4695                      .dwattr $C$DW$443, DW_AT_accessibility(DW_ACCESS_public)
    4696                      .dwendtag $C$DW$T$45
    4697              
    4698              
    4699              $C$DW$T$46      .dwtag  DW_TAG_structure_type
    4700                      .dwattr $C$DW$T$46, DW_AT_name("IPC_REGS")
    4701                      .dwattr $C$DW$T$46, DW_AT_byte_size(0x26)
    4702              $C$DW$444       .dwtag  DW_TAG_member
    4703                      .dwattr $C$DW$444, DW_AT_type(*$C$DW$T$37)
    4704                      .dwattr $C$DW$444, DW_AT_name("IPCACK")
    4705                      .dwattr $C$DW$444, DW_AT_TI_symbol_name("_IPCACK")
    4706                      .dwattr $C$DW$444, DW_AT_data_member_location[DW_OP_plus_uconst 0x0]
    4707                      .dwattr $C$DW$444, DW_AT_accessibility(DW_ACCESS_public)
    4708              $C$DW$445       .dwtag  DW_TAG_member
    4709                      .dwattr $C$DW$445, DW_AT_type(*$C$DW$T$45)
    4710                      .dwattr $C$DW$445, DW_AT_name("IPCSTS")
    4711                      .dwattr $C$DW$445, DW_AT_TI_symbol_name("_IPCSTS")
    4712                      .dwattr $C$DW$445, DW_AT_data_member_location[DW_OP_plus_uconst 0x2]
TMS320C2000 Assembler PC v6.1.3 Thu Jan 30 10:26:14 2014

Tools Copyright (c) 1996-2012 Texas Instruments Incorporated
C:\Users\a0272466\AppData\Local\Temp\0274010                         PAGE   92

    4713                      .dwattr $C$DW$445, DW_AT_accessibility(DW_ACCESS_public)
    4714              $C$DW$446       .dwtag  DW_TAG_member
    4715                      .dwattr $C$DW$446, DW_AT_type(*$C$DW$T$43)
    4716                      .dwattr $C$DW$446, DW_AT_name("IPCSET")
    4717                      .dwattr $C$DW$446, DW_AT_TI_symbol_name("_IPCSET")
    4718                      .dwattr $C$DW$446, DW_AT_data_member_location[DW_OP_plus_uconst 0x4]
    4719                      .dwattr $C$DW$446, DW_AT_accessibility(DW_ACCESS_public)
    4720              $C$DW$447       .dwtag  DW_TAG_member
    4721                      .dwattr $C$DW$447, DW_AT_type(*$C$DW$T$39)
    4722                      .dwattr $C$DW$447, DW_AT_name("IPCCLR")
    4723                      .dwattr $C$DW$447, DW_AT_TI_symbol_name("_IPCCLR")
    4724                      .dwattr $C$DW$447, DW_AT_data_member_location[DW_OP_plus_uconst 0x6]
    4725                      .dwattr $C$DW$447, DW_AT_accessibility(DW_ACCESS_public)
    4726              $C$DW$448       .dwtag  DW_TAG_member
    4727                      .dwattr $C$DW$448, DW_AT_type(*$C$DW$T$41)
    4728                      .dwattr $C$DW$448, DW_AT_name("IPCFLG")
    4729                      .dwattr $C$DW$448, DW_AT_TI_symbol_name("_IPCFLG")
    4730                      .dwattr $C$DW$448, DW_AT_data_member_location[DW_OP_plus_uconst 0x8]
    4731                      .dwattr $C$DW$448, DW_AT_accessibility(DW_ACCESS_public)
    4732              $C$DW$449       .dwtag  DW_TAG_member
    4733                      .dwattr $C$DW$449, DW_AT_type(*$C$DW$T$27)
    4734                      .dwattr $C$DW$449, DW_AT_name("rsvd1")
    4735                      .dwattr $C$DW$449, DW_AT_TI_symbol_name("_rsvd1")
    4736                      .dwattr $C$DW$449, DW_AT_data_member_location[DW_OP_plus_uconst 0xa]
    4737                      .dwattr $C$DW$449, DW_AT_accessibility(DW_ACCESS_public)
    4738              $C$DW$450       .dwtag  DW_TAG_member
    4739                      .dwattr $C$DW$450, DW_AT_type(*$C$DW$T$21)
    4740                      .dwattr $C$DW$450, DW_AT_name("IPCCOUNTERL")
    4741                      .dwattr $C$DW$450, DW_AT_TI_symbol_name("_IPCCOUNTERL")
    4742                      .dwattr $C$DW$450, DW_AT_data_member_location[DW_OP_plus_uconst 0xc]
    4743                      .dwattr $C$DW$450, DW_AT_accessibility(DW_ACCESS_public)
    4744              $C$DW$451       .dwtag  DW_TAG_member
    4745                      .dwattr $C$DW$451, DW_AT_type(*$C$DW$T$21)
    4746                      .dwattr $C$DW$451, DW_AT_name("IPCCOUNTERH")
    4747                      .dwattr $C$DW$451, DW_AT_TI_symbol_name("_IPCCOUNTERH")
    4748                      .dwattr $C$DW$451, DW_AT_data_member_location[DW_OP_plus_uconst 0xe]
    4749                      .dwattr $C$DW$451, DW_AT_accessibility(DW_ACCESS_public)
    4750              $C$DW$452       .dwtag  DW_TAG_member
    4751                      .dwattr $C$DW$452, DW_AT_type(*$C$DW$T$21)
    4752                      .dwattr $C$DW$452, DW_AT_name("IPCSENDCOM")
    4753                      .dwattr $C$DW$452, DW_AT_TI_symbol_name("_IPCSENDCOM")
    4754                      .dwattr $C$DW$452, DW_AT_data_member_location[DW_OP_plus_uconst 0x10]
    4755                      .dwattr $C$DW$452, DW_AT_accessibility(DW_ACCESS_public)
    4756              $C$DW$453       .dwtag  DW_TAG_member
    4757                      .dwattr $C$DW$453, DW_AT_type(*$C$DW$T$21)
    4758                      .dwattr $C$DW$453, DW_AT_name("IPCSENDADDR")
    4759                      .dwattr $C$DW$453, DW_AT_TI_symbol_name("_IPCSENDADDR")
    4760                      .dwattr $C$DW$453, DW_AT_data_member_location[DW_OP_plus_uconst 0x12]
    4761                      .dwattr $C$DW$453, DW_AT_accessibility(DW_ACCESS_public)
    4762              $C$DW$454       .dwtag  DW_TAG_member
    4763                      .dwattr $C$DW$454, DW_AT_type(*$C$DW$T$21)
    4764                      .dwattr $C$DW$454, DW_AT_name("IPCSENDDATA")
    4765                      .dwattr $C$DW$454, DW_AT_TI_symbol_name("_IPCSENDDATA")
    4766                      .dwattr $C$DW$454, DW_AT_data_member_location[DW_OP_plus_uconst 0x14]
    4767                      .dwattr $C$DW$454, DW_AT_accessibility(DW_ACCESS_public)
TMS320C2000 Assembler PC v6.1.3 Thu Jan 30 10:26:14 2014

Tools Copyright (c) 1996-2012 Texas Instruments Incorporated
C:\Users\a0272466\AppData\Local\Temp\0274010                         PAGE   93

    4768              $C$DW$455       .dwtag  DW_TAG_member
    4769                      .dwattr $C$DW$455, DW_AT_type(*$C$DW$T$21)
    4770                      .dwattr $C$DW$455, DW_AT_name("IPCREMOTEREPLY")
    4771                      .dwattr $C$DW$455, DW_AT_TI_symbol_name("_IPCREMOTEREPLY")
    4772                      .dwattr $C$DW$455, DW_AT_data_member_location[DW_OP_plus_uconst 0x16]
    4773                      .dwattr $C$DW$455, DW_AT_accessibility(DW_ACCESS_public)
    4774              $C$DW$456       .dwtag  DW_TAG_member
    4775                      .dwattr $C$DW$456, DW_AT_type(*$C$DW$T$21)
    4776                      .dwattr $C$DW$456, DW_AT_name("IPCRECVCOM")
    4777                      .dwattr $C$DW$456, DW_AT_TI_symbol_name("_IPCRECVCOM")
    4778                      .dwattr $C$DW$456, DW_AT_data_member_location[DW_OP_plus_uconst 0x18]
    4779                      .dwattr $C$DW$456, DW_AT_accessibility(DW_ACCESS_public)
    4780              $C$DW$457       .dwtag  DW_TAG_member
    4781                      .dwattr $C$DW$457, DW_AT_type(*$C$DW$T$21)
    4782                      .dwattr $C$DW$457, DW_AT_name("IPCRECVADDR")
    4783                      .dwattr $C$DW$457, DW_AT_TI_symbol_name("_IPCRECVADDR")
    4784                      .dwattr $C$DW$457, DW_AT_data_member_location[DW_OP_plus_uconst 0x1a]
    4785                      .dwattr $C$DW$457, DW_AT_accessibility(DW_ACCESS_public)
    4786              $C$DW$458       .dwtag  DW_TAG_member
    4787                      .dwattr $C$DW$458, DW_AT_type(*$C$DW$T$21)
    4788                      .dwattr $C$DW$458, DW_AT_name("IPCRECVDATA")
    4789                      .dwattr $C$DW$458, DW_AT_TI_symbol_name("_IPCRECVDATA")
    4790                      .dwattr $C$DW$458, DW_AT_data_member_location[DW_OP_plus_uconst 0x1c]
    4791                      .dwattr $C$DW$458, DW_AT_accessibility(DW_ACCESS_public)
    4792              $C$DW$459       .dwtag  DW_TAG_member
    4793                      .dwattr $C$DW$459, DW_AT_type(*$C$DW$T$21)
    4794                      .dwattr $C$DW$459, DW_AT_name("IPCLOCALREPLY")
    4795                      .dwattr $C$DW$459, DW_AT_TI_symbol_name("_IPCLOCALREPLY")
    4796                      .dwattr $C$DW$459, DW_AT_data_member_location[DW_OP_plus_uconst 0x1e]
    4797                      .dwattr $C$DW$459, DW_AT_accessibility(DW_ACCESS_public)
    4798              $C$DW$460       .dwtag  DW_TAG_member
    4799                      .dwattr $C$DW$460, DW_AT_type(*$C$DW$T$21)
    4800                      .dwattr $C$DW$460, DW_AT_name("IPCBOOTSTS")
    4801                      .dwattr $C$DW$460, DW_AT_TI_symbol_name("_IPCBOOTSTS")
    4802                      .dwattr $C$DW$460, DW_AT_data_member_location[DW_OP_plus_uconst 0x20]
    4803                      .dwattr $C$DW$460, DW_AT_accessibility(DW_ACCESS_public)
    4804              $C$DW$461       .dwtag  DW_TAG_member
    4805                      .dwattr $C$DW$461, DW_AT_type(*$C$DW$T$21)
    4806                      .dwattr $C$DW$461, DW_AT_name("IPCBOOTMODE")
    4807                      .dwattr $C$DW$461, DW_AT_TI_symbol_name("_IPCBOOTMODE")
    4808                      .dwattr $C$DW$461, DW_AT_data_member_location[DW_OP_plus_uconst 0x22]
    4809                      .dwattr $C$DW$461, DW_AT_accessibility(DW_ACCESS_public)
    4810              $C$DW$462       .dwtag  DW_TAG_member
    4811                      .dwattr $C$DW$462, DW_AT_type(*$C$DW$T$152)
    4812                      .dwattr $C$DW$462, DW_AT_name("PUMPREQUEST")
    4813                      .dwattr $C$DW$462, DW_AT_TI_symbol_name("_PUMPREQUEST")
    4814                      .dwattr $C$DW$462, DW_AT_data_member_location[DW_OP_plus_uconst 0x24]
    4815                      .dwattr $C$DW$462, DW_AT_accessibility(DW_ACCESS_public)
    4816                      .dwendtag $C$DW$T$46
    4817              
    4818              $C$DW$463       .dwtag  DW_TAG_TI_far_type
    4819                      .dwattr $C$DW$463, DW_AT_type(*$C$DW$T$46)
    4820              $C$DW$T$170     .dwtag  DW_TAG_volatile_type
    4821                      .dwattr $C$DW$T$170, DW_AT_type(*$C$DW$463)
    4822              
TMS320C2000 Assembler PC v6.1.3 Thu Jan 30 10:26:14 2014

Tools Copyright (c) 1996-2012 Texas Instruments Incorporated
C:\Users\a0272466\AppData\Local\Temp\0274010                         PAGE   94

    4823              $C$DW$T$47      .dwtag  DW_TAG_structure_type
    4824                      .dwattr $C$DW$T$47, DW_AT_name("LPMCR_BITS")
    4825                      .dwattr $C$DW$T$47, DW_AT_byte_size(0x02)
    4826              $C$DW$464       .dwtag  DW_TAG_member
    4827                      .dwattr $C$DW$464, DW_AT_type(*$C$DW$T$19)
    4828                      .dwattr $C$DW$464, DW_AT_name("LPM")
    4829                      .dwattr $C$DW$464, DW_AT_TI_symbol_name("_LPM")
    4830                      .dwattr $C$DW$464, DW_AT_bit_offset(0x0e), DW_AT_bit_size(0x02)
    4831                      .dwattr $C$DW$464, DW_AT_data_member_location[DW_OP_plus_uconst 0x0]
    4832                      .dwattr $C$DW$464, DW_AT_accessibility(DW_ACCESS_public)
    4833              $C$DW$465       .dwtag  DW_TAG_member
    4834                      .dwattr $C$DW$465, DW_AT_type(*$C$DW$T$19)
    4835                      .dwattr $C$DW$465, DW_AT_name("QUALSTDBY")
    4836                      .dwattr $C$DW$465, DW_AT_TI_symbol_name("_QUALSTDBY")
    4837                      .dwattr $C$DW$465, DW_AT_bit_offset(0x08), DW_AT_bit_size(0x06)
    4838                      .dwattr $C$DW$465, DW_AT_data_member_location[DW_OP_plus_uconst 0x0]
    4839                      .dwattr $C$DW$465, DW_AT_accessibility(DW_ACCESS_public)
    4840              $C$DW$466       .dwtag  DW_TAG_member
    4841                      .dwattr $C$DW$466, DW_AT_type(*$C$DW$T$19)
    4842                      .dwattr $C$DW$466, DW_AT_name("rsvd1")
    4843                      .dwattr $C$DW$466, DW_AT_TI_symbol_name("_rsvd1")
    4844                      .dwattr $C$DW$466, DW_AT_bit_offset(0x01), DW_AT_bit_size(0x07)
    4845                      .dwattr $C$DW$466, DW_AT_data_member_location[DW_OP_plus_uconst 0x0]
    4846                      .dwattr $C$DW$466, DW_AT_accessibility(DW_ACCESS_public)
    4847              $C$DW$467       .dwtag  DW_TAG_member
    4848                      .dwattr $C$DW$467, DW_AT_type(*$C$DW$T$19)
    4849                      .dwattr $C$DW$467, DW_AT_name("WDINTE")
    4850                      .dwattr $C$DW$467, DW_AT_TI_symbol_name("_WDINTE")
    4851                      .dwattr $C$DW$467, DW_AT_bit_offset(0x00), DW_AT_bit_size(0x01)
    4852                      .dwattr $C$DW$467, DW_AT_data_member_location[DW_OP_plus_uconst 0x0]
    4853                      .dwattr $C$DW$467, DW_AT_accessibility(DW_ACCESS_public)
    4854              $C$DW$468       .dwtag  DW_TAG_member
    4855                      .dwattr $C$DW$468, DW_AT_type(*$C$DW$T$19)
    4856                      .dwattr $C$DW$468, DW_AT_name("M0M1MODE")
    4857                      .dwattr $C$DW$468, DW_AT_TI_symbol_name("_M0M1MODE")
    4858                      .dwattr $C$DW$468, DW_AT_bit_offset(0x0e), DW_AT_bit_size(0x02)
    4859                      .dwattr $C$DW$468, DW_AT_data_member_location[DW_OP_plus_uconst 0x1]
    4860                      .dwattr $C$DW$468, DW_AT_accessibility(DW_ACCESS_public)
    4861              $C$DW$469       .dwtag  DW_TAG_member
    4862                      .dwattr $C$DW$469, DW_AT_type(*$C$DW$T$19)
    4863                      .dwattr $C$DW$469, DW_AT_name("rsvd2")
    4864                      .dwattr $C$DW$469, DW_AT_TI_symbol_name("_rsvd2")
    4865                      .dwattr $C$DW$469, DW_AT_bit_offset(0x01), DW_AT_bit_size(0x0d)
    4866                      .dwattr $C$DW$469, DW_AT_data_member_location[DW_OP_plus_uconst 0x1]
    4867                      .dwattr $C$DW$469, DW_AT_accessibility(DW_ACCESS_public)
    4868              $C$DW$470       .dwtag  DW_TAG_member
    4869                      .dwattr $C$DW$470, DW_AT_type(*$C$DW$T$19)
    4870                      .dwattr $C$DW$470, DW_AT_name("IOISODIS")
    4871                      .dwattr $C$DW$470, DW_AT_TI_symbol_name("_IOISODIS")
    4872                      .dwattr $C$DW$470, DW_AT_bit_offset(0x00), DW_AT_bit_size(0x01)
    4873                      .dwattr $C$DW$470, DW_AT_data_member_location[DW_OP_plus_uconst 0x1]
    4874                      .dwattr $C$DW$470, DW_AT_accessibility(DW_ACCESS_public)
    4875                      .dwendtag $C$DW$T$47
    4876              
    4877              
TMS320C2000 Assembler PC v6.1.3 Thu Jan 30 10:26:14 2014

Tools Copyright (c) 1996-2012 Texas Instruments Incorporated
C:\Users\a0272466\AppData\Local\Temp\0274010                         PAGE   95

    4878              $C$DW$T$48      .dwtag  DW_TAG_union_type
    4879                      .dwattr $C$DW$T$48, DW_AT_name("LPMCR_REG")
    4880                      .dwattr $C$DW$T$48, DW_AT_byte_size(0x02)
    4881              $C$DW$471       .dwtag  DW_TAG_member
    4882                      .dwattr $C$DW$471, DW_AT_type(*$C$DW$T$21)
    4883                      .dwattr $C$DW$471, DW_AT_name("all")
    4884                      .dwattr $C$DW$471, DW_AT_TI_symbol_name("_all")
    4885                      .dwattr $C$DW$471, DW_AT_data_member_location[DW_OP_plus_uconst 0x0]
    4886                      .dwattr $C$DW$471, DW_AT_accessibility(DW_ACCESS_public)
    4887              $C$DW$472       .dwtag  DW_TAG_member
    4888                      .dwattr $C$DW$472, DW_AT_type(*$C$DW$T$47)
    4889                      .dwattr $C$DW$472, DW_AT_name("bit")
    4890                      .dwattr $C$DW$472, DW_AT_TI_symbol_name("_bit")
    4891                      .dwattr $C$DW$472, DW_AT_data_member_location[DW_OP_plus_uconst 0x0]
    4892                      .dwattr $C$DW$472, DW_AT_accessibility(DW_ACCESS_public)
    4893                      .dwendtag $C$DW$T$48
    4894              
    4895              
    4896              $C$DW$T$49      .dwtag  DW_TAG_structure_type
    4897                      .dwattr $C$DW$T$49, DW_AT_name("NMICFG_BITS")
    4898                      .dwattr $C$DW$T$49, DW_AT_byte_size(0x01)
    4899              $C$DW$473       .dwtag  DW_TAG_member
    4900                      .dwattr $C$DW$473, DW_AT_type(*$C$DW$T$19)
    4901                      .dwattr $C$DW$473, DW_AT_name("NMIE")
    4902                      .dwattr $C$DW$473, DW_AT_TI_symbol_name("_NMIE")
    4903                      .dwattr $C$DW$473, DW_AT_bit_offset(0x0f), DW_AT_bit_size(0x01)
    4904                      .dwattr $C$DW$473, DW_AT_data_member_location[DW_OP_plus_uconst 0x0]
    4905                      .dwattr $C$DW$473, DW_AT_accessibility(DW_ACCESS_public)
    4906              $C$DW$474       .dwtag  DW_TAG_member
    4907                      .dwattr $C$DW$474, DW_AT_type(*$C$DW$T$19)
    4908                      .dwattr $C$DW$474, DW_AT_name("rsvd1")
    4909                      .dwattr $C$DW$474, DW_AT_TI_symbol_name("_rsvd1")
    4910                      .dwattr $C$DW$474, DW_AT_bit_offset(0x00), DW_AT_bit_size(0x0f)
    4911                      .dwattr $C$DW$474, DW_AT_data_member_location[DW_OP_plus_uconst 0x0]
    4912                      .dwattr $C$DW$474, DW_AT_accessibility(DW_ACCESS_public)
    4913                      .dwendtag $C$DW$T$49
    4914              
    4915              
    4916              $C$DW$T$50      .dwtag  DW_TAG_union_type
    4917                      .dwattr $C$DW$T$50, DW_AT_name("NMICFG_REG")
    4918                      .dwattr $C$DW$T$50, DW_AT_byte_size(0x01)
    4919              $C$DW$475       .dwtag  DW_TAG_member
    4920                      .dwattr $C$DW$475, DW_AT_type(*$C$DW$T$19)
    4921                      .dwattr $C$DW$475, DW_AT_name("all")
    4922                      .dwattr $C$DW$475, DW_AT_TI_symbol_name("_all")
    4923                      .dwattr $C$DW$475, DW_AT_data_member_location[DW_OP_plus_uconst 0x0]
    4924                      .dwattr $C$DW$475, DW_AT_accessibility(DW_ACCESS_public)
    4925              $C$DW$476       .dwtag  DW_TAG_member
    4926                      .dwattr $C$DW$476, DW_AT_type(*$C$DW$T$49)
    4927                      .dwattr $C$DW$476, DW_AT_name("bit")
    4928                      .dwattr $C$DW$476, DW_AT_TI_symbol_name("_bit")
    4929                      .dwattr $C$DW$476, DW_AT_data_member_location[DW_OP_plus_uconst 0x0]
    4930                      .dwattr $C$DW$476, DW_AT_accessibility(DW_ACCESS_public)
    4931                      .dwendtag $C$DW$T$50
    4932              
TMS320C2000 Assembler PC v6.1.3 Thu Jan 30 10:26:14 2014

Tools Copyright (c) 1996-2012 Texas Instruments Incorporated
C:\Users\a0272466\AppData\Local\Temp\0274010                         PAGE   96

    4933              
    4934              $C$DW$T$51      .dwtag  DW_TAG_structure_type
    4935                      .dwattr $C$DW$T$51, DW_AT_name("NMIFLGCLR_BITS")
    4936                      .dwattr $C$DW$T$51, DW_AT_byte_size(0x01)
    4937              $C$DW$477       .dwtag  DW_TAG_member
    4938                      .dwattr $C$DW$477, DW_AT_type(*$C$DW$T$19)
    4939                      .dwattr $C$DW$477, DW_AT_name("NMIINT")
    4940                      .dwattr $C$DW$477, DW_AT_TI_symbol_name("_NMIINT")
    4941                      .dwattr $C$DW$477, DW_AT_bit_offset(0x0f), DW_AT_bit_size(0x01)
    4942                      .dwattr $C$DW$477, DW_AT_data_member_location[DW_OP_plus_uconst 0x0]
    4943                      .dwattr $C$DW$477, DW_AT_accessibility(DW_ACCESS_public)
    4944              $C$DW$478       .dwtag  DW_TAG_member
    4945                      .dwattr $C$DW$478, DW_AT_type(*$C$DW$T$19)
    4946                      .dwattr $C$DW$478, DW_AT_name("CLOCKFAIL")
    4947                      .dwattr $C$DW$478, DW_AT_TI_symbol_name("_CLOCKFAIL")
    4948                      .dwattr $C$DW$478, DW_AT_bit_offset(0x0e), DW_AT_bit_size(0x01)
    4949                      .dwattr $C$DW$478, DW_AT_data_member_location[DW_OP_plus_uconst 0x0]
    4950                      .dwattr $C$DW$478, DW_AT_accessibility(DW_ACCESS_public)
    4951              $C$DW$479       .dwtag  DW_TAG_member
    4952                      .dwattr $C$DW$479, DW_AT_type(*$C$DW$T$19)
    4953                      .dwattr $C$DW$479, DW_AT_name("RAMUNCERR")
    4954                      .dwattr $C$DW$479, DW_AT_TI_symbol_name("_RAMUNCERR")
    4955                      .dwattr $C$DW$479, DW_AT_bit_offset(0x0d), DW_AT_bit_size(0x01)
    4956                      .dwattr $C$DW$479, DW_AT_data_member_location[DW_OP_plus_uconst 0x0]
    4957                      .dwattr $C$DW$479, DW_AT_accessibility(DW_ACCESS_public)
    4958              $C$DW$480       .dwtag  DW_TAG_member
    4959                      .dwattr $C$DW$480, DW_AT_type(*$C$DW$T$19)
    4960                      .dwattr $C$DW$480, DW_AT_name("FLUNCERR")
    4961                      .dwattr $C$DW$480, DW_AT_TI_symbol_name("_FLUNCERR")
    4962                      .dwattr $C$DW$480, DW_AT_bit_offset(0x0c), DW_AT_bit_size(0x01)
    4963                      .dwattr $C$DW$480, DW_AT_data_member_location[DW_OP_plus_uconst 0x0]
    4964                      .dwattr $C$DW$480, DW_AT_accessibility(DW_ACCESS_public)
    4965              $C$DW$481       .dwtag  DW_TAG_member
    4966                      .dwattr $C$DW$481, DW_AT_type(*$C$DW$T$19)
    4967                      .dwattr $C$DW$481, DW_AT_name("CPU1HWBISTERR")
    4968                      .dwattr $C$DW$481, DW_AT_TI_symbol_name("_CPU1HWBISTERR")
    4969                      .dwattr $C$DW$481, DW_AT_bit_offset(0x0b), DW_AT_bit_size(0x01)
    4970                      .dwattr $C$DW$481, DW_AT_data_member_location[DW_OP_plus_uconst 0x0]
    4971                      .dwattr $C$DW$481, DW_AT_accessibility(DW_ACCESS_public)
    4972              $C$DW$482       .dwtag  DW_TAG_member
    4973                      .dwattr $C$DW$482, DW_AT_type(*$C$DW$T$19)
    4974                      .dwattr $C$DW$482, DW_AT_name("CPU2HWBISTERR")
    4975                      .dwattr $C$DW$482, DW_AT_TI_symbol_name("_CPU2HWBISTERR")
    4976                      .dwattr $C$DW$482, DW_AT_bit_offset(0x0a), DW_AT_bit_size(0x01)
    4977                      .dwattr $C$DW$482, DW_AT_data_member_location[DW_OP_plus_uconst 0x0]
    4978                      .dwattr $C$DW$482, DW_AT_accessibility(DW_ACCESS_public)
    4979              $C$DW$483       .dwtag  DW_TAG_member
    4980                      .dwattr $C$DW$483, DW_AT_type(*$C$DW$T$19)
    4981                      .dwattr $C$DW$483, DW_AT_name("PIEVECTERR")
    4982                      .dwattr $C$DW$483, DW_AT_TI_symbol_name("_PIEVECTERR")
    4983                      .dwattr $C$DW$483, DW_AT_bit_offset(0x09), DW_AT_bit_size(0x01)
    4984                      .dwattr $C$DW$483, DW_AT_data_member_location[DW_OP_plus_uconst 0x0]
    4985                      .dwattr $C$DW$483, DW_AT_accessibility(DW_ACCESS_public)
    4986              $C$DW$484       .dwtag  DW_TAG_member
    4987                      .dwattr $C$DW$484, DW_AT_type(*$C$DW$T$19)
TMS320C2000 Assembler PC v6.1.3 Thu Jan 30 10:26:14 2014

Tools Copyright (c) 1996-2012 Texas Instruments Incorporated
C:\Users\a0272466\AppData\Local\Temp\0274010                         PAGE   97

    4988                      .dwattr $C$DW$484, DW_AT_name("SYSDBGNMI")
    4989                      .dwattr $C$DW$484, DW_AT_TI_symbol_name("_SYSDBGNMI")
    4990                      .dwattr $C$DW$484, DW_AT_bit_offset(0x08), DW_AT_bit_size(0x01)
    4991                      .dwattr $C$DW$484, DW_AT_data_member_location[DW_OP_plus_uconst 0x0]
    4992                      .dwattr $C$DW$484, DW_AT_accessibility(DW_ACCESS_public)
    4993              $C$DW$485       .dwtag  DW_TAG_member
    4994                      .dwattr $C$DW$485, DW_AT_type(*$C$DW$T$19)
    4995                      .dwattr $C$DW$485, DW_AT_name("RLNMI")
    4996                      .dwattr $C$DW$485, DW_AT_TI_symbol_name("_RLNMI")
    4997                      .dwattr $C$DW$485, DW_AT_bit_offset(0x07), DW_AT_bit_size(0x01)
    4998                      .dwattr $C$DW$485, DW_AT_data_member_location[DW_OP_plus_uconst 0x0]
    4999                      .dwattr $C$DW$485, DW_AT_accessibility(DW_ACCESS_public)
    5000              $C$DW$486       .dwtag  DW_TAG_member
    5001                      .dwattr $C$DW$486, DW_AT_type(*$C$DW$T$19)
    5002                      .dwattr $C$DW$486, DW_AT_name("CPU2WDRSn")
    5003                      .dwattr $C$DW$486, DW_AT_TI_symbol_name("_CPU2WDRSn")
    5004                      .dwattr $C$DW$486, DW_AT_bit_offset(0x06), DW_AT_bit_size(0x01)
    5005                      .dwattr $C$DW$486, DW_AT_data_member_location[DW_OP_plus_uconst 0x0]
    5006                      .dwattr $C$DW$486, DW_AT_accessibility(DW_ACCESS_public)
    5007              $C$DW$487       .dwtag  DW_TAG_member
    5008                      .dwattr $C$DW$487, DW_AT_type(*$C$DW$T$19)
    5009                      .dwattr $C$DW$487, DW_AT_name("CPU2NMIWDRSn")
    5010                      .dwattr $C$DW$487, DW_AT_TI_symbol_name("_CPU2NMIWDRSn")
    5011                      .dwattr $C$DW$487, DW_AT_bit_offset(0x05), DW_AT_bit_size(0x01)
    5012                      .dwattr $C$DW$487, DW_AT_data_member_location[DW_OP_plus_uconst 0x0]
    5013                      .dwattr $C$DW$487, DW_AT_accessibility(DW_ACCESS_public)
    5014              $C$DW$488       .dwtag  DW_TAG_member
    5015                      .dwattr $C$DW$488, DW_AT_type(*$C$DW$T$19)
    5016                      .dwattr $C$DW$488, DW_AT_name("OVF")
    5017                      .dwattr $C$DW$488, DW_AT_TI_symbol_name("_OVF")
    5018                      .dwattr $C$DW$488, DW_AT_bit_offset(0x04), DW_AT_bit_size(0x01)
    5019                      .dwattr $C$DW$488, DW_AT_data_member_location[DW_OP_plus_uconst 0x0]
    5020                      .dwattr $C$DW$488, DW_AT_accessibility(DW_ACCESS_public)
    5021              $C$DW$489       .dwtag  DW_TAG_member
    5022                      .dwattr $C$DW$489, DW_AT_type(*$C$DW$T$19)
    5023                      .dwattr $C$DW$489, DW_AT_name("rsvd1")
    5024                      .dwattr $C$DW$489, DW_AT_TI_symbol_name("_rsvd1")
    5025                      .dwattr $C$DW$489, DW_AT_bit_offset(0x00), DW_AT_bit_size(0x04)
    5026                      .dwattr $C$DW$489, DW_AT_data_member_location[DW_OP_plus_uconst 0x0]
    5027                      .dwattr $C$DW$489, DW_AT_accessibility(DW_ACCESS_public)
    5028                      .dwendtag $C$DW$T$51
    5029              
    5030              
    5031              $C$DW$T$52      .dwtag  DW_TAG_union_type
    5032                      .dwattr $C$DW$T$52, DW_AT_name("NMIFLGCLR_REG")
    5033                      .dwattr $C$DW$T$52, DW_AT_byte_size(0x01)
    5034              $C$DW$490       .dwtag  DW_TAG_member
    5035                      .dwattr $C$DW$490, DW_AT_type(*$C$DW$T$19)
    5036                      .dwattr $C$DW$490, DW_AT_name("all")
    5037                      .dwattr $C$DW$490, DW_AT_TI_symbol_name("_all")
    5038                      .dwattr $C$DW$490, DW_AT_data_member_location[DW_OP_plus_uconst 0x0]
    5039                      .dwattr $C$DW$490, DW_AT_accessibility(DW_ACCESS_public)
    5040              $C$DW$491       .dwtag  DW_TAG_member
    5041                      .dwattr $C$DW$491, DW_AT_type(*$C$DW$T$51)
    5042                      .dwattr $C$DW$491, DW_AT_name("bit")
TMS320C2000 Assembler PC v6.1.3 Thu Jan 30 10:26:14 2014

Tools Copyright (c) 1996-2012 Texas Instruments Incorporated
C:\Users\a0272466\AppData\Local\Temp\0274010                         PAGE   98

    5043                      .dwattr $C$DW$491, DW_AT_TI_symbol_name("_bit")
    5044                      .dwattr $C$DW$491, DW_AT_data_member_location[DW_OP_plus_uconst 0x0]
    5045                      .dwattr $C$DW$491, DW_AT_accessibility(DW_ACCESS_public)
    5046                      .dwendtag $C$DW$T$52
    5047              
    5048              
    5049              $C$DW$T$53      .dwtag  DW_TAG_structure_type
    5050                      .dwattr $C$DW$T$53, DW_AT_name("NMIFLGFRC_BITS")
    5051                      .dwattr $C$DW$T$53, DW_AT_byte_size(0x01)
    5052              $C$DW$492       .dwtag  DW_TAG_member
    5053                      .dwattr $C$DW$492, DW_AT_type(*$C$DW$T$19)
    5054                      .dwattr $C$DW$492, DW_AT_name("rsvd1")
    5055                      .dwattr $C$DW$492, DW_AT_TI_symbol_name("_rsvd1")
    5056                      .dwattr $C$DW$492, DW_AT_bit_offset(0x0f), DW_AT_bit_size(0x01)
    5057                      .dwattr $C$DW$492, DW_AT_data_member_location[DW_OP_plus_uconst 0x0]
    5058                      .dwattr $C$DW$492, DW_AT_accessibility(DW_ACCESS_public)
    5059              $C$DW$493       .dwtag  DW_TAG_member
    5060                      .dwattr $C$DW$493, DW_AT_type(*$C$DW$T$19)
    5061                      .dwattr $C$DW$493, DW_AT_name("CLOCKFAIL")
    5062                      .dwattr $C$DW$493, DW_AT_TI_symbol_name("_CLOCKFAIL")
    5063                      .dwattr $C$DW$493, DW_AT_bit_offset(0x0e), DW_AT_bit_size(0x01)
    5064                      .dwattr $C$DW$493, DW_AT_data_member_location[DW_OP_plus_uconst 0x0]
    5065                      .dwattr $C$DW$493, DW_AT_accessibility(DW_ACCESS_public)
    5066              $C$DW$494       .dwtag  DW_TAG_member
    5067                      .dwattr $C$DW$494, DW_AT_type(*$C$DW$T$19)
    5068                      .dwattr $C$DW$494, DW_AT_name("RAMUNCERR")
    5069                      .dwattr $C$DW$494, DW_AT_TI_symbol_name("_RAMUNCERR")
    5070                      .dwattr $C$DW$494, DW_AT_bit_offset(0x0d), DW_AT_bit_size(0x01)
    5071                      .dwattr $C$DW$494, DW_AT_data_member_location[DW_OP_plus_uconst 0x0]
    5072                      .dwattr $C$DW$494, DW_AT_accessibility(DW_ACCESS_public)
    5073              $C$DW$495       .dwtag  DW_TAG_member
    5074                      .dwattr $C$DW$495, DW_AT_type(*$C$DW$T$19)
    5075                      .dwattr $C$DW$495, DW_AT_name("FLUNCERR")
    5076                      .dwattr $C$DW$495, DW_AT_TI_symbol_name("_FLUNCERR")
    5077                      .dwattr $C$DW$495, DW_AT_bit_offset(0x0c), DW_AT_bit_size(0x01)
    5078                      .dwattr $C$DW$495, DW_AT_data_member_location[DW_OP_plus_uconst 0x0]
    5079                      .dwattr $C$DW$495, DW_AT_accessibility(DW_ACCESS_public)
    5080              $C$DW$496       .dwtag  DW_TAG_member
    5081                      .dwattr $C$DW$496, DW_AT_type(*$C$DW$T$19)
    5082                      .dwattr $C$DW$496, DW_AT_name("CPU1HWBISTERR")
    5083                      .dwattr $C$DW$496, DW_AT_TI_symbol_name("_CPU1HWBISTERR")
    5084                      .dwattr $C$DW$496, DW_AT_bit_offset(0x0b), DW_AT_bit_size(0x01)
    5085                      .dwattr $C$DW$496, DW_AT_data_member_location[DW_OP_plus_uconst 0x0]
    5086                      .dwattr $C$DW$496, DW_AT_accessibility(DW_ACCESS_public)
    5087              $C$DW$497       .dwtag  DW_TAG_member
    5088                      .dwattr $C$DW$497, DW_AT_type(*$C$DW$T$19)
    5089                      .dwattr $C$DW$497, DW_AT_name("CPU2HWBISTERR")
    5090                      .dwattr $C$DW$497, DW_AT_TI_symbol_name("_CPU2HWBISTERR")
    5091                      .dwattr $C$DW$497, DW_AT_bit_offset(0x0a), DW_AT_bit_size(0x01)
    5092                      .dwattr $C$DW$497, DW_AT_data_member_location[DW_OP_plus_uconst 0x0]
    5093                      .dwattr $C$DW$497, DW_AT_accessibility(DW_ACCESS_public)
    5094              $C$DW$498       .dwtag  DW_TAG_member
    5095                      .dwattr $C$DW$498, DW_AT_type(*$C$DW$T$19)
    5096                      .dwattr $C$DW$498, DW_AT_name("PIEVECTERR")
    5097                      .dwattr $C$DW$498, DW_AT_TI_symbol_name("_PIEVECTERR")
TMS320C2000 Assembler PC v6.1.3 Thu Jan 30 10:26:14 2014

Tools Copyright (c) 1996-2012 Texas Instruments Incorporated
C:\Users\a0272466\AppData\Local\Temp\0274010                         PAGE   99

    5098                      .dwattr $C$DW$498, DW_AT_bit_offset(0x09), DW_AT_bit_size(0x01)
    5099                      .dwattr $C$DW$498, DW_AT_data_member_location[DW_OP_plus_uconst 0x0]
    5100                      .dwattr $C$DW$498, DW_AT_accessibility(DW_ACCESS_public)
    5101              $C$DW$499       .dwtag  DW_TAG_member
    5102                      .dwattr $C$DW$499, DW_AT_type(*$C$DW$T$19)
    5103                      .dwattr $C$DW$499, DW_AT_name("SYSDBGNMI")
    5104                      .dwattr $C$DW$499, DW_AT_TI_symbol_name("_SYSDBGNMI")
    5105                      .dwattr $C$DW$499, DW_AT_bit_offset(0x08), DW_AT_bit_size(0x01)
    5106                      .dwattr $C$DW$499, DW_AT_data_member_location[DW_OP_plus_uconst 0x0]
    5107                      .dwattr $C$DW$499, DW_AT_accessibility(DW_ACCESS_public)
    5108              $C$DW$500       .dwtag  DW_TAG_member
    5109                      .dwattr $C$DW$500, DW_AT_type(*$C$DW$T$19)
    5110                      .dwattr $C$DW$500, DW_AT_name("RLNMI")
    5111                      .dwattr $C$DW$500, DW_AT_TI_symbol_name("_RLNMI")
    5112                      .dwattr $C$DW$500, DW_AT_bit_offset(0x07), DW_AT_bit_size(0x01)
    5113                      .dwattr $C$DW$500, DW_AT_data_member_location[DW_OP_plus_uconst 0x0]
    5114                      .dwattr $C$DW$500, DW_AT_accessibility(DW_ACCESS_public)
    5115              $C$DW$501       .dwtag  DW_TAG_member
    5116                      .dwattr $C$DW$501, DW_AT_type(*$C$DW$T$19)
    5117                      .dwattr $C$DW$501, DW_AT_name("CPU2WDRSn")
    5118                      .dwattr $C$DW$501, DW_AT_TI_symbol_name("_CPU2WDRSn")
    5119                      .dwattr $C$DW$501, DW_AT_bit_offset(0x06), DW_AT_bit_size(0x01)
    5120                      .dwattr $C$DW$501, DW_AT_data_member_location[DW_OP_plus_uconst 0x0]
    5121                      .dwattr $C$DW$501, DW_AT_accessibility(DW_ACCESS_public)
    5122              $C$DW$502       .dwtag  DW_TAG_member
    5123                      .dwattr $C$DW$502, DW_AT_type(*$C$DW$T$19)
    5124                      .dwattr $C$DW$502, DW_AT_name("CPU2NMIWDRSn")
    5125                      .dwattr $C$DW$502, DW_AT_TI_symbol_name("_CPU2NMIWDRSn")
    5126                      .dwattr $C$DW$502, DW_AT_bit_offset(0x05), DW_AT_bit_size(0x01)
    5127                      .dwattr $C$DW$502, DW_AT_data_member_location[DW_OP_plus_uconst 0x0]
    5128                      .dwattr $C$DW$502, DW_AT_accessibility(DW_ACCESS_public)
    5129              $C$DW$503       .dwtag  DW_TAG_member
    5130                      .dwattr $C$DW$503, DW_AT_type(*$C$DW$T$19)
    5131                      .dwattr $C$DW$503, DW_AT_name("OVF")
    5132                      .dwattr $C$DW$503, DW_AT_TI_symbol_name("_OVF")
    5133                      .dwattr $C$DW$503, DW_AT_bit_offset(0x04), DW_AT_bit_size(0x01)
    5134                      .dwattr $C$DW$503, DW_AT_data_member_location[DW_OP_plus_uconst 0x0]
    5135                      .dwattr $C$DW$503, DW_AT_accessibility(DW_ACCESS_public)
    5136              $C$DW$504       .dwtag  DW_TAG_member
    5137                      .dwattr $C$DW$504, DW_AT_type(*$C$DW$T$19)
    5138                      .dwattr $C$DW$504, DW_AT_name("rsvd2")
    5139                      .dwattr $C$DW$504, DW_AT_TI_symbol_name("_rsvd2")
    5140                      .dwattr $C$DW$504, DW_AT_bit_offset(0x00), DW_AT_bit_size(0x04)
    5141                      .dwattr $C$DW$504, DW_AT_data_member_location[DW_OP_plus_uconst 0x0]
    5142                      .dwattr $C$DW$504, DW_AT_accessibility(DW_ACCESS_public)
    5143                      .dwendtag $C$DW$T$53
    5144              
    5145              
    5146              $C$DW$T$54      .dwtag  DW_TAG_union_type
    5147                      .dwattr $C$DW$T$54, DW_AT_name("NMIFLGFRC_REG")
    5148                      .dwattr $C$DW$T$54, DW_AT_byte_size(0x01)
    5149              $C$DW$505       .dwtag  DW_TAG_member
    5150                      .dwattr $C$DW$505, DW_AT_type(*$C$DW$T$19)
    5151                      .dwattr $C$DW$505, DW_AT_name("all")
    5152                      .dwattr $C$DW$505, DW_AT_TI_symbol_name("_all")
TMS320C2000 Assembler PC v6.1.3 Thu Jan 30 10:26:14 2014

Tools Copyright (c) 1996-2012 Texas Instruments Incorporated
C:\Users\a0272466\AppData\Local\Temp\0274010                         PAGE  100

    5153                      .dwattr $C$DW$505, DW_AT_data_member_location[DW_OP_plus_uconst 0x0]
    5154                      .dwattr $C$DW$505, DW_AT_accessibility(DW_ACCESS_public)
    5155              $C$DW$506       .dwtag  DW_TAG_member
    5156                      .dwattr $C$DW$506, DW_AT_type(*$C$DW$T$53)
    5157                      .dwattr $C$DW$506, DW_AT_name("bit")
    5158                      .dwattr $C$DW$506, DW_AT_TI_symbol_name("_bit")
    5159                      .dwattr $C$DW$506, DW_AT_data_member_location[DW_OP_plus_uconst 0x0]
    5160                      .dwattr $C$DW$506, DW_AT_accessibility(DW_ACCESS_public)
    5161                      .dwendtag $C$DW$T$54
    5162              
    5163              
    5164              $C$DW$T$55      .dwtag  DW_TAG_structure_type
    5165                      .dwattr $C$DW$T$55, DW_AT_name("NMIFLG_BITS")
    5166                      .dwattr $C$DW$T$55, DW_AT_byte_size(0x01)
    5167              $C$DW$507       .dwtag  DW_TAG_member
    5168                      .dwattr $C$DW$507, DW_AT_type(*$C$DW$T$19)
    5169                      .dwattr $C$DW$507, DW_AT_name("NMIINT")
    5170                      .dwattr $C$DW$507, DW_AT_TI_symbol_name("_NMIINT")
    5171                      .dwattr $C$DW$507, DW_AT_bit_offset(0x0f), DW_AT_bit_size(0x01)
    5172                      .dwattr $C$DW$507, DW_AT_data_member_location[DW_OP_plus_uconst 0x0]
    5173                      .dwattr $C$DW$507, DW_AT_accessibility(DW_ACCESS_public)
    5174              $C$DW$508       .dwtag  DW_TAG_member
    5175                      .dwattr $C$DW$508, DW_AT_type(*$C$DW$T$19)
    5176                      .dwattr $C$DW$508, DW_AT_name("CLOCKFAIL")
    5177                      .dwattr $C$DW$508, DW_AT_TI_symbol_name("_CLOCKFAIL")
    5178                      .dwattr $C$DW$508, DW_AT_bit_offset(0x0e), DW_AT_bit_size(0x01)
    5179                      .dwattr $C$DW$508, DW_AT_data_member_location[DW_OP_plus_uconst 0x0]
    5180                      .dwattr $C$DW$508, DW_AT_accessibility(DW_ACCESS_public)
    5181              $C$DW$509       .dwtag  DW_TAG_member
    5182                      .dwattr $C$DW$509, DW_AT_type(*$C$DW$T$19)
    5183                      .dwattr $C$DW$509, DW_AT_name("RAMUNCERR")
    5184                      .dwattr $C$DW$509, DW_AT_TI_symbol_name("_RAMUNCERR")
    5185                      .dwattr $C$DW$509, DW_AT_bit_offset(0x0d), DW_AT_bit_size(0x01)
    5186                      .dwattr $C$DW$509, DW_AT_data_member_location[DW_OP_plus_uconst 0x0]
    5187                      .dwattr $C$DW$509, DW_AT_accessibility(DW_ACCESS_public)
    5188              $C$DW$510       .dwtag  DW_TAG_member
    5189                      .dwattr $C$DW$510, DW_AT_type(*$C$DW$T$19)
    5190                      .dwattr $C$DW$510, DW_AT_name("FLUNCERR")
    5191                      .dwattr $C$DW$510, DW_AT_TI_symbol_name("_FLUNCERR")
    5192                      .dwattr $C$DW$510, DW_AT_bit_offset(0x0c), DW_AT_bit_size(0x01)
    5193                      .dwattr $C$DW$510, DW_AT_data_member_location[DW_OP_plus_uconst 0x0]
    5194                      .dwattr $C$DW$510, DW_AT_accessibility(DW_ACCESS_public)
    5195              $C$DW$511       .dwtag  DW_TAG_member
    5196                      .dwattr $C$DW$511, DW_AT_type(*$C$DW$T$19)
    5197                      .dwattr $C$DW$511, DW_AT_name("CPU1HWBISTERR")
    5198                      .dwattr $C$DW$511, DW_AT_TI_symbol_name("_CPU1HWBISTERR")
    5199                      .dwattr $C$DW$511, DW_AT_bit_offset(0x0b), DW_AT_bit_size(0x01)
    5200                      .dwattr $C$DW$511, DW_AT_data_member_location[DW_OP_plus_uconst 0x0]
    5201                      .dwattr $C$DW$511, DW_AT_accessibility(DW_ACCESS_public)
    5202              $C$DW$512       .dwtag  DW_TAG_member
    5203                      .dwattr $C$DW$512, DW_AT_type(*$C$DW$T$19)
    5204                      .dwattr $C$DW$512, DW_AT_name("CPU2HWBISTERR")
    5205                      .dwattr $C$DW$512, DW_AT_TI_symbol_name("_CPU2HWBISTERR")
    5206                      .dwattr $C$DW$512, DW_AT_bit_offset(0x0a), DW_AT_bit_size(0x01)
    5207                      .dwattr $C$DW$512, DW_AT_data_member_location[DW_OP_plus_uconst 0x0]
TMS320C2000 Assembler PC v6.1.3 Thu Jan 30 10:26:14 2014

Tools Copyright (c) 1996-2012 Texas Instruments Incorporated
C:\Users\a0272466\AppData\Local\Temp\0274010                         PAGE  101

    5208                      .dwattr $C$DW$512, DW_AT_accessibility(DW_ACCESS_public)
    5209              $C$DW$513       .dwtag  DW_TAG_member
    5210                      .dwattr $C$DW$513, DW_AT_type(*$C$DW$T$19)
    5211                      .dwattr $C$DW$513, DW_AT_name("PIEVECTERR")
    5212                      .dwattr $C$DW$513, DW_AT_TI_symbol_name("_PIEVECTERR")
    5213                      .dwattr $C$DW$513, DW_AT_bit_offset(0x09), DW_AT_bit_size(0x01)
    5214                      .dwattr $C$DW$513, DW_AT_data_member_location[DW_OP_plus_uconst 0x0]
    5215                      .dwattr $C$DW$513, DW_AT_accessibility(DW_ACCESS_public)
    5216              $C$DW$514       .dwtag  DW_TAG_member
    5217                      .dwattr $C$DW$514, DW_AT_type(*$C$DW$T$19)
    5218                      .dwattr $C$DW$514, DW_AT_name("SYSDBGNMI")
    5219                      .dwattr $C$DW$514, DW_AT_TI_symbol_name("_SYSDBGNMI")
    5220                      .dwattr $C$DW$514, DW_AT_bit_offset(0x08), DW_AT_bit_size(0x01)
    5221                      .dwattr $C$DW$514, DW_AT_data_member_location[DW_OP_plus_uconst 0x0]
    5222                      .dwattr $C$DW$514, DW_AT_accessibility(DW_ACCESS_public)
    5223              $C$DW$515       .dwtag  DW_TAG_member
    5224                      .dwattr $C$DW$515, DW_AT_type(*$C$DW$T$19)
    5225                      .dwattr $C$DW$515, DW_AT_name("RLNMI")
    5226                      .dwattr $C$DW$515, DW_AT_TI_symbol_name("_RLNMI")
    5227                      .dwattr $C$DW$515, DW_AT_bit_offset(0x07), DW_AT_bit_size(0x01)
    5228                      .dwattr $C$DW$515, DW_AT_data_member_location[DW_OP_plus_uconst 0x0]
    5229                      .dwattr $C$DW$515, DW_AT_accessibility(DW_ACCESS_public)
    5230              $C$DW$516       .dwtag  DW_TAG_member
    5231                      .dwattr $C$DW$516, DW_AT_type(*$C$DW$T$19)
    5232                      .dwattr $C$DW$516, DW_AT_name("CPU2WDRSn")
    5233                      .dwattr $C$DW$516, DW_AT_TI_symbol_name("_CPU2WDRSn")
    5234                      .dwattr $C$DW$516, DW_AT_bit_offset(0x06), DW_AT_bit_size(0x01)
    5235                      .dwattr $C$DW$516, DW_AT_data_member_location[DW_OP_plus_uconst 0x0]
    5236                      .dwattr $C$DW$516, DW_AT_accessibility(DW_ACCESS_public)
    5237              $C$DW$517       .dwtag  DW_TAG_member
    5238                      .dwattr $C$DW$517, DW_AT_type(*$C$DW$T$19)
    5239                      .dwattr $C$DW$517, DW_AT_name("CPU2NMIWDRSn")
    5240                      .dwattr $C$DW$517, DW_AT_TI_symbol_name("_CPU2NMIWDRSn")
    5241                      .dwattr $C$DW$517, DW_AT_bit_offset(0x05), DW_AT_bit_size(0x01)
    5242                      .dwattr $C$DW$517, DW_AT_data_member_location[DW_OP_plus_uconst 0x0]
    5243                      .dwattr $C$DW$517, DW_AT_accessibility(DW_ACCESS_public)
    5244              $C$DW$518       .dwtag  DW_TAG_member
    5245                      .dwattr $C$DW$518, DW_AT_type(*$C$DW$T$19)
    5246                      .dwattr $C$DW$518, DW_AT_name("OVF")
    5247                      .dwattr $C$DW$518, DW_AT_TI_symbol_name("_OVF")
    5248                      .dwattr $C$DW$518, DW_AT_bit_offset(0x04), DW_AT_bit_size(0x01)
    5249                      .dwattr $C$DW$518, DW_AT_data_member_location[DW_OP_plus_uconst 0x0]
    5250                      .dwattr $C$DW$518, DW_AT_accessibility(DW_ACCESS_public)
    5251              $C$DW$519       .dwtag  DW_TAG_member
    5252                      .dwattr $C$DW$519, DW_AT_type(*$C$DW$T$19)
    5253                      .dwattr $C$DW$519, DW_AT_name("rsvd1")
    5254                      .dwattr $C$DW$519, DW_AT_TI_symbol_name("_rsvd1")
    5255                      .dwattr $C$DW$519, DW_AT_bit_offset(0x00), DW_AT_bit_size(0x04)
    5256                      .dwattr $C$DW$519, DW_AT_data_member_location[DW_OP_plus_uconst 0x0]
    5257                      .dwattr $C$DW$519, DW_AT_accessibility(DW_ACCESS_public)
    5258                      .dwendtag $C$DW$T$55
    5259              
    5260              
    5261              $C$DW$T$56      .dwtag  DW_TAG_union_type
    5262                      .dwattr $C$DW$T$56, DW_AT_name("NMIFLG_REG")
TMS320C2000 Assembler PC v6.1.3 Thu Jan 30 10:26:14 2014

Tools Copyright (c) 1996-2012 Texas Instruments Incorporated
C:\Users\a0272466\AppData\Local\Temp\0274010                         PAGE  102

    5263                      .dwattr $C$DW$T$56, DW_AT_byte_size(0x01)
    5264              $C$DW$520       .dwtag  DW_TAG_member
    5265                      .dwattr $C$DW$520, DW_AT_type(*$C$DW$T$19)
    5266                      .dwattr $C$DW$520, DW_AT_name("all")
    5267                      .dwattr $C$DW$520, DW_AT_TI_symbol_name("_all")
    5268                      .dwattr $C$DW$520, DW_AT_data_member_location[DW_OP_plus_uconst 0x0]
    5269                      .dwattr $C$DW$520, DW_AT_accessibility(DW_ACCESS_public)
    5270              $C$DW$521       .dwtag  DW_TAG_member
    5271                      .dwattr $C$DW$521, DW_AT_type(*$C$DW$T$55)
    5272                      .dwattr $C$DW$521, DW_AT_name("bit")
    5273                      .dwattr $C$DW$521, DW_AT_TI_symbol_name("_bit")
    5274                      .dwattr $C$DW$521, DW_AT_data_member_location[DW_OP_plus_uconst 0x0]
    5275                      .dwattr $C$DW$521, DW_AT_accessibility(DW_ACCESS_public)
    5276                      .dwendtag $C$DW$T$56
    5277              
    5278              
    5279              $C$DW$T$57      .dwtag  DW_TAG_structure_type
    5280                      .dwattr $C$DW$T$57, DW_AT_name("NMISHDFLG_BITS")
    5281                      .dwattr $C$DW$T$57, DW_AT_byte_size(0x01)
    5282              $C$DW$522       .dwtag  DW_TAG_member
    5283                      .dwattr $C$DW$522, DW_AT_type(*$C$DW$T$19)
    5284                      .dwattr $C$DW$522, DW_AT_name("rsvd1")
    5285                      .dwattr $C$DW$522, DW_AT_TI_symbol_name("_rsvd1")
    5286                      .dwattr $C$DW$522, DW_AT_bit_offset(0x0f), DW_AT_bit_size(0x01)
    5287                      .dwattr $C$DW$522, DW_AT_data_member_location[DW_OP_plus_uconst 0x0]
    5288                      .dwattr $C$DW$522, DW_AT_accessibility(DW_ACCESS_public)
    5289              $C$DW$523       .dwtag  DW_TAG_member
    5290                      .dwattr $C$DW$523, DW_AT_type(*$C$DW$T$19)
    5291                      .dwattr $C$DW$523, DW_AT_name("CLOCKFAIL")
    5292                      .dwattr $C$DW$523, DW_AT_TI_symbol_name("_CLOCKFAIL")
    5293                      .dwattr $C$DW$523, DW_AT_bit_offset(0x0e), DW_AT_bit_size(0x01)
    5294                      .dwattr $C$DW$523, DW_AT_data_member_location[DW_OP_plus_uconst 0x0]
    5295                      .dwattr $C$DW$523, DW_AT_accessibility(DW_ACCESS_public)
    5296              $C$DW$524       .dwtag  DW_TAG_member
    5297                      .dwattr $C$DW$524, DW_AT_type(*$C$DW$T$19)
    5298                      .dwattr $C$DW$524, DW_AT_name("RAMUNCERR")
    5299                      .dwattr $C$DW$524, DW_AT_TI_symbol_name("_RAMUNCERR")
    5300                      .dwattr $C$DW$524, DW_AT_bit_offset(0x0d), DW_AT_bit_size(0x01)
    5301                      .dwattr $C$DW$524, DW_AT_data_member_location[DW_OP_plus_uconst 0x0]
    5302                      .dwattr $C$DW$524, DW_AT_accessibility(DW_ACCESS_public)
    5303              $C$DW$525       .dwtag  DW_TAG_member
    5304                      .dwattr $C$DW$525, DW_AT_type(*$C$DW$T$19)
    5305                      .dwattr $C$DW$525, DW_AT_name("FLUNCERR")
    5306                      .dwattr $C$DW$525, DW_AT_TI_symbol_name("_FLUNCERR")
    5307                      .dwattr $C$DW$525, DW_AT_bit_offset(0x0c), DW_AT_bit_size(0x01)
    5308                      .dwattr $C$DW$525, DW_AT_data_member_location[DW_OP_plus_uconst 0x0]
    5309                      .dwattr $C$DW$525, DW_AT_accessibility(DW_ACCESS_public)
    5310              $C$DW$526       .dwtag  DW_TAG_member
    5311                      .dwattr $C$DW$526, DW_AT_type(*$C$DW$T$19)
    5312                      .dwattr $C$DW$526, DW_AT_name("CPU1HWBISTERR")
    5313                      .dwattr $C$DW$526, DW_AT_TI_symbol_name("_CPU1HWBISTERR")
    5314                      .dwattr $C$DW$526, DW_AT_bit_offset(0x0b), DW_AT_bit_size(0x01)
    5315                      .dwattr $C$DW$526, DW_AT_data_member_location[DW_OP_plus_uconst 0x0]
    5316                      .dwattr $C$DW$526, DW_AT_accessibility(DW_ACCESS_public)
    5317              $C$DW$527       .dwtag  DW_TAG_member
TMS320C2000 Assembler PC v6.1.3 Thu Jan 30 10:26:14 2014

Tools Copyright (c) 1996-2012 Texas Instruments Incorporated
C:\Users\a0272466\AppData\Local\Temp\0274010                         PAGE  103

    5318                      .dwattr $C$DW$527, DW_AT_type(*$C$DW$T$19)
    5319                      .dwattr $C$DW$527, DW_AT_name("CPU2HWBISTERR")
    5320                      .dwattr $C$DW$527, DW_AT_TI_symbol_name("_CPU2HWBISTERR")
    5321                      .dwattr $C$DW$527, DW_AT_bit_offset(0x0a), DW_AT_bit_size(0x01)
    5322                      .dwattr $C$DW$527, DW_AT_data_member_location[DW_OP_plus_uconst 0x0]
    5323                      .dwattr $C$DW$527, DW_AT_accessibility(DW_ACCESS_public)
    5324              $C$DW$528       .dwtag  DW_TAG_member
    5325                      .dwattr $C$DW$528, DW_AT_type(*$C$DW$T$19)
    5326                      .dwattr $C$DW$528, DW_AT_name("PIEVECTERR")
    5327                      .dwattr $C$DW$528, DW_AT_TI_symbol_name("_PIEVECTERR")
    5328                      .dwattr $C$DW$528, DW_AT_bit_offset(0x09), DW_AT_bit_size(0x01)
    5329                      .dwattr $C$DW$528, DW_AT_data_member_location[DW_OP_plus_uconst 0x0]
    5330                      .dwattr $C$DW$528, DW_AT_accessibility(DW_ACCESS_public)
    5331              $C$DW$529       .dwtag  DW_TAG_member
    5332                      .dwattr $C$DW$529, DW_AT_type(*$C$DW$T$19)
    5333                      .dwattr $C$DW$529, DW_AT_name("SYSDBGNMI")
    5334                      .dwattr $C$DW$529, DW_AT_TI_symbol_name("_SYSDBGNMI")
    5335                      .dwattr $C$DW$529, DW_AT_bit_offset(0x08), DW_AT_bit_size(0x01)
    5336                      .dwattr $C$DW$529, DW_AT_data_member_location[DW_OP_plus_uconst 0x0]
    5337                      .dwattr $C$DW$529, DW_AT_accessibility(DW_ACCESS_public)
    5338              $C$DW$530       .dwtag  DW_TAG_member
    5339                      .dwattr $C$DW$530, DW_AT_type(*$C$DW$T$19)
    5340                      .dwattr $C$DW$530, DW_AT_name("RLNMI")
    5341                      .dwattr $C$DW$530, DW_AT_TI_symbol_name("_RLNMI")
    5342                      .dwattr $C$DW$530, DW_AT_bit_offset(0x07), DW_AT_bit_size(0x01)
    5343                      .dwattr $C$DW$530, DW_AT_data_member_location[DW_OP_plus_uconst 0x0]
    5344                      .dwattr $C$DW$530, DW_AT_accessibility(DW_ACCESS_public)
    5345              $C$DW$531       .dwtag  DW_TAG_member
    5346                      .dwattr $C$DW$531, DW_AT_type(*$C$DW$T$19)
    5347                      .dwattr $C$DW$531, DW_AT_name("CPU2WDRSn")
    5348                      .dwattr $C$DW$531, DW_AT_TI_symbol_name("_CPU2WDRSn")
    5349                      .dwattr $C$DW$531, DW_AT_bit_offset(0x06), DW_AT_bit_size(0x01)
    5350                      .dwattr $C$DW$531, DW_AT_data_member_location[DW_OP_plus_uconst 0x0]
    5351                      .dwattr $C$DW$531, DW_AT_accessibility(DW_ACCESS_public)
    5352              $C$DW$532       .dwtag  DW_TAG_member
    5353                      .dwattr $C$DW$532, DW_AT_type(*$C$DW$T$19)
    5354                      .dwattr $C$DW$532, DW_AT_name("CPU2NMIWDRSn")
    5355                      .dwattr $C$DW$532, DW_AT_TI_symbol_name("_CPU2NMIWDRSn")
    5356                      .dwattr $C$DW$532, DW_AT_bit_offset(0x05), DW_AT_bit_size(0x01)
    5357                      .dwattr $C$DW$532, DW_AT_data_member_location[DW_OP_plus_uconst 0x0]
    5358                      .dwattr $C$DW$532, DW_AT_accessibility(DW_ACCESS_public)
    5359              $C$DW$533       .dwtag  DW_TAG_member
    5360                      .dwattr $C$DW$533, DW_AT_type(*$C$DW$T$19)
    5361                      .dwattr $C$DW$533, DW_AT_name("OVF")
    5362                      .dwattr $C$DW$533, DW_AT_TI_symbol_name("_OVF")
    5363                      .dwattr $C$DW$533, DW_AT_bit_offset(0x04), DW_AT_bit_size(0x01)
    5364                      .dwattr $C$DW$533, DW_AT_data_member_location[DW_OP_plus_uconst 0x0]
    5365                      .dwattr $C$DW$533, DW_AT_accessibility(DW_ACCESS_public)
    5366              $C$DW$534       .dwtag  DW_TAG_member
    5367                      .dwattr $C$DW$534, DW_AT_type(*$C$DW$T$19)
    5368                      .dwattr $C$DW$534, DW_AT_name("rsvd2")
    5369                      .dwattr $C$DW$534, DW_AT_TI_symbol_name("_rsvd2")
    5370                      .dwattr $C$DW$534, DW_AT_bit_offset(0x00), DW_AT_bit_size(0x04)
    5371                      .dwattr $C$DW$534, DW_AT_data_member_location[DW_OP_plus_uconst 0x0]
    5372                      .dwattr $C$DW$534, DW_AT_accessibility(DW_ACCESS_public)
TMS320C2000 Assembler PC v6.1.3 Thu Jan 30 10:26:14 2014

Tools Copyright (c) 1996-2012 Texas Instruments Incorporated
C:\Users\a0272466\AppData\Local\Temp\0274010                         PAGE  104

    5373                      .dwendtag $C$DW$T$57
    5374              
    5375              
    5376              $C$DW$T$58      .dwtag  DW_TAG_union_type
    5377                      .dwattr $C$DW$T$58, DW_AT_name("NMISHDFLG_REG")
    5378                      .dwattr $C$DW$T$58, DW_AT_byte_size(0x01)
    5379              $C$DW$535       .dwtag  DW_TAG_member
    5380                      .dwattr $C$DW$535, DW_AT_type(*$C$DW$T$19)
    5381                      .dwattr $C$DW$535, DW_AT_name("all")
    5382                      .dwattr $C$DW$535, DW_AT_TI_symbol_name("_all")
    5383                      .dwattr $C$DW$535, DW_AT_data_member_location[DW_OP_plus_uconst 0x0]
    5384                      .dwattr $C$DW$535, DW_AT_accessibility(DW_ACCESS_public)
    5385              $C$DW$536       .dwtag  DW_TAG_member
    5386                      .dwattr $C$DW$536, DW_AT_type(*$C$DW$T$57)
    5387                      .dwattr $C$DW$536, DW_AT_name("bit")
    5388                      .dwattr $C$DW$536, DW_AT_TI_symbol_name("_bit")
    5389                      .dwattr $C$DW$536, DW_AT_data_member_location[DW_OP_plus_uconst 0x0]
    5390                      .dwattr $C$DW$536, DW_AT_accessibility(DW_ACCESS_public)
    5391                      .dwendtag $C$DW$T$58
    5392              
    5393              
    5394              $C$DW$T$59      .dwtag  DW_TAG_structure_type
    5395                      .dwattr $C$DW$T$59, DW_AT_name("NMI_INTRUPT_REGS")
    5396                      .dwattr $C$DW$T$59, DW_AT_byte_size(0x07)
    5397              $C$DW$537       .dwtag  DW_TAG_member
    5398                      .dwattr $C$DW$537, DW_AT_type(*$C$DW$T$50)
    5399                      .dwattr $C$DW$537, DW_AT_name("NMICFG")
    5400                      .dwattr $C$DW$537, DW_AT_TI_symbol_name("_NMICFG")
    5401                      .dwattr $C$DW$537, DW_AT_data_member_location[DW_OP_plus_uconst 0x0]
    5402                      .dwattr $C$DW$537, DW_AT_accessibility(DW_ACCESS_public)
    5403              $C$DW$538       .dwtag  DW_TAG_member
    5404                      .dwattr $C$DW$538, DW_AT_type(*$C$DW$T$56)
    5405                      .dwattr $C$DW$538, DW_AT_name("NMIFLG")
    5406                      .dwattr $C$DW$538, DW_AT_TI_symbol_name("_NMIFLG")
    5407                      .dwattr $C$DW$538, DW_AT_data_member_location[DW_OP_plus_uconst 0x1]
    5408                      .dwattr $C$DW$538, DW_AT_accessibility(DW_ACCESS_public)
    5409              $C$DW$539       .dwtag  DW_TAG_member
    5410                      .dwattr $C$DW$539, DW_AT_type(*$C$DW$T$52)
    5411                      .dwattr $C$DW$539, DW_AT_name("NMIFLGCLR")
    5412                      .dwattr $C$DW$539, DW_AT_TI_symbol_name("_NMIFLGCLR")
    5413                      .dwattr $C$DW$539, DW_AT_data_member_location[DW_OP_plus_uconst 0x2]
    5414                      .dwattr $C$DW$539, DW_AT_accessibility(DW_ACCESS_public)
    5415              $C$DW$540       .dwtag  DW_TAG_member
    5416                      .dwattr $C$DW$540, DW_AT_type(*$C$DW$T$54)
    5417                      .dwattr $C$DW$540, DW_AT_name("NMIFLGFRC")
    5418                      .dwattr $C$DW$540, DW_AT_TI_symbol_name("_NMIFLGFRC")
    5419                      .dwattr $C$DW$540, DW_AT_data_member_location[DW_OP_plus_uconst 0x3]
    5420                      .dwattr $C$DW$540, DW_AT_accessibility(DW_ACCESS_public)
    5421              $C$DW$541       .dwtag  DW_TAG_member
    5422                      .dwattr $C$DW$541, DW_AT_type(*$C$DW$T$19)
    5423                      .dwattr $C$DW$541, DW_AT_name("NMIWDCNT")
    5424                      .dwattr $C$DW$541, DW_AT_TI_symbol_name("_NMIWDCNT")
    5425                      .dwattr $C$DW$541, DW_AT_data_member_location[DW_OP_plus_uconst 0x4]
    5426                      .dwattr $C$DW$541, DW_AT_accessibility(DW_ACCESS_public)
    5427              $C$DW$542       .dwtag  DW_TAG_member
TMS320C2000 Assembler PC v6.1.3 Thu Jan 30 10:26:14 2014

Tools Copyright (c) 1996-2012 Texas Instruments Incorporated
C:\Users\a0272466\AppData\Local\Temp\0274010                         PAGE  105

    5428                      .dwattr $C$DW$542, DW_AT_type(*$C$DW$T$19)
    5429                      .dwattr $C$DW$542, DW_AT_name("NMIWDPRD")
    5430                      .dwattr $C$DW$542, DW_AT_TI_symbol_name("_NMIWDPRD")
    5431                      .dwattr $C$DW$542, DW_AT_data_member_location[DW_OP_plus_uconst 0x5]
    5432                      .dwattr $C$DW$542, DW_AT_accessibility(DW_ACCESS_public)
    5433              $C$DW$543       .dwtag  DW_TAG_member
    5434                      .dwattr $C$DW$543, DW_AT_type(*$C$DW$T$58)
    5435                      .dwattr $C$DW$543, DW_AT_name("NMISHDFLG")
    5436                      .dwattr $C$DW$543, DW_AT_TI_symbol_name("_NMISHDFLG")
    5437                      .dwattr $C$DW$543, DW_AT_data_member_location[DW_OP_plus_uconst 0x6]
    5438                      .dwattr $C$DW$543, DW_AT_accessibility(DW_ACCESS_public)
    5439                      .dwendtag $C$DW$T$59
    5440              
    5441              $C$DW$544       .dwtag  DW_TAG_TI_far_type
    5442                      .dwattr $C$DW$544, DW_AT_type(*$C$DW$T$59)
    5443              $C$DW$T$174     .dwtag  DW_TAG_volatile_type
    5444                      .dwattr $C$DW$T$174, DW_AT_type(*$C$DW$544)
    5445              
    5446              $C$DW$T$60      .dwtag  DW_TAG_structure_type
    5447                      .dwattr $C$DW$T$60, DW_AT_name("PCLKCR0_BITS")
    5448                      .dwattr $C$DW$T$60, DW_AT_byte_size(0x02)
    5449              $C$DW$545       .dwtag  DW_TAG_member
    5450                      .dwattr $C$DW$545, DW_AT_type(*$C$DW$T$19)
    5451                      .dwattr $C$DW$545, DW_AT_name("CLA1")
    5452                      .dwattr $C$DW$545, DW_AT_TI_symbol_name("_CLA1")
    5453                      .dwattr $C$DW$545, DW_AT_bit_offset(0x0f), DW_AT_bit_size(0x01)
    5454                      .dwattr $C$DW$545, DW_AT_data_member_location[DW_OP_plus_uconst 0x0]
    5455                      .dwattr $C$DW$545, DW_AT_accessibility(DW_ACCESS_public)
    5456              $C$DW$546       .dwtag  DW_TAG_member
    5457                      .dwattr $C$DW$546, DW_AT_type(*$C$DW$T$19)
    5458                      .dwattr $C$DW$546, DW_AT_name("rsvd1")
    5459                      .dwattr $C$DW$546, DW_AT_TI_symbol_name("_rsvd1")
    5460                      .dwattr $C$DW$546, DW_AT_bit_offset(0x0e), DW_AT_bit_size(0x01)
    5461                      .dwattr $C$DW$546, DW_AT_data_member_location[DW_OP_plus_uconst 0x0]
    5462                      .dwattr $C$DW$546, DW_AT_accessibility(DW_ACCESS_public)
    5463              $C$DW$547       .dwtag  DW_TAG_member
    5464                      .dwattr $C$DW$547, DW_AT_type(*$C$DW$T$19)
    5465                      .dwattr $C$DW$547, DW_AT_name("DMA")
    5466                      .dwattr $C$DW$547, DW_AT_TI_symbol_name("_DMA")
    5467                      .dwattr $C$DW$547, DW_AT_bit_offset(0x0d), DW_AT_bit_size(0x01)
    5468                      .dwattr $C$DW$547, DW_AT_data_member_location[DW_OP_plus_uconst 0x0]
    5469                      .dwattr $C$DW$547, DW_AT_accessibility(DW_ACCESS_public)
    5470              $C$DW$548       .dwtag  DW_TAG_member
    5471                      .dwattr $C$DW$548, DW_AT_type(*$C$DW$T$19)
    5472                      .dwattr $C$DW$548, DW_AT_name("CPUTIMER0")
    5473                      .dwattr $C$DW$548, DW_AT_TI_symbol_name("_CPUTIMER0")
    5474                      .dwattr $C$DW$548, DW_AT_bit_offset(0x0c), DW_AT_bit_size(0x01)
    5475                      .dwattr $C$DW$548, DW_AT_data_member_location[DW_OP_plus_uconst 0x0]
    5476                      .dwattr $C$DW$548, DW_AT_accessibility(DW_ACCESS_public)
    5477              $C$DW$549       .dwtag  DW_TAG_member
    5478                      .dwattr $C$DW$549, DW_AT_type(*$C$DW$T$19)
    5479                      .dwattr $C$DW$549, DW_AT_name("CPUTIMER1")
    5480                      .dwattr $C$DW$549, DW_AT_TI_symbol_name("_CPUTIMER1")
    5481                      .dwattr $C$DW$549, DW_AT_bit_offset(0x0b), DW_AT_bit_size(0x01)
    5482                      .dwattr $C$DW$549, DW_AT_data_member_location[DW_OP_plus_uconst 0x0]
TMS320C2000 Assembler PC v6.1.3 Thu Jan 30 10:26:14 2014

Tools Copyright (c) 1996-2012 Texas Instruments Incorporated
C:\Users\a0272466\AppData\Local\Temp\0274010                         PAGE  106

    5483                      .dwattr $C$DW$549, DW_AT_accessibility(DW_ACCESS_public)
    5484              $C$DW$550       .dwtag  DW_TAG_member
    5485                      .dwattr $C$DW$550, DW_AT_type(*$C$DW$T$19)
    5486                      .dwattr $C$DW$550, DW_AT_name("CPUTIMER2")
    5487                      .dwattr $C$DW$550, DW_AT_TI_symbol_name("_CPUTIMER2")
    5488                      .dwattr $C$DW$550, DW_AT_bit_offset(0x0a), DW_AT_bit_size(0x01)
    5489                      .dwattr $C$DW$550, DW_AT_data_member_location[DW_OP_plus_uconst 0x0]
    5490                      .dwattr $C$DW$550, DW_AT_accessibility(DW_ACCESS_public)
    5491              $C$DW$551       .dwtag  DW_TAG_member
    5492                      .dwattr $C$DW$551, DW_AT_type(*$C$DW$T$19)
    5493                      .dwattr $C$DW$551, DW_AT_name("rsvd2")
    5494                      .dwattr $C$DW$551, DW_AT_TI_symbol_name("_rsvd2")
    5495                      .dwattr $C$DW$551, DW_AT_bit_offset(0x00), DW_AT_bit_size(0x0a)
    5496                      .dwattr $C$DW$551, DW_AT_data_member_location[DW_OP_plus_uconst 0x0]
    5497                      .dwattr $C$DW$551, DW_AT_accessibility(DW_ACCESS_public)
    5498              $C$DW$552       .dwtag  DW_TAG_member
    5499                      .dwattr $C$DW$552, DW_AT_type(*$C$DW$T$19)
    5500                      .dwattr $C$DW$552, DW_AT_name("HRPWM")
    5501                      .dwattr $C$DW$552, DW_AT_TI_symbol_name("_HRPWM")
    5502                      .dwattr $C$DW$552, DW_AT_bit_offset(0x0f), DW_AT_bit_size(0x01)
    5503                      .dwattr $C$DW$552, DW_AT_data_member_location[DW_OP_plus_uconst 0x1]
    5504                      .dwattr $C$DW$552, DW_AT_accessibility(DW_ACCESS_public)
    5505              $C$DW$553       .dwtag  DW_TAG_member
    5506                      .dwattr $C$DW$553, DW_AT_type(*$C$DW$T$19)
    5507                      .dwattr $C$DW$553, DW_AT_name("rsvd3")
    5508                      .dwattr $C$DW$553, DW_AT_TI_symbol_name("_rsvd3")
    5509                      .dwattr $C$DW$553, DW_AT_bit_offset(0x0e), DW_AT_bit_size(0x01)
    5510                      .dwattr $C$DW$553, DW_AT_data_member_location[DW_OP_plus_uconst 0x1]
    5511                      .dwattr $C$DW$553, DW_AT_accessibility(DW_ACCESS_public)
    5512              $C$DW$554       .dwtag  DW_TAG_member
    5513                      .dwattr $C$DW$554, DW_AT_type(*$C$DW$T$19)
    5514                      .dwattr $C$DW$554, DW_AT_name("TBCLKSYNC")
    5515                      .dwattr $C$DW$554, DW_AT_TI_symbol_name("_TBCLKSYNC")
    5516                      .dwattr $C$DW$554, DW_AT_bit_offset(0x0d), DW_AT_bit_size(0x01)
    5517                      .dwattr $C$DW$554, DW_AT_data_member_location[DW_OP_plus_uconst 0x1]
    5518                      .dwattr $C$DW$554, DW_AT_accessibility(DW_ACCESS_public)
    5519              $C$DW$555       .dwtag  DW_TAG_member
    5520                      .dwattr $C$DW$555, DW_AT_type(*$C$DW$T$19)
    5521                      .dwattr $C$DW$555, DW_AT_name("GTBCLKSYNC")
    5522                      .dwattr $C$DW$555, DW_AT_TI_symbol_name("_GTBCLKSYNC")
    5523                      .dwattr $C$DW$555, DW_AT_bit_offset(0x0c), DW_AT_bit_size(0x01)
    5524                      .dwattr $C$DW$555, DW_AT_data_member_location[DW_OP_plus_uconst 0x1]
    5525                      .dwattr $C$DW$555, DW_AT_accessibility(DW_ACCESS_public)
    5526              $C$DW$556       .dwtag  DW_TAG_member
    5527                      .dwattr $C$DW$556, DW_AT_type(*$C$DW$T$19)
    5528                      .dwattr $C$DW$556, DW_AT_name("rsvd4")
    5529                      .dwattr $C$DW$556, DW_AT_TI_symbol_name("_rsvd4")
    5530                      .dwattr $C$DW$556, DW_AT_bit_offset(0x00), DW_AT_bit_size(0x0c)
    5531                      .dwattr $C$DW$556, DW_AT_data_member_location[DW_OP_plus_uconst 0x1]
    5532                      .dwattr $C$DW$556, DW_AT_accessibility(DW_ACCESS_public)
    5533                      .dwendtag $C$DW$T$60
    5534              
    5535              
    5536              $C$DW$T$61      .dwtag  DW_TAG_union_type
    5537                      .dwattr $C$DW$T$61, DW_AT_name("PCLKCR0_REG")
TMS320C2000 Assembler PC v6.1.3 Thu Jan 30 10:26:14 2014

Tools Copyright (c) 1996-2012 Texas Instruments Incorporated
C:\Users\a0272466\AppData\Local\Temp\0274010                         PAGE  107

    5538                      .dwattr $C$DW$T$61, DW_AT_byte_size(0x02)
    5539              $C$DW$557       .dwtag  DW_TAG_member
    5540                      .dwattr $C$DW$557, DW_AT_type(*$C$DW$T$21)
    5541                      .dwattr $C$DW$557, DW_AT_name("all")
    5542                      .dwattr $C$DW$557, DW_AT_TI_symbol_name("_all")
    5543                      .dwattr $C$DW$557, DW_AT_data_member_location[DW_OP_plus_uconst 0x0]
    5544                      .dwattr $C$DW$557, DW_AT_accessibility(DW_ACCESS_public)
    5545              $C$DW$558       .dwtag  DW_TAG_member
    5546                      .dwattr $C$DW$558, DW_AT_type(*$C$DW$T$60)
    5547                      .dwattr $C$DW$558, DW_AT_name("bit")
    5548                      .dwattr $C$DW$558, DW_AT_TI_symbol_name("_bit")
    5549                      .dwattr $C$DW$558, DW_AT_data_member_location[DW_OP_plus_uconst 0x0]
    5550                      .dwattr $C$DW$558, DW_AT_accessibility(DW_ACCESS_public)
    5551                      .dwendtag $C$DW$T$61
    5552              
    5553              
    5554              $C$DW$T$62      .dwtag  DW_TAG_structure_type
    5555                      .dwattr $C$DW$T$62, DW_AT_name("PCLKCR10_BITS")
    5556                      .dwattr $C$DW$T$62, DW_AT_byte_size(0x02)
    5557              $C$DW$559       .dwtag  DW_TAG_member
    5558                      .dwattr $C$DW$559, DW_AT_type(*$C$DW$T$19)
    5559                      .dwattr $C$DW$559, DW_AT_name("CAN_A")
    5560                      .dwattr $C$DW$559, DW_AT_TI_symbol_name("_CAN_A")
    5561                      .dwattr $C$DW$559, DW_AT_bit_offset(0x0f), DW_AT_bit_size(0x01)
    5562                      .dwattr $C$DW$559, DW_AT_data_member_location[DW_OP_plus_uconst 0x0]
    5563                      .dwattr $C$DW$559, DW_AT_accessibility(DW_ACCESS_public)
    5564              $C$DW$560       .dwtag  DW_TAG_member
    5565                      .dwattr $C$DW$560, DW_AT_type(*$C$DW$T$19)
    5566                      .dwattr $C$DW$560, DW_AT_name("CAN_B")
    5567                      .dwattr $C$DW$560, DW_AT_TI_symbol_name("_CAN_B")
    5568                      .dwattr $C$DW$560, DW_AT_bit_offset(0x0e), DW_AT_bit_size(0x01)
    5569                      .dwattr $C$DW$560, DW_AT_data_member_location[DW_OP_plus_uconst 0x0]
    5570                      .dwattr $C$DW$560, DW_AT_accessibility(DW_ACCESS_public)
    5571              $C$DW$561       .dwtag  DW_TAG_member
    5572                      .dwattr $C$DW$561, DW_AT_type(*$C$DW$T$19)
    5573                      .dwattr $C$DW$561, DW_AT_name("rsvd1")
    5574                      .dwattr $C$DW$561, DW_AT_TI_symbol_name("_rsvd1")
    5575                      .dwattr $C$DW$561, DW_AT_bit_offset(0x00), DW_AT_bit_size(0x0e)
    5576                      .dwattr $C$DW$561, DW_AT_data_member_location[DW_OP_plus_uconst 0x0]
    5577                      .dwattr $C$DW$561, DW_AT_accessibility(DW_ACCESS_public)
    5578              $C$DW$562       .dwtag  DW_TAG_member
    5579                      .dwattr $C$DW$562, DW_AT_type(*$C$DW$T$19)
    5580                      .dwattr $C$DW$562, DW_AT_name("rsvd2")
    5581                      .dwattr $C$DW$562, DW_AT_TI_symbol_name("_rsvd2")
    5582                      .dwattr $C$DW$562, DW_AT_bit_offset(0x00), DW_AT_bit_size(0x10)
    5583                      .dwattr $C$DW$562, DW_AT_data_member_location[DW_OP_plus_uconst 0x1]
    5584                      .dwattr $C$DW$562, DW_AT_accessibility(DW_ACCESS_public)
    5585                      .dwendtag $C$DW$T$62
    5586              
    5587              
    5588              $C$DW$T$63      .dwtag  DW_TAG_union_type
    5589                      .dwattr $C$DW$T$63, DW_AT_name("PCLKCR10_REG")
    5590                      .dwattr $C$DW$T$63, DW_AT_byte_size(0x02)
    5591              $C$DW$563       .dwtag  DW_TAG_member
    5592                      .dwattr $C$DW$563, DW_AT_type(*$C$DW$T$21)
TMS320C2000 Assembler PC v6.1.3 Thu Jan 30 10:26:14 2014

Tools Copyright (c) 1996-2012 Texas Instruments Incorporated
C:\Users\a0272466\AppData\Local\Temp\0274010                         PAGE  108

    5593                      .dwattr $C$DW$563, DW_AT_name("all")
    5594                      .dwattr $C$DW$563, DW_AT_TI_symbol_name("_all")
    5595                      .dwattr $C$DW$563, DW_AT_data_member_location[DW_OP_plus_uconst 0x0]
    5596                      .dwattr $C$DW$563, DW_AT_accessibility(DW_ACCESS_public)
    5597              $C$DW$564       .dwtag  DW_TAG_member
    5598                      .dwattr $C$DW$564, DW_AT_type(*$C$DW$T$62)
    5599                      .dwattr $C$DW$564, DW_AT_name("bit")
    5600                      .dwattr $C$DW$564, DW_AT_TI_symbol_name("_bit")
    5601                      .dwattr $C$DW$564, DW_AT_data_member_location[DW_OP_plus_uconst 0x0]
    5602                      .dwattr $C$DW$564, DW_AT_accessibility(DW_ACCESS_public)
    5603                      .dwendtag $C$DW$T$63
    5604              
    5605              
    5606              $C$DW$T$64      .dwtag  DW_TAG_structure_type
    5607                      .dwattr $C$DW$T$64, DW_AT_name("PCLKCR11_BITS")
    5608                      .dwattr $C$DW$T$64, DW_AT_byte_size(0x02)
    5609              $C$DW$565       .dwtag  DW_TAG_member
    5610                      .dwattr $C$DW$565, DW_AT_type(*$C$DW$T$19)
    5611                      .dwattr $C$DW$565, DW_AT_name("McBSP_A")
    5612                      .dwattr $C$DW$565, DW_AT_TI_symbol_name("_McBSP_A")
    5613                      .dwattr $C$DW$565, DW_AT_bit_offset(0x0f), DW_AT_bit_size(0x01)
    5614                      .dwattr $C$DW$565, DW_AT_data_member_location[DW_OP_plus_uconst 0x0]
    5615                      .dwattr $C$DW$565, DW_AT_accessibility(DW_ACCESS_public)
    5616              $C$DW$566       .dwtag  DW_TAG_member
    5617                      .dwattr $C$DW$566, DW_AT_type(*$C$DW$T$19)
    5618                      .dwattr $C$DW$566, DW_AT_name("McBSP_B")
    5619                      .dwattr $C$DW$566, DW_AT_TI_symbol_name("_McBSP_B")
    5620                      .dwattr $C$DW$566, DW_AT_bit_offset(0x0e), DW_AT_bit_size(0x01)
    5621                      .dwattr $C$DW$566, DW_AT_data_member_location[DW_OP_plus_uconst 0x0]
    5622                      .dwattr $C$DW$566, DW_AT_accessibility(DW_ACCESS_public)
    5623              $C$DW$567       .dwtag  DW_TAG_member
    5624                      .dwattr $C$DW$567, DW_AT_type(*$C$DW$T$19)
    5625                      .dwattr $C$DW$567, DW_AT_name("rsvd1")
    5626                      .dwattr $C$DW$567, DW_AT_TI_symbol_name("_rsvd1")
    5627                      .dwattr $C$DW$567, DW_AT_bit_offset(0x00), DW_AT_bit_size(0x0e)
    5628                      .dwattr $C$DW$567, DW_AT_data_member_location[DW_OP_plus_uconst 0x0]
    5629                      .dwattr $C$DW$567, DW_AT_accessibility(DW_ACCESS_public)
    5630              $C$DW$568       .dwtag  DW_TAG_member
    5631                      .dwattr $C$DW$568, DW_AT_type(*$C$DW$T$19)
    5632                      .dwattr $C$DW$568, DW_AT_name("USB_A")
    5633                      .dwattr $C$DW$568, DW_AT_TI_symbol_name("_USB_A")
    5634                      .dwattr $C$DW$568, DW_AT_bit_offset(0x0f), DW_AT_bit_size(0x01)
    5635                      .dwattr $C$DW$568, DW_AT_data_member_location[DW_OP_plus_uconst 0x1]
    5636                      .dwattr $C$DW$568, DW_AT_accessibility(DW_ACCESS_public)
    5637              $C$DW$569       .dwtag  DW_TAG_member
    5638                      .dwattr $C$DW$569, DW_AT_type(*$C$DW$T$19)
    5639                      .dwattr $C$DW$569, DW_AT_name("rsvd2")
    5640                      .dwattr $C$DW$569, DW_AT_TI_symbol_name("_rsvd2")
    5641                      .dwattr $C$DW$569, DW_AT_bit_offset(0x00), DW_AT_bit_size(0x0f)
    5642                      .dwattr $C$DW$569, DW_AT_data_member_location[DW_OP_plus_uconst 0x1]
    5643                      .dwattr $C$DW$569, DW_AT_accessibility(DW_ACCESS_public)
    5644                      .dwendtag $C$DW$T$64
    5645              
    5646              
    5647              $C$DW$T$65      .dwtag  DW_TAG_union_type
TMS320C2000 Assembler PC v6.1.3 Thu Jan 30 10:26:14 2014

Tools Copyright (c) 1996-2012 Texas Instruments Incorporated
C:\Users\a0272466\AppData\Local\Temp\0274010                         PAGE  109

    5648                      .dwattr $C$DW$T$65, DW_AT_name("PCLKCR11_REG")
    5649                      .dwattr $C$DW$T$65, DW_AT_byte_size(0x02)
    5650              $C$DW$570       .dwtag  DW_TAG_member
    5651                      .dwattr $C$DW$570, DW_AT_type(*$C$DW$T$21)
    5652                      .dwattr $C$DW$570, DW_AT_name("all")
    5653                      .dwattr $C$DW$570, DW_AT_TI_symbol_name("_all")
    5654                      .dwattr $C$DW$570, DW_AT_data_member_location[DW_OP_plus_uconst 0x0]
    5655                      .dwattr $C$DW$570, DW_AT_accessibility(DW_ACCESS_public)
    5656              $C$DW$571       .dwtag  DW_TAG_member
    5657                      .dwattr $C$DW$571, DW_AT_type(*$C$DW$T$64)
    5658                      .dwattr $C$DW$571, DW_AT_name("bit")
    5659                      .dwattr $C$DW$571, DW_AT_TI_symbol_name("_bit")
    5660                      .dwattr $C$DW$571, DW_AT_data_member_location[DW_OP_plus_uconst 0x0]
    5661                      .dwattr $C$DW$571, DW_AT_accessibility(DW_ACCESS_public)
    5662                      .dwendtag $C$DW$T$65
    5663              
    5664              
    5665              $C$DW$T$66      .dwtag  DW_TAG_structure_type
    5666                      .dwattr $C$DW$T$66, DW_AT_name("PCLKCR12_BITS")
    5667                      .dwattr $C$DW$T$66, DW_AT_byte_size(0x02)
    5668              $C$DW$572       .dwtag  DW_TAG_member
    5669                      .dwattr $C$DW$572, DW_AT_type(*$C$DW$T$19)
    5670                      .dwattr $C$DW$572, DW_AT_name("uPP_A")
    5671                      .dwattr $C$DW$572, DW_AT_TI_symbol_name("_uPP_A")
    5672                      .dwattr $C$DW$572, DW_AT_bit_offset(0x0f), DW_AT_bit_size(0x01)
    5673                      .dwattr $C$DW$572, DW_AT_data_member_location[DW_OP_plus_uconst 0x0]
    5674                      .dwattr $C$DW$572, DW_AT_accessibility(DW_ACCESS_public)
    5675              $C$DW$573       .dwtag  DW_TAG_member
    5676                      .dwattr $C$DW$573, DW_AT_type(*$C$DW$T$19)
    5677                      .dwattr $C$DW$573, DW_AT_name("rsvd1")
    5678                      .dwattr $C$DW$573, DW_AT_TI_symbol_name("_rsvd1")
    5679                      .dwattr $C$DW$573, DW_AT_bit_offset(0x00), DW_AT_bit_size(0x0f)
    5680                      .dwattr $C$DW$573, DW_AT_data_member_location[DW_OP_plus_uconst 0x0]
    5681                      .dwattr $C$DW$573, DW_AT_accessibility(DW_ACCESS_public)
    5682              $C$DW$574       .dwtag  DW_TAG_member
    5683                      .dwattr $C$DW$574, DW_AT_type(*$C$DW$T$19)
    5684                      .dwattr $C$DW$574, DW_AT_name("rsvd2")
    5685                      .dwattr $C$DW$574, DW_AT_TI_symbol_name("_rsvd2")
    5686                      .dwattr $C$DW$574, DW_AT_bit_offset(0x00), DW_AT_bit_size(0x10)
    5687                      .dwattr $C$DW$574, DW_AT_data_member_location[DW_OP_plus_uconst 0x1]
    5688                      .dwattr $C$DW$574, DW_AT_accessibility(DW_ACCESS_public)
    5689                      .dwendtag $C$DW$T$66
    5690              
    5691              
    5692              $C$DW$T$67      .dwtag  DW_TAG_union_type
    5693                      .dwattr $C$DW$T$67, DW_AT_name("PCLKCR12_REG")
    5694                      .dwattr $C$DW$T$67, DW_AT_byte_size(0x02)
    5695              $C$DW$575       .dwtag  DW_TAG_member
    5696                      .dwattr $C$DW$575, DW_AT_type(*$C$DW$T$21)
    5697                      .dwattr $C$DW$575, DW_AT_name("all")
    5698                      .dwattr $C$DW$575, DW_AT_TI_symbol_name("_all")
    5699                      .dwattr $C$DW$575, DW_AT_data_member_location[DW_OP_plus_uconst 0x0]
    5700                      .dwattr $C$DW$575, DW_AT_accessibility(DW_ACCESS_public)
    5701              $C$DW$576       .dwtag  DW_TAG_member
    5702                      .dwattr $C$DW$576, DW_AT_type(*$C$DW$T$66)
TMS320C2000 Assembler PC v6.1.3 Thu Jan 30 10:26:14 2014

Tools Copyright (c) 1996-2012 Texas Instruments Incorporated
C:\Users\a0272466\AppData\Local\Temp\0274010                         PAGE  110

    5703                      .dwattr $C$DW$576, DW_AT_name("bit")
    5704                      .dwattr $C$DW$576, DW_AT_TI_symbol_name("_bit")
    5705                      .dwattr $C$DW$576, DW_AT_data_member_location[DW_OP_plus_uconst 0x0]
    5706                      .dwattr $C$DW$576, DW_AT_accessibility(DW_ACCESS_public)
    5707                      .dwendtag $C$DW$T$67
    5708              
    5709              
    5710              $C$DW$T$68      .dwtag  DW_TAG_structure_type
    5711                      .dwattr $C$DW$T$68, DW_AT_name("PCLKCR13_BITS")
    5712                      .dwattr $C$DW$T$68, DW_AT_byte_size(0x02)
    5713              $C$DW$577       .dwtag  DW_TAG_member
    5714                      .dwattr $C$DW$577, DW_AT_type(*$C$DW$T$19)
    5715                      .dwattr $C$DW$577, DW_AT_name("ADC1")
    5716                      .dwattr $C$DW$577, DW_AT_TI_symbol_name("_ADC1")
    5717                      .dwattr $C$DW$577, DW_AT_bit_offset(0x0f), DW_AT_bit_size(0x01)
    5718                      .dwattr $C$DW$577, DW_AT_data_member_location[DW_OP_plus_uconst 0x0]
    5719                      .dwattr $C$DW$577, DW_AT_accessibility(DW_ACCESS_public)
    5720              $C$DW$578       .dwtag  DW_TAG_member
    5721                      .dwattr $C$DW$578, DW_AT_type(*$C$DW$T$19)
    5722                      .dwattr $C$DW$578, DW_AT_name("ADC2")
    5723                      .dwattr $C$DW$578, DW_AT_TI_symbol_name("_ADC2")
    5724                      .dwattr $C$DW$578, DW_AT_bit_offset(0x0e), DW_AT_bit_size(0x01)
    5725                      .dwattr $C$DW$578, DW_AT_data_member_location[DW_OP_plus_uconst 0x0]
    5726                      .dwattr $C$DW$578, DW_AT_accessibility(DW_ACCESS_public)
    5727              $C$DW$579       .dwtag  DW_TAG_member
    5728                      .dwattr $C$DW$579, DW_AT_type(*$C$DW$T$19)
    5729                      .dwattr $C$DW$579, DW_AT_name("ADC3")
    5730                      .dwattr $C$DW$579, DW_AT_TI_symbol_name("_ADC3")
    5731                      .dwattr $C$DW$579, DW_AT_bit_offset(0x0d), DW_AT_bit_size(0x01)
    5732                      .dwattr $C$DW$579, DW_AT_data_member_location[DW_OP_plus_uconst 0x0]
    5733                      .dwattr $C$DW$579, DW_AT_accessibility(DW_ACCESS_public)
    5734              $C$DW$580       .dwtag  DW_TAG_member
    5735                      .dwattr $C$DW$580, DW_AT_type(*$C$DW$T$19)
    5736                      .dwattr $C$DW$580, DW_AT_name("ADC4")
    5737                      .dwattr $C$DW$580, DW_AT_TI_symbol_name("_ADC4")
    5738                      .dwattr $C$DW$580, DW_AT_bit_offset(0x0c), DW_AT_bit_size(0x01)
    5739                      .dwattr $C$DW$580, DW_AT_data_member_location[DW_OP_plus_uconst 0x0]
    5740                      .dwattr $C$DW$580, DW_AT_accessibility(DW_ACCESS_public)
    5741              $C$DW$581       .dwtag  DW_TAG_member
    5742                      .dwattr $C$DW$581, DW_AT_type(*$C$DW$T$19)
    5743                      .dwattr $C$DW$581, DW_AT_name("rsvd1")
    5744                      .dwattr $C$DW$581, DW_AT_TI_symbol_name("_rsvd1")
    5745                      .dwattr $C$DW$581, DW_AT_bit_offset(0x00), DW_AT_bit_size(0x0c)
    5746                      .dwattr $C$DW$581, DW_AT_data_member_location[DW_OP_plus_uconst 0x0]
    5747                      .dwattr $C$DW$581, DW_AT_accessibility(DW_ACCESS_public)
    5748              $C$DW$582       .dwtag  DW_TAG_member
    5749                      .dwattr $C$DW$582, DW_AT_type(*$C$DW$T$19)
    5750                      .dwattr $C$DW$582, DW_AT_name("rsvd2")
    5751                      .dwattr $C$DW$582, DW_AT_TI_symbol_name("_rsvd2")
    5752                      .dwattr $C$DW$582, DW_AT_bit_offset(0x00), DW_AT_bit_size(0x10)
    5753                      .dwattr $C$DW$582, DW_AT_data_member_location[DW_OP_plus_uconst 0x1]
    5754                      .dwattr $C$DW$582, DW_AT_accessibility(DW_ACCESS_public)
    5755                      .dwendtag $C$DW$T$68
    5756              
    5757              
TMS320C2000 Assembler PC v6.1.3 Thu Jan 30 10:26:14 2014

Tools Copyright (c) 1996-2012 Texas Instruments Incorporated
C:\Users\a0272466\AppData\Local\Temp\0274010                         PAGE  111

    5758              $C$DW$T$69      .dwtag  DW_TAG_union_type
    5759                      .dwattr $C$DW$T$69, DW_AT_name("PCLKCR13_REG")
    5760                      .dwattr $C$DW$T$69, DW_AT_byte_size(0x02)
    5761              $C$DW$583       .dwtag  DW_TAG_member
    5762                      .dwattr $C$DW$583, DW_AT_type(*$C$DW$T$21)
    5763                      .dwattr $C$DW$583, DW_AT_name("all")
    5764                      .dwattr $C$DW$583, DW_AT_TI_symbol_name("_all")
    5765                      .dwattr $C$DW$583, DW_AT_data_member_location[DW_OP_plus_uconst 0x0]
    5766                      .dwattr $C$DW$583, DW_AT_accessibility(DW_ACCESS_public)
    5767              $C$DW$584       .dwtag  DW_TAG_member
    5768                      .dwattr $C$DW$584, DW_AT_type(*$C$DW$T$68)
    5769                      .dwattr $C$DW$584, DW_AT_name("bit")
    5770                      .dwattr $C$DW$584, DW_AT_TI_symbol_name("_bit")
    5771                      .dwattr $C$DW$584, DW_AT_data_member_location[DW_OP_plus_uconst 0x0]
    5772                      .dwattr $C$DW$584, DW_AT_accessibility(DW_ACCESS_public)
    5773                      .dwendtag $C$DW$T$69
    5774              
    5775              
    5776              $C$DW$T$70      .dwtag  DW_TAG_structure_type
    5777                      .dwattr $C$DW$T$70, DW_AT_name("PCLKCR14_BITS")
    5778                      .dwattr $C$DW$T$70, DW_AT_byte_size(0x02)
    5779              $C$DW$585       .dwtag  DW_TAG_member
    5780                      .dwattr $C$DW$585, DW_AT_type(*$C$DW$T$19)
    5781                      .dwattr $C$DW$585, DW_AT_name("CMPSS1")
    5782                      .dwattr $C$DW$585, DW_AT_TI_symbol_name("_CMPSS1")
    5783                      .dwattr $C$DW$585, DW_AT_bit_offset(0x0f), DW_AT_bit_size(0x01)
    5784                      .dwattr $C$DW$585, DW_AT_data_member_location[DW_OP_plus_uconst 0x0]
    5785                      .dwattr $C$DW$585, DW_AT_accessibility(DW_ACCESS_public)
    5786              $C$DW$586       .dwtag  DW_TAG_member
    5787                      .dwattr $C$DW$586, DW_AT_type(*$C$DW$T$19)
    5788                      .dwattr $C$DW$586, DW_AT_name("CMPSS2")
    5789                      .dwattr $C$DW$586, DW_AT_TI_symbol_name("_CMPSS2")
    5790                      .dwattr $C$DW$586, DW_AT_bit_offset(0x0e), DW_AT_bit_size(0x01)
    5791                      .dwattr $C$DW$586, DW_AT_data_member_location[DW_OP_plus_uconst 0x0]
    5792                      .dwattr $C$DW$586, DW_AT_accessibility(DW_ACCESS_public)
    5793              $C$DW$587       .dwtag  DW_TAG_member
    5794                      .dwattr $C$DW$587, DW_AT_type(*$C$DW$T$19)
    5795                      .dwattr $C$DW$587, DW_AT_name("CMPSS3")
    5796                      .dwattr $C$DW$587, DW_AT_TI_symbol_name("_CMPSS3")
    5797                      .dwattr $C$DW$587, DW_AT_bit_offset(0x0d), DW_AT_bit_size(0x01)
    5798                      .dwattr $C$DW$587, DW_AT_data_member_location[DW_OP_plus_uconst 0x0]
    5799                      .dwattr $C$DW$587, DW_AT_accessibility(DW_ACCESS_public)
    5800              $C$DW$588       .dwtag  DW_TAG_member
    5801                      .dwattr $C$DW$588, DW_AT_type(*$C$DW$T$19)
    5802                      .dwattr $C$DW$588, DW_AT_name("CMPSS4")
    5803                      .dwattr $C$DW$588, DW_AT_TI_symbol_name("_CMPSS4")
    5804                      .dwattr $C$DW$588, DW_AT_bit_offset(0x0c), DW_AT_bit_size(0x01)
    5805                      .dwattr $C$DW$588, DW_AT_data_member_location[DW_OP_plus_uconst 0x0]
    5806                      .dwattr $C$DW$588, DW_AT_accessibility(DW_ACCESS_public)
    5807              $C$DW$589       .dwtag  DW_TAG_member
    5808                      .dwattr $C$DW$589, DW_AT_type(*$C$DW$T$19)
    5809                      .dwattr $C$DW$589, DW_AT_name("CMPSS5")
    5810                      .dwattr $C$DW$589, DW_AT_TI_symbol_name("_CMPSS5")
    5811                      .dwattr $C$DW$589, DW_AT_bit_offset(0x0b), DW_AT_bit_size(0x01)
    5812                      .dwattr $C$DW$589, DW_AT_data_member_location[DW_OP_plus_uconst 0x0]
TMS320C2000 Assembler PC v6.1.3 Thu Jan 30 10:26:14 2014

Tools Copyright (c) 1996-2012 Texas Instruments Incorporated
C:\Users\a0272466\AppData\Local\Temp\0274010                         PAGE  112

    5813                      .dwattr $C$DW$589, DW_AT_accessibility(DW_ACCESS_public)
    5814              $C$DW$590       .dwtag  DW_TAG_member
    5815                      .dwattr $C$DW$590, DW_AT_type(*$C$DW$T$19)
    5816                      .dwattr $C$DW$590, DW_AT_name("CMPSS6")
    5817                      .dwattr $C$DW$590, DW_AT_TI_symbol_name("_CMPSS6")
    5818                      .dwattr $C$DW$590, DW_AT_bit_offset(0x0a), DW_AT_bit_size(0x01)
    5819                      .dwattr $C$DW$590, DW_AT_data_member_location[DW_OP_plus_uconst 0x0]
    5820                      .dwattr $C$DW$590, DW_AT_accessibility(DW_ACCESS_public)
    5821              $C$DW$591       .dwtag  DW_TAG_member
    5822                      .dwattr $C$DW$591, DW_AT_type(*$C$DW$T$19)
    5823                      .dwattr $C$DW$591, DW_AT_name("CMPSS7")
    5824                      .dwattr $C$DW$591, DW_AT_TI_symbol_name("_CMPSS7")
    5825                      .dwattr $C$DW$591, DW_AT_bit_offset(0x09), DW_AT_bit_size(0x01)
    5826                      .dwattr $C$DW$591, DW_AT_data_member_location[DW_OP_plus_uconst 0x0]
    5827                      .dwattr $C$DW$591, DW_AT_accessibility(DW_ACCESS_public)
    5828              $C$DW$592       .dwtag  DW_TAG_member
    5829                      .dwattr $C$DW$592, DW_AT_type(*$C$DW$T$19)
    5830                      .dwattr $C$DW$592, DW_AT_name("CMPSS8")
    5831                      .dwattr $C$DW$592, DW_AT_TI_symbol_name("_CMPSS8")
    5832                      .dwattr $C$DW$592, DW_AT_bit_offset(0x08), DW_AT_bit_size(0x01)
    5833                      .dwattr $C$DW$592, DW_AT_data_member_location[DW_OP_plus_uconst 0x0]
    5834                      .dwattr $C$DW$592, DW_AT_accessibility(DW_ACCESS_public)
    5835              $C$DW$593       .dwtag  DW_TAG_member
    5836                      .dwattr $C$DW$593, DW_AT_type(*$C$DW$T$19)
    5837                      .dwattr $C$DW$593, DW_AT_name("rsvd1")
    5838                      .dwattr $C$DW$593, DW_AT_TI_symbol_name("_rsvd1")
    5839                      .dwattr $C$DW$593, DW_AT_bit_offset(0x00), DW_AT_bit_size(0x08)
    5840                      .dwattr $C$DW$593, DW_AT_data_member_location[DW_OP_plus_uconst 0x0]
    5841                      .dwattr $C$DW$593, DW_AT_accessibility(DW_ACCESS_public)
    5842              $C$DW$594       .dwtag  DW_TAG_member
    5843                      .dwattr $C$DW$594, DW_AT_type(*$C$DW$T$19)
    5844                      .dwattr $C$DW$594, DW_AT_name("rsvd2")
    5845                      .dwattr $C$DW$594, DW_AT_TI_symbol_name("_rsvd2")
    5846                      .dwattr $C$DW$594, DW_AT_bit_offset(0x00), DW_AT_bit_size(0x10)
    5847                      .dwattr $C$DW$594, DW_AT_data_member_location[DW_OP_plus_uconst 0x1]
    5848                      .dwattr $C$DW$594, DW_AT_accessibility(DW_ACCESS_public)
    5849                      .dwendtag $C$DW$T$70
    5850              
    5851              
    5852              $C$DW$T$71      .dwtag  DW_TAG_union_type
    5853                      .dwattr $C$DW$T$71, DW_AT_name("PCLKCR14_REG")
    5854                      .dwattr $C$DW$T$71, DW_AT_byte_size(0x02)
    5855              $C$DW$595       .dwtag  DW_TAG_member
    5856                      .dwattr $C$DW$595, DW_AT_type(*$C$DW$T$21)
    5857                      .dwattr $C$DW$595, DW_AT_name("all")
    5858                      .dwattr $C$DW$595, DW_AT_TI_symbol_name("_all")
    5859                      .dwattr $C$DW$595, DW_AT_data_member_location[DW_OP_plus_uconst 0x0]
    5860                      .dwattr $C$DW$595, DW_AT_accessibility(DW_ACCESS_public)
    5861              $C$DW$596       .dwtag  DW_TAG_member
    5862                      .dwattr $C$DW$596, DW_AT_type(*$C$DW$T$70)
    5863                      .dwattr $C$DW$596, DW_AT_name("bit")
    5864                      .dwattr $C$DW$596, DW_AT_TI_symbol_name("_bit")
    5865                      .dwattr $C$DW$596, DW_AT_data_member_location[DW_OP_plus_uconst 0x0]
    5866                      .dwattr $C$DW$596, DW_AT_accessibility(DW_ACCESS_public)
    5867                      .dwendtag $C$DW$T$71
TMS320C2000 Assembler PC v6.1.3 Thu Jan 30 10:26:14 2014

Tools Copyright (c) 1996-2012 Texas Instruments Incorporated
C:\Users\a0272466\AppData\Local\Temp\0274010                         PAGE  113

    5868              
    5869              
    5870              $C$DW$T$72      .dwtag  DW_TAG_structure_type
    5871                      .dwattr $C$DW$T$72, DW_AT_name("PCLKCR16_BITS")
    5872                      .dwattr $C$DW$T$72, DW_AT_byte_size(0x02)
    5873              $C$DW$597       .dwtag  DW_TAG_member
    5874                      .dwattr $C$DW$597, DW_AT_type(*$C$DW$T$19)
    5875                      .dwattr $C$DW$597, DW_AT_name("rsvd1")
    5876                      .dwattr $C$DW$597, DW_AT_TI_symbol_name("_rsvd1")
    5877                      .dwattr $C$DW$597, DW_AT_bit_offset(0x00), DW_AT_bit_size(0x10)
    5878                      .dwattr $C$DW$597, DW_AT_data_member_location[DW_OP_plus_uconst 0x0]
    5879                      .dwattr $C$DW$597, DW_AT_accessibility(DW_ACCESS_public)
    5880              $C$DW$598       .dwtag  DW_TAG_member
    5881                      .dwattr $C$DW$598, DW_AT_type(*$C$DW$T$19)
    5882                      .dwattr $C$DW$598, DW_AT_name("Buffered_DAC12_1")
    5883                      .dwattr $C$DW$598, DW_AT_TI_symbol_name("_Buffered_DAC12_1")
    5884                      .dwattr $C$DW$598, DW_AT_bit_offset(0x0f), DW_AT_bit_size(0x01)
    5885                      .dwattr $C$DW$598, DW_AT_data_member_location[DW_OP_plus_uconst 0x1]
    5886                      .dwattr $C$DW$598, DW_AT_accessibility(DW_ACCESS_public)
    5887              $C$DW$599       .dwtag  DW_TAG_member
    5888                      .dwattr $C$DW$599, DW_AT_type(*$C$DW$T$19)
    5889                      .dwattr $C$DW$599, DW_AT_name("Buffered_DAC12_2")
    5890                      .dwattr $C$DW$599, DW_AT_TI_symbol_name("_Buffered_DAC12_2")
    5891                      .dwattr $C$DW$599, DW_AT_bit_offset(0x0e), DW_AT_bit_size(0x01)
    5892                      .dwattr $C$DW$599, DW_AT_data_member_location[DW_OP_plus_uconst 0x1]
    5893                      .dwattr $C$DW$599, DW_AT_accessibility(DW_ACCESS_public)
    5894              $C$DW$600       .dwtag  DW_TAG_member
    5895                      .dwattr $C$DW$600, DW_AT_type(*$C$DW$T$19)
    5896                      .dwattr $C$DW$600, DW_AT_name("Buffered_DAC12_3")
    5897                      .dwattr $C$DW$600, DW_AT_TI_symbol_name("_Buffered_DAC12_3")
    5898                      .dwattr $C$DW$600, DW_AT_bit_offset(0x0d), DW_AT_bit_size(0x01)
    5899                      .dwattr $C$DW$600, DW_AT_data_member_location[DW_OP_plus_uconst 0x1]
    5900                      .dwattr $C$DW$600, DW_AT_accessibility(DW_ACCESS_public)
    5901              $C$DW$601       .dwtag  DW_TAG_member
    5902                      .dwattr $C$DW$601, DW_AT_type(*$C$DW$T$19)
    5903                      .dwattr $C$DW$601, DW_AT_name("rsvd2")
    5904                      .dwattr $C$DW$601, DW_AT_TI_symbol_name("_rsvd2")
    5905                      .dwattr $C$DW$601, DW_AT_bit_offset(0x00), DW_AT_bit_size(0x0d)
    5906                      .dwattr $C$DW$601, DW_AT_data_member_location[DW_OP_plus_uconst 0x1]
    5907                      .dwattr $C$DW$601, DW_AT_accessibility(DW_ACCESS_public)
    5908                      .dwendtag $C$DW$T$72
    5909              
    5910              
    5911              $C$DW$T$73      .dwtag  DW_TAG_union_type
    5912                      .dwattr $C$DW$T$73, DW_AT_name("PCLKCR16_REG")
    5913                      .dwattr $C$DW$T$73, DW_AT_byte_size(0x02)
    5914              $C$DW$602       .dwtag  DW_TAG_member
    5915                      .dwattr $C$DW$602, DW_AT_type(*$C$DW$T$21)
    5916                      .dwattr $C$DW$602, DW_AT_name("all")
    5917                      .dwattr $C$DW$602, DW_AT_TI_symbol_name("_all")
    5918                      .dwattr $C$DW$602, DW_AT_data_member_location[DW_OP_plus_uconst 0x0]
    5919                      .dwattr $C$DW$602, DW_AT_accessibility(DW_ACCESS_public)
    5920              $C$DW$603       .dwtag  DW_TAG_member
    5921                      .dwattr $C$DW$603, DW_AT_type(*$C$DW$T$72)
    5922                      .dwattr $C$DW$603, DW_AT_name("bit")
TMS320C2000 Assembler PC v6.1.3 Thu Jan 30 10:26:14 2014

Tools Copyright (c) 1996-2012 Texas Instruments Incorporated
C:\Users\a0272466\AppData\Local\Temp\0274010                         PAGE  114

    5923                      .dwattr $C$DW$603, DW_AT_TI_symbol_name("_bit")
    5924                      .dwattr $C$DW$603, DW_AT_data_member_location[DW_OP_plus_uconst 0x0]
    5925                      .dwattr $C$DW$603, DW_AT_accessibility(DW_ACCESS_public)
    5926                      .dwendtag $C$DW$T$73
    5927              
    5928              
    5929              $C$DW$T$74      .dwtag  DW_TAG_structure_type
    5930                      .dwattr $C$DW$T$74, DW_AT_name("PCLKCR1_BITS")
    5931                      .dwattr $C$DW$T$74, DW_AT_byte_size(0x02)
    5932              $C$DW$604       .dwtag  DW_TAG_member
    5933                      .dwattr $C$DW$604, DW_AT_type(*$C$DW$T$19)
    5934                      .dwattr $C$DW$604, DW_AT_name("EMIF1")
    5935                      .dwattr $C$DW$604, DW_AT_TI_symbol_name("_EMIF1")
    5936                      .dwattr $C$DW$604, DW_AT_bit_offset(0x0f), DW_AT_bit_size(0x01)
    5937                      .dwattr $C$DW$604, DW_AT_data_member_location[DW_OP_plus_uconst 0x0]
    5938                      .dwattr $C$DW$604, DW_AT_accessibility(DW_ACCESS_public)
    5939              $C$DW$605       .dwtag  DW_TAG_member
    5940                      .dwattr $C$DW$605, DW_AT_type(*$C$DW$T$19)
    5941                      .dwattr $C$DW$605, DW_AT_name("EMIF2")
    5942                      .dwattr $C$DW$605, DW_AT_TI_symbol_name("_EMIF2")
    5943                      .dwattr $C$DW$605, DW_AT_bit_offset(0x0e), DW_AT_bit_size(0x01)
    5944                      .dwattr $C$DW$605, DW_AT_data_member_location[DW_OP_plus_uconst 0x0]
    5945                      .dwattr $C$DW$605, DW_AT_accessibility(DW_ACCESS_public)
    5946              $C$DW$606       .dwtag  DW_TAG_member
    5947                      .dwattr $C$DW$606, DW_AT_type(*$C$DW$T$19)
    5948                      .dwattr $C$DW$606, DW_AT_name("rsvd1")
    5949                      .dwattr $C$DW$606, DW_AT_TI_symbol_name("_rsvd1")
    5950                      .dwattr $C$DW$606, DW_AT_bit_offset(0x00), DW_AT_bit_size(0x0e)
    5951                      .dwattr $C$DW$606, DW_AT_data_member_location[DW_OP_plus_uconst 0x0]
    5952                      .dwattr $C$DW$606, DW_AT_accessibility(DW_ACCESS_public)
    5953              $C$DW$607       .dwtag  DW_TAG_member
    5954                      .dwattr $C$DW$607, DW_AT_type(*$C$DW$T$19)
    5955                      .dwattr $C$DW$607, DW_AT_name("rsvd2")
    5956                      .dwattr $C$DW$607, DW_AT_TI_symbol_name("_rsvd2")
    5957                      .dwattr $C$DW$607, DW_AT_bit_offset(0x00), DW_AT_bit_size(0x10)
    5958                      .dwattr $C$DW$607, DW_AT_data_member_location[DW_OP_plus_uconst 0x1]
    5959                      .dwattr $C$DW$607, DW_AT_accessibility(DW_ACCESS_public)
    5960                      .dwendtag $C$DW$T$74
    5961              
    5962              
    5963              $C$DW$T$75      .dwtag  DW_TAG_union_type
    5964                      .dwattr $C$DW$T$75, DW_AT_name("PCLKCR1_REG")
    5965                      .dwattr $C$DW$T$75, DW_AT_byte_size(0x02)
    5966              $C$DW$608       .dwtag  DW_TAG_member
    5967                      .dwattr $C$DW$608, DW_AT_type(*$C$DW$T$21)
    5968                      .dwattr $C$DW$608, DW_AT_name("all")
    5969                      .dwattr $C$DW$608, DW_AT_TI_symbol_name("_all")
    5970                      .dwattr $C$DW$608, DW_AT_data_member_location[DW_OP_plus_uconst 0x0]
    5971                      .dwattr $C$DW$608, DW_AT_accessibility(DW_ACCESS_public)
    5972              $C$DW$609       .dwtag  DW_TAG_member
    5973                      .dwattr $C$DW$609, DW_AT_type(*$C$DW$T$74)
    5974                      .dwattr $C$DW$609, DW_AT_name("bit")
    5975                      .dwattr $C$DW$609, DW_AT_TI_symbol_name("_bit")
    5976                      .dwattr $C$DW$609, DW_AT_data_member_location[DW_OP_plus_uconst 0x0]
    5977                      .dwattr $C$DW$609, DW_AT_accessibility(DW_ACCESS_public)
TMS320C2000 Assembler PC v6.1.3 Thu Jan 30 10:26:14 2014

Tools Copyright (c) 1996-2012 Texas Instruments Incorporated
C:\Users\a0272466\AppData\Local\Temp\0274010                         PAGE  115

    5978                      .dwendtag $C$DW$T$75
    5979              
    5980              
    5981              $C$DW$T$76      .dwtag  DW_TAG_structure_type
    5982                      .dwattr $C$DW$T$76, DW_AT_name("PCLKCR2_BITS")
    5983                      .dwattr $C$DW$T$76, DW_AT_byte_size(0x02)
    5984              $C$DW$610       .dwtag  DW_TAG_member
    5985                      .dwattr $C$DW$610, DW_AT_type(*$C$DW$T$19)
    5986                      .dwattr $C$DW$610, DW_AT_name("EPWM1")
    5987                      .dwattr $C$DW$610, DW_AT_TI_symbol_name("_EPWM1")
    5988                      .dwattr $C$DW$610, DW_AT_bit_offset(0x0f), DW_AT_bit_size(0x01)
    5989                      .dwattr $C$DW$610, DW_AT_data_member_location[DW_OP_plus_uconst 0x0]
    5990                      .dwattr $C$DW$610, DW_AT_accessibility(DW_ACCESS_public)
    5991              $C$DW$611       .dwtag  DW_TAG_member
    5992                      .dwattr $C$DW$611, DW_AT_type(*$C$DW$T$19)
    5993                      .dwattr $C$DW$611, DW_AT_name("EPWM2")
    5994                      .dwattr $C$DW$611, DW_AT_TI_symbol_name("_EPWM2")
    5995                      .dwattr $C$DW$611, DW_AT_bit_offset(0x0e), DW_AT_bit_size(0x01)
    5996                      .dwattr $C$DW$611, DW_AT_data_member_location[DW_OP_plus_uconst 0x0]
    5997                      .dwattr $C$DW$611, DW_AT_accessibility(DW_ACCESS_public)
    5998              $C$DW$612       .dwtag  DW_TAG_member
    5999                      .dwattr $C$DW$612, DW_AT_type(*$C$DW$T$19)
    6000                      .dwattr $C$DW$612, DW_AT_name("EPWM3")
    6001                      .dwattr $C$DW$612, DW_AT_TI_symbol_name("_EPWM3")
    6002                      .dwattr $C$DW$612, DW_AT_bit_offset(0x0d), DW_AT_bit_size(0x01)
    6003                      .dwattr $C$DW$612, DW_AT_data_member_location[DW_OP_plus_uconst 0x0]
    6004                      .dwattr $C$DW$612, DW_AT_accessibility(DW_ACCESS_public)
    6005              $C$DW$613       .dwtag  DW_TAG_member
    6006                      .dwattr $C$DW$613, DW_AT_type(*$C$DW$T$19)
    6007                      .dwattr $C$DW$613, DW_AT_name("EPWM4")
    6008                      .dwattr $C$DW$613, DW_AT_TI_symbol_name("_EPWM4")
    6009                      .dwattr $C$DW$613, DW_AT_bit_offset(0x0c), DW_AT_bit_size(0x01)
    6010                      .dwattr $C$DW$613, DW_AT_data_member_location[DW_OP_plus_uconst 0x0]
    6011                      .dwattr $C$DW$613, DW_AT_accessibility(DW_ACCESS_public)
    6012              $C$DW$614       .dwtag  DW_TAG_member
    6013                      .dwattr $C$DW$614, DW_AT_type(*$C$DW$T$19)
    6014                      .dwattr $C$DW$614, DW_AT_name("EPWM5")
    6015                      .dwattr $C$DW$614, DW_AT_TI_symbol_name("_EPWM5")
    6016                      .dwattr $C$DW$614, DW_AT_bit_offset(0x0b), DW_AT_bit_size(0x01)
    6017                      .dwattr $C$DW$614, DW_AT_data_member_location[DW_OP_plus_uconst 0x0]
    6018                      .dwattr $C$DW$614, DW_AT_accessibility(DW_ACCESS_public)
    6019              $C$DW$615       .dwtag  DW_TAG_member
    6020                      .dwattr $C$DW$615, DW_AT_type(*$C$DW$T$19)
    6021                      .dwattr $C$DW$615, DW_AT_name("EPWM6")
    6022                      .dwattr $C$DW$615, DW_AT_TI_symbol_name("_EPWM6")
    6023                      .dwattr $C$DW$615, DW_AT_bit_offset(0x0a), DW_AT_bit_size(0x01)
    6024                      .dwattr $C$DW$615, DW_AT_data_member_location[DW_OP_plus_uconst 0x0]
    6025                      .dwattr $C$DW$615, DW_AT_accessibility(DW_ACCESS_public)
    6026              $C$DW$616       .dwtag  DW_TAG_member
    6027                      .dwattr $C$DW$616, DW_AT_type(*$C$DW$T$19)
    6028                      .dwattr $C$DW$616, DW_AT_name("EPWM7")
    6029                      .dwattr $C$DW$616, DW_AT_TI_symbol_name("_EPWM7")
    6030                      .dwattr $C$DW$616, DW_AT_bit_offset(0x09), DW_AT_bit_size(0x01)
    6031                      .dwattr $C$DW$616, DW_AT_data_member_location[DW_OP_plus_uconst 0x0]
    6032                      .dwattr $C$DW$616, DW_AT_accessibility(DW_ACCESS_public)
TMS320C2000 Assembler PC v6.1.3 Thu Jan 30 10:26:14 2014

Tools Copyright (c) 1996-2012 Texas Instruments Incorporated
C:\Users\a0272466\AppData\Local\Temp\0274010                         PAGE  116

    6033              $C$DW$617       .dwtag  DW_TAG_member
    6034                      .dwattr $C$DW$617, DW_AT_type(*$C$DW$T$19)
    6035                      .dwattr $C$DW$617, DW_AT_name("EPWM8")
    6036                      .dwattr $C$DW$617, DW_AT_TI_symbol_name("_EPWM8")
    6037                      .dwattr $C$DW$617, DW_AT_bit_offset(0x08), DW_AT_bit_size(0x01)
    6038                      .dwattr $C$DW$617, DW_AT_data_member_location[DW_OP_plus_uconst 0x0]
    6039                      .dwattr $C$DW$617, DW_AT_accessibility(DW_ACCESS_public)
    6040              $C$DW$618       .dwtag  DW_TAG_member
    6041                      .dwattr $C$DW$618, DW_AT_type(*$C$DW$T$19)
    6042                      .dwattr $C$DW$618, DW_AT_name("EPWM9")
    6043                      .dwattr $C$DW$618, DW_AT_TI_symbol_name("_EPWM9")
    6044                      .dwattr $C$DW$618, DW_AT_bit_offset(0x07), DW_AT_bit_size(0x01)
    6045                      .dwattr $C$DW$618, DW_AT_data_member_location[DW_OP_plus_uconst 0x0]
    6046                      .dwattr $C$DW$618, DW_AT_accessibility(DW_ACCESS_public)
    6047              $C$DW$619       .dwtag  DW_TAG_member
    6048                      .dwattr $C$DW$619, DW_AT_type(*$C$DW$T$19)
    6049                      .dwattr $C$DW$619, DW_AT_name("EPWM10")
    6050                      .dwattr $C$DW$619, DW_AT_TI_symbol_name("_EPWM10")
    6051                      .dwattr $C$DW$619, DW_AT_bit_offset(0x06), DW_AT_bit_size(0x01)
    6052                      .dwattr $C$DW$619, DW_AT_data_member_location[DW_OP_plus_uconst 0x0]
    6053                      .dwattr $C$DW$619, DW_AT_accessibility(DW_ACCESS_public)
    6054              $C$DW$620       .dwtag  DW_TAG_member
    6055                      .dwattr $C$DW$620, DW_AT_type(*$C$DW$T$19)
    6056                      .dwattr $C$DW$620, DW_AT_name("EPWM11")
    6057                      .dwattr $C$DW$620, DW_AT_TI_symbol_name("_EPWM11")
    6058                      .dwattr $C$DW$620, DW_AT_bit_offset(0x05), DW_AT_bit_size(0x01)
    6059                      .dwattr $C$DW$620, DW_AT_data_member_location[DW_OP_plus_uconst 0x0]
    6060                      .dwattr $C$DW$620, DW_AT_accessibility(DW_ACCESS_public)
    6061              $C$DW$621       .dwtag  DW_TAG_member
    6062                      .dwattr $C$DW$621, DW_AT_type(*$C$DW$T$19)
    6063                      .dwattr $C$DW$621, DW_AT_name("EPWM12")
    6064                      .dwattr $C$DW$621, DW_AT_TI_symbol_name("_EPWM12")
    6065                      .dwattr $C$DW$621, DW_AT_bit_offset(0x04), DW_AT_bit_size(0x01)
    6066                      .dwattr $C$DW$621, DW_AT_data_member_location[DW_OP_plus_uconst 0x0]
    6067                      .dwattr $C$DW$621, DW_AT_accessibility(DW_ACCESS_public)
    6068              $C$DW$622       .dwtag  DW_TAG_member
    6069                      .dwattr $C$DW$622, DW_AT_type(*$C$DW$T$19)
    6070                      .dwattr $C$DW$622, DW_AT_name("rsvd1")
    6071                      .dwattr $C$DW$622, DW_AT_TI_symbol_name("_rsvd1")
    6072                      .dwattr $C$DW$622, DW_AT_bit_offset(0x00), DW_AT_bit_size(0x04)
    6073                      .dwattr $C$DW$622, DW_AT_data_member_location[DW_OP_plus_uconst 0x0]
    6074                      .dwattr $C$DW$622, DW_AT_accessibility(DW_ACCESS_public)
    6075              $C$DW$623       .dwtag  DW_TAG_member
    6076                      .dwattr $C$DW$623, DW_AT_type(*$C$DW$T$19)
    6077                      .dwattr $C$DW$623, DW_AT_name("rsvd2")
    6078                      .dwattr $C$DW$623, DW_AT_TI_symbol_name("_rsvd2")
    6079                      .dwattr $C$DW$623, DW_AT_bit_offset(0x00), DW_AT_bit_size(0x10)
    6080                      .dwattr $C$DW$623, DW_AT_data_member_location[DW_OP_plus_uconst 0x1]
    6081                      .dwattr $C$DW$623, DW_AT_accessibility(DW_ACCESS_public)
    6082                      .dwendtag $C$DW$T$76
    6083              
    6084              
    6085              $C$DW$T$77      .dwtag  DW_TAG_union_type
    6086                      .dwattr $C$DW$T$77, DW_AT_name("PCLKCR2_REG")
    6087                      .dwattr $C$DW$T$77, DW_AT_byte_size(0x02)
TMS320C2000 Assembler PC v6.1.3 Thu Jan 30 10:26:14 2014

Tools Copyright (c) 1996-2012 Texas Instruments Incorporated
C:\Users\a0272466\AppData\Local\Temp\0274010                         PAGE  117

    6088              $C$DW$624       .dwtag  DW_TAG_member
    6089                      .dwattr $C$DW$624, DW_AT_type(*$C$DW$T$21)
    6090                      .dwattr $C$DW$624, DW_AT_name("all")
    6091                      .dwattr $C$DW$624, DW_AT_TI_symbol_name("_all")
    6092                      .dwattr $C$DW$624, DW_AT_data_member_location[DW_OP_plus_uconst 0x0]
    6093                      .dwattr $C$DW$624, DW_AT_accessibility(DW_ACCESS_public)
    6094              $C$DW$625       .dwtag  DW_TAG_member
    6095                      .dwattr $C$DW$625, DW_AT_type(*$C$DW$T$76)
    6096                      .dwattr $C$DW$625, DW_AT_name("bit")
    6097                      .dwattr $C$DW$625, DW_AT_TI_symbol_name("_bit")
    6098                      .dwattr $C$DW$625, DW_AT_data_member_location[DW_OP_plus_uconst 0x0]
    6099                      .dwattr $C$DW$625, DW_AT_accessibility(DW_ACCESS_public)
    6100                      .dwendtag $C$DW$T$77
    6101              
    6102              
    6103              $C$DW$T$78      .dwtag  DW_TAG_structure_type
    6104                      .dwattr $C$DW$T$78, DW_AT_name("PCLKCR3_BITS")
    6105                      .dwattr $C$DW$T$78, DW_AT_byte_size(0x02)
    6106              $C$DW$626       .dwtag  DW_TAG_member
    6107                      .dwattr $C$DW$626, DW_AT_type(*$C$DW$T$19)
    6108                      .dwattr $C$DW$626, DW_AT_name("ECAP1")
    6109                      .dwattr $C$DW$626, DW_AT_TI_symbol_name("_ECAP1")
    6110                      .dwattr $C$DW$626, DW_AT_bit_offset(0x0f), DW_AT_bit_size(0x01)
    6111                      .dwattr $C$DW$626, DW_AT_data_member_location[DW_OP_plus_uconst 0x0]
    6112                      .dwattr $C$DW$626, DW_AT_accessibility(DW_ACCESS_public)
    6113              $C$DW$627       .dwtag  DW_TAG_member
    6114                      .dwattr $C$DW$627, DW_AT_type(*$C$DW$T$19)
    6115                      .dwattr $C$DW$627, DW_AT_name("ECAP2")
    6116                      .dwattr $C$DW$627, DW_AT_TI_symbol_name("_ECAP2")
    6117                      .dwattr $C$DW$627, DW_AT_bit_offset(0x0e), DW_AT_bit_size(0x01)
    6118                      .dwattr $C$DW$627, DW_AT_data_member_location[DW_OP_plus_uconst 0x0]
    6119                      .dwattr $C$DW$627, DW_AT_accessibility(DW_ACCESS_public)
    6120              $C$DW$628       .dwtag  DW_TAG_member
    6121                      .dwattr $C$DW$628, DW_AT_type(*$C$DW$T$19)
    6122                      .dwattr $C$DW$628, DW_AT_name("ECAP3")
    6123                      .dwattr $C$DW$628, DW_AT_TI_symbol_name("_ECAP3")
    6124                      .dwattr $C$DW$628, DW_AT_bit_offset(0x0d), DW_AT_bit_size(0x01)
    6125                      .dwattr $C$DW$628, DW_AT_data_member_location[DW_OP_plus_uconst 0x0]
    6126                      .dwattr $C$DW$628, DW_AT_accessibility(DW_ACCESS_public)
    6127              $C$DW$629       .dwtag  DW_TAG_member
    6128                      .dwattr $C$DW$629, DW_AT_type(*$C$DW$T$19)
    6129                      .dwattr $C$DW$629, DW_AT_name("ECAP4")
    6130                      .dwattr $C$DW$629, DW_AT_TI_symbol_name("_ECAP4")
    6131                      .dwattr $C$DW$629, DW_AT_bit_offset(0x0c), DW_AT_bit_size(0x01)
    6132                      .dwattr $C$DW$629, DW_AT_data_member_location[DW_OP_plus_uconst 0x0]
    6133                      .dwattr $C$DW$629, DW_AT_accessibility(DW_ACCESS_public)
    6134              $C$DW$630       .dwtag  DW_TAG_member
    6135                      .dwattr $C$DW$630, DW_AT_type(*$C$DW$T$19)
    6136                      .dwattr $C$DW$630, DW_AT_name("ECAP5")
    6137                      .dwattr $C$DW$630, DW_AT_TI_symbol_name("_ECAP5")
    6138                      .dwattr $C$DW$630, DW_AT_bit_offset(0x0b), DW_AT_bit_size(0x01)
    6139                      .dwattr $C$DW$630, DW_AT_data_member_location[DW_OP_plus_uconst 0x0]
    6140                      .dwattr $C$DW$630, DW_AT_accessibility(DW_ACCESS_public)
    6141              $C$DW$631       .dwtag  DW_TAG_member
    6142                      .dwattr $C$DW$631, DW_AT_type(*$C$DW$T$19)
TMS320C2000 Assembler PC v6.1.3 Thu Jan 30 10:26:14 2014

Tools Copyright (c) 1996-2012 Texas Instruments Incorporated
C:\Users\a0272466\AppData\Local\Temp\0274010                         PAGE  118

    6143                      .dwattr $C$DW$631, DW_AT_name("ECAP6")
    6144                      .dwattr $C$DW$631, DW_AT_TI_symbol_name("_ECAP6")
    6145                      .dwattr $C$DW$631, DW_AT_bit_offset(0x0a), DW_AT_bit_size(0x01)
    6146                      .dwattr $C$DW$631, DW_AT_data_member_location[DW_OP_plus_uconst 0x0]
    6147                      .dwattr $C$DW$631, DW_AT_accessibility(DW_ACCESS_public)
    6148              $C$DW$632       .dwtag  DW_TAG_member
    6149                      .dwattr $C$DW$632, DW_AT_type(*$C$DW$T$19)
    6150                      .dwattr $C$DW$632, DW_AT_name("rsvd1")
    6151                      .dwattr $C$DW$632, DW_AT_TI_symbol_name("_rsvd1")
    6152                      .dwattr $C$DW$632, DW_AT_bit_offset(0x00), DW_AT_bit_size(0x0a)
    6153                      .dwattr $C$DW$632, DW_AT_data_member_location[DW_OP_plus_uconst 0x0]
    6154                      .dwattr $C$DW$632, DW_AT_accessibility(DW_ACCESS_public)
    6155              $C$DW$633       .dwtag  DW_TAG_member
    6156                      .dwattr $C$DW$633, DW_AT_type(*$C$DW$T$19)
    6157                      .dwattr $C$DW$633, DW_AT_name("rsvd2")
    6158                      .dwattr $C$DW$633, DW_AT_TI_symbol_name("_rsvd2")
    6159                      .dwattr $C$DW$633, DW_AT_bit_offset(0x00), DW_AT_bit_size(0x10)
    6160                      .dwattr $C$DW$633, DW_AT_data_member_location[DW_OP_plus_uconst 0x1]
    6161                      .dwattr $C$DW$633, DW_AT_accessibility(DW_ACCESS_public)
    6162                      .dwendtag $C$DW$T$78
    6163              
    6164              
    6165              $C$DW$T$79      .dwtag  DW_TAG_union_type
    6166                      .dwattr $C$DW$T$79, DW_AT_name("PCLKCR3_REG")
    6167                      .dwattr $C$DW$T$79, DW_AT_byte_size(0x02)
    6168              $C$DW$634       .dwtag  DW_TAG_member
    6169                      .dwattr $C$DW$634, DW_AT_type(*$C$DW$T$21)
    6170                      .dwattr $C$DW$634, DW_AT_name("all")
    6171                      .dwattr $C$DW$634, DW_AT_TI_symbol_name("_all")
    6172                      .dwattr $C$DW$634, DW_AT_data_member_location[DW_OP_plus_uconst 0x0]
    6173                      .dwattr $C$DW$634, DW_AT_accessibility(DW_ACCESS_public)
    6174              $C$DW$635       .dwtag  DW_TAG_member
    6175                      .dwattr $C$DW$635, DW_AT_type(*$C$DW$T$78)
    6176                      .dwattr $C$DW$635, DW_AT_name("bit")
    6177                      .dwattr $C$DW$635, DW_AT_TI_symbol_name("_bit")
    6178                      .dwattr $C$DW$635, DW_AT_data_member_location[DW_OP_plus_uconst 0x0]
    6179                      .dwattr $C$DW$635, DW_AT_accessibility(DW_ACCESS_public)
    6180                      .dwendtag $C$DW$T$79
    6181              
    6182              
    6183              $C$DW$T$80      .dwtag  DW_TAG_structure_type
    6184                      .dwattr $C$DW$T$80, DW_AT_name("PCLKCR4_BITS")
    6185                      .dwattr $C$DW$T$80, DW_AT_byte_size(0x02)
    6186              $C$DW$636       .dwtag  DW_TAG_member
    6187                      .dwattr $C$DW$636, DW_AT_type(*$C$DW$T$19)
    6188                      .dwattr $C$DW$636, DW_AT_name("EQEP1")
    6189                      .dwattr $C$DW$636, DW_AT_TI_symbol_name("_EQEP1")
    6190                      .dwattr $C$DW$636, DW_AT_bit_offset(0x0f), DW_AT_bit_size(0x01)
    6191                      .dwattr $C$DW$636, DW_AT_data_member_location[DW_OP_plus_uconst 0x0]
    6192                      .dwattr $C$DW$636, DW_AT_accessibility(DW_ACCESS_public)
    6193              $C$DW$637       .dwtag  DW_TAG_member
    6194                      .dwattr $C$DW$637, DW_AT_type(*$C$DW$T$19)
    6195                      .dwattr $C$DW$637, DW_AT_name("EQEP2")
    6196                      .dwattr $C$DW$637, DW_AT_TI_symbol_name("_EQEP2")
    6197                      .dwattr $C$DW$637, DW_AT_bit_offset(0x0e), DW_AT_bit_size(0x01)
TMS320C2000 Assembler PC v6.1.3 Thu Jan 30 10:26:14 2014

Tools Copyright (c) 1996-2012 Texas Instruments Incorporated
C:\Users\a0272466\AppData\Local\Temp\0274010                         PAGE  119

    6198                      .dwattr $C$DW$637, DW_AT_data_member_location[DW_OP_plus_uconst 0x0]
    6199                      .dwattr $C$DW$637, DW_AT_accessibility(DW_ACCESS_public)
    6200              $C$DW$638       .dwtag  DW_TAG_member
    6201                      .dwattr $C$DW$638, DW_AT_type(*$C$DW$T$19)
    6202                      .dwattr $C$DW$638, DW_AT_name("EQEP3")
    6203                      .dwattr $C$DW$638, DW_AT_TI_symbol_name("_EQEP3")
    6204                      .dwattr $C$DW$638, DW_AT_bit_offset(0x0d), DW_AT_bit_size(0x01)
    6205                      .dwattr $C$DW$638, DW_AT_data_member_location[DW_OP_plus_uconst 0x0]
    6206                      .dwattr $C$DW$638, DW_AT_accessibility(DW_ACCESS_public)
    6207              $C$DW$639       .dwtag  DW_TAG_member
    6208                      .dwattr $C$DW$639, DW_AT_type(*$C$DW$T$19)
    6209                      .dwattr $C$DW$639, DW_AT_name("rsvd1")
    6210                      .dwattr $C$DW$639, DW_AT_TI_symbol_name("_rsvd1")
    6211                      .dwattr $C$DW$639, DW_AT_bit_offset(0x00), DW_AT_bit_size(0x0d)
    6212                      .dwattr $C$DW$639, DW_AT_data_member_location[DW_OP_plus_uconst 0x0]
    6213                      .dwattr $C$DW$639, DW_AT_accessibility(DW_ACCESS_public)
    6214              $C$DW$640       .dwtag  DW_TAG_member
    6215                      .dwattr $C$DW$640, DW_AT_type(*$C$DW$T$19)
    6216                      .dwattr $C$DW$640, DW_AT_name("rsvd2")
    6217                      .dwattr $C$DW$640, DW_AT_TI_symbol_name("_rsvd2")
    6218                      .dwattr $C$DW$640, DW_AT_bit_offset(0x00), DW_AT_bit_size(0x10)
    6219                      .dwattr $C$DW$640, DW_AT_data_member_location[DW_OP_plus_uconst 0x1]
    6220                      .dwattr $C$DW$640, DW_AT_accessibility(DW_ACCESS_public)
    6221                      .dwendtag $C$DW$T$80
    6222              
    6223              
    6224              $C$DW$T$81      .dwtag  DW_TAG_union_type
    6225                      .dwattr $C$DW$T$81, DW_AT_name("PCLKCR4_REG")
    6226                      .dwattr $C$DW$T$81, DW_AT_byte_size(0x02)
    6227              $C$DW$641       .dwtag  DW_TAG_member
    6228                      .dwattr $C$DW$641, DW_AT_type(*$C$DW$T$21)
    6229                      .dwattr $C$DW$641, DW_AT_name("all")
    6230                      .dwattr $C$DW$641, DW_AT_TI_symbol_name("_all")
    6231                      .dwattr $C$DW$641, DW_AT_data_member_location[DW_OP_plus_uconst 0x0]
    6232                      .dwattr $C$DW$641, DW_AT_accessibility(DW_ACCESS_public)
    6233              $C$DW$642       .dwtag  DW_TAG_member
    6234                      .dwattr $C$DW$642, DW_AT_type(*$C$DW$T$80)
    6235                      .dwattr $C$DW$642, DW_AT_name("bit")
    6236                      .dwattr $C$DW$642, DW_AT_TI_symbol_name("_bit")
    6237                      .dwattr $C$DW$642, DW_AT_data_member_location[DW_OP_plus_uconst 0x0]
    6238                      .dwattr $C$DW$642, DW_AT_accessibility(DW_ACCESS_public)
    6239                      .dwendtag $C$DW$T$81
    6240              
    6241              
    6242              $C$DW$T$82      .dwtag  DW_TAG_structure_type
    6243                      .dwattr $C$DW$T$82, DW_AT_name("PCLKCR5_BITS")
    6244                      .dwattr $C$DW$T$82, DW_AT_byte_size(0x02)
    6245              $C$DW$643       .dwtag  DW_TAG_member
    6246                      .dwattr $C$DW$643, DW_AT_type(*$C$DW$T$19)
    6247                      .dwattr $C$DW$643, DW_AT_name("rsvd1")
    6248                      .dwattr $C$DW$643, DW_AT_TI_symbol_name("_rsvd1")
    6249                      .dwattr $C$DW$643, DW_AT_bit_offset(0x00), DW_AT_bit_size(0x10)
    6250                      .dwattr $C$DW$643, DW_AT_data_member_location[DW_OP_plus_uconst 0x0]
    6251                      .dwattr $C$DW$643, DW_AT_accessibility(DW_ACCESS_public)
    6252              $C$DW$644       .dwtag  DW_TAG_member
TMS320C2000 Assembler PC v6.1.3 Thu Jan 30 10:26:14 2014

Tools Copyright (c) 1996-2012 Texas Instruments Incorporated
C:\Users\a0272466\AppData\Local\Temp\0274010                         PAGE  120

    6253                      .dwattr $C$DW$644, DW_AT_type(*$C$DW$T$19)
    6254                      .dwattr $C$DW$644, DW_AT_name("rsvd2")
    6255                      .dwattr $C$DW$644, DW_AT_TI_symbol_name("_rsvd2")
    6256                      .dwattr $C$DW$644, DW_AT_bit_offset(0x00), DW_AT_bit_size(0x10)
    6257                      .dwattr $C$DW$644, DW_AT_data_member_location[DW_OP_plus_uconst 0x1]
    6258                      .dwattr $C$DW$644, DW_AT_accessibility(DW_ACCESS_public)
    6259                      .dwendtag $C$DW$T$82
    6260              
    6261              
    6262              $C$DW$T$83      .dwtag  DW_TAG_union_type
    6263                      .dwattr $C$DW$T$83, DW_AT_name("PCLKCR5_REG")
    6264                      .dwattr $C$DW$T$83, DW_AT_byte_size(0x02)
    6265              $C$DW$645       .dwtag  DW_TAG_member
    6266                      .dwattr $C$DW$645, DW_AT_type(*$C$DW$T$21)
    6267                      .dwattr $C$DW$645, DW_AT_name("all")
    6268                      .dwattr $C$DW$645, DW_AT_TI_symbol_name("_all")
    6269                      .dwattr $C$DW$645, DW_AT_data_member_location[DW_OP_plus_uconst 0x0]
    6270                      .dwattr $C$DW$645, DW_AT_accessibility(DW_ACCESS_public)
    6271              $C$DW$646       .dwtag  DW_TAG_member
    6272                      .dwattr $C$DW$646, DW_AT_type(*$C$DW$T$82)
    6273                      .dwattr $C$DW$646, DW_AT_name("bit")
    6274                      .dwattr $C$DW$646, DW_AT_TI_symbol_name("_bit")
    6275                      .dwattr $C$DW$646, DW_AT_data_member_location[DW_OP_plus_uconst 0x0]
    6276                      .dwattr $C$DW$646, DW_AT_accessibility(DW_ACCESS_public)
    6277                      .dwendtag $C$DW$T$83
    6278              
    6279              
    6280              $C$DW$T$84      .dwtag  DW_TAG_structure_type
    6281                      .dwattr $C$DW$T$84, DW_AT_name("PCLKCR6_BITS")
    6282                      .dwattr $C$DW$T$84, DW_AT_byte_size(0x02)
    6283              $C$DW$647       .dwtag  DW_TAG_member
    6284                      .dwattr $C$DW$647, DW_AT_type(*$C$DW$T$19)
    6285                      .dwattr $C$DW$647, DW_AT_name("SD1")
    6286                      .dwattr $C$DW$647, DW_AT_TI_symbol_name("_SD1")
    6287                      .dwattr $C$DW$647, DW_AT_bit_offset(0x0f), DW_AT_bit_size(0x01)
    6288                      .dwattr $C$DW$647, DW_AT_data_member_location[DW_OP_plus_uconst 0x0]
    6289                      .dwattr $C$DW$647, DW_AT_accessibility(DW_ACCESS_public)
    6290              $C$DW$648       .dwtag  DW_TAG_member
    6291                      .dwattr $C$DW$648, DW_AT_type(*$C$DW$T$19)
    6292                      .dwattr $C$DW$648, DW_AT_name("SD2")
    6293                      .dwattr $C$DW$648, DW_AT_TI_symbol_name("_SD2")
    6294                      .dwattr $C$DW$648, DW_AT_bit_offset(0x0e), DW_AT_bit_size(0x01)
    6295                      .dwattr $C$DW$648, DW_AT_data_member_location[DW_OP_plus_uconst 0x0]
    6296                      .dwattr $C$DW$648, DW_AT_accessibility(DW_ACCESS_public)
    6297              $C$DW$649       .dwtag  DW_TAG_member
    6298                      .dwattr $C$DW$649, DW_AT_type(*$C$DW$T$19)
    6299                      .dwattr $C$DW$649, DW_AT_name("rsvd1")
    6300                      .dwattr $C$DW$649, DW_AT_TI_symbol_name("_rsvd1")
    6301                      .dwattr $C$DW$649, DW_AT_bit_offset(0x00), DW_AT_bit_size(0x0e)
    6302                      .dwattr $C$DW$649, DW_AT_data_member_location[DW_OP_plus_uconst 0x0]
    6303                      .dwattr $C$DW$649, DW_AT_accessibility(DW_ACCESS_public)
    6304              $C$DW$650       .dwtag  DW_TAG_member
    6305                      .dwattr $C$DW$650, DW_AT_type(*$C$DW$T$19)
    6306                      .dwattr $C$DW$650, DW_AT_name("rsvd2")
    6307                      .dwattr $C$DW$650, DW_AT_TI_symbol_name("_rsvd2")
TMS320C2000 Assembler PC v6.1.3 Thu Jan 30 10:26:14 2014

Tools Copyright (c) 1996-2012 Texas Instruments Incorporated
C:\Users\a0272466\AppData\Local\Temp\0274010                         PAGE  121

    6308                      .dwattr $C$DW$650, DW_AT_bit_offset(0x00), DW_AT_bit_size(0x10)
    6309                      .dwattr $C$DW$650, DW_AT_data_member_location[DW_OP_plus_uconst 0x1]
    6310                      .dwattr $C$DW$650, DW_AT_accessibility(DW_ACCESS_public)
    6311                      .dwendtag $C$DW$T$84
    6312              
    6313              
    6314              $C$DW$T$85      .dwtag  DW_TAG_union_type
    6315                      .dwattr $C$DW$T$85, DW_AT_name("PCLKCR6_REG")
    6316                      .dwattr $C$DW$T$85, DW_AT_byte_size(0x02)
    6317              $C$DW$651       .dwtag  DW_TAG_member
    6318                      .dwattr $C$DW$651, DW_AT_type(*$C$DW$T$21)
    6319                      .dwattr $C$DW$651, DW_AT_name("all")
    6320                      .dwattr $C$DW$651, DW_AT_TI_symbol_name("_all")
    6321                      .dwattr $C$DW$651, DW_AT_data_member_location[DW_OP_plus_uconst 0x0]
    6322                      .dwattr $C$DW$651, DW_AT_accessibility(DW_ACCESS_public)
    6323              $C$DW$652       .dwtag  DW_TAG_member
    6324                      .dwattr $C$DW$652, DW_AT_type(*$C$DW$T$84)
    6325                      .dwattr $C$DW$652, DW_AT_name("bit")
    6326                      .dwattr $C$DW$652, DW_AT_TI_symbol_name("_bit")
    6327                      .dwattr $C$DW$652, DW_AT_data_member_location[DW_OP_plus_uconst 0x0]
    6328                      .dwattr $C$DW$652, DW_AT_accessibility(DW_ACCESS_public)
    6329                      .dwendtag $C$DW$T$85
    6330              
    6331              
    6332              $C$DW$T$86      .dwtag  DW_TAG_structure_type
    6333                      .dwattr $C$DW$T$86, DW_AT_name("PCLKCR7_BITS")
    6334                      .dwattr $C$DW$T$86, DW_AT_byte_size(0x02)
    6335              $C$DW$653       .dwtag  DW_TAG_member
    6336                      .dwattr $C$DW$653, DW_AT_type(*$C$DW$T$19)
    6337                      .dwattr $C$DW$653, DW_AT_name("SCI_A")
    6338                      .dwattr $C$DW$653, DW_AT_TI_symbol_name("_SCI_A")
    6339                      .dwattr $C$DW$653, DW_AT_bit_offset(0x0f), DW_AT_bit_size(0x01)
    6340                      .dwattr $C$DW$653, DW_AT_data_member_location[DW_OP_plus_uconst 0x0]
    6341                      .dwattr $C$DW$653, DW_AT_accessibility(DW_ACCESS_public)
    6342              $C$DW$654       .dwtag  DW_TAG_member
    6343                      .dwattr $C$DW$654, DW_AT_type(*$C$DW$T$19)
    6344                      .dwattr $C$DW$654, DW_AT_name("SCI_B")
    6345                      .dwattr $C$DW$654, DW_AT_TI_symbol_name("_SCI_B")
    6346                      .dwattr $C$DW$654, DW_AT_bit_offset(0x0e), DW_AT_bit_size(0x01)
    6347                      .dwattr $C$DW$654, DW_AT_data_member_location[DW_OP_plus_uconst 0x0]
    6348                      .dwattr $C$DW$654, DW_AT_accessibility(DW_ACCESS_public)
    6349              $C$DW$655       .dwtag  DW_TAG_member
    6350                      .dwattr $C$DW$655, DW_AT_type(*$C$DW$T$19)
    6351                      .dwattr $C$DW$655, DW_AT_name("SCI_C")
    6352                      .dwattr $C$DW$655, DW_AT_TI_symbol_name("_SCI_C")
    6353                      .dwattr $C$DW$655, DW_AT_bit_offset(0x0d), DW_AT_bit_size(0x01)
    6354                      .dwattr $C$DW$655, DW_AT_data_member_location[DW_OP_plus_uconst 0x0]
    6355                      .dwattr $C$DW$655, DW_AT_accessibility(DW_ACCESS_public)
    6356              $C$DW$656       .dwtag  DW_TAG_member
    6357                      .dwattr $C$DW$656, DW_AT_type(*$C$DW$T$19)
    6358                      .dwattr $C$DW$656, DW_AT_name("SCI_D")
    6359                      .dwattr $C$DW$656, DW_AT_TI_symbol_name("_SCI_D")
    6360                      .dwattr $C$DW$656, DW_AT_bit_offset(0x0c), DW_AT_bit_size(0x01)
    6361                      .dwattr $C$DW$656, DW_AT_data_member_location[DW_OP_plus_uconst 0x0]
    6362                      .dwattr $C$DW$656, DW_AT_accessibility(DW_ACCESS_public)
TMS320C2000 Assembler PC v6.1.3 Thu Jan 30 10:26:14 2014

Tools Copyright (c) 1996-2012 Texas Instruments Incorporated
C:\Users\a0272466\AppData\Local\Temp\0274010                         PAGE  122

    6363              $C$DW$657       .dwtag  DW_TAG_member
    6364                      .dwattr $C$DW$657, DW_AT_type(*$C$DW$T$19)
    6365                      .dwattr $C$DW$657, DW_AT_name("rsvd1")
    6366                      .dwattr $C$DW$657, DW_AT_TI_symbol_name("_rsvd1")
    6367                      .dwattr $C$DW$657, DW_AT_bit_offset(0x00), DW_AT_bit_size(0x0c)
    6368                      .dwattr $C$DW$657, DW_AT_data_member_location[DW_OP_plus_uconst 0x0]
    6369                      .dwattr $C$DW$657, DW_AT_accessibility(DW_ACCESS_public)
    6370              $C$DW$658       .dwtag  DW_TAG_member
    6371                      .dwattr $C$DW$658, DW_AT_type(*$C$DW$T$19)
    6372                      .dwattr $C$DW$658, DW_AT_name("rsvd2")
    6373                      .dwattr $C$DW$658, DW_AT_TI_symbol_name("_rsvd2")
    6374                      .dwattr $C$DW$658, DW_AT_bit_offset(0x00), DW_AT_bit_size(0x10)
    6375                      .dwattr $C$DW$658, DW_AT_data_member_location[DW_OP_plus_uconst 0x1]
    6376                      .dwattr $C$DW$658, DW_AT_accessibility(DW_ACCESS_public)
    6377                      .dwendtag $C$DW$T$86
    6378              
    6379              
    6380              $C$DW$T$87      .dwtag  DW_TAG_union_type
    6381                      .dwattr $C$DW$T$87, DW_AT_name("PCLKCR7_REG")
    6382                      .dwattr $C$DW$T$87, DW_AT_byte_size(0x02)
    6383              $C$DW$659       .dwtag  DW_TAG_member
    6384                      .dwattr $C$DW$659, DW_AT_type(*$C$DW$T$21)
    6385                      .dwattr $C$DW$659, DW_AT_name("all")
    6386                      .dwattr $C$DW$659, DW_AT_TI_symbol_name("_all")
    6387                      .dwattr $C$DW$659, DW_AT_data_member_location[DW_OP_plus_uconst 0x0]
    6388                      .dwattr $C$DW$659, DW_AT_accessibility(DW_ACCESS_public)
    6389              $C$DW$660       .dwtag  DW_TAG_member
    6390                      .dwattr $C$DW$660, DW_AT_type(*$C$DW$T$86)
    6391                      .dwattr $C$DW$660, DW_AT_name("bit")
    6392                      .dwattr $C$DW$660, DW_AT_TI_symbol_name("_bit")
    6393                      .dwattr $C$DW$660, DW_AT_data_member_location[DW_OP_plus_uconst 0x0]
    6394                      .dwattr $C$DW$660, DW_AT_accessibility(DW_ACCESS_public)
    6395                      .dwendtag $C$DW$T$87
    6396              
    6397              
    6398              $C$DW$T$88      .dwtag  DW_TAG_structure_type
    6399                      .dwattr $C$DW$T$88, DW_AT_name("PCLKCR8_BITS")
    6400                      .dwattr $C$DW$T$88, DW_AT_byte_size(0x02)
    6401              $C$DW$661       .dwtag  DW_TAG_member
    6402                      .dwattr $C$DW$661, DW_AT_type(*$C$DW$T$19)
    6403                      .dwattr $C$DW$661, DW_AT_name("SPI_A")
    6404                      .dwattr $C$DW$661, DW_AT_TI_symbol_name("_SPI_A")
    6405                      .dwattr $C$DW$661, DW_AT_bit_offset(0x0f), DW_AT_bit_size(0x01)
    6406                      .dwattr $C$DW$661, DW_AT_data_member_location[DW_OP_plus_uconst 0x0]
    6407                      .dwattr $C$DW$661, DW_AT_accessibility(DW_ACCESS_public)
    6408              $C$DW$662       .dwtag  DW_TAG_member
    6409                      .dwattr $C$DW$662, DW_AT_type(*$C$DW$T$19)
    6410                      .dwattr $C$DW$662, DW_AT_name("SPI_B")
    6411                      .dwattr $C$DW$662, DW_AT_TI_symbol_name("_SPI_B")
    6412                      .dwattr $C$DW$662, DW_AT_bit_offset(0x0e), DW_AT_bit_size(0x01)
    6413                      .dwattr $C$DW$662, DW_AT_data_member_location[DW_OP_plus_uconst 0x0]
    6414                      .dwattr $C$DW$662, DW_AT_accessibility(DW_ACCESS_public)
    6415              $C$DW$663       .dwtag  DW_TAG_member
    6416                      .dwattr $C$DW$663, DW_AT_type(*$C$DW$T$19)
    6417                      .dwattr $C$DW$663, DW_AT_name("SPI_C")
TMS320C2000 Assembler PC v6.1.3 Thu Jan 30 10:26:14 2014

Tools Copyright (c) 1996-2012 Texas Instruments Incorporated
C:\Users\a0272466\AppData\Local\Temp\0274010                         PAGE  123

    6418                      .dwattr $C$DW$663, DW_AT_TI_symbol_name("_SPI_C")
    6419                      .dwattr $C$DW$663, DW_AT_bit_offset(0x0d), DW_AT_bit_size(0x01)
    6420                      .dwattr $C$DW$663, DW_AT_data_member_location[DW_OP_plus_uconst 0x0]
    6421                      .dwattr $C$DW$663, DW_AT_accessibility(DW_ACCESS_public)
    6422              $C$DW$664       .dwtag  DW_TAG_member
    6423                      .dwattr $C$DW$664, DW_AT_type(*$C$DW$T$19)
    6424                      .dwattr $C$DW$664, DW_AT_name("rsvd1")
    6425                      .dwattr $C$DW$664, DW_AT_TI_symbol_name("_rsvd1")
    6426                      .dwattr $C$DW$664, DW_AT_bit_offset(0x00), DW_AT_bit_size(0x0d)
    6427                      .dwattr $C$DW$664, DW_AT_data_member_location[DW_OP_plus_uconst 0x0]
    6428                      .dwattr $C$DW$664, DW_AT_accessibility(DW_ACCESS_public)
    6429              $C$DW$665       .dwtag  DW_TAG_member
    6430                      .dwattr $C$DW$665, DW_AT_type(*$C$DW$T$19)
    6431                      .dwattr $C$DW$665, DW_AT_name("rsvd2")
    6432                      .dwattr $C$DW$665, DW_AT_TI_symbol_name("_rsvd2")
    6433                      .dwattr $C$DW$665, DW_AT_bit_offset(0x00), DW_AT_bit_size(0x10)
    6434                      .dwattr $C$DW$665, DW_AT_data_member_location[DW_OP_plus_uconst 0x1]
    6435                      .dwattr $C$DW$665, DW_AT_accessibility(DW_ACCESS_public)
    6436                      .dwendtag $C$DW$T$88
    6437              
    6438              
    6439              $C$DW$T$89      .dwtag  DW_TAG_union_type
    6440                      .dwattr $C$DW$T$89, DW_AT_name("PCLKCR8_REG")
    6441                      .dwattr $C$DW$T$89, DW_AT_byte_size(0x02)
    6442              $C$DW$666       .dwtag  DW_TAG_member
    6443                      .dwattr $C$DW$666, DW_AT_type(*$C$DW$T$21)
    6444                      .dwattr $C$DW$666, DW_AT_name("all")
    6445                      .dwattr $C$DW$666, DW_AT_TI_symbol_name("_all")
    6446                      .dwattr $C$DW$666, DW_AT_data_member_location[DW_OP_plus_uconst 0x0]
    6447                      .dwattr $C$DW$666, DW_AT_accessibility(DW_ACCESS_public)
    6448              $C$DW$667       .dwtag  DW_TAG_member
    6449                      .dwattr $C$DW$667, DW_AT_type(*$C$DW$T$88)
    6450                      .dwattr $C$DW$667, DW_AT_name("bit")
    6451                      .dwattr $C$DW$667, DW_AT_TI_symbol_name("_bit")
    6452                      .dwattr $C$DW$667, DW_AT_data_member_location[DW_OP_plus_uconst 0x0]
    6453                      .dwattr $C$DW$667, DW_AT_accessibility(DW_ACCESS_public)
    6454                      .dwendtag $C$DW$T$89
    6455              
    6456              
    6457              $C$DW$T$90      .dwtag  DW_TAG_structure_type
    6458                      .dwattr $C$DW$T$90, DW_AT_name("PCLKCR9_BITS")
    6459                      .dwattr $C$DW$T$90, DW_AT_byte_size(0x02)
    6460              $C$DW$668       .dwtag  DW_TAG_member
    6461                      .dwattr $C$DW$668, DW_AT_type(*$C$DW$T$19)
    6462                      .dwattr $C$DW$668, DW_AT_name("I2C_A")
    6463                      .dwattr $C$DW$668, DW_AT_TI_symbol_name("_I2C_A")
    6464                      .dwattr $C$DW$668, DW_AT_bit_offset(0x0f), DW_AT_bit_size(0x01)
    6465                      .dwattr $C$DW$668, DW_AT_data_member_location[DW_OP_plus_uconst 0x0]
    6466                      .dwattr $C$DW$668, DW_AT_accessibility(DW_ACCESS_public)
    6467              $C$DW$669       .dwtag  DW_TAG_member
    6468                      .dwattr $C$DW$669, DW_AT_type(*$C$DW$T$19)
    6469                      .dwattr $C$DW$669, DW_AT_name("I2C_B")
    6470                      .dwattr $C$DW$669, DW_AT_TI_symbol_name("_I2C_B")
    6471                      .dwattr $C$DW$669, DW_AT_bit_offset(0x0e), DW_AT_bit_size(0x01)
    6472                      .dwattr $C$DW$669, DW_AT_data_member_location[DW_OP_plus_uconst 0x0]
TMS320C2000 Assembler PC v6.1.3 Thu Jan 30 10:26:14 2014

Tools Copyright (c) 1996-2012 Texas Instruments Incorporated
C:\Users\a0272466\AppData\Local\Temp\0274010                         PAGE  124

    6473                      .dwattr $C$DW$669, DW_AT_accessibility(DW_ACCESS_public)
    6474              $C$DW$670       .dwtag  DW_TAG_member
    6475                      .dwattr $C$DW$670, DW_AT_type(*$C$DW$T$19)
    6476                      .dwattr $C$DW$670, DW_AT_name("rsvd1")
    6477                      .dwattr $C$DW$670, DW_AT_TI_symbol_name("_rsvd1")
    6478                      .dwattr $C$DW$670, DW_AT_bit_offset(0x00), DW_AT_bit_size(0x0e)
    6479                      .dwattr $C$DW$670, DW_AT_data_member_location[DW_OP_plus_uconst 0x0]
    6480                      .dwattr $C$DW$670, DW_AT_accessibility(DW_ACCESS_public)
    6481              $C$DW$671       .dwtag  DW_TAG_member
    6482                      .dwattr $C$DW$671, DW_AT_type(*$C$DW$T$19)
    6483                      .dwattr $C$DW$671, DW_AT_name("rsvd2")
    6484                      .dwattr $C$DW$671, DW_AT_TI_symbol_name("_rsvd2")
    6485                      .dwattr $C$DW$671, DW_AT_bit_offset(0x00), DW_AT_bit_size(0x10)
    6486                      .dwattr $C$DW$671, DW_AT_data_member_location[DW_OP_plus_uconst 0x1]
    6487                      .dwattr $C$DW$671, DW_AT_accessibility(DW_ACCESS_public)
    6488                      .dwendtag $C$DW$T$90
    6489              
    6490              
    6491              $C$DW$T$91      .dwtag  DW_TAG_union_type
    6492                      .dwattr $C$DW$T$91, DW_AT_name("PCLKCR9_REG")
    6493                      .dwattr $C$DW$T$91, DW_AT_byte_size(0x02)
    6494              $C$DW$672       .dwtag  DW_TAG_member
    6495                      .dwattr $C$DW$672, DW_AT_type(*$C$DW$T$21)
    6496                      .dwattr $C$DW$672, DW_AT_name("all")
    6497                      .dwattr $C$DW$672, DW_AT_TI_symbol_name("_all")
    6498                      .dwattr $C$DW$672, DW_AT_data_member_location[DW_OP_plus_uconst 0x0]
    6499                      .dwattr $C$DW$672, DW_AT_accessibility(DW_ACCESS_public)
    6500              $C$DW$673       .dwtag  DW_TAG_member
    6501                      .dwattr $C$DW$673, DW_AT_type(*$C$DW$T$90)
    6502                      .dwattr $C$DW$673, DW_AT_name("bit")
    6503                      .dwattr $C$DW$673, DW_AT_TI_symbol_name("_bit")
    6504                      .dwattr $C$DW$673, DW_AT_data_member_location[DW_OP_plus_uconst 0x0]
    6505                      .dwattr $C$DW$673, DW_AT_accessibility(DW_ACCESS_public)
    6506                      .dwendtag $C$DW$T$91
    6507              
    6508              
    6509              $C$DW$T$92      .dwtag  DW_TAG_structure_type
    6510                      .dwattr $C$DW$T$92, DW_AT_name("PIEACK_BITS")
    6511                      .dwattr $C$DW$T$92, DW_AT_byte_size(0x01)
    6512              $C$DW$674       .dwtag  DW_TAG_member
    6513                      .dwattr $C$DW$674, DW_AT_type(*$C$DW$T$19)
    6514                      .dwattr $C$DW$674, DW_AT_name("PIEACK")
    6515                      .dwattr $C$DW$674, DW_AT_TI_symbol_name("_PIEACK")
    6516                      .dwattr $C$DW$674, DW_AT_bit_offset(0x04), DW_AT_bit_size(0x0c)
    6517                      .dwattr $C$DW$674, DW_AT_data_member_location[DW_OP_plus_uconst 0x0]
    6518                      .dwattr $C$DW$674, DW_AT_accessibility(DW_ACCESS_public)
    6519              $C$DW$675       .dwtag  DW_TAG_member
    6520                      .dwattr $C$DW$675, DW_AT_type(*$C$DW$T$19)
    6521                      .dwattr $C$DW$675, DW_AT_name("rsvd1")
    6522                      .dwattr $C$DW$675, DW_AT_TI_symbol_name("_rsvd1")
    6523                      .dwattr $C$DW$675, DW_AT_bit_offset(0x00), DW_AT_bit_size(0x04)
    6524                      .dwattr $C$DW$675, DW_AT_data_member_location[DW_OP_plus_uconst 0x0]
    6525                      .dwattr $C$DW$675, DW_AT_accessibility(DW_ACCESS_public)
    6526                      .dwendtag $C$DW$T$92
    6527              
TMS320C2000 Assembler PC v6.1.3 Thu Jan 30 10:26:14 2014

Tools Copyright (c) 1996-2012 Texas Instruments Incorporated
C:\Users\a0272466\AppData\Local\Temp\0274010                         PAGE  125

    6528              
    6529              $C$DW$T$93      .dwtag  DW_TAG_union_type
    6530                      .dwattr $C$DW$T$93, DW_AT_name("PIEACK_REG")
    6531                      .dwattr $C$DW$T$93, DW_AT_byte_size(0x01)
    6532              $C$DW$676       .dwtag  DW_TAG_member
    6533                      .dwattr $C$DW$676, DW_AT_type(*$C$DW$T$19)
    6534                      .dwattr $C$DW$676, DW_AT_name("all")
    6535                      .dwattr $C$DW$676, DW_AT_TI_symbol_name("_all")
    6536                      .dwattr $C$DW$676, DW_AT_data_member_location[DW_OP_plus_uconst 0x0]
    6537                      .dwattr $C$DW$676, DW_AT_accessibility(DW_ACCESS_public)
    6538              $C$DW$677       .dwtag  DW_TAG_member
    6539                      .dwattr $C$DW$677, DW_AT_type(*$C$DW$T$92)
    6540                      .dwattr $C$DW$677, DW_AT_name("bit")
    6541                      .dwattr $C$DW$677, DW_AT_TI_symbol_name("_bit")
    6542                      .dwattr $C$DW$677, DW_AT_data_member_location[DW_OP_plus_uconst 0x0]
    6543                      .dwattr $C$DW$677, DW_AT_accessibility(DW_ACCESS_public)
    6544                      .dwendtag $C$DW$T$93
    6545              
    6546              
    6547              $C$DW$T$94      .dwtag  DW_TAG_structure_type
    6548                      .dwattr $C$DW$T$94, DW_AT_name("PIECTRL_BITS")
    6549                      .dwattr $C$DW$T$94, DW_AT_byte_size(0x01)
    6550              $C$DW$678       .dwtag  DW_TAG_member
    6551                      .dwattr $C$DW$678, DW_AT_type(*$C$DW$T$19)
    6552                      .dwattr $C$DW$678, DW_AT_name("ENPIE")
    6553                      .dwattr $C$DW$678, DW_AT_TI_symbol_name("_ENPIE")
    6554                      .dwattr $C$DW$678, DW_AT_bit_offset(0x0f), DW_AT_bit_size(0x01)
    6555                      .dwattr $C$DW$678, DW_AT_data_member_location[DW_OP_plus_uconst 0x0]
    6556                      .dwattr $C$DW$678, DW_AT_accessibility(DW_ACCESS_public)
    6557              $C$DW$679       .dwtag  DW_TAG_member
    6558                      .dwattr $C$DW$679, DW_AT_type(*$C$DW$T$19)
    6559                      .dwattr $C$DW$679, DW_AT_name("PIEVECT")
    6560                      .dwattr $C$DW$679, DW_AT_TI_symbol_name("_PIEVECT")
    6561                      .dwattr $C$DW$679, DW_AT_bit_offset(0x00), DW_AT_bit_size(0x0f)
    6562                      .dwattr $C$DW$679, DW_AT_data_member_location[DW_OP_plus_uconst 0x0]
    6563                      .dwattr $C$DW$679, DW_AT_accessibility(DW_ACCESS_public)
    6564                      .dwendtag $C$DW$T$94
    6565              
    6566              
    6567              $C$DW$T$95      .dwtag  DW_TAG_union_type
    6568                      .dwattr $C$DW$T$95, DW_AT_name("PIECTRL_REG")
    6569                      .dwattr $C$DW$T$95, DW_AT_byte_size(0x01)
    6570              $C$DW$680       .dwtag  DW_TAG_member
    6571                      .dwattr $C$DW$680, DW_AT_type(*$C$DW$T$19)
    6572                      .dwattr $C$DW$680, DW_AT_name("all")
    6573                      .dwattr $C$DW$680, DW_AT_TI_symbol_name("_all")
    6574                      .dwattr $C$DW$680, DW_AT_data_member_location[DW_OP_plus_uconst 0x0]
    6575                      .dwattr $C$DW$680, DW_AT_accessibility(DW_ACCESS_public)
    6576              $C$DW$681       .dwtag  DW_TAG_member
    6577                      .dwattr $C$DW$681, DW_AT_type(*$C$DW$T$94)
    6578                      .dwattr $C$DW$681, DW_AT_name("bit")
    6579                      .dwattr $C$DW$681, DW_AT_TI_symbol_name("_bit")
    6580                      .dwattr $C$DW$681, DW_AT_data_member_location[DW_OP_plus_uconst 0x0]
    6581                      .dwattr $C$DW$681, DW_AT_accessibility(DW_ACCESS_public)
    6582                      .dwendtag $C$DW$T$95
TMS320C2000 Assembler PC v6.1.3 Thu Jan 30 10:26:14 2014

Tools Copyright (c) 1996-2012 Texas Instruments Incorporated
C:\Users\a0272466\AppData\Local\Temp\0274010                         PAGE  126

    6583              
    6584              
    6585              $C$DW$T$96      .dwtag  DW_TAG_structure_type
    6586                      .dwattr $C$DW$T$96, DW_AT_name("PIEIER10_BITS")
    6587                      .dwattr $C$DW$T$96, DW_AT_byte_size(0x01)
    6588              $C$DW$682       .dwtag  DW_TAG_member
    6589                      .dwattr $C$DW$682, DW_AT_type(*$C$DW$T$19)
    6590                      .dwattr $C$DW$682, DW_AT_name("INTx1")
    6591                      .dwattr $C$DW$682, DW_AT_TI_symbol_name("_INTx1")
    6592                      .dwattr $C$DW$682, DW_AT_bit_offset(0x0f), DW_AT_bit_size(0x01)
    6593                      .dwattr $C$DW$682, DW_AT_data_member_location[DW_OP_plus_uconst 0x0]
    6594                      .dwattr $C$DW$682, DW_AT_accessibility(DW_ACCESS_public)
    6595              $C$DW$683       .dwtag  DW_TAG_member
    6596                      .dwattr $C$DW$683, DW_AT_type(*$C$DW$T$19)
    6597                      .dwattr $C$DW$683, DW_AT_name("INTx2")
    6598                      .dwattr $C$DW$683, DW_AT_TI_symbol_name("_INTx2")
    6599                      .dwattr $C$DW$683, DW_AT_bit_offset(0x0e), DW_AT_bit_size(0x01)
    6600                      .dwattr $C$DW$683, DW_AT_data_member_location[DW_OP_plus_uconst 0x0]
    6601                      .dwattr $C$DW$683, DW_AT_accessibility(DW_ACCESS_public)
    6602              $C$DW$684       .dwtag  DW_TAG_member
    6603                      .dwattr $C$DW$684, DW_AT_type(*$C$DW$T$19)
    6604                      .dwattr $C$DW$684, DW_AT_name("INTx3")
    6605                      .dwattr $C$DW$684, DW_AT_TI_symbol_name("_INTx3")
    6606                      .dwattr $C$DW$684, DW_AT_bit_offset(0x0d), DW_AT_bit_size(0x01)
    6607                      .dwattr $C$DW$684, DW_AT_data_member_location[DW_OP_plus_uconst 0x0]
    6608                      .dwattr $C$DW$684, DW_AT_accessibility(DW_ACCESS_public)
    6609              $C$DW$685       .dwtag  DW_TAG_member
    6610                      .dwattr $C$DW$685, DW_AT_type(*$C$DW$T$19)
    6611                      .dwattr $C$DW$685, DW_AT_name("INTx4")
    6612                      .dwattr $C$DW$685, DW_AT_TI_symbol_name("_INTx4")
    6613                      .dwattr $C$DW$685, DW_AT_bit_offset(0x0c), DW_AT_bit_size(0x01)
    6614                      .dwattr $C$DW$685, DW_AT_data_member_location[DW_OP_plus_uconst 0x0]
    6615                      .dwattr $C$DW$685, DW_AT_accessibility(DW_ACCESS_public)
    6616              $C$DW$686       .dwtag  DW_TAG_member
    6617                      .dwattr $C$DW$686, DW_AT_type(*$C$DW$T$19)
    6618                      .dwattr $C$DW$686, DW_AT_name("INTx5")
    6619                      .dwattr $C$DW$686, DW_AT_TI_symbol_name("_INTx5")
    6620                      .dwattr $C$DW$686, DW_AT_bit_offset(0x0b), DW_AT_bit_size(0x01)
    6621                      .dwattr $C$DW$686, DW_AT_data_member_location[DW_OP_plus_uconst 0x0]
    6622                      .dwattr $C$DW$686, DW_AT_accessibility(DW_ACCESS_public)
    6623              $C$DW$687       .dwtag  DW_TAG_member
    6624                      .dwattr $C$DW$687, DW_AT_type(*$C$DW$T$19)
    6625                      .dwattr $C$DW$687, DW_AT_name("INTx6")
    6626                      .dwattr $C$DW$687, DW_AT_TI_symbol_name("_INTx6")
    6627                      .dwattr $C$DW$687, DW_AT_bit_offset(0x0a), DW_AT_bit_size(0x01)
    6628                      .dwattr $C$DW$687, DW_AT_data_member_location[DW_OP_plus_uconst 0x0]
    6629                      .dwattr $C$DW$687, DW_AT_accessibility(DW_ACCESS_public)
    6630              $C$DW$688       .dwtag  DW_TAG_member
    6631                      .dwattr $C$DW$688, DW_AT_type(*$C$DW$T$19)
    6632                      .dwattr $C$DW$688, DW_AT_name("INTx7")
    6633                      .dwattr $C$DW$688, DW_AT_TI_symbol_name("_INTx7")
    6634                      .dwattr $C$DW$688, DW_AT_bit_offset(0x09), DW_AT_bit_size(0x01)
    6635                      .dwattr $C$DW$688, DW_AT_data_member_location[DW_OP_plus_uconst 0x0]
    6636                      .dwattr $C$DW$688, DW_AT_accessibility(DW_ACCESS_public)
    6637              $C$DW$689       .dwtag  DW_TAG_member
TMS320C2000 Assembler PC v6.1.3 Thu Jan 30 10:26:14 2014

Tools Copyright (c) 1996-2012 Texas Instruments Incorporated
C:\Users\a0272466\AppData\Local\Temp\0274010                         PAGE  127

    6638                      .dwattr $C$DW$689, DW_AT_type(*$C$DW$T$19)
    6639                      .dwattr $C$DW$689, DW_AT_name("INTx8")
    6640                      .dwattr $C$DW$689, DW_AT_TI_symbol_name("_INTx8")
    6641                      .dwattr $C$DW$689, DW_AT_bit_offset(0x08), DW_AT_bit_size(0x01)
    6642                      .dwattr $C$DW$689, DW_AT_data_member_location[DW_OP_plus_uconst 0x0]
    6643                      .dwattr $C$DW$689, DW_AT_accessibility(DW_ACCESS_public)
    6644              $C$DW$690       .dwtag  DW_TAG_member
    6645                      .dwattr $C$DW$690, DW_AT_type(*$C$DW$T$19)
    6646                      .dwattr $C$DW$690, DW_AT_name("INTx9")
    6647                      .dwattr $C$DW$690, DW_AT_TI_symbol_name("_INTx9")
    6648                      .dwattr $C$DW$690, DW_AT_bit_offset(0x07), DW_AT_bit_size(0x01)
    6649                      .dwattr $C$DW$690, DW_AT_data_member_location[DW_OP_plus_uconst 0x0]
    6650                      .dwattr $C$DW$690, DW_AT_accessibility(DW_ACCESS_public)
    6651              $C$DW$691       .dwtag  DW_TAG_member
    6652                      .dwattr $C$DW$691, DW_AT_type(*$C$DW$T$19)
    6653                      .dwattr $C$DW$691, DW_AT_name("INTx10")
    6654                      .dwattr $C$DW$691, DW_AT_TI_symbol_name("_INTx10")
    6655                      .dwattr $C$DW$691, DW_AT_bit_offset(0x06), DW_AT_bit_size(0x01)
    6656                      .dwattr $C$DW$691, DW_AT_data_member_location[DW_OP_plus_uconst 0x0]
    6657                      .dwattr $C$DW$691, DW_AT_accessibility(DW_ACCESS_public)
    6658              $C$DW$692       .dwtag  DW_TAG_member
    6659                      .dwattr $C$DW$692, DW_AT_type(*$C$DW$T$19)
    6660                      .dwattr $C$DW$692, DW_AT_name("INTx11")
    6661                      .dwattr $C$DW$692, DW_AT_TI_symbol_name("_INTx11")
    6662                      .dwattr $C$DW$692, DW_AT_bit_offset(0x05), DW_AT_bit_size(0x01)
    6663                      .dwattr $C$DW$692, DW_AT_data_member_location[DW_OP_plus_uconst 0x0]
    6664                      .dwattr $C$DW$692, DW_AT_accessibility(DW_ACCESS_public)
    6665              $C$DW$693       .dwtag  DW_TAG_member
    6666                      .dwattr $C$DW$693, DW_AT_type(*$C$DW$T$19)
    6667                      .dwattr $C$DW$693, DW_AT_name("INTx12")
    6668                      .dwattr $C$DW$693, DW_AT_TI_symbol_name("_INTx12")
    6669                      .dwattr $C$DW$693, DW_AT_bit_offset(0x04), DW_AT_bit_size(0x01)
    6670                      .dwattr $C$DW$693, DW_AT_data_member_location[DW_OP_plus_uconst 0x0]
    6671                      .dwattr $C$DW$693, DW_AT_accessibility(DW_ACCESS_public)
    6672              $C$DW$694       .dwtag  DW_TAG_member
    6673                      .dwattr $C$DW$694, DW_AT_type(*$C$DW$T$19)
    6674                      .dwattr $C$DW$694, DW_AT_name("INTx13")
    6675                      .dwattr $C$DW$694, DW_AT_TI_symbol_name("_INTx13")
    6676                      .dwattr $C$DW$694, DW_AT_bit_offset(0x03), DW_AT_bit_size(0x01)
    6677                      .dwattr $C$DW$694, DW_AT_data_member_location[DW_OP_plus_uconst 0x0]
    6678                      .dwattr $C$DW$694, DW_AT_accessibility(DW_ACCESS_public)
    6679              $C$DW$695       .dwtag  DW_TAG_member
    6680                      .dwattr $C$DW$695, DW_AT_type(*$C$DW$T$19)
    6681                      .dwattr $C$DW$695, DW_AT_name("INTx14")
    6682                      .dwattr $C$DW$695, DW_AT_TI_symbol_name("_INTx14")
    6683                      .dwattr $C$DW$695, DW_AT_bit_offset(0x02), DW_AT_bit_size(0x01)
    6684                      .dwattr $C$DW$695, DW_AT_data_member_location[DW_OP_plus_uconst 0x0]
    6685                      .dwattr $C$DW$695, DW_AT_accessibility(DW_ACCESS_public)
    6686              $C$DW$696       .dwtag  DW_TAG_member
    6687                      .dwattr $C$DW$696, DW_AT_type(*$C$DW$T$19)
    6688                      .dwattr $C$DW$696, DW_AT_name("INTx15")
    6689                      .dwattr $C$DW$696, DW_AT_TI_symbol_name("_INTx15")
    6690                      .dwattr $C$DW$696, DW_AT_bit_offset(0x01), DW_AT_bit_size(0x01)
    6691                      .dwattr $C$DW$696, DW_AT_data_member_location[DW_OP_plus_uconst 0x0]
    6692                      .dwattr $C$DW$696, DW_AT_accessibility(DW_ACCESS_public)
TMS320C2000 Assembler PC v6.1.3 Thu Jan 30 10:26:14 2014

Tools Copyright (c) 1996-2012 Texas Instruments Incorporated
C:\Users\a0272466\AppData\Local\Temp\0274010                         PAGE  128

    6693              $C$DW$697       .dwtag  DW_TAG_member
    6694                      .dwattr $C$DW$697, DW_AT_type(*$C$DW$T$19)
    6695                      .dwattr $C$DW$697, DW_AT_name("INTx16")
    6696                      .dwattr $C$DW$697, DW_AT_TI_symbol_name("_INTx16")
    6697                      .dwattr $C$DW$697, DW_AT_bit_offset(0x00), DW_AT_bit_size(0x01)
    6698                      .dwattr $C$DW$697, DW_AT_data_member_location[DW_OP_plus_uconst 0x0]
    6699                      .dwattr $C$DW$697, DW_AT_accessibility(DW_ACCESS_public)
    6700                      .dwendtag $C$DW$T$96
    6701              
    6702              
    6703              $C$DW$T$97      .dwtag  DW_TAG_union_type
    6704                      .dwattr $C$DW$T$97, DW_AT_name("PIEIER10_REG")
    6705                      .dwattr $C$DW$T$97, DW_AT_byte_size(0x01)
    6706              $C$DW$698       .dwtag  DW_TAG_member
    6707                      .dwattr $C$DW$698, DW_AT_type(*$C$DW$T$19)
    6708                      .dwattr $C$DW$698, DW_AT_name("all")
    6709                      .dwattr $C$DW$698, DW_AT_TI_symbol_name("_all")
    6710                      .dwattr $C$DW$698, DW_AT_data_member_location[DW_OP_plus_uconst 0x0]
    6711                      .dwattr $C$DW$698, DW_AT_accessibility(DW_ACCESS_public)
    6712              $C$DW$699       .dwtag  DW_TAG_member
    6713                      .dwattr $C$DW$699, DW_AT_type(*$C$DW$T$96)
    6714                      .dwattr $C$DW$699, DW_AT_name("bit")
    6715                      .dwattr $C$DW$699, DW_AT_TI_symbol_name("_bit")
    6716                      .dwattr $C$DW$699, DW_AT_data_member_location[DW_OP_plus_uconst 0x0]
    6717                      .dwattr $C$DW$699, DW_AT_accessibility(DW_ACCESS_public)
    6718                      .dwendtag $C$DW$T$97
    6719              
    6720              
    6721              $C$DW$T$98      .dwtag  DW_TAG_structure_type
    6722                      .dwattr $C$DW$T$98, DW_AT_name("PIEIER11_BITS")
    6723                      .dwattr $C$DW$T$98, DW_AT_byte_size(0x01)
    6724              $C$DW$700       .dwtag  DW_TAG_member
    6725                      .dwattr $C$DW$700, DW_AT_type(*$C$DW$T$19)
    6726                      .dwattr $C$DW$700, DW_AT_name("INTx1")
    6727                      .dwattr $C$DW$700, DW_AT_TI_symbol_name("_INTx1")
    6728                      .dwattr $C$DW$700, DW_AT_bit_offset(0x0f), DW_AT_bit_size(0x01)
    6729                      .dwattr $C$DW$700, DW_AT_data_member_location[DW_OP_plus_uconst 0x0]
    6730                      .dwattr $C$DW$700, DW_AT_accessibility(DW_ACCESS_public)
    6731              $C$DW$701       .dwtag  DW_TAG_member
    6732                      .dwattr $C$DW$701, DW_AT_type(*$C$DW$T$19)
    6733                      .dwattr $C$DW$701, DW_AT_name("INTx2")
    6734                      .dwattr $C$DW$701, DW_AT_TI_symbol_name("_INTx2")
    6735                      .dwattr $C$DW$701, DW_AT_bit_offset(0x0e), DW_AT_bit_size(0x01)
    6736                      .dwattr $C$DW$701, DW_AT_data_member_location[DW_OP_plus_uconst 0x0]
    6737                      .dwattr $C$DW$701, DW_AT_accessibility(DW_ACCESS_public)
    6738              $C$DW$702       .dwtag  DW_TAG_member
    6739                      .dwattr $C$DW$702, DW_AT_type(*$C$DW$T$19)
    6740                      .dwattr $C$DW$702, DW_AT_name("INTx3")
    6741                      .dwattr $C$DW$702, DW_AT_TI_symbol_name("_INTx3")
    6742                      .dwattr $C$DW$702, DW_AT_bit_offset(0x0d), DW_AT_bit_size(0x01)
    6743                      .dwattr $C$DW$702, DW_AT_data_member_location[DW_OP_plus_uconst 0x0]
    6744                      .dwattr $C$DW$702, DW_AT_accessibility(DW_ACCESS_public)
    6745              $C$DW$703       .dwtag  DW_TAG_member
    6746                      .dwattr $C$DW$703, DW_AT_type(*$C$DW$T$19)
    6747                      .dwattr $C$DW$703, DW_AT_name("INTx4")
TMS320C2000 Assembler PC v6.1.3 Thu Jan 30 10:26:14 2014

Tools Copyright (c) 1996-2012 Texas Instruments Incorporated
C:\Users\a0272466\AppData\Local\Temp\0274010                         PAGE  129

    6748                      .dwattr $C$DW$703, DW_AT_TI_symbol_name("_INTx4")
    6749                      .dwattr $C$DW$703, DW_AT_bit_offset(0x0c), DW_AT_bit_size(0x01)
    6750                      .dwattr $C$DW$703, DW_AT_data_member_location[DW_OP_plus_uconst 0x0]
    6751                      .dwattr $C$DW$703, DW_AT_accessibility(DW_ACCESS_public)
    6752              $C$DW$704       .dwtag  DW_TAG_member
    6753                      .dwattr $C$DW$704, DW_AT_type(*$C$DW$T$19)
    6754                      .dwattr $C$DW$704, DW_AT_name("INTx5")
    6755                      .dwattr $C$DW$704, DW_AT_TI_symbol_name("_INTx5")
    6756                      .dwattr $C$DW$704, DW_AT_bit_offset(0x0b), DW_AT_bit_size(0x01)
    6757                      .dwattr $C$DW$704, DW_AT_data_member_location[DW_OP_plus_uconst 0x0]
    6758                      .dwattr $C$DW$704, DW_AT_accessibility(DW_ACCESS_public)
    6759              $C$DW$705       .dwtag  DW_TAG_member
    6760                      .dwattr $C$DW$705, DW_AT_type(*$C$DW$T$19)
    6761                      .dwattr $C$DW$705, DW_AT_name("INTx6")
    6762                      .dwattr $C$DW$705, DW_AT_TI_symbol_name("_INTx6")
    6763                      .dwattr $C$DW$705, DW_AT_bit_offset(0x0a), DW_AT_bit_size(0x01)
    6764                      .dwattr $C$DW$705, DW_AT_data_member_location[DW_OP_plus_uconst 0x0]
    6765                      .dwattr $C$DW$705, DW_AT_accessibility(DW_ACCESS_public)
    6766              $C$DW$706       .dwtag  DW_TAG_member
    6767                      .dwattr $C$DW$706, DW_AT_type(*$C$DW$T$19)
    6768                      .dwattr $C$DW$706, DW_AT_name("INTx7")
    6769                      .dwattr $C$DW$706, DW_AT_TI_symbol_name("_INTx7")
    6770                      .dwattr $C$DW$706, DW_AT_bit_offset(0x09), DW_AT_bit_size(0x01)
    6771                      .dwattr $C$DW$706, DW_AT_data_member_location[DW_OP_plus_uconst 0x0]
    6772                      .dwattr $C$DW$706, DW_AT_accessibility(DW_ACCESS_public)
    6773              $C$DW$707       .dwtag  DW_TAG_member
    6774                      .dwattr $C$DW$707, DW_AT_type(*$C$DW$T$19)
    6775                      .dwattr $C$DW$707, DW_AT_name("INTx8")
    6776                      .dwattr $C$DW$707, DW_AT_TI_symbol_name("_INTx8")
    6777                      .dwattr $C$DW$707, DW_AT_bit_offset(0x08), DW_AT_bit_size(0x01)
    6778                      .dwattr $C$DW$707, DW_AT_data_member_location[DW_OP_plus_uconst 0x0]
    6779                      .dwattr $C$DW$707, DW_AT_accessibility(DW_ACCESS_public)
    6780              $C$DW$708       .dwtag  DW_TAG_member
    6781                      .dwattr $C$DW$708, DW_AT_type(*$C$DW$T$19)
    6782                      .dwattr $C$DW$708, DW_AT_name("INTx9")
    6783                      .dwattr $C$DW$708, DW_AT_TI_symbol_name("_INTx9")
    6784                      .dwattr $C$DW$708, DW_AT_bit_offset(0x07), DW_AT_bit_size(0x01)
    6785                      .dwattr $C$DW$708, DW_AT_data_member_location[DW_OP_plus_uconst 0x0]
    6786                      .dwattr $C$DW$708, DW_AT_accessibility(DW_ACCESS_public)
    6787              $C$DW$709       .dwtag  DW_TAG_member
    6788                      .dwattr $C$DW$709, DW_AT_type(*$C$DW$T$19)
    6789                      .dwattr $C$DW$709, DW_AT_name("INTx10")
    6790                      .dwattr $C$DW$709, DW_AT_TI_symbol_name("_INTx10")
    6791                      .dwattr $C$DW$709, DW_AT_bit_offset(0x06), DW_AT_bit_size(0x01)
    6792                      .dwattr $C$DW$709, DW_AT_data_member_location[DW_OP_plus_uconst 0x0]
    6793                      .dwattr $C$DW$709, DW_AT_accessibility(DW_ACCESS_public)
    6794              $C$DW$710       .dwtag  DW_TAG_member
    6795                      .dwattr $C$DW$710, DW_AT_type(*$C$DW$T$19)
    6796                      .dwattr $C$DW$710, DW_AT_name("INTx11")
    6797                      .dwattr $C$DW$710, DW_AT_TI_symbol_name("_INTx11")
    6798                      .dwattr $C$DW$710, DW_AT_bit_offset(0x05), DW_AT_bit_size(0x01)
    6799                      .dwattr $C$DW$710, DW_AT_data_member_location[DW_OP_plus_uconst 0x0]
    6800                      .dwattr $C$DW$710, DW_AT_accessibility(DW_ACCESS_public)
    6801              $C$DW$711       .dwtag  DW_TAG_member
    6802                      .dwattr $C$DW$711, DW_AT_type(*$C$DW$T$19)
TMS320C2000 Assembler PC v6.1.3 Thu Jan 30 10:26:14 2014

Tools Copyright (c) 1996-2012 Texas Instruments Incorporated
C:\Users\a0272466\AppData\Local\Temp\0274010                         PAGE  130

    6803                      .dwattr $C$DW$711, DW_AT_name("INTx12")
    6804                      .dwattr $C$DW$711, DW_AT_TI_symbol_name("_INTx12")
    6805                      .dwattr $C$DW$711, DW_AT_bit_offset(0x04), DW_AT_bit_size(0x01)
    6806                      .dwattr $C$DW$711, DW_AT_data_member_location[DW_OP_plus_uconst 0x0]
    6807                      .dwattr $C$DW$711, DW_AT_accessibility(DW_ACCESS_public)
    6808              $C$DW$712       .dwtag  DW_TAG_member
    6809                      .dwattr $C$DW$712, DW_AT_type(*$C$DW$T$19)
    6810                      .dwattr $C$DW$712, DW_AT_name("INTx13")
    6811                      .dwattr $C$DW$712, DW_AT_TI_symbol_name("_INTx13")
    6812                      .dwattr $C$DW$712, DW_AT_bit_offset(0x03), DW_AT_bit_size(0x01)
    6813                      .dwattr $C$DW$712, DW_AT_data_member_location[DW_OP_plus_uconst 0x0]
    6814                      .dwattr $C$DW$712, DW_AT_accessibility(DW_ACCESS_public)
    6815              $C$DW$713       .dwtag  DW_TAG_member
    6816                      .dwattr $C$DW$713, DW_AT_type(*$C$DW$T$19)
    6817                      .dwattr $C$DW$713, DW_AT_name("INTx14")
    6818                      .dwattr $C$DW$713, DW_AT_TI_symbol_name("_INTx14")
    6819                      .dwattr $C$DW$713, DW_AT_bit_offset(0x02), DW_AT_bit_size(0x01)
    6820                      .dwattr $C$DW$713, DW_AT_data_member_location[DW_OP_plus_uconst 0x0]
    6821                      .dwattr $C$DW$713, DW_AT_accessibility(DW_ACCESS_public)
    6822              $C$DW$714       .dwtag  DW_TAG_member
    6823                      .dwattr $C$DW$714, DW_AT_type(*$C$DW$T$19)
    6824                      .dwattr $C$DW$714, DW_AT_name("INTx15")
    6825                      .dwattr $C$DW$714, DW_AT_TI_symbol_name("_INTx15")
    6826                      .dwattr $C$DW$714, DW_AT_bit_offset(0x01), DW_AT_bit_size(0x01)
    6827                      .dwattr $C$DW$714, DW_AT_data_member_location[DW_OP_plus_uconst 0x0]
    6828                      .dwattr $C$DW$714, DW_AT_accessibility(DW_ACCESS_public)
    6829              $C$DW$715       .dwtag  DW_TAG_member
    6830                      .dwattr $C$DW$715, DW_AT_type(*$C$DW$T$19)
    6831                      .dwattr $C$DW$715, DW_AT_name("INTx16")
    6832                      .dwattr $C$DW$715, DW_AT_TI_symbol_name("_INTx16")
    6833                      .dwattr $C$DW$715, DW_AT_bit_offset(0x00), DW_AT_bit_size(0x01)
    6834                      .dwattr $C$DW$715, DW_AT_data_member_location[DW_OP_plus_uconst 0x0]
    6835                      .dwattr $C$DW$715, DW_AT_accessibility(DW_ACCESS_public)
    6836                      .dwendtag $C$DW$T$98
    6837              
    6838              
    6839              $C$DW$T$99      .dwtag  DW_TAG_union_type
    6840                      .dwattr $C$DW$T$99, DW_AT_name("PIEIER11_REG")
    6841                      .dwattr $C$DW$T$99, DW_AT_byte_size(0x01)
    6842              $C$DW$716       .dwtag  DW_TAG_member
    6843                      .dwattr $C$DW$716, DW_AT_type(*$C$DW$T$19)
    6844                      .dwattr $C$DW$716, DW_AT_name("all")
    6845                      .dwattr $C$DW$716, DW_AT_TI_symbol_name("_all")
    6846                      .dwattr $C$DW$716, DW_AT_data_member_location[DW_OP_plus_uconst 0x0]
    6847                      .dwattr $C$DW$716, DW_AT_accessibility(DW_ACCESS_public)
    6848              $C$DW$717       .dwtag  DW_TAG_member
    6849                      .dwattr $C$DW$717, DW_AT_type(*$C$DW$T$98)
    6850                      .dwattr $C$DW$717, DW_AT_name("bit")
    6851                      .dwattr $C$DW$717, DW_AT_TI_symbol_name("_bit")
    6852                      .dwattr $C$DW$717, DW_AT_data_member_location[DW_OP_plus_uconst 0x0]
    6853                      .dwattr $C$DW$717, DW_AT_accessibility(DW_ACCESS_public)
    6854                      .dwendtag $C$DW$T$99
    6855              
    6856              
    6857              $C$DW$T$100     .dwtag  DW_TAG_structure_type
TMS320C2000 Assembler PC v6.1.3 Thu Jan 30 10:26:14 2014

Tools Copyright (c) 1996-2012 Texas Instruments Incorporated
C:\Users\a0272466\AppData\Local\Temp\0274010                         PAGE  131

    6858                      .dwattr $C$DW$T$100, DW_AT_name("PIEIER12_BITS")
    6859                      .dwattr $C$DW$T$100, DW_AT_byte_size(0x01)
    6860              $C$DW$718       .dwtag  DW_TAG_member
    6861                      .dwattr $C$DW$718, DW_AT_type(*$C$DW$T$19)
    6862                      .dwattr $C$DW$718, DW_AT_name("INTx1")
    6863                      .dwattr $C$DW$718, DW_AT_TI_symbol_name("_INTx1")
    6864                      .dwattr $C$DW$718, DW_AT_bit_offset(0x0f), DW_AT_bit_size(0x01)
    6865                      .dwattr $C$DW$718, DW_AT_data_member_location[DW_OP_plus_uconst 0x0]
    6866                      .dwattr $C$DW$718, DW_AT_accessibility(DW_ACCESS_public)
    6867              $C$DW$719       .dwtag  DW_TAG_member
    6868                      .dwattr $C$DW$719, DW_AT_type(*$C$DW$T$19)
    6869                      .dwattr $C$DW$719, DW_AT_name("INTx2")
    6870                      .dwattr $C$DW$719, DW_AT_TI_symbol_name("_INTx2")
    6871                      .dwattr $C$DW$719, DW_AT_bit_offset(0x0e), DW_AT_bit_size(0x01)
    6872                      .dwattr $C$DW$719, DW_AT_data_member_location[DW_OP_plus_uconst 0x0]
    6873                      .dwattr $C$DW$719, DW_AT_accessibility(DW_ACCESS_public)
    6874              $C$DW$720       .dwtag  DW_TAG_member
    6875                      .dwattr $C$DW$720, DW_AT_type(*$C$DW$T$19)
    6876                      .dwattr $C$DW$720, DW_AT_name("INTx3")
    6877                      .dwattr $C$DW$720, DW_AT_TI_symbol_name("_INTx3")
    6878                      .dwattr $C$DW$720, DW_AT_bit_offset(0x0d), DW_AT_bit_size(0x01)
    6879                      .dwattr $C$DW$720, DW_AT_data_member_location[DW_OP_plus_uconst 0x0]
    6880                      .dwattr $C$DW$720, DW_AT_accessibility(DW_ACCESS_public)
    6881              $C$DW$721       .dwtag  DW_TAG_member
    6882                      .dwattr $C$DW$721, DW_AT_type(*$C$DW$T$19)
    6883                      .dwattr $C$DW$721, DW_AT_name("INTx4")
    6884                      .dwattr $C$DW$721, DW_AT_TI_symbol_name("_INTx4")
    6885                      .dwattr $C$DW$721, DW_AT_bit_offset(0x0c), DW_AT_bit_size(0x01)
    6886                      .dwattr $C$DW$721, DW_AT_data_member_location[DW_OP_plus_uconst 0x0]
    6887                      .dwattr $C$DW$721, DW_AT_accessibility(DW_ACCESS_public)
    6888              $C$DW$722       .dwtag  DW_TAG_member
    6889                      .dwattr $C$DW$722, DW_AT_type(*$C$DW$T$19)
    6890                      .dwattr $C$DW$722, DW_AT_name("INTx5")
    6891                      .dwattr $C$DW$722, DW_AT_TI_symbol_name("_INTx5")
    6892                      .dwattr $C$DW$722, DW_AT_bit_offset(0x0b), DW_AT_bit_size(0x01)
    6893                      .dwattr $C$DW$722, DW_AT_data_member_location[DW_OP_plus_uconst 0x0]
    6894                      .dwattr $C$DW$722, DW_AT_accessibility(DW_ACCESS_public)
    6895              $C$DW$723       .dwtag  DW_TAG_member
    6896                      .dwattr $C$DW$723, DW_AT_type(*$C$DW$T$19)
    6897                      .dwattr $C$DW$723, DW_AT_name("INTx6")
    6898                      .dwattr $C$DW$723, DW_AT_TI_symbol_name("_INTx6")
    6899                      .dwattr $C$DW$723, DW_AT_bit_offset(0x0a), DW_AT_bit_size(0x01)
    6900                      .dwattr $C$DW$723, DW_AT_data_member_location[DW_OP_plus_uconst 0x0]
    6901                      .dwattr $C$DW$723, DW_AT_accessibility(DW_ACCESS_public)
    6902              $C$DW$724       .dwtag  DW_TAG_member
    6903                      .dwattr $C$DW$724, DW_AT_type(*$C$DW$T$19)
    6904                      .dwattr $C$DW$724, DW_AT_name("INTx7")
    6905                      .dwattr $C$DW$724, DW_AT_TI_symbol_name("_INTx7")
    6906                      .dwattr $C$DW$724, DW_AT_bit_offset(0x09), DW_AT_bit_size(0x01)
    6907                      .dwattr $C$DW$724, DW_AT_data_member_location[DW_OP_plus_uconst 0x0]
    6908                      .dwattr $C$DW$724, DW_AT_accessibility(DW_ACCESS_public)
    6909              $C$DW$725       .dwtag  DW_TAG_member
    6910                      .dwattr $C$DW$725, DW_AT_type(*$C$DW$T$19)
    6911                      .dwattr $C$DW$725, DW_AT_name("INTx8")
    6912                      .dwattr $C$DW$725, DW_AT_TI_symbol_name("_INTx8")
TMS320C2000 Assembler PC v6.1.3 Thu Jan 30 10:26:14 2014

Tools Copyright (c) 1996-2012 Texas Instruments Incorporated
C:\Users\a0272466\AppData\Local\Temp\0274010                         PAGE  132

    6913                      .dwattr $C$DW$725, DW_AT_bit_offset(0x08), DW_AT_bit_size(0x01)
    6914                      .dwattr $C$DW$725, DW_AT_data_member_location[DW_OP_plus_uconst 0x0]
    6915                      .dwattr $C$DW$725, DW_AT_accessibility(DW_ACCESS_public)
    6916              $C$DW$726       .dwtag  DW_TAG_member
    6917                      .dwattr $C$DW$726, DW_AT_type(*$C$DW$T$19)
    6918                      .dwattr $C$DW$726, DW_AT_name("INTx9")
    6919                      .dwattr $C$DW$726, DW_AT_TI_symbol_name("_INTx9")
    6920                      .dwattr $C$DW$726, DW_AT_bit_offset(0x07), DW_AT_bit_size(0x01)
    6921                      .dwattr $C$DW$726, DW_AT_data_member_location[DW_OP_plus_uconst 0x0]
    6922                      .dwattr $C$DW$726, DW_AT_accessibility(DW_ACCESS_public)
    6923              $C$DW$727       .dwtag  DW_TAG_member
    6924                      .dwattr $C$DW$727, DW_AT_type(*$C$DW$T$19)
    6925                      .dwattr $C$DW$727, DW_AT_name("INTx10")
    6926                      .dwattr $C$DW$727, DW_AT_TI_symbol_name("_INTx10")
    6927                      .dwattr $C$DW$727, DW_AT_bit_offset(0x06), DW_AT_bit_size(0x01)
    6928                      .dwattr $C$DW$727, DW_AT_data_member_location[DW_OP_plus_uconst 0x0]
    6929                      .dwattr $C$DW$727, DW_AT_accessibility(DW_ACCESS_public)
    6930              $C$DW$728       .dwtag  DW_TAG_member
    6931                      .dwattr $C$DW$728, DW_AT_type(*$C$DW$T$19)
    6932                      .dwattr $C$DW$728, DW_AT_name("INTx11")
    6933                      .dwattr $C$DW$728, DW_AT_TI_symbol_name("_INTx11")
    6934                      .dwattr $C$DW$728, DW_AT_bit_offset(0x05), DW_AT_bit_size(0x01)
    6935                      .dwattr $C$DW$728, DW_AT_data_member_location[DW_OP_plus_uconst 0x0]
    6936                      .dwattr $C$DW$728, DW_AT_accessibility(DW_ACCESS_public)
    6937              $C$DW$729       .dwtag  DW_TAG_member
    6938                      .dwattr $C$DW$729, DW_AT_type(*$C$DW$T$19)
    6939                      .dwattr $C$DW$729, DW_AT_name("INTx12")
    6940                      .dwattr $C$DW$729, DW_AT_TI_symbol_name("_INTx12")
    6941                      .dwattr $C$DW$729, DW_AT_bit_offset(0x04), DW_AT_bit_size(0x01)
    6942                      .dwattr $C$DW$729, DW_AT_data_member_location[DW_OP_plus_uconst 0x0]
    6943                      .dwattr $C$DW$729, DW_AT_accessibility(DW_ACCESS_public)
    6944              $C$DW$730       .dwtag  DW_TAG_member
    6945                      .dwattr $C$DW$730, DW_AT_type(*$C$DW$T$19)
    6946                      .dwattr $C$DW$730, DW_AT_name("INTx13")
    6947                      .dwattr $C$DW$730, DW_AT_TI_symbol_name("_INTx13")
    6948                      .dwattr $C$DW$730, DW_AT_bit_offset(0x03), DW_AT_bit_size(0x01)
    6949                      .dwattr $C$DW$730, DW_AT_data_member_location[DW_OP_plus_uconst 0x0]
    6950                      .dwattr $C$DW$730, DW_AT_accessibility(DW_ACCESS_public)
    6951              $C$DW$731       .dwtag  DW_TAG_member
    6952                      .dwattr $C$DW$731, DW_AT_type(*$C$DW$T$19)
    6953                      .dwattr $C$DW$731, DW_AT_name("INTx14")
    6954                      .dwattr $C$DW$731, DW_AT_TI_symbol_name("_INTx14")
    6955                      .dwattr $C$DW$731, DW_AT_bit_offset(0x02), DW_AT_bit_size(0x01)
    6956                      .dwattr $C$DW$731, DW_AT_data_member_location[DW_OP_plus_uconst 0x0]
    6957                      .dwattr $C$DW$731, DW_AT_accessibility(DW_ACCESS_public)
    6958              $C$DW$732       .dwtag  DW_TAG_member
    6959                      .dwattr $C$DW$732, DW_AT_type(*$C$DW$T$19)
    6960                      .dwattr $C$DW$732, DW_AT_name("INTx15")
    6961                      .dwattr $C$DW$732, DW_AT_TI_symbol_name("_INTx15")
    6962                      .dwattr $C$DW$732, DW_AT_bit_offset(0x01), DW_AT_bit_size(0x01)
    6963                      .dwattr $C$DW$732, DW_AT_data_member_location[DW_OP_plus_uconst 0x0]
    6964                      .dwattr $C$DW$732, DW_AT_accessibility(DW_ACCESS_public)
    6965              $C$DW$733       .dwtag  DW_TAG_member
    6966                      .dwattr $C$DW$733, DW_AT_type(*$C$DW$T$19)
    6967                      .dwattr $C$DW$733, DW_AT_name("INTx16")
TMS320C2000 Assembler PC v6.1.3 Thu Jan 30 10:26:14 2014

Tools Copyright (c) 1996-2012 Texas Instruments Incorporated
C:\Users\a0272466\AppData\Local\Temp\0274010                         PAGE  133

    6968                      .dwattr $C$DW$733, DW_AT_TI_symbol_name("_INTx16")
    6969                      .dwattr $C$DW$733, DW_AT_bit_offset(0x00), DW_AT_bit_size(0x01)
    6970                      .dwattr $C$DW$733, DW_AT_data_member_location[DW_OP_plus_uconst 0x0]
    6971                      .dwattr $C$DW$733, DW_AT_accessibility(DW_ACCESS_public)
    6972                      .dwendtag $C$DW$T$100
    6973              
    6974              
    6975              $C$DW$T$101     .dwtag  DW_TAG_union_type
    6976                      .dwattr $C$DW$T$101, DW_AT_name("PIEIER12_REG")
    6977                      .dwattr $C$DW$T$101, DW_AT_byte_size(0x01)
    6978              $C$DW$734       .dwtag  DW_TAG_member
    6979                      .dwattr $C$DW$734, DW_AT_type(*$C$DW$T$19)
    6980                      .dwattr $C$DW$734, DW_AT_name("all")
    6981                      .dwattr $C$DW$734, DW_AT_TI_symbol_name("_all")
    6982                      .dwattr $C$DW$734, DW_AT_data_member_location[DW_OP_plus_uconst 0x0]
    6983                      .dwattr $C$DW$734, DW_AT_accessibility(DW_ACCESS_public)
    6984              $C$DW$735       .dwtag  DW_TAG_member
    6985                      .dwattr $C$DW$735, DW_AT_type(*$C$DW$T$100)
    6986                      .dwattr $C$DW$735, DW_AT_name("bit")
    6987                      .dwattr $C$DW$735, DW_AT_TI_symbol_name("_bit")
    6988                      .dwattr $C$DW$735, DW_AT_data_member_location[DW_OP_plus_uconst 0x0]
    6989                      .dwattr $C$DW$735, DW_AT_accessibility(DW_ACCESS_public)
    6990                      .dwendtag $C$DW$T$101
    6991              
    6992              
    6993              $C$DW$T$102     .dwtag  DW_TAG_structure_type
    6994                      .dwattr $C$DW$T$102, DW_AT_name("PIEIER1_BITS")
    6995                      .dwattr $C$DW$T$102, DW_AT_byte_size(0x01)
    6996              $C$DW$736       .dwtag  DW_TAG_member
    6997                      .dwattr $C$DW$736, DW_AT_type(*$C$DW$T$19)
    6998                      .dwattr $C$DW$736, DW_AT_name("INTx1")
    6999                      .dwattr $C$DW$736, DW_AT_TI_symbol_name("_INTx1")
    7000                      .dwattr $C$DW$736, DW_AT_bit_offset(0x0f), DW_AT_bit_size(0x01)
    7001                      .dwattr $C$DW$736, DW_AT_data_member_location[DW_OP_plus_uconst 0x0]
    7002                      .dwattr $C$DW$736, DW_AT_accessibility(DW_ACCESS_public)
    7003              $C$DW$737       .dwtag  DW_TAG_member
    7004                      .dwattr $C$DW$737, DW_AT_type(*$C$DW$T$19)
    7005                      .dwattr $C$DW$737, DW_AT_name("INTx2")
    7006                      .dwattr $C$DW$737, DW_AT_TI_symbol_name("_INTx2")
    7007                      .dwattr $C$DW$737, DW_AT_bit_offset(0x0e), DW_AT_bit_size(0x01)
    7008                      .dwattr $C$DW$737, DW_AT_data_member_location[DW_OP_plus_uconst 0x0]
    7009                      .dwattr $C$DW$737, DW_AT_accessibility(DW_ACCESS_public)
    7010              $C$DW$738       .dwtag  DW_TAG_member
    7011                      .dwattr $C$DW$738, DW_AT_type(*$C$DW$T$19)
    7012                      .dwattr $C$DW$738, DW_AT_name("INTx3")
    7013                      .dwattr $C$DW$738, DW_AT_TI_symbol_name("_INTx3")
    7014                      .dwattr $C$DW$738, DW_AT_bit_offset(0x0d), DW_AT_bit_size(0x01)
    7015                      .dwattr $C$DW$738, DW_AT_data_member_location[DW_OP_plus_uconst 0x0]
    7016                      .dwattr $C$DW$738, DW_AT_accessibility(DW_ACCESS_public)
    7017              $C$DW$739       .dwtag  DW_TAG_member
    7018                      .dwattr $C$DW$739, DW_AT_type(*$C$DW$T$19)
    7019                      .dwattr $C$DW$739, DW_AT_name("INTx4")
    7020                      .dwattr $C$DW$739, DW_AT_TI_symbol_name("_INTx4")
    7021                      .dwattr $C$DW$739, DW_AT_bit_offset(0x0c), DW_AT_bit_size(0x01)
    7022                      .dwattr $C$DW$739, DW_AT_data_member_location[DW_OP_plus_uconst 0x0]
TMS320C2000 Assembler PC v6.1.3 Thu Jan 30 10:26:14 2014

Tools Copyright (c) 1996-2012 Texas Instruments Incorporated
C:\Users\a0272466\AppData\Local\Temp\0274010                         PAGE  134

    7023                      .dwattr $C$DW$739, DW_AT_accessibility(DW_ACCESS_public)
    7024              $C$DW$740       .dwtag  DW_TAG_member
    7025                      .dwattr $C$DW$740, DW_AT_type(*$C$DW$T$19)
    7026                      .dwattr $C$DW$740, DW_AT_name("INTx5")
    7027                      .dwattr $C$DW$740, DW_AT_TI_symbol_name("_INTx5")
    7028                      .dwattr $C$DW$740, DW_AT_bit_offset(0x0b), DW_AT_bit_size(0x01)
    7029                      .dwattr $C$DW$740, DW_AT_data_member_location[DW_OP_plus_uconst 0x0]
    7030                      .dwattr $C$DW$740, DW_AT_accessibility(DW_ACCESS_public)
    7031              $C$DW$741       .dwtag  DW_TAG_member
    7032                      .dwattr $C$DW$741, DW_AT_type(*$C$DW$T$19)
    7033                      .dwattr $C$DW$741, DW_AT_name("INTx6")
    7034                      .dwattr $C$DW$741, DW_AT_TI_symbol_name("_INTx6")
    7035                      .dwattr $C$DW$741, DW_AT_bit_offset(0x0a), DW_AT_bit_size(0x01)
    7036                      .dwattr $C$DW$741, DW_AT_data_member_location[DW_OP_plus_uconst 0x0]
    7037                      .dwattr $C$DW$741, DW_AT_accessibility(DW_ACCESS_public)
    7038              $C$DW$742       .dwtag  DW_TAG_member
    7039                      .dwattr $C$DW$742, DW_AT_type(*$C$DW$T$19)
    7040                      .dwattr $C$DW$742, DW_AT_name("INTx7")
    7041                      .dwattr $C$DW$742, DW_AT_TI_symbol_name("_INTx7")
    7042                      .dwattr $C$DW$742, DW_AT_bit_offset(0x09), DW_AT_bit_size(0x01)
    7043                      .dwattr $C$DW$742, DW_AT_data_member_location[DW_OP_plus_uconst 0x0]
    7044                      .dwattr $C$DW$742, DW_AT_accessibility(DW_ACCESS_public)
    7045              $C$DW$743       .dwtag  DW_TAG_member
    7046                      .dwattr $C$DW$743, DW_AT_type(*$C$DW$T$19)
    7047                      .dwattr $C$DW$743, DW_AT_name("INTx8")
    7048                      .dwattr $C$DW$743, DW_AT_TI_symbol_name("_INTx8")
    7049                      .dwattr $C$DW$743, DW_AT_bit_offset(0x08), DW_AT_bit_size(0x01)
    7050                      .dwattr $C$DW$743, DW_AT_data_member_location[DW_OP_plus_uconst 0x0]
    7051                      .dwattr $C$DW$743, DW_AT_accessibility(DW_ACCESS_public)
    7052              $C$DW$744       .dwtag  DW_TAG_member
    7053                      .dwattr $C$DW$744, DW_AT_type(*$C$DW$T$19)
    7054                      .dwattr $C$DW$744, DW_AT_name("INTx9")
    7055                      .dwattr $C$DW$744, DW_AT_TI_symbol_name("_INTx9")
    7056                      .dwattr $C$DW$744, DW_AT_bit_offset(0x07), DW_AT_bit_size(0x01)
    7057                      .dwattr $C$DW$744, DW_AT_data_member_location[DW_OP_plus_uconst 0x0]
    7058                      .dwattr $C$DW$744, DW_AT_accessibility(DW_ACCESS_public)
    7059              $C$DW$745       .dwtag  DW_TAG_member
    7060                      .dwattr $C$DW$745, DW_AT_type(*$C$DW$T$19)
    7061                      .dwattr $C$DW$745, DW_AT_name("INTx10")
    7062                      .dwattr $C$DW$745, DW_AT_TI_symbol_name("_INTx10")
    7063                      .dwattr $C$DW$745, DW_AT_bit_offset(0x06), DW_AT_bit_size(0x01)
    7064                      .dwattr $C$DW$745, DW_AT_data_member_location[DW_OP_plus_uconst 0x0]
    7065                      .dwattr $C$DW$745, DW_AT_accessibility(DW_ACCESS_public)
    7066              $C$DW$746       .dwtag  DW_TAG_member
    7067                      .dwattr $C$DW$746, DW_AT_type(*$C$DW$T$19)
    7068                      .dwattr $C$DW$746, DW_AT_name("INTx11")
    7069                      .dwattr $C$DW$746, DW_AT_TI_symbol_name("_INTx11")
    7070                      .dwattr $C$DW$746, DW_AT_bit_offset(0x05), DW_AT_bit_size(0x01)
    7071                      .dwattr $C$DW$746, DW_AT_data_member_location[DW_OP_plus_uconst 0x0]
    7072                      .dwattr $C$DW$746, DW_AT_accessibility(DW_ACCESS_public)
    7073              $C$DW$747       .dwtag  DW_TAG_member
    7074                      .dwattr $C$DW$747, DW_AT_type(*$C$DW$T$19)
    7075                      .dwattr $C$DW$747, DW_AT_name("INTx12")
    7076                      .dwattr $C$DW$747, DW_AT_TI_symbol_name("_INTx12")
    7077                      .dwattr $C$DW$747, DW_AT_bit_offset(0x04), DW_AT_bit_size(0x01)
TMS320C2000 Assembler PC v6.1.3 Thu Jan 30 10:26:14 2014

Tools Copyright (c) 1996-2012 Texas Instruments Incorporated
C:\Users\a0272466\AppData\Local\Temp\0274010                         PAGE  135

    7078                      .dwattr $C$DW$747, DW_AT_data_member_location[DW_OP_plus_uconst 0x0]
    7079                      .dwattr $C$DW$747, DW_AT_accessibility(DW_ACCESS_public)
    7080              $C$DW$748       .dwtag  DW_TAG_member
    7081                      .dwattr $C$DW$748, DW_AT_type(*$C$DW$T$19)
    7082                      .dwattr $C$DW$748, DW_AT_name("INTx13")
    7083                      .dwattr $C$DW$748, DW_AT_TI_symbol_name("_INTx13")
    7084                      .dwattr $C$DW$748, DW_AT_bit_offset(0x03), DW_AT_bit_size(0x01)
    7085                      .dwattr $C$DW$748, DW_AT_data_member_location[DW_OP_plus_uconst 0x0]
    7086                      .dwattr $C$DW$748, DW_AT_accessibility(DW_ACCESS_public)
    7087              $C$DW$749       .dwtag  DW_TAG_member
    7088                      .dwattr $C$DW$749, DW_AT_type(*$C$DW$T$19)
    7089                      .dwattr $C$DW$749, DW_AT_name("INTx14")
    7090                      .dwattr $C$DW$749, DW_AT_TI_symbol_name("_INTx14")
    7091                      .dwattr $C$DW$749, DW_AT_bit_offset(0x02), DW_AT_bit_size(0x01)
    7092                      .dwattr $C$DW$749, DW_AT_data_member_location[DW_OP_plus_uconst 0x0]
    7093                      .dwattr $C$DW$749, DW_AT_accessibility(DW_ACCESS_public)
    7094              $C$DW$750       .dwtag  DW_TAG_member
    7095                      .dwattr $C$DW$750, DW_AT_type(*$C$DW$T$19)
    7096                      .dwattr $C$DW$750, DW_AT_name("INTx15")
    7097                      .dwattr $C$DW$750, DW_AT_TI_symbol_name("_INTx15")
    7098                      .dwattr $C$DW$750, DW_AT_bit_offset(0x01), DW_AT_bit_size(0x01)
    7099                      .dwattr $C$DW$750, DW_AT_data_member_location[DW_OP_plus_uconst 0x0]
    7100                      .dwattr $C$DW$750, DW_AT_accessibility(DW_ACCESS_public)
    7101              $C$DW$751       .dwtag  DW_TAG_member
    7102                      .dwattr $C$DW$751, DW_AT_type(*$C$DW$T$19)
    7103                      .dwattr $C$DW$751, DW_AT_name("INTx16")
    7104                      .dwattr $C$DW$751, DW_AT_TI_symbol_name("_INTx16")
    7105                      .dwattr $C$DW$751, DW_AT_bit_offset(0x00), DW_AT_bit_size(0x01)
    7106                      .dwattr $C$DW$751, DW_AT_data_member_location[DW_OP_plus_uconst 0x0]
    7107                      .dwattr $C$DW$751, DW_AT_accessibility(DW_ACCESS_public)
    7108                      .dwendtag $C$DW$T$102
    7109              
    7110              
    7111              $C$DW$T$103     .dwtag  DW_TAG_union_type
    7112                      .dwattr $C$DW$T$103, DW_AT_name("PIEIER1_REG")
    7113                      .dwattr $C$DW$T$103, DW_AT_byte_size(0x01)
    7114              $C$DW$752       .dwtag  DW_TAG_member
    7115                      .dwattr $C$DW$752, DW_AT_type(*$C$DW$T$19)
    7116                      .dwattr $C$DW$752, DW_AT_name("all")
    7117                      .dwattr $C$DW$752, DW_AT_TI_symbol_name("_all")
    7118                      .dwattr $C$DW$752, DW_AT_data_member_location[DW_OP_plus_uconst 0x0]
    7119                      .dwattr $C$DW$752, DW_AT_accessibility(DW_ACCESS_public)
    7120              $C$DW$753       .dwtag  DW_TAG_member
    7121                      .dwattr $C$DW$753, DW_AT_type(*$C$DW$T$102)
    7122                      .dwattr $C$DW$753, DW_AT_name("bit")
    7123                      .dwattr $C$DW$753, DW_AT_TI_symbol_name("_bit")
    7124                      .dwattr $C$DW$753, DW_AT_data_member_location[DW_OP_plus_uconst 0x0]
    7125                      .dwattr $C$DW$753, DW_AT_accessibility(DW_ACCESS_public)
    7126                      .dwendtag $C$DW$T$103
    7127              
    7128              
    7129              $C$DW$T$104     .dwtag  DW_TAG_structure_type
    7130                      .dwattr $C$DW$T$104, DW_AT_name("PIEIER2_BITS")
    7131                      .dwattr $C$DW$T$104, DW_AT_byte_size(0x01)
    7132              $C$DW$754       .dwtag  DW_TAG_member
TMS320C2000 Assembler PC v6.1.3 Thu Jan 30 10:26:14 2014

Tools Copyright (c) 1996-2012 Texas Instruments Incorporated
C:\Users\a0272466\AppData\Local\Temp\0274010                         PAGE  136

    7133                      .dwattr $C$DW$754, DW_AT_type(*$C$DW$T$19)
    7134                      .dwattr $C$DW$754, DW_AT_name("INTx1")
    7135                      .dwattr $C$DW$754, DW_AT_TI_symbol_name("_INTx1")
    7136                      .dwattr $C$DW$754, DW_AT_bit_offset(0x0f), DW_AT_bit_size(0x01)
    7137                      .dwattr $C$DW$754, DW_AT_data_member_location[DW_OP_plus_uconst 0x0]
    7138                      .dwattr $C$DW$754, DW_AT_accessibility(DW_ACCESS_public)
    7139              $C$DW$755       .dwtag  DW_TAG_member
    7140                      .dwattr $C$DW$755, DW_AT_type(*$C$DW$T$19)
    7141                      .dwattr $C$DW$755, DW_AT_name("INTx2")
    7142                      .dwattr $C$DW$755, DW_AT_TI_symbol_name("_INTx2")
    7143                      .dwattr $C$DW$755, DW_AT_bit_offset(0x0e), DW_AT_bit_size(0x01)
    7144                      .dwattr $C$DW$755, DW_AT_data_member_location[DW_OP_plus_uconst 0x0]
    7145                      .dwattr $C$DW$755, DW_AT_accessibility(DW_ACCESS_public)
    7146              $C$DW$756       .dwtag  DW_TAG_member
    7147                      .dwattr $C$DW$756, DW_AT_type(*$C$DW$T$19)
    7148                      .dwattr $C$DW$756, DW_AT_name("INTx3")
    7149                      .dwattr $C$DW$756, DW_AT_TI_symbol_name("_INTx3")
    7150                      .dwattr $C$DW$756, DW_AT_bit_offset(0x0d), DW_AT_bit_size(0x01)
    7151                      .dwattr $C$DW$756, DW_AT_data_member_location[DW_OP_plus_uconst 0x0]
    7152                      .dwattr $C$DW$756, DW_AT_accessibility(DW_ACCESS_public)
    7153              $C$DW$757       .dwtag  DW_TAG_member
    7154                      .dwattr $C$DW$757, DW_AT_type(*$C$DW$T$19)
    7155                      .dwattr $C$DW$757, DW_AT_name("INTx4")
    7156                      .dwattr $C$DW$757, DW_AT_TI_symbol_name("_INTx4")
    7157                      .dwattr $C$DW$757, DW_AT_bit_offset(0x0c), DW_AT_bit_size(0x01)
    7158                      .dwattr $C$DW$757, DW_AT_data_member_location[DW_OP_plus_uconst 0x0]
    7159                      .dwattr $C$DW$757, DW_AT_accessibility(DW_ACCESS_public)
    7160              $C$DW$758       .dwtag  DW_TAG_member
    7161                      .dwattr $C$DW$758, DW_AT_type(*$C$DW$T$19)
    7162                      .dwattr $C$DW$758, DW_AT_name("INTx5")
    7163                      .dwattr $C$DW$758, DW_AT_TI_symbol_name("_INTx5")
    7164                      .dwattr $C$DW$758, DW_AT_bit_offset(0x0b), DW_AT_bit_size(0x01)
    7165                      .dwattr $C$DW$758, DW_AT_data_member_location[DW_OP_plus_uconst 0x0]
    7166                      .dwattr $C$DW$758, DW_AT_accessibility(DW_ACCESS_public)
    7167              $C$DW$759       .dwtag  DW_TAG_member
    7168                      .dwattr $C$DW$759, DW_AT_type(*$C$DW$T$19)
    7169                      .dwattr $C$DW$759, DW_AT_name("INTx6")
    7170                      .dwattr $C$DW$759, DW_AT_TI_symbol_name("_INTx6")
    7171                      .dwattr $C$DW$759, DW_AT_bit_offset(0x0a), DW_AT_bit_size(0x01)
    7172                      .dwattr $C$DW$759, DW_AT_data_member_location[DW_OP_plus_uconst 0x0]
    7173                      .dwattr $C$DW$759, DW_AT_accessibility(DW_ACCESS_public)
    7174              $C$DW$760       .dwtag  DW_TAG_member
    7175                      .dwattr $C$DW$760, DW_AT_type(*$C$DW$T$19)
    7176                      .dwattr $C$DW$760, DW_AT_name("INTx7")
    7177                      .dwattr $C$DW$760, DW_AT_TI_symbol_name("_INTx7")
    7178                      .dwattr $C$DW$760, DW_AT_bit_offset(0x09), DW_AT_bit_size(0x01)
    7179                      .dwattr $C$DW$760, DW_AT_data_member_location[DW_OP_plus_uconst 0x0]
    7180                      .dwattr $C$DW$760, DW_AT_accessibility(DW_ACCESS_public)
    7181              $C$DW$761       .dwtag  DW_TAG_member
    7182                      .dwattr $C$DW$761, DW_AT_type(*$C$DW$T$19)
    7183                      .dwattr $C$DW$761, DW_AT_name("INTx8")
    7184                      .dwattr $C$DW$761, DW_AT_TI_symbol_name("_INTx8")
    7185                      .dwattr $C$DW$761, DW_AT_bit_offset(0x08), DW_AT_bit_size(0x01)
    7186                      .dwattr $C$DW$761, DW_AT_data_member_location[DW_OP_plus_uconst 0x0]
    7187                      .dwattr $C$DW$761, DW_AT_accessibility(DW_ACCESS_public)
TMS320C2000 Assembler PC v6.1.3 Thu Jan 30 10:26:14 2014

Tools Copyright (c) 1996-2012 Texas Instruments Incorporated
C:\Users\a0272466\AppData\Local\Temp\0274010                         PAGE  137

    7188              $C$DW$762       .dwtag  DW_TAG_member
    7189                      .dwattr $C$DW$762, DW_AT_type(*$C$DW$T$19)
    7190                      .dwattr $C$DW$762, DW_AT_name("INTx9")
    7191                      .dwattr $C$DW$762, DW_AT_TI_symbol_name("_INTx9")
    7192                      .dwattr $C$DW$762, DW_AT_bit_offset(0x07), DW_AT_bit_size(0x01)
    7193                      .dwattr $C$DW$762, DW_AT_data_member_location[DW_OP_plus_uconst 0x0]
    7194                      .dwattr $C$DW$762, DW_AT_accessibility(DW_ACCESS_public)
    7195              $C$DW$763       .dwtag  DW_TAG_member
    7196                      .dwattr $C$DW$763, DW_AT_type(*$C$DW$T$19)
    7197                      .dwattr $C$DW$763, DW_AT_name("INTx10")
    7198                      .dwattr $C$DW$763, DW_AT_TI_symbol_name("_INTx10")
    7199                      .dwattr $C$DW$763, DW_AT_bit_offset(0x06), DW_AT_bit_size(0x01)
    7200                      .dwattr $C$DW$763, DW_AT_data_member_location[DW_OP_plus_uconst 0x0]
    7201                      .dwattr $C$DW$763, DW_AT_accessibility(DW_ACCESS_public)
    7202              $C$DW$764       .dwtag  DW_TAG_member
    7203                      .dwattr $C$DW$764, DW_AT_type(*$C$DW$T$19)
    7204                      .dwattr $C$DW$764, DW_AT_name("INTx11")
    7205                      .dwattr $C$DW$764, DW_AT_TI_symbol_name("_INTx11")
    7206                      .dwattr $C$DW$764, DW_AT_bit_offset(0x05), DW_AT_bit_size(0x01)
    7207                      .dwattr $C$DW$764, DW_AT_data_member_location[DW_OP_plus_uconst 0x0]
    7208                      .dwattr $C$DW$764, DW_AT_accessibility(DW_ACCESS_public)
    7209              $C$DW$765       .dwtag  DW_TAG_member
    7210                      .dwattr $C$DW$765, DW_AT_type(*$C$DW$T$19)
    7211                      .dwattr $C$DW$765, DW_AT_name("INTx12")
    7212                      .dwattr $C$DW$765, DW_AT_TI_symbol_name("_INTx12")
    7213                      .dwattr $C$DW$765, DW_AT_bit_offset(0x04), DW_AT_bit_size(0x01)
    7214                      .dwattr $C$DW$765, DW_AT_data_member_location[DW_OP_plus_uconst 0x0]
    7215                      .dwattr $C$DW$765, DW_AT_accessibility(DW_ACCESS_public)
    7216              $C$DW$766       .dwtag  DW_TAG_member
    7217                      .dwattr $C$DW$766, DW_AT_type(*$C$DW$T$19)
    7218                      .dwattr $C$DW$766, DW_AT_name("INTx13")
    7219                      .dwattr $C$DW$766, DW_AT_TI_symbol_name("_INTx13")
    7220                      .dwattr $C$DW$766, DW_AT_bit_offset(0x03), DW_AT_bit_size(0x01)
    7221                      .dwattr $C$DW$766, DW_AT_data_member_location[DW_OP_plus_uconst 0x0]
    7222                      .dwattr $C$DW$766, DW_AT_accessibility(DW_ACCESS_public)
    7223              $C$DW$767       .dwtag  DW_TAG_member
    7224                      .dwattr $C$DW$767, DW_AT_type(*$C$DW$T$19)
    7225                      .dwattr $C$DW$767, DW_AT_name("INTx14")
    7226                      .dwattr $C$DW$767, DW_AT_TI_symbol_name("_INTx14")
    7227                      .dwattr $C$DW$767, DW_AT_bit_offset(0x02), DW_AT_bit_size(0x01)
    7228                      .dwattr $C$DW$767, DW_AT_data_member_location[DW_OP_plus_uconst 0x0]
    7229                      .dwattr $C$DW$767, DW_AT_accessibility(DW_ACCESS_public)
    7230              $C$DW$768       .dwtag  DW_TAG_member
    7231                      .dwattr $C$DW$768, DW_AT_type(*$C$DW$T$19)
    7232                      .dwattr $C$DW$768, DW_AT_name("INTx15")
    7233                      .dwattr $C$DW$768, DW_AT_TI_symbol_name("_INTx15")
    7234                      .dwattr $C$DW$768, DW_AT_bit_offset(0x01), DW_AT_bit_size(0x01)
    7235                      .dwattr $C$DW$768, DW_AT_data_member_location[DW_OP_plus_uconst 0x0]
    7236                      .dwattr $C$DW$768, DW_AT_accessibility(DW_ACCESS_public)
    7237              $C$DW$769       .dwtag  DW_TAG_member
    7238                      .dwattr $C$DW$769, DW_AT_type(*$C$DW$T$19)
    7239                      .dwattr $C$DW$769, DW_AT_name("INTx16")
    7240                      .dwattr $C$DW$769, DW_AT_TI_symbol_name("_INTx16")
    7241                      .dwattr $C$DW$769, DW_AT_bit_offset(0x00), DW_AT_bit_size(0x01)
    7242                      .dwattr $C$DW$769, DW_AT_data_member_location[DW_OP_plus_uconst 0x0]
TMS320C2000 Assembler PC v6.1.3 Thu Jan 30 10:26:14 2014

Tools Copyright (c) 1996-2012 Texas Instruments Incorporated
C:\Users\a0272466\AppData\Local\Temp\0274010                         PAGE  138

    7243                      .dwattr $C$DW$769, DW_AT_accessibility(DW_ACCESS_public)
    7244                      .dwendtag $C$DW$T$104
    7245              
    7246              
    7247              $C$DW$T$105     .dwtag  DW_TAG_union_type
    7248                      .dwattr $C$DW$T$105, DW_AT_name("PIEIER2_REG")
    7249                      .dwattr $C$DW$T$105, DW_AT_byte_size(0x01)
    7250              $C$DW$770       .dwtag  DW_TAG_member
    7251                      .dwattr $C$DW$770, DW_AT_type(*$C$DW$T$19)
    7252                      .dwattr $C$DW$770, DW_AT_name("all")
    7253                      .dwattr $C$DW$770, DW_AT_TI_symbol_name("_all")
    7254                      .dwattr $C$DW$770, DW_AT_data_member_location[DW_OP_plus_uconst 0x0]
    7255                      .dwattr $C$DW$770, DW_AT_accessibility(DW_ACCESS_public)
    7256              $C$DW$771       .dwtag  DW_TAG_member
    7257                      .dwattr $C$DW$771, DW_AT_type(*$C$DW$T$104)
    7258                      .dwattr $C$DW$771, DW_AT_name("bit")
    7259                      .dwattr $C$DW$771, DW_AT_TI_symbol_name("_bit")
    7260                      .dwattr $C$DW$771, DW_AT_data_member_location[DW_OP_plus_uconst 0x0]
    7261                      .dwattr $C$DW$771, DW_AT_accessibility(DW_ACCESS_public)
    7262                      .dwendtag $C$DW$T$105
    7263              
    7264              
    7265              $C$DW$T$106     .dwtag  DW_TAG_structure_type
    7266                      .dwattr $C$DW$T$106, DW_AT_name("PIEIER3_BITS")
    7267                      .dwattr $C$DW$T$106, DW_AT_byte_size(0x01)
    7268              $C$DW$772       .dwtag  DW_TAG_member
    7269                      .dwattr $C$DW$772, DW_AT_type(*$C$DW$T$19)
    7270                      .dwattr $C$DW$772, DW_AT_name("INTx1")
    7271                      .dwattr $C$DW$772, DW_AT_TI_symbol_name("_INTx1")
    7272                      .dwattr $C$DW$772, DW_AT_bit_offset(0x0f), DW_AT_bit_size(0x01)
    7273                      .dwattr $C$DW$772, DW_AT_data_member_location[DW_OP_plus_uconst 0x0]
    7274                      .dwattr $C$DW$772, DW_AT_accessibility(DW_ACCESS_public)
    7275              $C$DW$773       .dwtag  DW_TAG_member
    7276                      .dwattr $C$DW$773, DW_AT_type(*$C$DW$T$19)
    7277                      .dwattr $C$DW$773, DW_AT_name("INTx2")
    7278                      .dwattr $C$DW$773, DW_AT_TI_symbol_name("_INTx2")
    7279                      .dwattr $C$DW$773, DW_AT_bit_offset(0x0e), DW_AT_bit_size(0x01)
    7280                      .dwattr $C$DW$773, DW_AT_data_member_location[DW_OP_plus_uconst 0x0]
    7281                      .dwattr $C$DW$773, DW_AT_accessibility(DW_ACCESS_public)
    7282              $C$DW$774       .dwtag  DW_TAG_member
    7283                      .dwattr $C$DW$774, DW_AT_type(*$C$DW$T$19)
    7284                      .dwattr $C$DW$774, DW_AT_name("INTx3")
    7285                      .dwattr $C$DW$774, DW_AT_TI_symbol_name("_INTx3")
    7286                      .dwattr $C$DW$774, DW_AT_bit_offset(0x0d), DW_AT_bit_size(0x01)
    7287                      .dwattr $C$DW$774, DW_AT_data_member_location[DW_OP_plus_uconst 0x0]
    7288                      .dwattr $C$DW$774, DW_AT_accessibility(DW_ACCESS_public)
    7289              $C$DW$775       .dwtag  DW_TAG_member
    7290                      .dwattr $C$DW$775, DW_AT_type(*$C$DW$T$19)
    7291                      .dwattr $C$DW$775, DW_AT_name("INTx4")
    7292                      .dwattr $C$DW$775, DW_AT_TI_symbol_name("_INTx4")
    7293                      .dwattr $C$DW$775, DW_AT_bit_offset(0x0c), DW_AT_bit_size(0x01)
    7294                      .dwattr $C$DW$775, DW_AT_data_member_location[DW_OP_plus_uconst 0x0]
    7295                      .dwattr $C$DW$775, DW_AT_accessibility(DW_ACCESS_public)
    7296              $C$DW$776       .dwtag  DW_TAG_member
    7297                      .dwattr $C$DW$776, DW_AT_type(*$C$DW$T$19)
TMS320C2000 Assembler PC v6.1.3 Thu Jan 30 10:26:14 2014

Tools Copyright (c) 1996-2012 Texas Instruments Incorporated
C:\Users\a0272466\AppData\Local\Temp\0274010                         PAGE  139

    7298                      .dwattr $C$DW$776, DW_AT_name("INTx5")
    7299                      .dwattr $C$DW$776, DW_AT_TI_symbol_name("_INTx5")
    7300                      .dwattr $C$DW$776, DW_AT_bit_offset(0x0b), DW_AT_bit_size(0x01)
    7301                      .dwattr $C$DW$776, DW_AT_data_member_location[DW_OP_plus_uconst 0x0]
    7302                      .dwattr $C$DW$776, DW_AT_accessibility(DW_ACCESS_public)
    7303              $C$DW$777       .dwtag  DW_TAG_member
    7304                      .dwattr $C$DW$777, DW_AT_type(*$C$DW$T$19)
    7305                      .dwattr $C$DW$777, DW_AT_name("INTx6")
    7306                      .dwattr $C$DW$777, DW_AT_TI_symbol_name("_INTx6")
    7307                      .dwattr $C$DW$777, DW_AT_bit_offset(0x0a), DW_AT_bit_size(0x01)
    7308                      .dwattr $C$DW$777, DW_AT_data_member_location[DW_OP_plus_uconst 0x0]
    7309                      .dwattr $C$DW$777, DW_AT_accessibility(DW_ACCESS_public)
    7310              $C$DW$778       .dwtag  DW_TAG_member
    7311                      .dwattr $C$DW$778, DW_AT_type(*$C$DW$T$19)
    7312                      .dwattr $C$DW$778, DW_AT_name("INTx7")
    7313                      .dwattr $C$DW$778, DW_AT_TI_symbol_name("_INTx7")
    7314                      .dwattr $C$DW$778, DW_AT_bit_offset(0x09), DW_AT_bit_size(0x01)
    7315                      .dwattr $C$DW$778, DW_AT_data_member_location[DW_OP_plus_uconst 0x0]
    7316                      .dwattr $C$DW$778, DW_AT_accessibility(DW_ACCESS_public)
    7317              $C$DW$779       .dwtag  DW_TAG_member
    7318                      .dwattr $C$DW$779, DW_AT_type(*$C$DW$T$19)
    7319                      .dwattr $C$DW$779, DW_AT_name("INTx8")
    7320                      .dwattr $C$DW$779, DW_AT_TI_symbol_name("_INTx8")
    7321                      .dwattr $C$DW$779, DW_AT_bit_offset(0x08), DW_AT_bit_size(0x01)
    7322                      .dwattr $C$DW$779, DW_AT_data_member_location[DW_OP_plus_uconst 0x0]
    7323                      .dwattr $C$DW$779, DW_AT_accessibility(DW_ACCESS_public)
    7324              $C$DW$780       .dwtag  DW_TAG_member
    7325                      .dwattr $C$DW$780, DW_AT_type(*$C$DW$T$19)
    7326                      .dwattr $C$DW$780, DW_AT_name("INTx9")
    7327                      .dwattr $C$DW$780, DW_AT_TI_symbol_name("_INTx9")
    7328                      .dwattr $C$DW$780, DW_AT_bit_offset(0x07), DW_AT_bit_size(0x01)
    7329                      .dwattr $C$DW$780, DW_AT_data_member_location[DW_OP_plus_uconst 0x0]
    7330                      .dwattr $C$DW$780, DW_AT_accessibility(DW_ACCESS_public)
    7331              $C$DW$781       .dwtag  DW_TAG_member
    7332                      .dwattr $C$DW$781, DW_AT_type(*$C$DW$T$19)
    7333                      .dwattr $C$DW$781, DW_AT_name("INTx10")
    7334                      .dwattr $C$DW$781, DW_AT_TI_symbol_name("_INTx10")
    7335                      .dwattr $C$DW$781, DW_AT_bit_offset(0x06), DW_AT_bit_size(0x01)
    7336                      .dwattr $C$DW$781, DW_AT_data_member_location[DW_OP_plus_uconst 0x0]
    7337                      .dwattr $C$DW$781, DW_AT_accessibility(DW_ACCESS_public)
    7338              $C$DW$782       .dwtag  DW_TAG_member
    7339                      .dwattr $C$DW$782, DW_AT_type(*$C$DW$T$19)
    7340                      .dwattr $C$DW$782, DW_AT_name("INTx11")
    7341                      .dwattr $C$DW$782, DW_AT_TI_symbol_name("_INTx11")
    7342                      .dwattr $C$DW$782, DW_AT_bit_offset(0x05), DW_AT_bit_size(0x01)
    7343                      .dwattr $C$DW$782, DW_AT_data_member_location[DW_OP_plus_uconst 0x0]
    7344                      .dwattr $C$DW$782, DW_AT_accessibility(DW_ACCESS_public)
    7345              $C$DW$783       .dwtag  DW_TAG_member
    7346                      .dwattr $C$DW$783, DW_AT_type(*$C$DW$T$19)
    7347                      .dwattr $C$DW$783, DW_AT_name("INTx12")
    7348                      .dwattr $C$DW$783, DW_AT_TI_symbol_name("_INTx12")
    7349                      .dwattr $C$DW$783, DW_AT_bit_offset(0x04), DW_AT_bit_size(0x01)
    7350                      .dwattr $C$DW$783, DW_AT_data_member_location[DW_OP_plus_uconst 0x0]
    7351                      .dwattr $C$DW$783, DW_AT_accessibility(DW_ACCESS_public)
    7352              $C$DW$784       .dwtag  DW_TAG_member
TMS320C2000 Assembler PC v6.1.3 Thu Jan 30 10:26:14 2014

Tools Copyright (c) 1996-2012 Texas Instruments Incorporated
C:\Users\a0272466\AppData\Local\Temp\0274010                         PAGE  140

    7353                      .dwattr $C$DW$784, DW_AT_type(*$C$DW$T$19)
    7354                      .dwattr $C$DW$784, DW_AT_name("INTx13")
    7355                      .dwattr $C$DW$784, DW_AT_TI_symbol_name("_INTx13")
    7356                      .dwattr $C$DW$784, DW_AT_bit_offset(0x03), DW_AT_bit_size(0x01)
    7357                      .dwattr $C$DW$784, DW_AT_data_member_location[DW_OP_plus_uconst 0x0]
    7358                      .dwattr $C$DW$784, DW_AT_accessibility(DW_ACCESS_public)
    7359              $C$DW$785       .dwtag  DW_TAG_member
    7360                      .dwattr $C$DW$785, DW_AT_type(*$C$DW$T$19)
    7361                      .dwattr $C$DW$785, DW_AT_name("INTx14")
    7362                      .dwattr $C$DW$785, DW_AT_TI_symbol_name("_INTx14")
    7363                      .dwattr $C$DW$785, DW_AT_bit_offset(0x02), DW_AT_bit_size(0x01)
    7364                      .dwattr $C$DW$785, DW_AT_data_member_location[DW_OP_plus_uconst 0x0]
    7365                      .dwattr $C$DW$785, DW_AT_accessibility(DW_ACCESS_public)
    7366              $C$DW$786       .dwtag  DW_TAG_member
    7367                      .dwattr $C$DW$786, DW_AT_type(*$C$DW$T$19)
    7368                      .dwattr $C$DW$786, DW_AT_name("INTx15")
    7369                      .dwattr $C$DW$786, DW_AT_TI_symbol_name("_INTx15")
    7370                      .dwattr $C$DW$786, DW_AT_bit_offset(0x01), DW_AT_bit_size(0x01)
    7371                      .dwattr $C$DW$786, DW_AT_data_member_location[DW_OP_plus_uconst 0x0]
    7372                      .dwattr $C$DW$786, DW_AT_accessibility(DW_ACCESS_public)
    7373              $C$DW$787       .dwtag  DW_TAG_member
    7374                      .dwattr $C$DW$787, DW_AT_type(*$C$DW$T$19)
    7375                      .dwattr $C$DW$787, DW_AT_name("INTx16")
    7376                      .dwattr $C$DW$787, DW_AT_TI_symbol_name("_INTx16")
    7377                      .dwattr $C$DW$787, DW_AT_bit_offset(0x00), DW_AT_bit_size(0x01)
    7378                      .dwattr $C$DW$787, DW_AT_data_member_location[DW_OP_plus_uconst 0x0]
    7379                      .dwattr $C$DW$787, DW_AT_accessibility(DW_ACCESS_public)
    7380                      .dwendtag $C$DW$T$106
    7381              
    7382              
    7383              $C$DW$T$107     .dwtag  DW_TAG_union_type
    7384                      .dwattr $C$DW$T$107, DW_AT_name("PIEIER3_REG")
    7385                      .dwattr $C$DW$T$107, DW_AT_byte_size(0x01)
    7386              $C$DW$788       .dwtag  DW_TAG_member
    7387                      .dwattr $C$DW$788, DW_AT_type(*$C$DW$T$19)
    7388                      .dwattr $C$DW$788, DW_AT_name("all")
    7389                      .dwattr $C$DW$788, DW_AT_TI_symbol_name("_all")
    7390                      .dwattr $C$DW$788, DW_AT_data_member_location[DW_OP_plus_uconst 0x0]
    7391                      .dwattr $C$DW$788, DW_AT_accessibility(DW_ACCESS_public)
    7392              $C$DW$789       .dwtag  DW_TAG_member
    7393                      .dwattr $C$DW$789, DW_AT_type(*$C$DW$T$106)
    7394                      .dwattr $C$DW$789, DW_AT_name("bit")
    7395                      .dwattr $C$DW$789, DW_AT_TI_symbol_name("_bit")
    7396                      .dwattr $C$DW$789, DW_AT_data_member_location[DW_OP_plus_uconst 0x0]
    7397                      .dwattr $C$DW$789, DW_AT_accessibility(DW_ACCESS_public)
    7398                      .dwendtag $C$DW$T$107
    7399              
    7400              
    7401              $C$DW$T$108     .dwtag  DW_TAG_structure_type
    7402                      .dwattr $C$DW$T$108, DW_AT_name("PIEIER4_BITS")
    7403                      .dwattr $C$DW$T$108, DW_AT_byte_size(0x01)
    7404              $C$DW$790       .dwtag  DW_TAG_member
    7405                      .dwattr $C$DW$790, DW_AT_type(*$C$DW$T$19)
    7406                      .dwattr $C$DW$790, DW_AT_name("INTx1")
    7407                      .dwattr $C$DW$790, DW_AT_TI_symbol_name("_INTx1")
TMS320C2000 Assembler PC v6.1.3 Thu Jan 30 10:26:14 2014

Tools Copyright (c) 1996-2012 Texas Instruments Incorporated
C:\Users\a0272466\AppData\Local\Temp\0274010                         PAGE  141

    7408                      .dwattr $C$DW$790, DW_AT_bit_offset(0x0f), DW_AT_bit_size(0x01)
    7409                      .dwattr $C$DW$790, DW_AT_data_member_location[DW_OP_plus_uconst 0x0]
    7410                      .dwattr $C$DW$790, DW_AT_accessibility(DW_ACCESS_public)
    7411              $C$DW$791       .dwtag  DW_TAG_member
    7412                      .dwattr $C$DW$791, DW_AT_type(*$C$DW$T$19)
    7413                      .dwattr $C$DW$791, DW_AT_name("INTx2")
    7414                      .dwattr $C$DW$791, DW_AT_TI_symbol_name("_INTx2")
    7415                      .dwattr $C$DW$791, DW_AT_bit_offset(0x0e), DW_AT_bit_size(0x01)
    7416                      .dwattr $C$DW$791, DW_AT_data_member_location[DW_OP_plus_uconst 0x0]
    7417                      .dwattr $C$DW$791, DW_AT_accessibility(DW_ACCESS_public)
    7418              $C$DW$792       .dwtag  DW_TAG_member
    7419                      .dwattr $C$DW$792, DW_AT_type(*$C$DW$T$19)
    7420                      .dwattr $C$DW$792, DW_AT_name("INTx3")
    7421                      .dwattr $C$DW$792, DW_AT_TI_symbol_name("_INTx3")
    7422                      .dwattr $C$DW$792, DW_AT_bit_offset(0x0d), DW_AT_bit_size(0x01)
    7423                      .dwattr $C$DW$792, DW_AT_data_member_location[DW_OP_plus_uconst 0x0]
    7424                      .dwattr $C$DW$792, DW_AT_accessibility(DW_ACCESS_public)
    7425              $C$DW$793       .dwtag  DW_TAG_member
    7426                      .dwattr $C$DW$793, DW_AT_type(*$C$DW$T$19)
    7427                      .dwattr $C$DW$793, DW_AT_name("INTx4")
    7428                      .dwattr $C$DW$793, DW_AT_TI_symbol_name("_INTx4")
    7429                      .dwattr $C$DW$793, DW_AT_bit_offset(0x0c), DW_AT_bit_size(0x01)
    7430                      .dwattr $C$DW$793, DW_AT_data_member_location[DW_OP_plus_uconst 0x0]
    7431                      .dwattr $C$DW$793, DW_AT_accessibility(DW_ACCESS_public)
    7432              $C$DW$794       .dwtag  DW_TAG_member
    7433                      .dwattr $C$DW$794, DW_AT_type(*$C$DW$T$19)
    7434                      .dwattr $C$DW$794, DW_AT_name("INTx5")
    7435                      .dwattr $C$DW$794, DW_AT_TI_symbol_name("_INTx5")
    7436                      .dwattr $C$DW$794, DW_AT_bit_offset(0x0b), DW_AT_bit_size(0x01)
    7437                      .dwattr $C$DW$794, DW_AT_data_member_location[DW_OP_plus_uconst 0x0]
    7438                      .dwattr $C$DW$794, DW_AT_accessibility(DW_ACCESS_public)
    7439              $C$DW$795       .dwtag  DW_TAG_member
    7440                      .dwattr $C$DW$795, DW_AT_type(*$C$DW$T$19)
    7441                      .dwattr $C$DW$795, DW_AT_name("INTx6")
    7442                      .dwattr $C$DW$795, DW_AT_TI_symbol_name("_INTx6")
    7443                      .dwattr $C$DW$795, DW_AT_bit_offset(0x0a), DW_AT_bit_size(0x01)
    7444                      .dwattr $C$DW$795, DW_AT_data_member_location[DW_OP_plus_uconst 0x0]
    7445                      .dwattr $C$DW$795, DW_AT_accessibility(DW_ACCESS_public)
    7446              $C$DW$796       .dwtag  DW_TAG_member
    7447                      .dwattr $C$DW$796, DW_AT_type(*$C$DW$T$19)
    7448                      .dwattr $C$DW$796, DW_AT_name("INTx7")
    7449                      .dwattr $C$DW$796, DW_AT_TI_symbol_name("_INTx7")
    7450                      .dwattr $C$DW$796, DW_AT_bit_offset(0x09), DW_AT_bit_size(0x01)
    7451                      .dwattr $C$DW$796, DW_AT_data_member_location[DW_OP_plus_uconst 0x0]
    7452                      .dwattr $C$DW$796, DW_AT_accessibility(DW_ACCESS_public)
    7453              $C$DW$797       .dwtag  DW_TAG_member
    7454                      .dwattr $C$DW$797, DW_AT_type(*$C$DW$T$19)
    7455                      .dwattr $C$DW$797, DW_AT_name("INTx8")
    7456                      .dwattr $C$DW$797, DW_AT_TI_symbol_name("_INTx8")
    7457                      .dwattr $C$DW$797, DW_AT_bit_offset(0x08), DW_AT_bit_size(0x01)
    7458                      .dwattr $C$DW$797, DW_AT_data_member_location[DW_OP_plus_uconst 0x0]
    7459                      .dwattr $C$DW$797, DW_AT_accessibility(DW_ACCESS_public)
    7460              $C$DW$798       .dwtag  DW_TAG_member
    7461                      .dwattr $C$DW$798, DW_AT_type(*$C$DW$T$19)
    7462                      .dwattr $C$DW$798, DW_AT_name("INTx9")
TMS320C2000 Assembler PC v6.1.3 Thu Jan 30 10:26:14 2014

Tools Copyright (c) 1996-2012 Texas Instruments Incorporated
C:\Users\a0272466\AppData\Local\Temp\0274010                         PAGE  142

    7463                      .dwattr $C$DW$798, DW_AT_TI_symbol_name("_INTx9")
    7464                      .dwattr $C$DW$798, DW_AT_bit_offset(0x07), DW_AT_bit_size(0x01)
    7465                      .dwattr $C$DW$798, DW_AT_data_member_location[DW_OP_plus_uconst 0x0]
    7466                      .dwattr $C$DW$798, DW_AT_accessibility(DW_ACCESS_public)
    7467              $C$DW$799       .dwtag  DW_TAG_member
    7468                      .dwattr $C$DW$799, DW_AT_type(*$C$DW$T$19)
    7469                      .dwattr $C$DW$799, DW_AT_name("INTx10")
    7470                      .dwattr $C$DW$799, DW_AT_TI_symbol_name("_INTx10")
    7471                      .dwattr $C$DW$799, DW_AT_bit_offset(0x06), DW_AT_bit_size(0x01)
    7472                      .dwattr $C$DW$799, DW_AT_data_member_location[DW_OP_plus_uconst 0x0]
    7473                      .dwattr $C$DW$799, DW_AT_accessibility(DW_ACCESS_public)
    7474              $C$DW$800       .dwtag  DW_TAG_member
    7475                      .dwattr $C$DW$800, DW_AT_type(*$C$DW$T$19)
    7476                      .dwattr $C$DW$800, DW_AT_name("INTx11")
    7477                      .dwattr $C$DW$800, DW_AT_TI_symbol_name("_INTx11")
    7478                      .dwattr $C$DW$800, DW_AT_bit_offset(0x05), DW_AT_bit_size(0x01)
    7479                      .dwattr $C$DW$800, DW_AT_data_member_location[DW_OP_plus_uconst 0x0]
    7480                      .dwattr $C$DW$800, DW_AT_accessibility(DW_ACCESS_public)
    7481              $C$DW$801       .dwtag  DW_TAG_member
    7482                      .dwattr $C$DW$801, DW_AT_type(*$C$DW$T$19)
    7483                      .dwattr $C$DW$801, DW_AT_name("INTx12")
    7484                      .dwattr $C$DW$801, DW_AT_TI_symbol_name("_INTx12")
    7485                      .dwattr $C$DW$801, DW_AT_bit_offset(0x04), DW_AT_bit_size(0x01)
    7486                      .dwattr $C$DW$801, DW_AT_data_member_location[DW_OP_plus_uconst 0x0]
    7487                      .dwattr $C$DW$801, DW_AT_accessibility(DW_ACCESS_public)
    7488              $C$DW$802       .dwtag  DW_TAG_member
    7489                      .dwattr $C$DW$802, DW_AT_type(*$C$DW$T$19)
    7490                      .dwattr $C$DW$802, DW_AT_name("INTx13")
    7491                      .dwattr $C$DW$802, DW_AT_TI_symbol_name("_INTx13")
    7492                      .dwattr $C$DW$802, DW_AT_bit_offset(0x03), DW_AT_bit_size(0x01)
    7493                      .dwattr $C$DW$802, DW_AT_data_member_location[DW_OP_plus_uconst 0x0]
    7494                      .dwattr $C$DW$802, DW_AT_accessibility(DW_ACCESS_public)
    7495              $C$DW$803       .dwtag  DW_TAG_member
    7496                      .dwattr $C$DW$803, DW_AT_type(*$C$DW$T$19)
    7497                      .dwattr $C$DW$803, DW_AT_name("INTx14")
    7498                      .dwattr $C$DW$803, DW_AT_TI_symbol_name("_INTx14")
    7499                      .dwattr $C$DW$803, DW_AT_bit_offset(0x02), DW_AT_bit_size(0x01)
    7500                      .dwattr $C$DW$803, DW_AT_data_member_location[DW_OP_plus_uconst 0x0]
    7501                      .dwattr $C$DW$803, DW_AT_accessibility(DW_ACCESS_public)
    7502              $C$DW$804       .dwtag  DW_TAG_member
    7503                      .dwattr $C$DW$804, DW_AT_type(*$C$DW$T$19)
    7504                      .dwattr $C$DW$804, DW_AT_name("INTx15")
    7505                      .dwattr $C$DW$804, DW_AT_TI_symbol_name("_INTx15")
    7506                      .dwattr $C$DW$804, DW_AT_bit_offset(0x01), DW_AT_bit_size(0x01)
    7507                      .dwattr $C$DW$804, DW_AT_data_member_location[DW_OP_plus_uconst 0x0]
    7508                      .dwattr $C$DW$804, DW_AT_accessibility(DW_ACCESS_public)
    7509              $C$DW$805       .dwtag  DW_TAG_member
    7510                      .dwattr $C$DW$805, DW_AT_type(*$C$DW$T$19)
    7511                      .dwattr $C$DW$805, DW_AT_name("INTx16")
    7512                      .dwattr $C$DW$805, DW_AT_TI_symbol_name("_INTx16")
    7513                      .dwattr $C$DW$805, DW_AT_bit_offset(0x00), DW_AT_bit_size(0x01)
    7514                      .dwattr $C$DW$805, DW_AT_data_member_location[DW_OP_plus_uconst 0x0]
    7515                      .dwattr $C$DW$805, DW_AT_accessibility(DW_ACCESS_public)
    7516                      .dwendtag $C$DW$T$108
    7517              
TMS320C2000 Assembler PC v6.1.3 Thu Jan 30 10:26:14 2014

Tools Copyright (c) 1996-2012 Texas Instruments Incorporated
C:\Users\a0272466\AppData\Local\Temp\0274010                         PAGE  143

    7518              
    7519              $C$DW$T$109     .dwtag  DW_TAG_union_type
    7520                      .dwattr $C$DW$T$109, DW_AT_name("PIEIER4_REG")
    7521                      .dwattr $C$DW$T$109, DW_AT_byte_size(0x01)
    7522              $C$DW$806       .dwtag  DW_TAG_member
    7523                      .dwattr $C$DW$806, DW_AT_type(*$C$DW$T$19)
    7524                      .dwattr $C$DW$806, DW_AT_name("all")
    7525                      .dwattr $C$DW$806, DW_AT_TI_symbol_name("_all")
    7526                      .dwattr $C$DW$806, DW_AT_data_member_location[DW_OP_plus_uconst 0x0]
    7527                      .dwattr $C$DW$806, DW_AT_accessibility(DW_ACCESS_public)
    7528              $C$DW$807       .dwtag  DW_TAG_member
    7529                      .dwattr $C$DW$807, DW_AT_type(*$C$DW$T$108)
    7530                      .dwattr $C$DW$807, DW_AT_name("bit")
    7531                      .dwattr $C$DW$807, DW_AT_TI_symbol_name("_bit")
    7532                      .dwattr $C$DW$807, DW_AT_data_member_location[DW_OP_plus_uconst 0x0]
    7533                      .dwattr $C$DW$807, DW_AT_accessibility(DW_ACCESS_public)
    7534                      .dwendtag $C$DW$T$109
    7535              
    7536              
    7537              $C$DW$T$110     .dwtag  DW_TAG_structure_type
    7538                      .dwattr $C$DW$T$110, DW_AT_name("PIEIER5_BITS")
    7539                      .dwattr $C$DW$T$110, DW_AT_byte_size(0x01)
    7540              $C$DW$808       .dwtag  DW_TAG_member
    7541                      .dwattr $C$DW$808, DW_AT_type(*$C$DW$T$19)
    7542                      .dwattr $C$DW$808, DW_AT_name("INTx1")
    7543                      .dwattr $C$DW$808, DW_AT_TI_symbol_name("_INTx1")
    7544                      .dwattr $C$DW$808, DW_AT_bit_offset(0x0f), DW_AT_bit_size(0x01)
    7545                      .dwattr $C$DW$808, DW_AT_data_member_location[DW_OP_plus_uconst 0x0]
    7546                      .dwattr $C$DW$808, DW_AT_accessibility(DW_ACCESS_public)
    7547              $C$DW$809       .dwtag  DW_TAG_member
    7548                      .dwattr $C$DW$809, DW_AT_type(*$C$DW$T$19)
    7549                      .dwattr $C$DW$809, DW_AT_name("INTx2")
    7550                      .dwattr $C$DW$809, DW_AT_TI_symbol_name("_INTx2")
    7551                      .dwattr $C$DW$809, DW_AT_bit_offset(0x0e), DW_AT_bit_size(0x01)
    7552                      .dwattr $C$DW$809, DW_AT_data_member_location[DW_OP_plus_uconst 0x0]
    7553                      .dwattr $C$DW$809, DW_AT_accessibility(DW_ACCESS_public)
    7554              $C$DW$810       .dwtag  DW_TAG_member
    7555                      .dwattr $C$DW$810, DW_AT_type(*$C$DW$T$19)
    7556                      .dwattr $C$DW$810, DW_AT_name("INTx3")
    7557                      .dwattr $C$DW$810, DW_AT_TI_symbol_name("_INTx3")
    7558                      .dwattr $C$DW$810, DW_AT_bit_offset(0x0d), DW_AT_bit_size(0x01)
    7559                      .dwattr $C$DW$810, DW_AT_data_member_location[DW_OP_plus_uconst 0x0]
    7560                      .dwattr $C$DW$810, DW_AT_accessibility(DW_ACCESS_public)
    7561              $C$DW$811       .dwtag  DW_TAG_member
    7562                      .dwattr $C$DW$811, DW_AT_type(*$C$DW$T$19)
    7563                      .dwattr $C$DW$811, DW_AT_name("INTx4")
    7564                      .dwattr $C$DW$811, DW_AT_TI_symbol_name("_INTx4")
    7565                      .dwattr $C$DW$811, DW_AT_bit_offset(0x0c), DW_AT_bit_size(0x01)
    7566                      .dwattr $C$DW$811, DW_AT_data_member_location[DW_OP_plus_uconst 0x0]
    7567                      .dwattr $C$DW$811, DW_AT_accessibility(DW_ACCESS_public)
    7568              $C$DW$812       .dwtag  DW_TAG_member
    7569                      .dwattr $C$DW$812, DW_AT_type(*$C$DW$T$19)
    7570                      .dwattr $C$DW$812, DW_AT_name("INTx5")
    7571                      .dwattr $C$DW$812, DW_AT_TI_symbol_name("_INTx5")
    7572                      .dwattr $C$DW$812, DW_AT_bit_offset(0x0b), DW_AT_bit_size(0x01)
TMS320C2000 Assembler PC v6.1.3 Thu Jan 30 10:26:14 2014

Tools Copyright (c) 1996-2012 Texas Instruments Incorporated
C:\Users\a0272466\AppData\Local\Temp\0274010                         PAGE  144

    7573                      .dwattr $C$DW$812, DW_AT_data_member_location[DW_OP_plus_uconst 0x0]
    7574                      .dwattr $C$DW$812, DW_AT_accessibility(DW_ACCESS_public)
    7575              $C$DW$813       .dwtag  DW_TAG_member
    7576                      .dwattr $C$DW$813, DW_AT_type(*$C$DW$T$19)
    7577                      .dwattr $C$DW$813, DW_AT_name("INTx6")
    7578                      .dwattr $C$DW$813, DW_AT_TI_symbol_name("_INTx6")
    7579                      .dwattr $C$DW$813, DW_AT_bit_offset(0x0a), DW_AT_bit_size(0x01)
    7580                      .dwattr $C$DW$813, DW_AT_data_member_location[DW_OP_plus_uconst 0x0]
    7581                      .dwattr $C$DW$813, DW_AT_accessibility(DW_ACCESS_public)
    7582              $C$DW$814       .dwtag  DW_TAG_member
    7583                      .dwattr $C$DW$814, DW_AT_type(*$C$DW$T$19)
    7584                      .dwattr $C$DW$814, DW_AT_name("INTx7")
    7585                      .dwattr $C$DW$814, DW_AT_TI_symbol_name("_INTx7")
    7586                      .dwattr $C$DW$814, DW_AT_bit_offset(0x09), DW_AT_bit_size(0x01)
    7587                      .dwattr $C$DW$814, DW_AT_data_member_location[DW_OP_plus_uconst 0x0]
    7588                      .dwattr $C$DW$814, DW_AT_accessibility(DW_ACCESS_public)
    7589              $C$DW$815       .dwtag  DW_TAG_member
    7590                      .dwattr $C$DW$815, DW_AT_type(*$C$DW$T$19)
    7591                      .dwattr $C$DW$815, DW_AT_name("INTx8")
    7592                      .dwattr $C$DW$815, DW_AT_TI_symbol_name("_INTx8")
    7593                      .dwattr $C$DW$815, DW_AT_bit_offset(0x08), DW_AT_bit_size(0x01)
    7594                      .dwattr $C$DW$815, DW_AT_data_member_location[DW_OP_plus_uconst 0x0]
    7595                      .dwattr $C$DW$815, DW_AT_accessibility(DW_ACCESS_public)
    7596              $C$DW$816       .dwtag  DW_TAG_member
    7597                      .dwattr $C$DW$816, DW_AT_type(*$C$DW$T$19)
    7598                      .dwattr $C$DW$816, DW_AT_name("INTx9")
    7599                      .dwattr $C$DW$816, DW_AT_TI_symbol_name("_INTx9")
    7600                      .dwattr $C$DW$816, DW_AT_bit_offset(0x07), DW_AT_bit_size(0x01)
    7601                      .dwattr $C$DW$816, DW_AT_data_member_location[DW_OP_plus_uconst 0x0]
    7602                      .dwattr $C$DW$816, DW_AT_accessibility(DW_ACCESS_public)
    7603              $C$DW$817       .dwtag  DW_TAG_member
    7604                      .dwattr $C$DW$817, DW_AT_type(*$C$DW$T$19)
    7605                      .dwattr $C$DW$817, DW_AT_name("INTx10")
    7606                      .dwattr $C$DW$817, DW_AT_TI_symbol_name("_INTx10")
    7607                      .dwattr $C$DW$817, DW_AT_bit_offset(0x06), DW_AT_bit_size(0x01)
    7608                      .dwattr $C$DW$817, DW_AT_data_member_location[DW_OP_plus_uconst 0x0]
    7609                      .dwattr $C$DW$817, DW_AT_accessibility(DW_ACCESS_public)
    7610              $C$DW$818       .dwtag  DW_TAG_member
    7611                      .dwattr $C$DW$818, DW_AT_type(*$C$DW$T$19)
    7612                      .dwattr $C$DW$818, DW_AT_name("INTx11")
    7613                      .dwattr $C$DW$818, DW_AT_TI_symbol_name("_INTx11")
    7614                      .dwattr $C$DW$818, DW_AT_bit_offset(0x05), DW_AT_bit_size(0x01)
    7615                      .dwattr $C$DW$818, DW_AT_data_member_location[DW_OP_plus_uconst 0x0]
    7616                      .dwattr $C$DW$818, DW_AT_accessibility(DW_ACCESS_public)
    7617              $C$DW$819       .dwtag  DW_TAG_member
    7618                      .dwattr $C$DW$819, DW_AT_type(*$C$DW$T$19)
    7619                      .dwattr $C$DW$819, DW_AT_name("INTx12")
    7620                      .dwattr $C$DW$819, DW_AT_TI_symbol_name("_INTx12")
    7621                      .dwattr $C$DW$819, DW_AT_bit_offset(0x04), DW_AT_bit_size(0x01)
    7622                      .dwattr $C$DW$819, DW_AT_data_member_location[DW_OP_plus_uconst 0x0]
    7623                      .dwattr $C$DW$819, DW_AT_accessibility(DW_ACCESS_public)
    7624              $C$DW$820       .dwtag  DW_TAG_member
    7625                      .dwattr $C$DW$820, DW_AT_type(*$C$DW$T$19)
    7626                      .dwattr $C$DW$820, DW_AT_name("INTx13")
    7627                      .dwattr $C$DW$820, DW_AT_TI_symbol_name("_INTx13")
TMS320C2000 Assembler PC v6.1.3 Thu Jan 30 10:26:14 2014

Tools Copyright (c) 1996-2012 Texas Instruments Incorporated
C:\Users\a0272466\AppData\Local\Temp\0274010                         PAGE  145

    7628                      .dwattr $C$DW$820, DW_AT_bit_offset(0x03), DW_AT_bit_size(0x01)
    7629                      .dwattr $C$DW$820, DW_AT_data_member_location[DW_OP_plus_uconst 0x0]
    7630                      .dwattr $C$DW$820, DW_AT_accessibility(DW_ACCESS_public)
    7631              $C$DW$821       .dwtag  DW_TAG_member
    7632                      .dwattr $C$DW$821, DW_AT_type(*$C$DW$T$19)
    7633                      .dwattr $C$DW$821, DW_AT_name("INTx14")
    7634                      .dwattr $C$DW$821, DW_AT_TI_symbol_name("_INTx14")
    7635                      .dwattr $C$DW$821, DW_AT_bit_offset(0x02), DW_AT_bit_size(0x01)
    7636                      .dwattr $C$DW$821, DW_AT_data_member_location[DW_OP_plus_uconst 0x0]
    7637                      .dwattr $C$DW$821, DW_AT_accessibility(DW_ACCESS_public)
    7638              $C$DW$822       .dwtag  DW_TAG_member
    7639                      .dwattr $C$DW$822, DW_AT_type(*$C$DW$T$19)
    7640                      .dwattr $C$DW$822, DW_AT_name("INTx15")
    7641                      .dwattr $C$DW$822, DW_AT_TI_symbol_name("_INTx15")
    7642                      .dwattr $C$DW$822, DW_AT_bit_offset(0x01), DW_AT_bit_size(0x01)
    7643                      .dwattr $C$DW$822, DW_AT_data_member_location[DW_OP_plus_uconst 0x0]
    7644                      .dwattr $C$DW$822, DW_AT_accessibility(DW_ACCESS_public)
    7645              $C$DW$823       .dwtag  DW_TAG_member
    7646                      .dwattr $C$DW$823, DW_AT_type(*$C$DW$T$19)
    7647                      .dwattr $C$DW$823, DW_AT_name("INTx16")
    7648                      .dwattr $C$DW$823, DW_AT_TI_symbol_name("_INTx16")
    7649                      .dwattr $C$DW$823, DW_AT_bit_offset(0x00), DW_AT_bit_size(0x01)
    7650                      .dwattr $C$DW$823, DW_AT_data_member_location[DW_OP_plus_uconst 0x0]
    7651                      .dwattr $C$DW$823, DW_AT_accessibility(DW_ACCESS_public)
    7652                      .dwendtag $C$DW$T$110
    7653              
    7654              
    7655              $C$DW$T$111     .dwtag  DW_TAG_union_type
    7656                      .dwattr $C$DW$T$111, DW_AT_name("PIEIER5_REG")
    7657                      .dwattr $C$DW$T$111, DW_AT_byte_size(0x01)
    7658              $C$DW$824       .dwtag  DW_TAG_member
    7659                      .dwattr $C$DW$824, DW_AT_type(*$C$DW$T$19)
    7660                      .dwattr $C$DW$824, DW_AT_name("all")
    7661                      .dwattr $C$DW$824, DW_AT_TI_symbol_name("_all")
    7662                      .dwattr $C$DW$824, DW_AT_data_member_location[DW_OP_plus_uconst 0x0]
    7663                      .dwattr $C$DW$824, DW_AT_accessibility(DW_ACCESS_public)
    7664              $C$DW$825       .dwtag  DW_TAG_member
    7665                      .dwattr $C$DW$825, DW_AT_type(*$C$DW$T$110)
    7666                      .dwattr $C$DW$825, DW_AT_name("bit")
    7667                      .dwattr $C$DW$825, DW_AT_TI_symbol_name("_bit")
    7668                      .dwattr $C$DW$825, DW_AT_data_member_location[DW_OP_plus_uconst 0x0]
    7669                      .dwattr $C$DW$825, DW_AT_accessibility(DW_ACCESS_public)
    7670                      .dwendtag $C$DW$T$111
    7671              
    7672              
    7673              $C$DW$T$112     .dwtag  DW_TAG_structure_type
    7674                      .dwattr $C$DW$T$112, DW_AT_name("PIEIER6_BITS")
    7675                      .dwattr $C$DW$T$112, DW_AT_byte_size(0x01)
    7676              $C$DW$826       .dwtag  DW_TAG_member
    7677                      .dwattr $C$DW$826, DW_AT_type(*$C$DW$T$19)
    7678                      .dwattr $C$DW$826, DW_AT_name("INTx1")
    7679                      .dwattr $C$DW$826, DW_AT_TI_symbol_name("_INTx1")
    7680                      .dwattr $C$DW$826, DW_AT_bit_offset(0x0f), DW_AT_bit_size(0x01)
    7681                      .dwattr $C$DW$826, DW_AT_data_member_location[DW_OP_plus_uconst 0x0]
    7682                      .dwattr $C$DW$826, DW_AT_accessibility(DW_ACCESS_public)
TMS320C2000 Assembler PC v6.1.3 Thu Jan 30 10:26:14 2014

Tools Copyright (c) 1996-2012 Texas Instruments Incorporated
C:\Users\a0272466\AppData\Local\Temp\0274010                         PAGE  146

    7683              $C$DW$827       .dwtag  DW_TAG_member
    7684                      .dwattr $C$DW$827, DW_AT_type(*$C$DW$T$19)
    7685                      .dwattr $C$DW$827, DW_AT_name("INTx2")
    7686                      .dwattr $C$DW$827, DW_AT_TI_symbol_name("_INTx2")
    7687                      .dwattr $C$DW$827, DW_AT_bit_offset(0x0e), DW_AT_bit_size(0x01)
    7688                      .dwattr $C$DW$827, DW_AT_data_member_location[DW_OP_plus_uconst 0x0]
    7689                      .dwattr $C$DW$827, DW_AT_accessibility(DW_ACCESS_public)
    7690              $C$DW$828       .dwtag  DW_TAG_member
    7691                      .dwattr $C$DW$828, DW_AT_type(*$C$DW$T$19)
    7692                      .dwattr $C$DW$828, DW_AT_name("INTx3")
    7693                      .dwattr $C$DW$828, DW_AT_TI_symbol_name("_INTx3")
    7694                      .dwattr $C$DW$828, DW_AT_bit_offset(0x0d), DW_AT_bit_size(0x01)
    7695                      .dwattr $C$DW$828, DW_AT_data_member_location[DW_OP_plus_uconst 0x0]
    7696                      .dwattr $C$DW$828, DW_AT_accessibility(DW_ACCESS_public)
    7697              $C$DW$829       .dwtag  DW_TAG_member
    7698                      .dwattr $C$DW$829, DW_AT_type(*$C$DW$T$19)
    7699                      .dwattr $C$DW$829, DW_AT_name("INTx4")
    7700                      .dwattr $C$DW$829, DW_AT_TI_symbol_name("_INTx4")
    7701                      .dwattr $C$DW$829, DW_AT_bit_offset(0x0c), DW_AT_bit_size(0x01)
    7702                      .dwattr $C$DW$829, DW_AT_data_member_location[DW_OP_plus_uconst 0x0]
    7703                      .dwattr $C$DW$829, DW_AT_accessibility(DW_ACCESS_public)
    7704              $C$DW$830       .dwtag  DW_TAG_member
    7705                      .dwattr $C$DW$830, DW_AT_type(*$C$DW$T$19)
    7706                      .dwattr $C$DW$830, DW_AT_name("INTx5")
    7707                      .dwattr $C$DW$830, DW_AT_TI_symbol_name("_INTx5")
    7708                      .dwattr $C$DW$830, DW_AT_bit_offset(0x0b), DW_AT_bit_size(0x01)
    7709                      .dwattr $C$DW$830, DW_AT_data_member_location[DW_OP_plus_uconst 0x0]
    7710                      .dwattr $C$DW$830, DW_AT_accessibility(DW_ACCESS_public)
    7711              $C$DW$831       .dwtag  DW_TAG_member
    7712                      .dwattr $C$DW$831, DW_AT_type(*$C$DW$T$19)
    7713                      .dwattr $C$DW$831, DW_AT_name("INTx6")
    7714                      .dwattr $C$DW$831, DW_AT_TI_symbol_name("_INTx6")
    7715                      .dwattr $C$DW$831, DW_AT_bit_offset(0x0a), DW_AT_bit_size(0x01)
    7716                      .dwattr $C$DW$831, DW_AT_data_member_location[DW_OP_plus_uconst 0x0]
    7717                      .dwattr $C$DW$831, DW_AT_accessibility(DW_ACCESS_public)
    7718              $C$DW$832       .dwtag  DW_TAG_member
    7719                      .dwattr $C$DW$832, DW_AT_type(*$C$DW$T$19)
    7720                      .dwattr $C$DW$832, DW_AT_name("INTx7")
    7721                      .dwattr $C$DW$832, DW_AT_TI_symbol_name("_INTx7")
    7722                      .dwattr $C$DW$832, DW_AT_bit_offset(0x09), DW_AT_bit_size(0x01)
    7723                      .dwattr $C$DW$832, DW_AT_data_member_location[DW_OP_plus_uconst 0x0]
    7724                      .dwattr $C$DW$832, DW_AT_accessibility(DW_ACCESS_public)
    7725              $C$DW$833       .dwtag  DW_TAG_member
    7726                      .dwattr $C$DW$833, DW_AT_type(*$C$DW$T$19)
    7727                      .dwattr $C$DW$833, DW_AT_name("INTx8")
    7728                      .dwattr $C$DW$833, DW_AT_TI_symbol_name("_INTx8")
    7729                      .dwattr $C$DW$833, DW_AT_bit_offset(0x08), DW_AT_bit_size(0x01)
    7730                      .dwattr $C$DW$833, DW_AT_data_member_location[DW_OP_plus_uconst 0x0]
    7731                      .dwattr $C$DW$833, DW_AT_accessibility(DW_ACCESS_public)
    7732              $C$DW$834       .dwtag  DW_TAG_member
    7733                      .dwattr $C$DW$834, DW_AT_type(*$C$DW$T$19)
    7734                      .dwattr $C$DW$834, DW_AT_name("INTx9")
    7735                      .dwattr $C$DW$834, DW_AT_TI_symbol_name("_INTx9")
    7736                      .dwattr $C$DW$834, DW_AT_bit_offset(0x07), DW_AT_bit_size(0x01)
    7737                      .dwattr $C$DW$834, DW_AT_data_member_location[DW_OP_plus_uconst 0x0]
TMS320C2000 Assembler PC v6.1.3 Thu Jan 30 10:26:14 2014

Tools Copyright (c) 1996-2012 Texas Instruments Incorporated
C:\Users\a0272466\AppData\Local\Temp\0274010                         PAGE  147

    7738                      .dwattr $C$DW$834, DW_AT_accessibility(DW_ACCESS_public)
    7739              $C$DW$835       .dwtag  DW_TAG_member
    7740                      .dwattr $C$DW$835, DW_AT_type(*$C$DW$T$19)
    7741                      .dwattr $C$DW$835, DW_AT_name("INTx10")
    7742                      .dwattr $C$DW$835, DW_AT_TI_symbol_name("_INTx10")
    7743                      .dwattr $C$DW$835, DW_AT_bit_offset(0x06), DW_AT_bit_size(0x01)
    7744                      .dwattr $C$DW$835, DW_AT_data_member_location[DW_OP_plus_uconst 0x0]
    7745                      .dwattr $C$DW$835, DW_AT_accessibility(DW_ACCESS_public)
    7746              $C$DW$836       .dwtag  DW_TAG_member
    7747                      .dwattr $C$DW$836, DW_AT_type(*$C$DW$T$19)
    7748                      .dwattr $C$DW$836, DW_AT_name("INTx11")
    7749                      .dwattr $C$DW$836, DW_AT_TI_symbol_name("_INTx11")
    7750                      .dwattr $C$DW$836, DW_AT_bit_offset(0x05), DW_AT_bit_size(0x01)
    7751                      .dwattr $C$DW$836, DW_AT_data_member_location[DW_OP_plus_uconst 0x0]
    7752                      .dwattr $C$DW$836, DW_AT_accessibility(DW_ACCESS_public)
    7753              $C$DW$837       .dwtag  DW_TAG_member
    7754                      .dwattr $C$DW$837, DW_AT_type(*$C$DW$T$19)
    7755                      .dwattr $C$DW$837, DW_AT_name("INTx12")
    7756                      .dwattr $C$DW$837, DW_AT_TI_symbol_name("_INTx12")
    7757                      .dwattr $C$DW$837, DW_AT_bit_offset(0x04), DW_AT_bit_size(0x01)
    7758                      .dwattr $C$DW$837, DW_AT_data_member_location[DW_OP_plus_uconst 0x0]
    7759                      .dwattr $C$DW$837, DW_AT_accessibility(DW_ACCESS_public)
    7760              $C$DW$838       .dwtag  DW_TAG_member
    7761                      .dwattr $C$DW$838, DW_AT_type(*$C$DW$T$19)
    7762                      .dwattr $C$DW$838, DW_AT_name("INTx13")
    7763                      .dwattr $C$DW$838, DW_AT_TI_symbol_name("_INTx13")
    7764                      .dwattr $C$DW$838, DW_AT_bit_offset(0x03), DW_AT_bit_size(0x01)
    7765                      .dwattr $C$DW$838, DW_AT_data_member_location[DW_OP_plus_uconst 0x0]
    7766                      .dwattr $C$DW$838, DW_AT_accessibility(DW_ACCESS_public)
    7767              $C$DW$839       .dwtag  DW_TAG_member
    7768                      .dwattr $C$DW$839, DW_AT_type(*$C$DW$T$19)
    7769                      .dwattr $C$DW$839, DW_AT_name("INTx14")
    7770                      .dwattr $C$DW$839, DW_AT_TI_symbol_name("_INTx14")
    7771                      .dwattr $C$DW$839, DW_AT_bit_offset(0x02), DW_AT_bit_size(0x01)
    7772                      .dwattr $C$DW$839, DW_AT_data_member_location[DW_OP_plus_uconst 0x0]
    7773                      .dwattr $C$DW$839, DW_AT_accessibility(DW_ACCESS_public)
    7774              $C$DW$840       .dwtag  DW_TAG_member
    7775                      .dwattr $C$DW$840, DW_AT_type(*$C$DW$T$19)
    7776                      .dwattr $C$DW$840, DW_AT_name("INTx15")
    7777                      .dwattr $C$DW$840, DW_AT_TI_symbol_name("_INTx15")
    7778                      .dwattr $C$DW$840, DW_AT_bit_offset(0x01), DW_AT_bit_size(0x01)
    7779                      .dwattr $C$DW$840, DW_AT_data_member_location[DW_OP_plus_uconst 0x0]
    7780                      .dwattr $C$DW$840, DW_AT_accessibility(DW_ACCESS_public)
    7781              $C$DW$841       .dwtag  DW_TAG_member
    7782                      .dwattr $C$DW$841, DW_AT_type(*$C$DW$T$19)
    7783                      .dwattr $C$DW$841, DW_AT_name("INTx16")
    7784                      .dwattr $C$DW$841, DW_AT_TI_symbol_name("_INTx16")
    7785                      .dwattr $C$DW$841, DW_AT_bit_offset(0x00), DW_AT_bit_size(0x01)
    7786                      .dwattr $C$DW$841, DW_AT_data_member_location[DW_OP_plus_uconst 0x0]
    7787                      .dwattr $C$DW$841, DW_AT_accessibility(DW_ACCESS_public)
    7788                      .dwendtag $C$DW$T$112
    7789              
    7790              
    7791              $C$DW$T$113     .dwtag  DW_TAG_union_type
    7792                      .dwattr $C$DW$T$113, DW_AT_name("PIEIER6_REG")
TMS320C2000 Assembler PC v6.1.3 Thu Jan 30 10:26:14 2014

Tools Copyright (c) 1996-2012 Texas Instruments Incorporated
C:\Users\a0272466\AppData\Local\Temp\0274010                         PAGE  148

    7793                      .dwattr $C$DW$T$113, DW_AT_byte_size(0x01)
    7794              $C$DW$842       .dwtag  DW_TAG_member
    7795                      .dwattr $C$DW$842, DW_AT_type(*$C$DW$T$19)
    7796                      .dwattr $C$DW$842, DW_AT_name("all")
    7797                      .dwattr $C$DW$842, DW_AT_TI_symbol_name("_all")
    7798                      .dwattr $C$DW$842, DW_AT_data_member_location[DW_OP_plus_uconst 0x0]
    7799                      .dwattr $C$DW$842, DW_AT_accessibility(DW_ACCESS_public)
    7800              $C$DW$843       .dwtag  DW_TAG_member
    7801                      .dwattr $C$DW$843, DW_AT_type(*$C$DW$T$112)
    7802                      .dwattr $C$DW$843, DW_AT_name("bit")
    7803                      .dwattr $C$DW$843, DW_AT_TI_symbol_name("_bit")
    7804                      .dwattr $C$DW$843, DW_AT_data_member_location[DW_OP_plus_uconst 0x0]
    7805                      .dwattr $C$DW$843, DW_AT_accessibility(DW_ACCESS_public)
    7806                      .dwendtag $C$DW$T$113
    7807              
    7808              
    7809              $C$DW$T$114     .dwtag  DW_TAG_structure_type
    7810                      .dwattr $C$DW$T$114, DW_AT_name("PIEIER7_BITS")
    7811                      .dwattr $C$DW$T$114, DW_AT_byte_size(0x01)
    7812              $C$DW$844       .dwtag  DW_TAG_member
    7813                      .dwattr $C$DW$844, DW_AT_type(*$C$DW$T$19)
    7814                      .dwattr $C$DW$844, DW_AT_name("INTx1")
    7815                      .dwattr $C$DW$844, DW_AT_TI_symbol_name("_INTx1")
    7816                      .dwattr $C$DW$844, DW_AT_bit_offset(0x0f), DW_AT_bit_size(0x01)
    7817                      .dwattr $C$DW$844, DW_AT_data_member_location[DW_OP_plus_uconst 0x0]
    7818                      .dwattr $C$DW$844, DW_AT_accessibility(DW_ACCESS_public)
    7819              $C$DW$845       .dwtag  DW_TAG_member
    7820                      .dwattr $C$DW$845, DW_AT_type(*$C$DW$T$19)
    7821                      .dwattr $C$DW$845, DW_AT_name("INTx2")
    7822                      .dwattr $C$DW$845, DW_AT_TI_symbol_name("_INTx2")
    7823                      .dwattr $C$DW$845, DW_AT_bit_offset(0x0e), DW_AT_bit_size(0x01)
    7824                      .dwattr $C$DW$845, DW_AT_data_member_location[DW_OP_plus_uconst 0x0]
    7825                      .dwattr $C$DW$845, DW_AT_accessibility(DW_ACCESS_public)
    7826              $C$DW$846       .dwtag  DW_TAG_member
    7827                      .dwattr $C$DW$846, DW_AT_type(*$C$DW$T$19)
    7828                      .dwattr $C$DW$846, DW_AT_name("INTx3")
    7829                      .dwattr $C$DW$846, DW_AT_TI_symbol_name("_INTx3")
    7830                      .dwattr $C$DW$846, DW_AT_bit_offset(0x0d), DW_AT_bit_size(0x01)
    7831                      .dwattr $C$DW$846, DW_AT_data_member_location[DW_OP_plus_uconst 0x0]
    7832                      .dwattr $C$DW$846, DW_AT_accessibility(DW_ACCESS_public)
    7833              $C$DW$847       .dwtag  DW_TAG_member
    7834                      .dwattr $C$DW$847, DW_AT_type(*$C$DW$T$19)
    7835                      .dwattr $C$DW$847, DW_AT_name("INTx4")
    7836                      .dwattr $C$DW$847, DW_AT_TI_symbol_name("_INTx4")
    7837                      .dwattr $C$DW$847, DW_AT_bit_offset(0x0c), DW_AT_bit_size(0x01)
    7838                      .dwattr $C$DW$847, DW_AT_data_member_location[DW_OP_plus_uconst 0x0]
    7839                      .dwattr $C$DW$847, DW_AT_accessibility(DW_ACCESS_public)
    7840              $C$DW$848       .dwtag  DW_TAG_member
    7841                      .dwattr $C$DW$848, DW_AT_type(*$C$DW$T$19)
    7842                      .dwattr $C$DW$848, DW_AT_name("INTx5")
    7843                      .dwattr $C$DW$848, DW_AT_TI_symbol_name("_INTx5")
    7844                      .dwattr $C$DW$848, DW_AT_bit_offset(0x0b), DW_AT_bit_size(0x01)
    7845                      .dwattr $C$DW$848, DW_AT_data_member_location[DW_OP_plus_uconst 0x0]
    7846                      .dwattr $C$DW$848, DW_AT_accessibility(DW_ACCESS_public)
    7847              $C$DW$849       .dwtag  DW_TAG_member
TMS320C2000 Assembler PC v6.1.3 Thu Jan 30 10:26:14 2014

Tools Copyright (c) 1996-2012 Texas Instruments Incorporated
C:\Users\a0272466\AppData\Local\Temp\0274010                         PAGE  149

    7848                      .dwattr $C$DW$849, DW_AT_type(*$C$DW$T$19)
    7849                      .dwattr $C$DW$849, DW_AT_name("INTx6")
    7850                      .dwattr $C$DW$849, DW_AT_TI_symbol_name("_INTx6")
    7851                      .dwattr $C$DW$849, DW_AT_bit_offset(0x0a), DW_AT_bit_size(0x01)
    7852                      .dwattr $C$DW$849, DW_AT_data_member_location[DW_OP_plus_uconst 0x0]
    7853                      .dwattr $C$DW$849, DW_AT_accessibility(DW_ACCESS_public)
    7854              $C$DW$850       .dwtag  DW_TAG_member
    7855                      .dwattr $C$DW$850, DW_AT_type(*$C$DW$T$19)
    7856                      .dwattr $C$DW$850, DW_AT_name("INTx7")
    7857                      .dwattr $C$DW$850, DW_AT_TI_symbol_name("_INTx7")
    7858                      .dwattr $C$DW$850, DW_AT_bit_offset(0x09), DW_AT_bit_size(0x01)
    7859                      .dwattr $C$DW$850, DW_AT_data_member_location[DW_OP_plus_uconst 0x0]
    7860                      .dwattr $C$DW$850, DW_AT_accessibility(DW_ACCESS_public)
    7861              $C$DW$851       .dwtag  DW_TAG_member
    7862                      .dwattr $C$DW$851, DW_AT_type(*$C$DW$T$19)
    7863                      .dwattr $C$DW$851, DW_AT_name("INTx8")
    7864                      .dwattr $C$DW$851, DW_AT_TI_symbol_name("_INTx8")
    7865                      .dwattr $C$DW$851, DW_AT_bit_offset(0x08), DW_AT_bit_size(0x01)
    7866                      .dwattr $C$DW$851, DW_AT_data_member_location[DW_OP_plus_uconst 0x0]
    7867                      .dwattr $C$DW$851, DW_AT_accessibility(DW_ACCESS_public)
    7868              $C$DW$852       .dwtag  DW_TAG_member
    7869                      .dwattr $C$DW$852, DW_AT_type(*$C$DW$T$19)
    7870                      .dwattr $C$DW$852, DW_AT_name("INTx9")
    7871                      .dwattr $C$DW$852, DW_AT_TI_symbol_name("_INTx9")
    7872                      .dwattr $C$DW$852, DW_AT_bit_offset(0x07), DW_AT_bit_size(0x01)
    7873                      .dwattr $C$DW$852, DW_AT_data_member_location[DW_OP_plus_uconst 0x0]
    7874                      .dwattr $C$DW$852, DW_AT_accessibility(DW_ACCESS_public)
    7875              $C$DW$853       .dwtag  DW_TAG_member
    7876                      .dwattr $C$DW$853, DW_AT_type(*$C$DW$T$19)
    7877                      .dwattr $C$DW$853, DW_AT_name("INTx10")
    7878                      .dwattr $C$DW$853, DW_AT_TI_symbol_name("_INTx10")
    7879                      .dwattr $C$DW$853, DW_AT_bit_offset(0x06), DW_AT_bit_size(0x01)
    7880                      .dwattr $C$DW$853, DW_AT_data_member_location[DW_OP_plus_uconst 0x0]
    7881                      .dwattr $C$DW$853, DW_AT_accessibility(DW_ACCESS_public)
    7882              $C$DW$854       .dwtag  DW_TAG_member
    7883                      .dwattr $C$DW$854, DW_AT_type(*$C$DW$T$19)
    7884                      .dwattr $C$DW$854, DW_AT_name("INTx11")
    7885                      .dwattr $C$DW$854, DW_AT_TI_symbol_name("_INTx11")
    7886                      .dwattr $C$DW$854, DW_AT_bit_offset(0x05), DW_AT_bit_size(0x01)
    7887                      .dwattr $C$DW$854, DW_AT_data_member_location[DW_OP_plus_uconst 0x0]
    7888                      .dwattr $C$DW$854, DW_AT_accessibility(DW_ACCESS_public)
    7889              $C$DW$855       .dwtag  DW_TAG_member
    7890                      .dwattr $C$DW$855, DW_AT_type(*$C$DW$T$19)
    7891                      .dwattr $C$DW$855, DW_AT_name("INTx12")
    7892                      .dwattr $C$DW$855, DW_AT_TI_symbol_name("_INTx12")
    7893                      .dwattr $C$DW$855, DW_AT_bit_offset(0x04), DW_AT_bit_size(0x01)
    7894                      .dwattr $C$DW$855, DW_AT_data_member_location[DW_OP_plus_uconst 0x0]
    7895                      .dwattr $C$DW$855, DW_AT_accessibility(DW_ACCESS_public)
    7896              $C$DW$856       .dwtag  DW_TAG_member
    7897                      .dwattr $C$DW$856, DW_AT_type(*$C$DW$T$19)
    7898                      .dwattr $C$DW$856, DW_AT_name("INTx13")
    7899                      .dwattr $C$DW$856, DW_AT_TI_symbol_name("_INTx13")
    7900                      .dwattr $C$DW$856, DW_AT_bit_offset(0x03), DW_AT_bit_size(0x01)
    7901                      .dwattr $C$DW$856, DW_AT_data_member_location[DW_OP_plus_uconst 0x0]
    7902                      .dwattr $C$DW$856, DW_AT_accessibility(DW_ACCESS_public)
TMS320C2000 Assembler PC v6.1.3 Thu Jan 30 10:26:14 2014

Tools Copyright (c) 1996-2012 Texas Instruments Incorporated
C:\Users\a0272466\AppData\Local\Temp\0274010                         PAGE  150

    7903              $C$DW$857       .dwtag  DW_TAG_member
    7904                      .dwattr $C$DW$857, DW_AT_type(*$C$DW$T$19)
    7905                      .dwattr $C$DW$857, DW_AT_name("INTx14")
    7906                      .dwattr $C$DW$857, DW_AT_TI_symbol_name("_INTx14")
    7907                      .dwattr $C$DW$857, DW_AT_bit_offset(0x02), DW_AT_bit_size(0x01)
    7908                      .dwattr $C$DW$857, DW_AT_data_member_location[DW_OP_plus_uconst 0x0]
    7909                      .dwattr $C$DW$857, DW_AT_accessibility(DW_ACCESS_public)
    7910              $C$DW$858       .dwtag  DW_TAG_member
    7911                      .dwattr $C$DW$858, DW_AT_type(*$C$DW$T$19)
    7912                      .dwattr $C$DW$858, DW_AT_name("INTx15")
    7913                      .dwattr $C$DW$858, DW_AT_TI_symbol_name("_INTx15")
    7914                      .dwattr $C$DW$858, DW_AT_bit_offset(0x01), DW_AT_bit_size(0x01)
    7915                      .dwattr $C$DW$858, DW_AT_data_member_location[DW_OP_plus_uconst 0x0]
    7916                      .dwattr $C$DW$858, DW_AT_accessibility(DW_ACCESS_public)
    7917              $C$DW$859       .dwtag  DW_TAG_member
    7918                      .dwattr $C$DW$859, DW_AT_type(*$C$DW$T$19)
    7919                      .dwattr $C$DW$859, DW_AT_name("INTx16")
    7920                      .dwattr $C$DW$859, DW_AT_TI_symbol_name("_INTx16")
    7921                      .dwattr $C$DW$859, DW_AT_bit_offset(0x00), DW_AT_bit_size(0x01)
    7922                      .dwattr $C$DW$859, DW_AT_data_member_location[DW_OP_plus_uconst 0x0]
    7923                      .dwattr $C$DW$859, DW_AT_accessibility(DW_ACCESS_public)
    7924                      .dwendtag $C$DW$T$114
    7925              
    7926              
    7927              $C$DW$T$115     .dwtag  DW_TAG_union_type
    7928                      .dwattr $C$DW$T$115, DW_AT_name("PIEIER7_REG")
    7929                      .dwattr $C$DW$T$115, DW_AT_byte_size(0x01)
    7930              $C$DW$860       .dwtag  DW_TAG_member
    7931                      .dwattr $C$DW$860, DW_AT_type(*$C$DW$T$19)
    7932                      .dwattr $C$DW$860, DW_AT_name("all")
    7933                      .dwattr $C$DW$860, DW_AT_TI_symbol_name("_all")
    7934                      .dwattr $C$DW$860, DW_AT_data_member_location[DW_OP_plus_uconst 0x0]
    7935                      .dwattr $C$DW$860, DW_AT_accessibility(DW_ACCESS_public)
    7936              $C$DW$861       .dwtag  DW_TAG_member
    7937                      .dwattr $C$DW$861, DW_AT_type(*$C$DW$T$114)
    7938                      .dwattr $C$DW$861, DW_AT_name("bit")
    7939                      .dwattr $C$DW$861, DW_AT_TI_symbol_name("_bit")
    7940                      .dwattr $C$DW$861, DW_AT_data_member_location[DW_OP_plus_uconst 0x0]
    7941                      .dwattr $C$DW$861, DW_AT_accessibility(DW_ACCESS_public)
    7942                      .dwendtag $C$DW$T$115
    7943              
    7944              
    7945              $C$DW$T$116     .dwtag  DW_TAG_structure_type
    7946                      .dwattr $C$DW$T$116, DW_AT_name("PIEIER8_BITS")
    7947                      .dwattr $C$DW$T$116, DW_AT_byte_size(0x01)
    7948              $C$DW$862       .dwtag  DW_TAG_member
    7949                      .dwattr $C$DW$862, DW_AT_type(*$C$DW$T$19)
    7950                      .dwattr $C$DW$862, DW_AT_name("INTx1")
    7951                      .dwattr $C$DW$862, DW_AT_TI_symbol_name("_INTx1")
    7952                      .dwattr $C$DW$862, DW_AT_bit_offset(0x0f), DW_AT_bit_size(0x01)
    7953                      .dwattr $C$DW$862, DW_AT_data_member_location[DW_OP_plus_uconst 0x0]
    7954                      .dwattr $C$DW$862, DW_AT_accessibility(DW_ACCESS_public)
    7955              $C$DW$863       .dwtag  DW_TAG_member
    7956                      .dwattr $C$DW$863, DW_AT_type(*$C$DW$T$19)
    7957                      .dwattr $C$DW$863, DW_AT_name("INTx2")
TMS320C2000 Assembler PC v6.1.3 Thu Jan 30 10:26:14 2014

Tools Copyright (c) 1996-2012 Texas Instruments Incorporated
C:\Users\a0272466\AppData\Local\Temp\0274010                         PAGE  151

    7958                      .dwattr $C$DW$863, DW_AT_TI_symbol_name("_INTx2")
    7959                      .dwattr $C$DW$863, DW_AT_bit_offset(0x0e), DW_AT_bit_size(0x01)
    7960                      .dwattr $C$DW$863, DW_AT_data_member_location[DW_OP_plus_uconst 0x0]
    7961                      .dwattr $C$DW$863, DW_AT_accessibility(DW_ACCESS_public)
    7962              $C$DW$864       .dwtag  DW_TAG_member
    7963                      .dwattr $C$DW$864, DW_AT_type(*$C$DW$T$19)
    7964                      .dwattr $C$DW$864, DW_AT_name("INTx3")
    7965                      .dwattr $C$DW$864, DW_AT_TI_symbol_name("_INTx3")
    7966                      .dwattr $C$DW$864, DW_AT_bit_offset(0x0d), DW_AT_bit_size(0x01)
    7967                      .dwattr $C$DW$864, DW_AT_data_member_location[DW_OP_plus_uconst 0x0]
    7968                      .dwattr $C$DW$864, DW_AT_accessibility(DW_ACCESS_public)
    7969              $C$DW$865       .dwtag  DW_TAG_member
    7970                      .dwattr $C$DW$865, DW_AT_type(*$C$DW$T$19)
    7971                      .dwattr $C$DW$865, DW_AT_name("INTx4")
    7972                      .dwattr $C$DW$865, DW_AT_TI_symbol_name("_INTx4")
    7973                      .dwattr $C$DW$865, DW_AT_bit_offset(0x0c), DW_AT_bit_size(0x01)
    7974                      .dwattr $C$DW$865, DW_AT_data_member_location[DW_OP_plus_uconst 0x0]
    7975                      .dwattr $C$DW$865, DW_AT_accessibility(DW_ACCESS_public)
    7976              $C$DW$866       .dwtag  DW_TAG_member
    7977                      .dwattr $C$DW$866, DW_AT_type(*$C$DW$T$19)
    7978                      .dwattr $C$DW$866, DW_AT_name("INTx5")
    7979                      .dwattr $C$DW$866, DW_AT_TI_symbol_name("_INTx5")
    7980                      .dwattr $C$DW$866, DW_AT_bit_offset(0x0b), DW_AT_bit_size(0x01)
    7981                      .dwattr $C$DW$866, DW_AT_data_member_location[DW_OP_plus_uconst 0x0]
    7982                      .dwattr $C$DW$866, DW_AT_accessibility(DW_ACCESS_public)
    7983              $C$DW$867       .dwtag  DW_TAG_member
    7984                      .dwattr $C$DW$867, DW_AT_type(*$C$DW$T$19)
    7985                      .dwattr $C$DW$867, DW_AT_name("INTx6")
    7986                      .dwattr $C$DW$867, DW_AT_TI_symbol_name("_INTx6")
    7987                      .dwattr $C$DW$867, DW_AT_bit_offset(0x0a), DW_AT_bit_size(0x01)
    7988                      .dwattr $C$DW$867, DW_AT_data_member_location[DW_OP_plus_uconst 0x0]
    7989                      .dwattr $C$DW$867, DW_AT_accessibility(DW_ACCESS_public)
    7990              $C$DW$868       .dwtag  DW_TAG_member
    7991                      .dwattr $C$DW$868, DW_AT_type(*$C$DW$T$19)
    7992                      .dwattr $C$DW$868, DW_AT_name("INTx7")
    7993                      .dwattr $C$DW$868, DW_AT_TI_symbol_name("_INTx7")
    7994                      .dwattr $C$DW$868, DW_AT_bit_offset(0x09), DW_AT_bit_size(0x01)
    7995                      .dwattr $C$DW$868, DW_AT_data_member_location[DW_OP_plus_uconst 0x0]
    7996                      .dwattr $C$DW$868, DW_AT_accessibility(DW_ACCESS_public)
    7997              $C$DW$869       .dwtag  DW_TAG_member
    7998                      .dwattr $C$DW$869, DW_AT_type(*$C$DW$T$19)
    7999                      .dwattr $C$DW$869, DW_AT_name("INTx8")
    8000                      .dwattr $C$DW$869, DW_AT_TI_symbol_name("_INTx8")
    8001                      .dwattr $C$DW$869, DW_AT_bit_offset(0x08), DW_AT_bit_size(0x01)
    8002                      .dwattr $C$DW$869, DW_AT_data_member_location[DW_OP_plus_uconst 0x0]
    8003                      .dwattr $C$DW$869, DW_AT_accessibility(DW_ACCESS_public)
    8004              $C$DW$870       .dwtag  DW_TAG_member
    8005                      .dwattr $C$DW$870, DW_AT_type(*$C$DW$T$19)
    8006                      .dwattr $C$DW$870, DW_AT_name("INTx9")
    8007                      .dwattr $C$DW$870, DW_AT_TI_symbol_name("_INTx9")
    8008                      .dwattr $C$DW$870, DW_AT_bit_offset(0x07), DW_AT_bit_size(0x01)
    8009                      .dwattr $C$DW$870, DW_AT_data_member_location[DW_OP_plus_uconst 0x0]
    8010                      .dwattr $C$DW$870, DW_AT_accessibility(DW_ACCESS_public)
    8011              $C$DW$871       .dwtag  DW_TAG_member
    8012                      .dwattr $C$DW$871, DW_AT_type(*$C$DW$T$19)
TMS320C2000 Assembler PC v6.1.3 Thu Jan 30 10:26:14 2014

Tools Copyright (c) 1996-2012 Texas Instruments Incorporated
C:\Users\a0272466\AppData\Local\Temp\0274010                         PAGE  152

    8013                      .dwattr $C$DW$871, DW_AT_name("INTx10")
    8014                      .dwattr $C$DW$871, DW_AT_TI_symbol_name("_INTx10")
    8015                      .dwattr $C$DW$871, DW_AT_bit_offset(0x06), DW_AT_bit_size(0x01)
    8016                      .dwattr $C$DW$871, DW_AT_data_member_location[DW_OP_plus_uconst 0x0]
    8017                      .dwattr $C$DW$871, DW_AT_accessibility(DW_ACCESS_public)
    8018              $C$DW$872       .dwtag  DW_TAG_member
    8019                      .dwattr $C$DW$872, DW_AT_type(*$C$DW$T$19)
    8020                      .dwattr $C$DW$872, DW_AT_name("INTx11")
    8021                      .dwattr $C$DW$872, DW_AT_TI_symbol_name("_INTx11")
    8022                      .dwattr $C$DW$872, DW_AT_bit_offset(0x05), DW_AT_bit_size(0x01)
    8023                      .dwattr $C$DW$872, DW_AT_data_member_location[DW_OP_plus_uconst 0x0]
    8024                      .dwattr $C$DW$872, DW_AT_accessibility(DW_ACCESS_public)
    8025              $C$DW$873       .dwtag  DW_TAG_member
    8026                      .dwattr $C$DW$873, DW_AT_type(*$C$DW$T$19)
    8027                      .dwattr $C$DW$873, DW_AT_name("INTx12")
    8028                      .dwattr $C$DW$873, DW_AT_TI_symbol_name("_INTx12")
    8029                      .dwattr $C$DW$873, DW_AT_bit_offset(0x04), DW_AT_bit_size(0x01)
    8030                      .dwattr $C$DW$873, DW_AT_data_member_location[DW_OP_plus_uconst 0x0]
    8031                      .dwattr $C$DW$873, DW_AT_accessibility(DW_ACCESS_public)
    8032              $C$DW$874       .dwtag  DW_TAG_member
    8033                      .dwattr $C$DW$874, DW_AT_type(*$C$DW$T$19)
    8034                      .dwattr $C$DW$874, DW_AT_name("INTx13")
    8035                      .dwattr $C$DW$874, DW_AT_TI_symbol_name("_INTx13")
    8036                      .dwattr $C$DW$874, DW_AT_bit_offset(0x03), DW_AT_bit_size(0x01)
    8037                      .dwattr $C$DW$874, DW_AT_data_member_location[DW_OP_plus_uconst 0x0]
    8038                      .dwattr $C$DW$874, DW_AT_accessibility(DW_ACCESS_public)
    8039              $C$DW$875       .dwtag  DW_TAG_member
    8040                      .dwattr $C$DW$875, DW_AT_type(*$C$DW$T$19)
    8041                      .dwattr $C$DW$875, DW_AT_name("INTx14")
    8042                      .dwattr $C$DW$875, DW_AT_TI_symbol_name("_INTx14")
    8043                      .dwattr $C$DW$875, DW_AT_bit_offset(0x02), DW_AT_bit_size(0x01)
    8044                      .dwattr $C$DW$875, DW_AT_data_member_location[DW_OP_plus_uconst 0x0]
    8045                      .dwattr $C$DW$875, DW_AT_accessibility(DW_ACCESS_public)
    8046              $C$DW$876       .dwtag  DW_TAG_member
    8047                      .dwattr $C$DW$876, DW_AT_type(*$C$DW$T$19)
    8048                      .dwattr $C$DW$876, DW_AT_name("INTx15")
    8049                      .dwattr $C$DW$876, DW_AT_TI_symbol_name("_INTx15")
    8050                      .dwattr $C$DW$876, DW_AT_bit_offset(0x01), DW_AT_bit_size(0x01)
    8051                      .dwattr $C$DW$876, DW_AT_data_member_location[DW_OP_plus_uconst 0x0]
    8052                      .dwattr $C$DW$876, DW_AT_accessibility(DW_ACCESS_public)
    8053              $C$DW$877       .dwtag  DW_TAG_member
    8054                      .dwattr $C$DW$877, DW_AT_type(*$C$DW$T$19)
    8055                      .dwattr $C$DW$877, DW_AT_name("INTx16")
    8056                      .dwattr $C$DW$877, DW_AT_TI_symbol_name("_INTx16")
    8057                      .dwattr $C$DW$877, DW_AT_bit_offset(0x00), DW_AT_bit_size(0x01)
    8058                      .dwattr $C$DW$877, DW_AT_data_member_location[DW_OP_plus_uconst 0x0]
    8059                      .dwattr $C$DW$877, DW_AT_accessibility(DW_ACCESS_public)
    8060                      .dwendtag $C$DW$T$116
    8061              
    8062              
    8063              $C$DW$T$117     .dwtag  DW_TAG_union_type
    8064                      .dwattr $C$DW$T$117, DW_AT_name("PIEIER8_REG")
    8065                      .dwattr $C$DW$T$117, DW_AT_byte_size(0x01)
    8066              $C$DW$878       .dwtag  DW_TAG_member
    8067                      .dwattr $C$DW$878, DW_AT_type(*$C$DW$T$19)
TMS320C2000 Assembler PC v6.1.3 Thu Jan 30 10:26:14 2014

Tools Copyright (c) 1996-2012 Texas Instruments Incorporated
C:\Users\a0272466\AppData\Local\Temp\0274010                         PAGE  153

    8068                      .dwattr $C$DW$878, DW_AT_name("all")
    8069                      .dwattr $C$DW$878, DW_AT_TI_symbol_name("_all")
    8070                      .dwattr $C$DW$878, DW_AT_data_member_location[DW_OP_plus_uconst 0x0]
    8071                      .dwattr $C$DW$878, DW_AT_accessibility(DW_ACCESS_public)
    8072              $C$DW$879       .dwtag  DW_TAG_member
    8073                      .dwattr $C$DW$879, DW_AT_type(*$C$DW$T$116)
    8074                      .dwattr $C$DW$879, DW_AT_name("bit")
    8075                      .dwattr $C$DW$879, DW_AT_TI_symbol_name("_bit")
    8076                      .dwattr $C$DW$879, DW_AT_data_member_location[DW_OP_plus_uconst 0x0]
    8077                      .dwattr $C$DW$879, DW_AT_accessibility(DW_ACCESS_public)
    8078                      .dwendtag $C$DW$T$117
    8079              
    8080              
    8081              $C$DW$T$118     .dwtag  DW_TAG_structure_type
    8082                      .dwattr $C$DW$T$118, DW_AT_name("PIEIER9_BITS")
    8083                      .dwattr $C$DW$T$118, DW_AT_byte_size(0x01)
    8084              $C$DW$880       .dwtag  DW_TAG_member
    8085                      .dwattr $C$DW$880, DW_AT_type(*$C$DW$T$19)
    8086                      .dwattr $C$DW$880, DW_AT_name("INTx1")
    8087                      .dwattr $C$DW$880, DW_AT_TI_symbol_name("_INTx1")
    8088                      .dwattr $C$DW$880, DW_AT_bit_offset(0x0f), DW_AT_bit_size(0x01)
    8089                      .dwattr $C$DW$880, DW_AT_data_member_location[DW_OP_plus_uconst 0x0]
    8090                      .dwattr $C$DW$880, DW_AT_accessibility(DW_ACCESS_public)
    8091              $C$DW$881       .dwtag  DW_TAG_member
    8092                      .dwattr $C$DW$881, DW_AT_type(*$C$DW$T$19)
    8093                      .dwattr $C$DW$881, DW_AT_name("INTx2")
    8094                      .dwattr $C$DW$881, DW_AT_TI_symbol_name("_INTx2")
    8095                      .dwattr $C$DW$881, DW_AT_bit_offset(0x0e), DW_AT_bit_size(0x01)
    8096                      .dwattr $C$DW$881, DW_AT_data_member_location[DW_OP_plus_uconst 0x0]
    8097                      .dwattr $C$DW$881, DW_AT_accessibility(DW_ACCESS_public)
    8098              $C$DW$882       .dwtag  DW_TAG_member
    8099                      .dwattr $C$DW$882, DW_AT_type(*$C$DW$T$19)
    8100                      .dwattr $C$DW$882, DW_AT_name("INTx3")
    8101                      .dwattr $C$DW$882, DW_AT_TI_symbol_name("_INTx3")
    8102                      .dwattr $C$DW$882, DW_AT_bit_offset(0x0d), DW_AT_bit_size(0x01)
    8103                      .dwattr $C$DW$882, DW_AT_data_member_location[DW_OP_plus_uconst 0x0]
    8104                      .dwattr $C$DW$882, DW_AT_accessibility(DW_ACCESS_public)
    8105              $C$DW$883       .dwtag  DW_TAG_member
    8106                      .dwattr $C$DW$883, DW_AT_type(*$C$DW$T$19)
    8107                      .dwattr $C$DW$883, DW_AT_name("INTx4")
    8108                      .dwattr $C$DW$883, DW_AT_TI_symbol_name("_INTx4")
    8109                      .dwattr $C$DW$883, DW_AT_bit_offset(0x0c), DW_AT_bit_size(0x01)
    8110                      .dwattr $C$DW$883, DW_AT_data_member_location[DW_OP_plus_uconst 0x0]
    8111                      .dwattr $C$DW$883, DW_AT_accessibility(DW_ACCESS_public)
    8112              $C$DW$884       .dwtag  DW_TAG_member
    8113                      .dwattr $C$DW$884, DW_AT_type(*$C$DW$T$19)
    8114                      .dwattr $C$DW$884, DW_AT_name("INTx5")
    8115                      .dwattr $C$DW$884, DW_AT_TI_symbol_name("_INTx5")
    8116                      .dwattr $C$DW$884, DW_AT_bit_offset(0x0b), DW_AT_bit_size(0x01)
    8117                      .dwattr $C$DW$884, DW_AT_data_member_location[DW_OP_plus_uconst 0x0]
    8118                      .dwattr $C$DW$884, DW_AT_accessibility(DW_ACCESS_public)
    8119              $C$DW$885       .dwtag  DW_TAG_member
    8120                      .dwattr $C$DW$885, DW_AT_type(*$C$DW$T$19)
    8121                      .dwattr $C$DW$885, DW_AT_name("INTx6")
    8122                      .dwattr $C$DW$885, DW_AT_TI_symbol_name("_INTx6")
TMS320C2000 Assembler PC v6.1.3 Thu Jan 30 10:26:14 2014

Tools Copyright (c) 1996-2012 Texas Instruments Incorporated
C:\Users\a0272466\AppData\Local\Temp\0274010                         PAGE  154

    8123                      .dwattr $C$DW$885, DW_AT_bit_offset(0x0a), DW_AT_bit_size(0x01)
    8124                      .dwattr $C$DW$885, DW_AT_data_member_location[DW_OP_plus_uconst 0x0]
    8125                      .dwattr $C$DW$885, DW_AT_accessibility(DW_ACCESS_public)
    8126              $C$DW$886       .dwtag  DW_TAG_member
    8127                      .dwattr $C$DW$886, DW_AT_type(*$C$DW$T$19)
    8128                      .dwattr $C$DW$886, DW_AT_name("INTx7")
    8129                      .dwattr $C$DW$886, DW_AT_TI_symbol_name("_INTx7")
    8130                      .dwattr $C$DW$886, DW_AT_bit_offset(0x09), DW_AT_bit_size(0x01)
    8131                      .dwattr $C$DW$886, DW_AT_data_member_location[DW_OP_plus_uconst 0x0]
    8132                      .dwattr $C$DW$886, DW_AT_accessibility(DW_ACCESS_public)
    8133              $C$DW$887       .dwtag  DW_TAG_member
    8134                      .dwattr $C$DW$887, DW_AT_type(*$C$DW$T$19)
    8135                      .dwattr $C$DW$887, DW_AT_name("INTx8")
    8136                      .dwattr $C$DW$887, DW_AT_TI_symbol_name("_INTx8")
    8137                      .dwattr $C$DW$887, DW_AT_bit_offset(0x08), DW_AT_bit_size(0x01)
    8138                      .dwattr $C$DW$887, DW_AT_data_member_location[DW_OP_plus_uconst 0x0]
    8139                      .dwattr $C$DW$887, DW_AT_accessibility(DW_ACCESS_public)
    8140              $C$DW$888       .dwtag  DW_TAG_member
    8141                      .dwattr $C$DW$888, DW_AT_type(*$C$DW$T$19)
    8142                      .dwattr $C$DW$888, DW_AT_name("INTx9")
    8143                      .dwattr $C$DW$888, DW_AT_TI_symbol_name("_INTx9")
    8144                      .dwattr $C$DW$888, DW_AT_bit_offset(0x07), DW_AT_bit_size(0x01)
    8145                      .dwattr $C$DW$888, DW_AT_data_member_location[DW_OP_plus_uconst 0x0]
    8146                      .dwattr $C$DW$888, DW_AT_accessibility(DW_ACCESS_public)
    8147              $C$DW$889       .dwtag  DW_TAG_member
    8148                      .dwattr $C$DW$889, DW_AT_type(*$C$DW$T$19)
    8149                      .dwattr $C$DW$889, DW_AT_name("INTx10")
    8150                      .dwattr $C$DW$889, DW_AT_TI_symbol_name("_INTx10")
    8151                      .dwattr $C$DW$889, DW_AT_bit_offset(0x06), DW_AT_bit_size(0x01)
    8152                      .dwattr $C$DW$889, DW_AT_data_member_location[DW_OP_plus_uconst 0x0]
    8153                      .dwattr $C$DW$889, DW_AT_accessibility(DW_ACCESS_public)
    8154              $C$DW$890       .dwtag  DW_TAG_member
    8155                      .dwattr $C$DW$890, DW_AT_type(*$C$DW$T$19)
    8156                      .dwattr $C$DW$890, DW_AT_name("INTx11")
    8157                      .dwattr $C$DW$890, DW_AT_TI_symbol_name("_INTx11")
    8158                      .dwattr $C$DW$890, DW_AT_bit_offset(0x05), DW_AT_bit_size(0x01)
    8159                      .dwattr $C$DW$890, DW_AT_data_member_location[DW_OP_plus_uconst 0x0]
    8160                      .dwattr $C$DW$890, DW_AT_accessibility(DW_ACCESS_public)
    8161              $C$DW$891       .dwtag  DW_TAG_member
    8162                      .dwattr $C$DW$891, DW_AT_type(*$C$DW$T$19)
    8163                      .dwattr $C$DW$891, DW_AT_name("INTx12")
    8164                      .dwattr $C$DW$891, DW_AT_TI_symbol_name("_INTx12")
    8165                      .dwattr $C$DW$891, DW_AT_bit_offset(0x04), DW_AT_bit_size(0x01)
    8166                      .dwattr $C$DW$891, DW_AT_data_member_location[DW_OP_plus_uconst 0x0]
    8167                      .dwattr $C$DW$891, DW_AT_accessibility(DW_ACCESS_public)
    8168              $C$DW$892       .dwtag  DW_TAG_member
    8169                      .dwattr $C$DW$892, DW_AT_type(*$C$DW$T$19)
    8170                      .dwattr $C$DW$892, DW_AT_name("INTx13")
    8171                      .dwattr $C$DW$892, DW_AT_TI_symbol_name("_INTx13")
    8172                      .dwattr $C$DW$892, DW_AT_bit_offset(0x03), DW_AT_bit_size(0x01)
    8173                      .dwattr $C$DW$892, DW_AT_data_member_location[DW_OP_plus_uconst 0x0]
    8174                      .dwattr $C$DW$892, DW_AT_accessibility(DW_ACCESS_public)
    8175              $C$DW$893       .dwtag  DW_TAG_member
    8176                      .dwattr $C$DW$893, DW_AT_type(*$C$DW$T$19)
    8177                      .dwattr $C$DW$893, DW_AT_name("INTx14")
TMS320C2000 Assembler PC v6.1.3 Thu Jan 30 10:26:14 2014

Tools Copyright (c) 1996-2012 Texas Instruments Incorporated
C:\Users\a0272466\AppData\Local\Temp\0274010                         PAGE  155

    8178                      .dwattr $C$DW$893, DW_AT_TI_symbol_name("_INTx14")
    8179                      .dwattr $C$DW$893, DW_AT_bit_offset(0x02), DW_AT_bit_size(0x01)
    8180                      .dwattr $C$DW$893, DW_AT_data_member_location[DW_OP_plus_uconst 0x0]
    8181                      .dwattr $C$DW$893, DW_AT_accessibility(DW_ACCESS_public)
    8182              $C$DW$894       .dwtag  DW_TAG_member
    8183                      .dwattr $C$DW$894, DW_AT_type(*$C$DW$T$19)
    8184                      .dwattr $C$DW$894, DW_AT_name("INTx15")
    8185                      .dwattr $C$DW$894, DW_AT_TI_symbol_name("_INTx15")
    8186                      .dwattr $C$DW$894, DW_AT_bit_offset(0x01), DW_AT_bit_size(0x01)
    8187                      .dwattr $C$DW$894, DW_AT_data_member_location[DW_OP_plus_uconst 0x0]
    8188                      .dwattr $C$DW$894, DW_AT_accessibility(DW_ACCESS_public)
    8189              $C$DW$895       .dwtag  DW_TAG_member
    8190                      .dwattr $C$DW$895, DW_AT_type(*$C$DW$T$19)
    8191                      .dwattr $C$DW$895, DW_AT_name("INTx16")
    8192                      .dwattr $C$DW$895, DW_AT_TI_symbol_name("_INTx16")
    8193                      .dwattr $C$DW$895, DW_AT_bit_offset(0x00), DW_AT_bit_size(0x01)
    8194                      .dwattr $C$DW$895, DW_AT_data_member_location[DW_OP_plus_uconst 0x0]
    8195                      .dwattr $C$DW$895, DW_AT_accessibility(DW_ACCESS_public)
    8196                      .dwendtag $C$DW$T$118
    8197              
    8198              
    8199              $C$DW$T$119     .dwtag  DW_TAG_union_type
    8200                      .dwattr $C$DW$T$119, DW_AT_name("PIEIER9_REG")
    8201                      .dwattr $C$DW$T$119, DW_AT_byte_size(0x01)
    8202              $C$DW$896       .dwtag  DW_TAG_member
    8203                      .dwattr $C$DW$896, DW_AT_type(*$C$DW$T$19)
    8204                      .dwattr $C$DW$896, DW_AT_name("all")
    8205                      .dwattr $C$DW$896, DW_AT_TI_symbol_name("_all")
    8206                      .dwattr $C$DW$896, DW_AT_data_member_location[DW_OP_plus_uconst 0x0]
    8207                      .dwattr $C$DW$896, DW_AT_accessibility(DW_ACCESS_public)
    8208              $C$DW$897       .dwtag  DW_TAG_member
    8209                      .dwattr $C$DW$897, DW_AT_type(*$C$DW$T$118)
    8210                      .dwattr $C$DW$897, DW_AT_name("bit")
    8211                      .dwattr $C$DW$897, DW_AT_TI_symbol_name("_bit")
    8212                      .dwattr $C$DW$897, DW_AT_data_member_location[DW_OP_plus_uconst 0x0]
    8213                      .dwattr $C$DW$897, DW_AT_accessibility(DW_ACCESS_public)
    8214                      .dwendtag $C$DW$T$119
    8215              
    8216              
    8217              $C$DW$T$120     .dwtag  DW_TAG_structure_type
    8218                      .dwattr $C$DW$T$120, DW_AT_name("PIEIFR10_BITS")
    8219                      .dwattr $C$DW$T$120, DW_AT_byte_size(0x01)
    8220              $C$DW$898       .dwtag  DW_TAG_member
    8221                      .dwattr $C$DW$898, DW_AT_type(*$C$DW$T$19)
    8222                      .dwattr $C$DW$898, DW_AT_name("INTx1")
    8223                      .dwattr $C$DW$898, DW_AT_TI_symbol_name("_INTx1")
    8224                      .dwattr $C$DW$898, DW_AT_bit_offset(0x0f), DW_AT_bit_size(0x01)
    8225                      .dwattr $C$DW$898, DW_AT_data_member_location[DW_OP_plus_uconst 0x0]
    8226                      .dwattr $C$DW$898, DW_AT_accessibility(DW_ACCESS_public)
    8227              $C$DW$899       .dwtag  DW_TAG_member
    8228                      .dwattr $C$DW$899, DW_AT_type(*$C$DW$T$19)
    8229                      .dwattr $C$DW$899, DW_AT_name("INTx2")
    8230                      .dwattr $C$DW$899, DW_AT_TI_symbol_name("_INTx2")
    8231                      .dwattr $C$DW$899, DW_AT_bit_offset(0x0e), DW_AT_bit_size(0x01)
    8232                      .dwattr $C$DW$899, DW_AT_data_member_location[DW_OP_plus_uconst 0x0]
TMS320C2000 Assembler PC v6.1.3 Thu Jan 30 10:26:14 2014

Tools Copyright (c) 1996-2012 Texas Instruments Incorporated
C:\Users\a0272466\AppData\Local\Temp\0274010                         PAGE  156

    8233                      .dwattr $C$DW$899, DW_AT_accessibility(DW_ACCESS_public)
    8234              $C$DW$900       .dwtag  DW_TAG_member
    8235                      .dwattr $C$DW$900, DW_AT_type(*$C$DW$T$19)
    8236                      .dwattr $C$DW$900, DW_AT_name("INTx3")
    8237                      .dwattr $C$DW$900, DW_AT_TI_symbol_name("_INTx3")
    8238                      .dwattr $C$DW$900, DW_AT_bit_offset(0x0d), DW_AT_bit_size(0x01)
    8239                      .dwattr $C$DW$900, DW_AT_data_member_location[DW_OP_plus_uconst 0x0]
    8240                      .dwattr $C$DW$900, DW_AT_accessibility(DW_ACCESS_public)
    8241              $C$DW$901       .dwtag  DW_TAG_member
    8242                      .dwattr $C$DW$901, DW_AT_type(*$C$DW$T$19)
    8243                      .dwattr $C$DW$901, DW_AT_name("INTx4")
    8244                      .dwattr $C$DW$901, DW_AT_TI_symbol_name("_INTx4")
    8245                      .dwattr $C$DW$901, DW_AT_bit_offset(0x0c), DW_AT_bit_size(0x01)
    8246                      .dwattr $C$DW$901, DW_AT_data_member_location[DW_OP_plus_uconst 0x0]
    8247                      .dwattr $C$DW$901, DW_AT_accessibility(DW_ACCESS_public)
    8248              $C$DW$902       .dwtag  DW_TAG_member
    8249                      .dwattr $C$DW$902, DW_AT_type(*$C$DW$T$19)
    8250                      .dwattr $C$DW$902, DW_AT_name("INTx5")
    8251                      .dwattr $C$DW$902, DW_AT_TI_symbol_name("_INTx5")
    8252                      .dwattr $C$DW$902, DW_AT_bit_offset(0x0b), DW_AT_bit_size(0x01)
    8253                      .dwattr $C$DW$902, DW_AT_data_member_location[DW_OP_plus_uconst 0x0]
    8254                      .dwattr $C$DW$902, DW_AT_accessibility(DW_ACCESS_public)
    8255              $C$DW$903       .dwtag  DW_TAG_member
    8256                      .dwattr $C$DW$903, DW_AT_type(*$C$DW$T$19)
    8257                      .dwattr $C$DW$903, DW_AT_name("INTx6")
    8258                      .dwattr $C$DW$903, DW_AT_TI_symbol_name("_INTx6")
    8259                      .dwattr $C$DW$903, DW_AT_bit_offset(0x0a), DW_AT_bit_size(0x01)
    8260                      .dwattr $C$DW$903, DW_AT_data_member_location[DW_OP_plus_uconst 0x0]
    8261                      .dwattr $C$DW$903, DW_AT_accessibility(DW_ACCESS_public)
    8262              $C$DW$904       .dwtag  DW_TAG_member
    8263                      .dwattr $C$DW$904, DW_AT_type(*$C$DW$T$19)
    8264                      .dwattr $C$DW$904, DW_AT_name("INTx7")
    8265                      .dwattr $C$DW$904, DW_AT_TI_symbol_name("_INTx7")
    8266                      .dwattr $C$DW$904, DW_AT_bit_offset(0x09), DW_AT_bit_size(0x01)
    8267                      .dwattr $C$DW$904, DW_AT_data_member_location[DW_OP_plus_uconst 0x0]
    8268                      .dwattr $C$DW$904, DW_AT_accessibility(DW_ACCESS_public)
    8269              $C$DW$905       .dwtag  DW_TAG_member
    8270                      .dwattr $C$DW$905, DW_AT_type(*$C$DW$T$19)
    8271                      .dwattr $C$DW$905, DW_AT_name("INTx8")
    8272                      .dwattr $C$DW$905, DW_AT_TI_symbol_name("_INTx8")
    8273                      .dwattr $C$DW$905, DW_AT_bit_offset(0x08), DW_AT_bit_size(0x01)
    8274                      .dwattr $C$DW$905, DW_AT_data_member_location[DW_OP_plus_uconst 0x0]
    8275                      .dwattr $C$DW$905, DW_AT_accessibility(DW_ACCESS_public)
    8276              $C$DW$906       .dwtag  DW_TAG_member
    8277                      .dwattr $C$DW$906, DW_AT_type(*$C$DW$T$19)
    8278                      .dwattr $C$DW$906, DW_AT_name("INTx9")
    8279                      .dwattr $C$DW$906, DW_AT_TI_symbol_name("_INTx9")
    8280                      .dwattr $C$DW$906, DW_AT_bit_offset(0x07), DW_AT_bit_size(0x01)
    8281                      .dwattr $C$DW$906, DW_AT_data_member_location[DW_OP_plus_uconst 0x0]
    8282                      .dwattr $C$DW$906, DW_AT_accessibility(DW_ACCESS_public)
    8283              $C$DW$907       .dwtag  DW_TAG_member
    8284                      .dwattr $C$DW$907, DW_AT_type(*$C$DW$T$19)
    8285                      .dwattr $C$DW$907, DW_AT_name("INTx10")
    8286                      .dwattr $C$DW$907, DW_AT_TI_symbol_name("_INTx10")
    8287                      .dwattr $C$DW$907, DW_AT_bit_offset(0x06), DW_AT_bit_size(0x01)
TMS320C2000 Assembler PC v6.1.3 Thu Jan 30 10:26:14 2014

Tools Copyright (c) 1996-2012 Texas Instruments Incorporated
C:\Users\a0272466\AppData\Local\Temp\0274010                         PAGE  157

    8288                      .dwattr $C$DW$907, DW_AT_data_member_location[DW_OP_plus_uconst 0x0]
    8289                      .dwattr $C$DW$907, DW_AT_accessibility(DW_ACCESS_public)
    8290              $C$DW$908       .dwtag  DW_TAG_member
    8291                      .dwattr $C$DW$908, DW_AT_type(*$C$DW$T$19)
    8292                      .dwattr $C$DW$908, DW_AT_name("INTx11")
    8293                      .dwattr $C$DW$908, DW_AT_TI_symbol_name("_INTx11")
    8294                      .dwattr $C$DW$908, DW_AT_bit_offset(0x05), DW_AT_bit_size(0x01)
    8295                      .dwattr $C$DW$908, DW_AT_data_member_location[DW_OP_plus_uconst 0x0]
    8296                      .dwattr $C$DW$908, DW_AT_accessibility(DW_ACCESS_public)
    8297              $C$DW$909       .dwtag  DW_TAG_member
    8298                      .dwattr $C$DW$909, DW_AT_type(*$C$DW$T$19)
    8299                      .dwattr $C$DW$909, DW_AT_name("INTx12")
    8300                      .dwattr $C$DW$909, DW_AT_TI_symbol_name("_INTx12")
    8301                      .dwattr $C$DW$909, DW_AT_bit_offset(0x04), DW_AT_bit_size(0x01)
    8302                      .dwattr $C$DW$909, DW_AT_data_member_location[DW_OP_plus_uconst 0x0]
    8303                      .dwattr $C$DW$909, DW_AT_accessibility(DW_ACCESS_public)
    8304              $C$DW$910       .dwtag  DW_TAG_member
    8305                      .dwattr $C$DW$910, DW_AT_type(*$C$DW$T$19)
    8306                      .dwattr $C$DW$910, DW_AT_name("INTx13")
    8307                      .dwattr $C$DW$910, DW_AT_TI_symbol_name("_INTx13")
    8308                      .dwattr $C$DW$910, DW_AT_bit_offset(0x03), DW_AT_bit_size(0x01)
    8309                      .dwattr $C$DW$910, DW_AT_data_member_location[DW_OP_plus_uconst 0x0]
    8310                      .dwattr $C$DW$910, DW_AT_accessibility(DW_ACCESS_public)
    8311              $C$DW$911       .dwtag  DW_TAG_member
    8312                      .dwattr $C$DW$911, DW_AT_type(*$C$DW$T$19)
    8313                      .dwattr $C$DW$911, DW_AT_name("INTx14")
    8314                      .dwattr $C$DW$911, DW_AT_TI_symbol_name("_INTx14")
    8315                      .dwattr $C$DW$911, DW_AT_bit_offset(0x02), DW_AT_bit_size(0x01)
    8316                      .dwattr $C$DW$911, DW_AT_data_member_location[DW_OP_plus_uconst 0x0]
    8317                      .dwattr $C$DW$911, DW_AT_accessibility(DW_ACCESS_public)
    8318              $C$DW$912       .dwtag  DW_TAG_member
    8319                      .dwattr $C$DW$912, DW_AT_type(*$C$DW$T$19)
    8320                      .dwattr $C$DW$912, DW_AT_name("INTx15")
    8321                      .dwattr $C$DW$912, DW_AT_TI_symbol_name("_INTx15")
    8322                      .dwattr $C$DW$912, DW_AT_bit_offset(0x01), DW_AT_bit_size(0x01)
    8323                      .dwattr $C$DW$912, DW_AT_data_member_location[DW_OP_plus_uconst 0x0]
    8324                      .dwattr $C$DW$912, DW_AT_accessibility(DW_ACCESS_public)
    8325              $C$DW$913       .dwtag  DW_TAG_member
    8326                      .dwattr $C$DW$913, DW_AT_type(*$C$DW$T$19)
    8327                      .dwattr $C$DW$913, DW_AT_name("INTx16")
    8328                      .dwattr $C$DW$913, DW_AT_TI_symbol_name("_INTx16")
    8329                      .dwattr $C$DW$913, DW_AT_bit_offset(0x00), DW_AT_bit_size(0x01)
    8330                      .dwattr $C$DW$913, DW_AT_data_member_location[DW_OP_plus_uconst 0x0]
    8331                      .dwattr $C$DW$913, DW_AT_accessibility(DW_ACCESS_public)
    8332                      .dwendtag $C$DW$T$120
    8333              
    8334              
    8335              $C$DW$T$121     .dwtag  DW_TAG_union_type
    8336                      .dwattr $C$DW$T$121, DW_AT_name("PIEIFR10_REG")
    8337                      .dwattr $C$DW$T$121, DW_AT_byte_size(0x01)
    8338              $C$DW$914       .dwtag  DW_TAG_member
    8339                      .dwattr $C$DW$914, DW_AT_type(*$C$DW$T$19)
    8340                      .dwattr $C$DW$914, DW_AT_name("all")
    8341                      .dwattr $C$DW$914, DW_AT_TI_symbol_name("_all")
    8342                      .dwattr $C$DW$914, DW_AT_data_member_location[DW_OP_plus_uconst 0x0]
TMS320C2000 Assembler PC v6.1.3 Thu Jan 30 10:26:14 2014

Tools Copyright (c) 1996-2012 Texas Instruments Incorporated
C:\Users\a0272466\AppData\Local\Temp\0274010                         PAGE  158

    8343                      .dwattr $C$DW$914, DW_AT_accessibility(DW_ACCESS_public)
    8344              $C$DW$915       .dwtag  DW_TAG_member
    8345                      .dwattr $C$DW$915, DW_AT_type(*$C$DW$T$120)
    8346                      .dwattr $C$DW$915, DW_AT_name("bit")
    8347                      .dwattr $C$DW$915, DW_AT_TI_symbol_name("_bit")
    8348                      .dwattr $C$DW$915, DW_AT_data_member_location[DW_OP_plus_uconst 0x0]
    8349                      .dwattr $C$DW$915, DW_AT_accessibility(DW_ACCESS_public)
    8350                      .dwendtag $C$DW$T$121
    8351              
    8352              
    8353              $C$DW$T$122     .dwtag  DW_TAG_structure_type
    8354                      .dwattr $C$DW$T$122, DW_AT_name("PIEIFR11_BITS")
    8355                      .dwattr $C$DW$T$122, DW_AT_byte_size(0x01)
    8356              $C$DW$916       .dwtag  DW_TAG_member
    8357                      .dwattr $C$DW$916, DW_AT_type(*$C$DW$T$19)
    8358                      .dwattr $C$DW$916, DW_AT_name("INTx1")
    8359                      .dwattr $C$DW$916, DW_AT_TI_symbol_name("_INTx1")
    8360                      .dwattr $C$DW$916, DW_AT_bit_offset(0x0f), DW_AT_bit_size(0x01)
    8361                      .dwattr $C$DW$916, DW_AT_data_member_location[DW_OP_plus_uconst 0x0]
    8362                      .dwattr $C$DW$916, DW_AT_accessibility(DW_ACCESS_public)
    8363              $C$DW$917       .dwtag  DW_TAG_member
    8364                      .dwattr $C$DW$917, DW_AT_type(*$C$DW$T$19)
    8365                      .dwattr $C$DW$917, DW_AT_name("INTx2")
    8366                      .dwattr $C$DW$917, DW_AT_TI_symbol_name("_INTx2")
    8367                      .dwattr $C$DW$917, DW_AT_bit_offset(0x0e), DW_AT_bit_size(0x01)
    8368                      .dwattr $C$DW$917, DW_AT_data_member_location[DW_OP_plus_uconst 0x0]
    8369                      .dwattr $C$DW$917, DW_AT_accessibility(DW_ACCESS_public)
    8370              $C$DW$918       .dwtag  DW_TAG_member
    8371                      .dwattr $C$DW$918, DW_AT_type(*$C$DW$T$19)
    8372                      .dwattr $C$DW$918, DW_AT_name("INTx3")
    8373                      .dwattr $C$DW$918, DW_AT_TI_symbol_name("_INTx3")
    8374                      .dwattr $C$DW$918, DW_AT_bit_offset(0x0d), DW_AT_bit_size(0x01)
    8375                      .dwattr $C$DW$918, DW_AT_data_member_location[DW_OP_plus_uconst 0x0]
    8376                      .dwattr $C$DW$918, DW_AT_accessibility(DW_ACCESS_public)
    8377              $C$DW$919       .dwtag  DW_TAG_member
    8378                      .dwattr $C$DW$919, DW_AT_type(*$C$DW$T$19)
    8379                      .dwattr $C$DW$919, DW_AT_name("INTx4")
    8380                      .dwattr $C$DW$919, DW_AT_TI_symbol_name("_INTx4")
    8381                      .dwattr $C$DW$919, DW_AT_bit_offset(0x0c), DW_AT_bit_size(0x01)
    8382                      .dwattr $C$DW$919, DW_AT_data_member_location[DW_OP_plus_uconst 0x0]
    8383                      .dwattr $C$DW$919, DW_AT_accessibility(DW_ACCESS_public)
    8384              $C$DW$920       .dwtag  DW_TAG_member
    8385                      .dwattr $C$DW$920, DW_AT_type(*$C$DW$T$19)
    8386                      .dwattr $C$DW$920, DW_AT_name("INTx5")
    8387                      .dwattr $C$DW$920, DW_AT_TI_symbol_name("_INTx5")
    8388                      .dwattr $C$DW$920, DW_AT_bit_offset(0x0b), DW_AT_bit_size(0x01)
    8389                      .dwattr $C$DW$920, DW_AT_data_member_location[DW_OP_plus_uconst 0x0]
    8390                      .dwattr $C$DW$920, DW_AT_accessibility(DW_ACCESS_public)
    8391              $C$DW$921       .dwtag  DW_TAG_member
    8392                      .dwattr $C$DW$921, DW_AT_type(*$C$DW$T$19)
    8393                      .dwattr $C$DW$921, DW_AT_name("INTx6")
    8394                      .dwattr $C$DW$921, DW_AT_TI_symbol_name("_INTx6")
    8395                      .dwattr $C$DW$921, DW_AT_bit_offset(0x0a), DW_AT_bit_size(0x01)
    8396                      .dwattr $C$DW$921, DW_AT_data_member_location[DW_OP_plus_uconst 0x0]
    8397                      .dwattr $C$DW$921, DW_AT_accessibility(DW_ACCESS_public)
TMS320C2000 Assembler PC v6.1.3 Thu Jan 30 10:26:14 2014

Tools Copyright (c) 1996-2012 Texas Instruments Incorporated
C:\Users\a0272466\AppData\Local\Temp\0274010                         PAGE  159

    8398              $C$DW$922       .dwtag  DW_TAG_member
    8399                      .dwattr $C$DW$922, DW_AT_type(*$C$DW$T$19)
    8400                      .dwattr $C$DW$922, DW_AT_name("INTx7")
    8401                      .dwattr $C$DW$922, DW_AT_TI_symbol_name("_INTx7")
    8402                      .dwattr $C$DW$922, DW_AT_bit_offset(0x09), DW_AT_bit_size(0x01)
    8403                      .dwattr $C$DW$922, DW_AT_data_member_location[DW_OP_plus_uconst 0x0]
    8404                      .dwattr $C$DW$922, DW_AT_accessibility(DW_ACCESS_public)
    8405              $C$DW$923       .dwtag  DW_TAG_member
    8406                      .dwattr $C$DW$923, DW_AT_type(*$C$DW$T$19)
    8407                      .dwattr $C$DW$923, DW_AT_name("INTx8")
    8408                      .dwattr $C$DW$923, DW_AT_TI_symbol_name("_INTx8")
    8409                      .dwattr $C$DW$923, DW_AT_bit_offset(0x08), DW_AT_bit_size(0x01)
    8410                      .dwattr $C$DW$923, DW_AT_data_member_location[DW_OP_plus_uconst 0x0]
    8411                      .dwattr $C$DW$923, DW_AT_accessibility(DW_ACCESS_public)
    8412              $C$DW$924       .dwtag  DW_TAG_member
    8413                      .dwattr $C$DW$924, DW_AT_type(*$C$DW$T$19)
    8414                      .dwattr $C$DW$924, DW_AT_name("INTx9")
    8415                      .dwattr $C$DW$924, DW_AT_TI_symbol_name("_INTx9")
    8416                      .dwattr $C$DW$924, DW_AT_bit_offset(0x07), DW_AT_bit_size(0x01)
    8417                      .dwattr $C$DW$924, DW_AT_data_member_location[DW_OP_plus_uconst 0x0]
    8418                      .dwattr $C$DW$924, DW_AT_accessibility(DW_ACCESS_public)
    8419              $C$DW$925       .dwtag  DW_TAG_member
    8420                      .dwattr $C$DW$925, DW_AT_type(*$C$DW$T$19)
    8421                      .dwattr $C$DW$925, DW_AT_name("INTx10")
    8422                      .dwattr $C$DW$925, DW_AT_TI_symbol_name("_INTx10")
    8423                      .dwattr $C$DW$925, DW_AT_bit_offset(0x06), DW_AT_bit_size(0x01)
    8424                      .dwattr $C$DW$925, DW_AT_data_member_location[DW_OP_plus_uconst 0x0]
    8425                      .dwattr $C$DW$925, DW_AT_accessibility(DW_ACCESS_public)
    8426              $C$DW$926       .dwtag  DW_TAG_member
    8427                      .dwattr $C$DW$926, DW_AT_type(*$C$DW$T$19)
    8428                      .dwattr $C$DW$926, DW_AT_name("INTx11")
    8429                      .dwattr $C$DW$926, DW_AT_TI_symbol_name("_INTx11")
    8430                      .dwattr $C$DW$926, DW_AT_bit_offset(0x05), DW_AT_bit_size(0x01)
    8431                      .dwattr $C$DW$926, DW_AT_data_member_location[DW_OP_plus_uconst 0x0]
    8432                      .dwattr $C$DW$926, DW_AT_accessibility(DW_ACCESS_public)
    8433              $C$DW$927       .dwtag  DW_TAG_member
    8434                      .dwattr $C$DW$927, DW_AT_type(*$C$DW$T$19)
    8435                      .dwattr $C$DW$927, DW_AT_name("INTx12")
    8436                      .dwattr $C$DW$927, DW_AT_TI_symbol_name("_INTx12")
    8437                      .dwattr $C$DW$927, DW_AT_bit_offset(0x04), DW_AT_bit_size(0x01)
    8438                      .dwattr $C$DW$927, DW_AT_data_member_location[DW_OP_plus_uconst 0x0]
    8439                      .dwattr $C$DW$927, DW_AT_accessibility(DW_ACCESS_public)
    8440              $C$DW$928       .dwtag  DW_TAG_member
    8441                      .dwattr $C$DW$928, DW_AT_type(*$C$DW$T$19)
    8442                      .dwattr $C$DW$928, DW_AT_name("INTx13")
    8443                      .dwattr $C$DW$928, DW_AT_TI_symbol_name("_INTx13")
    8444                      .dwattr $C$DW$928, DW_AT_bit_offset(0x03), DW_AT_bit_size(0x01)
    8445                      .dwattr $C$DW$928, DW_AT_data_member_location[DW_OP_plus_uconst 0x0]
    8446                      .dwattr $C$DW$928, DW_AT_accessibility(DW_ACCESS_public)
    8447              $C$DW$929       .dwtag  DW_TAG_member
    8448                      .dwattr $C$DW$929, DW_AT_type(*$C$DW$T$19)
    8449                      .dwattr $C$DW$929, DW_AT_name("INTx14")
    8450                      .dwattr $C$DW$929, DW_AT_TI_symbol_name("_INTx14")
    8451                      .dwattr $C$DW$929, DW_AT_bit_offset(0x02), DW_AT_bit_size(0x01)
    8452                      .dwattr $C$DW$929, DW_AT_data_member_location[DW_OP_plus_uconst 0x0]
TMS320C2000 Assembler PC v6.1.3 Thu Jan 30 10:26:14 2014

Tools Copyright (c) 1996-2012 Texas Instruments Incorporated
C:\Users\a0272466\AppData\Local\Temp\0274010                         PAGE  160

    8453                      .dwattr $C$DW$929, DW_AT_accessibility(DW_ACCESS_public)
    8454              $C$DW$930       .dwtag  DW_TAG_member
    8455                      .dwattr $C$DW$930, DW_AT_type(*$C$DW$T$19)
    8456                      .dwattr $C$DW$930, DW_AT_name("INTx15")
    8457                      .dwattr $C$DW$930, DW_AT_TI_symbol_name("_INTx15")
    8458                      .dwattr $C$DW$930, DW_AT_bit_offset(0x01), DW_AT_bit_size(0x01)
    8459                      .dwattr $C$DW$930, DW_AT_data_member_location[DW_OP_plus_uconst 0x0]
    8460                      .dwattr $C$DW$930, DW_AT_accessibility(DW_ACCESS_public)
    8461              $C$DW$931       .dwtag  DW_TAG_member
    8462                      .dwattr $C$DW$931, DW_AT_type(*$C$DW$T$19)
    8463                      .dwattr $C$DW$931, DW_AT_name("INTx16")
    8464                      .dwattr $C$DW$931, DW_AT_TI_symbol_name("_INTx16")
    8465                      .dwattr $C$DW$931, DW_AT_bit_offset(0x00), DW_AT_bit_size(0x01)
    8466                      .dwattr $C$DW$931, DW_AT_data_member_location[DW_OP_plus_uconst 0x0]
    8467                      .dwattr $C$DW$931, DW_AT_accessibility(DW_ACCESS_public)
    8468                      .dwendtag $C$DW$T$122
    8469              
    8470              
    8471              $C$DW$T$123     .dwtag  DW_TAG_union_type
    8472                      .dwattr $C$DW$T$123, DW_AT_name("PIEIFR11_REG")
    8473                      .dwattr $C$DW$T$123, DW_AT_byte_size(0x01)
    8474              $C$DW$932       .dwtag  DW_TAG_member
    8475                      .dwattr $C$DW$932, DW_AT_type(*$C$DW$T$19)
    8476                      .dwattr $C$DW$932, DW_AT_name("all")
    8477                      .dwattr $C$DW$932, DW_AT_TI_symbol_name("_all")
    8478                      .dwattr $C$DW$932, DW_AT_data_member_location[DW_OP_plus_uconst 0x0]
    8479                      .dwattr $C$DW$932, DW_AT_accessibility(DW_ACCESS_public)
    8480              $C$DW$933       .dwtag  DW_TAG_member
    8481                      .dwattr $C$DW$933, DW_AT_type(*$C$DW$T$122)
    8482                      .dwattr $C$DW$933, DW_AT_name("bit")
    8483                      .dwattr $C$DW$933, DW_AT_TI_symbol_name("_bit")
    8484                      .dwattr $C$DW$933, DW_AT_data_member_location[DW_OP_plus_uconst 0x0]
    8485                      .dwattr $C$DW$933, DW_AT_accessibility(DW_ACCESS_public)
    8486                      .dwendtag $C$DW$T$123
    8487              
    8488              
    8489              $C$DW$T$124     .dwtag  DW_TAG_structure_type
    8490                      .dwattr $C$DW$T$124, DW_AT_name("PIEIFR12_BITS")
    8491                      .dwattr $C$DW$T$124, DW_AT_byte_size(0x01)
    8492              $C$DW$934       .dwtag  DW_TAG_member
    8493                      .dwattr $C$DW$934, DW_AT_type(*$C$DW$T$19)
    8494                      .dwattr $C$DW$934, DW_AT_name("INTx1")
    8495                      .dwattr $C$DW$934, DW_AT_TI_symbol_name("_INTx1")
    8496                      .dwattr $C$DW$934, DW_AT_bit_offset(0x0f), DW_AT_bit_size(0x01)
    8497                      .dwattr $C$DW$934, DW_AT_data_member_location[DW_OP_plus_uconst 0x0]
    8498                      .dwattr $C$DW$934, DW_AT_accessibility(DW_ACCESS_public)
    8499              $C$DW$935       .dwtag  DW_TAG_member
    8500                      .dwattr $C$DW$935, DW_AT_type(*$C$DW$T$19)
    8501                      .dwattr $C$DW$935, DW_AT_name("INTx2")
    8502                      .dwattr $C$DW$935, DW_AT_TI_symbol_name("_INTx2")
    8503                      .dwattr $C$DW$935, DW_AT_bit_offset(0x0e), DW_AT_bit_size(0x01)
    8504                      .dwattr $C$DW$935, DW_AT_data_member_location[DW_OP_plus_uconst 0x0]
    8505                      .dwattr $C$DW$935, DW_AT_accessibility(DW_ACCESS_public)
    8506              $C$DW$936       .dwtag  DW_TAG_member
    8507                      .dwattr $C$DW$936, DW_AT_type(*$C$DW$T$19)
TMS320C2000 Assembler PC v6.1.3 Thu Jan 30 10:26:14 2014

Tools Copyright (c) 1996-2012 Texas Instruments Incorporated
C:\Users\a0272466\AppData\Local\Temp\0274010                         PAGE  161

    8508                      .dwattr $C$DW$936, DW_AT_name("INTx3")
    8509                      .dwattr $C$DW$936, DW_AT_TI_symbol_name("_INTx3")
    8510                      .dwattr $C$DW$936, DW_AT_bit_offset(0x0d), DW_AT_bit_size(0x01)
    8511                      .dwattr $C$DW$936, DW_AT_data_member_location[DW_OP_plus_uconst 0x0]
    8512                      .dwattr $C$DW$936, DW_AT_accessibility(DW_ACCESS_public)
    8513              $C$DW$937       .dwtag  DW_TAG_member
    8514                      .dwattr $C$DW$937, DW_AT_type(*$C$DW$T$19)
    8515                      .dwattr $C$DW$937, DW_AT_name("INTx4")
    8516                      .dwattr $C$DW$937, DW_AT_TI_symbol_name("_INTx4")
    8517                      .dwattr $C$DW$937, DW_AT_bit_offset(0x0c), DW_AT_bit_size(0x01)
    8518                      .dwattr $C$DW$937, DW_AT_data_member_location[DW_OP_plus_uconst 0x0]
    8519                      .dwattr $C$DW$937, DW_AT_accessibility(DW_ACCESS_public)
    8520              $C$DW$938       .dwtag  DW_TAG_member
    8521                      .dwattr $C$DW$938, DW_AT_type(*$C$DW$T$19)
    8522                      .dwattr $C$DW$938, DW_AT_name("INTx5")
    8523                      .dwattr $C$DW$938, DW_AT_TI_symbol_name("_INTx5")
    8524                      .dwattr $C$DW$938, DW_AT_bit_offset(0x0b), DW_AT_bit_size(0x01)
    8525                      .dwattr $C$DW$938, DW_AT_data_member_location[DW_OP_plus_uconst 0x0]
    8526                      .dwattr $C$DW$938, DW_AT_accessibility(DW_ACCESS_public)
    8527              $C$DW$939       .dwtag  DW_TAG_member
    8528                      .dwattr $C$DW$939, DW_AT_type(*$C$DW$T$19)
    8529                      .dwattr $C$DW$939, DW_AT_name("INTx6")
    8530                      .dwattr $C$DW$939, DW_AT_TI_symbol_name("_INTx6")
    8531                      .dwattr $C$DW$939, DW_AT_bit_offset(0x0a), DW_AT_bit_size(0x01)
    8532                      .dwattr $C$DW$939, DW_AT_data_member_location[DW_OP_plus_uconst 0x0]
    8533                      .dwattr $C$DW$939, DW_AT_accessibility(DW_ACCESS_public)
    8534              $C$DW$940       .dwtag  DW_TAG_member
    8535                      .dwattr $C$DW$940, DW_AT_type(*$C$DW$T$19)
    8536                      .dwattr $C$DW$940, DW_AT_name("INTx7")
    8537                      .dwattr $C$DW$940, DW_AT_TI_symbol_name("_INTx7")
    8538                      .dwattr $C$DW$940, DW_AT_bit_offset(0x09), DW_AT_bit_size(0x01)
    8539                      .dwattr $C$DW$940, DW_AT_data_member_location[DW_OP_plus_uconst 0x0]
    8540                      .dwattr $C$DW$940, DW_AT_accessibility(DW_ACCESS_public)
    8541              $C$DW$941       .dwtag  DW_TAG_member
    8542                      .dwattr $C$DW$941, DW_AT_type(*$C$DW$T$19)
    8543                      .dwattr $C$DW$941, DW_AT_name("INTx8")
    8544                      .dwattr $C$DW$941, DW_AT_TI_symbol_name("_INTx8")
    8545                      .dwattr $C$DW$941, DW_AT_bit_offset(0x08), DW_AT_bit_size(0x01)
    8546                      .dwattr $C$DW$941, DW_AT_data_member_location[DW_OP_plus_uconst 0x0]
    8547                      .dwattr $C$DW$941, DW_AT_accessibility(DW_ACCESS_public)
    8548              $C$DW$942       .dwtag  DW_TAG_member
    8549                      .dwattr $C$DW$942, DW_AT_type(*$C$DW$T$19)
    8550                      .dwattr $C$DW$942, DW_AT_name("INTx9")
    8551                      .dwattr $C$DW$942, DW_AT_TI_symbol_name("_INTx9")
    8552                      .dwattr $C$DW$942, DW_AT_bit_offset(0x07), DW_AT_bit_size(0x01)
    8553                      .dwattr $C$DW$942, DW_AT_data_member_location[DW_OP_plus_uconst 0x0]
    8554                      .dwattr $C$DW$942, DW_AT_accessibility(DW_ACCESS_public)
    8555              $C$DW$943       .dwtag  DW_TAG_member
    8556                      .dwattr $C$DW$943, DW_AT_type(*$C$DW$T$19)
    8557                      .dwattr $C$DW$943, DW_AT_name("INTx10")
    8558                      .dwattr $C$DW$943, DW_AT_TI_symbol_name("_INTx10")
    8559                      .dwattr $C$DW$943, DW_AT_bit_offset(0x06), DW_AT_bit_size(0x01)
    8560                      .dwattr $C$DW$943, DW_AT_data_member_location[DW_OP_plus_uconst 0x0]
    8561                      .dwattr $C$DW$943, DW_AT_accessibility(DW_ACCESS_public)
    8562              $C$DW$944       .dwtag  DW_TAG_member
TMS320C2000 Assembler PC v6.1.3 Thu Jan 30 10:26:14 2014

Tools Copyright (c) 1996-2012 Texas Instruments Incorporated
C:\Users\a0272466\AppData\Local\Temp\0274010                         PAGE  162

    8563                      .dwattr $C$DW$944, DW_AT_type(*$C$DW$T$19)
    8564                      .dwattr $C$DW$944, DW_AT_name("INTx11")
    8565                      .dwattr $C$DW$944, DW_AT_TI_symbol_name("_INTx11")
    8566                      .dwattr $C$DW$944, DW_AT_bit_offset(0x05), DW_AT_bit_size(0x01)
    8567                      .dwattr $C$DW$944, DW_AT_data_member_location[DW_OP_plus_uconst 0x0]
    8568                      .dwattr $C$DW$944, DW_AT_accessibility(DW_ACCESS_public)
    8569              $C$DW$945       .dwtag  DW_TAG_member
    8570                      .dwattr $C$DW$945, DW_AT_type(*$C$DW$T$19)
    8571                      .dwattr $C$DW$945, DW_AT_name("INTx12")
    8572                      .dwattr $C$DW$945, DW_AT_TI_symbol_name("_INTx12")
    8573                      .dwattr $C$DW$945, DW_AT_bit_offset(0x04), DW_AT_bit_size(0x01)
    8574                      .dwattr $C$DW$945, DW_AT_data_member_location[DW_OP_plus_uconst 0x0]
    8575                      .dwattr $C$DW$945, DW_AT_accessibility(DW_ACCESS_public)
    8576              $C$DW$946       .dwtag  DW_TAG_member
    8577                      .dwattr $C$DW$946, DW_AT_type(*$C$DW$T$19)
    8578                      .dwattr $C$DW$946, DW_AT_name("INTx13")
    8579                      .dwattr $C$DW$946, DW_AT_TI_symbol_name("_INTx13")
    8580                      .dwattr $C$DW$946, DW_AT_bit_offset(0x03), DW_AT_bit_size(0x01)
    8581                      .dwattr $C$DW$946, DW_AT_data_member_location[DW_OP_plus_uconst 0x0]
    8582                      .dwattr $C$DW$946, DW_AT_accessibility(DW_ACCESS_public)
    8583              $C$DW$947       .dwtag  DW_TAG_member
    8584                      .dwattr $C$DW$947, DW_AT_type(*$C$DW$T$19)
    8585                      .dwattr $C$DW$947, DW_AT_name("INTx14")
    8586                      .dwattr $C$DW$947, DW_AT_TI_symbol_name("_INTx14")
    8587                      .dwattr $C$DW$947, DW_AT_bit_offset(0x02), DW_AT_bit_size(0x01)
    8588                      .dwattr $C$DW$947, DW_AT_data_member_location[DW_OP_plus_uconst 0x0]
    8589                      .dwattr $C$DW$947, DW_AT_accessibility(DW_ACCESS_public)
    8590              $C$DW$948       .dwtag  DW_TAG_member
    8591                      .dwattr $C$DW$948, DW_AT_type(*$C$DW$T$19)
    8592                      .dwattr $C$DW$948, DW_AT_name("INTx15")
    8593                      .dwattr $C$DW$948, DW_AT_TI_symbol_name("_INTx15")
    8594                      .dwattr $C$DW$948, DW_AT_bit_offset(0x01), DW_AT_bit_size(0x01)
    8595                      .dwattr $C$DW$948, DW_AT_data_member_location[DW_OP_plus_uconst 0x0]
    8596                      .dwattr $C$DW$948, DW_AT_accessibility(DW_ACCESS_public)
    8597              $C$DW$949       .dwtag  DW_TAG_member
    8598                      .dwattr $C$DW$949, DW_AT_type(*$C$DW$T$19)
    8599                      .dwattr $C$DW$949, DW_AT_name("INTx16")
    8600                      .dwattr $C$DW$949, DW_AT_TI_symbol_name("_INTx16")
    8601                      .dwattr $C$DW$949, DW_AT_bit_offset(0x00), DW_AT_bit_size(0x01)
    8602                      .dwattr $C$DW$949, DW_AT_data_member_location[DW_OP_plus_uconst 0x0]
    8603                      .dwattr $C$DW$949, DW_AT_accessibility(DW_ACCESS_public)
    8604                      .dwendtag $C$DW$T$124
    8605              
    8606              
    8607              $C$DW$T$125     .dwtag  DW_TAG_union_type
    8608                      .dwattr $C$DW$T$125, DW_AT_name("PIEIFR12_REG")
    8609                      .dwattr $C$DW$T$125, DW_AT_byte_size(0x01)
    8610              $C$DW$950       .dwtag  DW_TAG_member
    8611                      .dwattr $C$DW$950, DW_AT_type(*$C$DW$T$19)
    8612                      .dwattr $C$DW$950, DW_AT_name("all")
    8613                      .dwattr $C$DW$950, DW_AT_TI_symbol_name("_all")
    8614                      .dwattr $C$DW$950, DW_AT_data_member_location[DW_OP_plus_uconst 0x0]
    8615                      .dwattr $C$DW$950, DW_AT_accessibility(DW_ACCESS_public)
    8616              $C$DW$951       .dwtag  DW_TAG_member
    8617                      .dwattr $C$DW$951, DW_AT_type(*$C$DW$T$124)
TMS320C2000 Assembler PC v6.1.3 Thu Jan 30 10:26:14 2014

Tools Copyright (c) 1996-2012 Texas Instruments Incorporated
C:\Users\a0272466\AppData\Local\Temp\0274010                         PAGE  163

    8618                      .dwattr $C$DW$951, DW_AT_name("bit")
    8619                      .dwattr $C$DW$951, DW_AT_TI_symbol_name("_bit")
    8620                      .dwattr $C$DW$951, DW_AT_data_member_location[DW_OP_plus_uconst 0x0]
    8621                      .dwattr $C$DW$951, DW_AT_accessibility(DW_ACCESS_public)
    8622                      .dwendtag $C$DW$T$125
    8623              
    8624              
    8625              $C$DW$T$126     .dwtag  DW_TAG_structure_type
    8626                      .dwattr $C$DW$T$126, DW_AT_name("PIEIFR1_BITS")
    8627                      .dwattr $C$DW$T$126, DW_AT_byte_size(0x01)
    8628              $C$DW$952       .dwtag  DW_TAG_member
    8629                      .dwattr $C$DW$952, DW_AT_type(*$C$DW$T$19)
    8630                      .dwattr $C$DW$952, DW_AT_name("INTx1")
    8631                      .dwattr $C$DW$952, DW_AT_TI_symbol_name("_INTx1")
    8632                      .dwattr $C$DW$952, DW_AT_bit_offset(0x0f), DW_AT_bit_size(0x01)
    8633                      .dwattr $C$DW$952, DW_AT_data_member_location[DW_OP_plus_uconst 0x0]
    8634                      .dwattr $C$DW$952, DW_AT_accessibility(DW_ACCESS_public)
    8635              $C$DW$953       .dwtag  DW_TAG_member
    8636                      .dwattr $C$DW$953, DW_AT_type(*$C$DW$T$19)
    8637                      .dwattr $C$DW$953, DW_AT_name("INTx2")
    8638                      .dwattr $C$DW$953, DW_AT_TI_symbol_name("_INTx2")
    8639                      .dwattr $C$DW$953, DW_AT_bit_offset(0x0e), DW_AT_bit_size(0x01)
    8640                      .dwattr $C$DW$953, DW_AT_data_member_location[DW_OP_plus_uconst 0x0]
    8641                      .dwattr $C$DW$953, DW_AT_accessibility(DW_ACCESS_public)
    8642              $C$DW$954       .dwtag  DW_TAG_member
    8643                      .dwattr $C$DW$954, DW_AT_type(*$C$DW$T$19)
    8644                      .dwattr $C$DW$954, DW_AT_name("INTx3")
    8645                      .dwattr $C$DW$954, DW_AT_TI_symbol_name("_INTx3")
    8646                      .dwattr $C$DW$954, DW_AT_bit_offset(0x0d), DW_AT_bit_size(0x01)
    8647                      .dwattr $C$DW$954, DW_AT_data_member_location[DW_OP_plus_uconst 0x0]
    8648                      .dwattr $C$DW$954, DW_AT_accessibility(DW_ACCESS_public)
    8649              $C$DW$955       .dwtag  DW_TAG_member
    8650                      .dwattr $C$DW$955, DW_AT_type(*$C$DW$T$19)
    8651                      .dwattr $C$DW$955, DW_AT_name("INTx4")
    8652                      .dwattr $C$DW$955, DW_AT_TI_symbol_name("_INTx4")
    8653                      .dwattr $C$DW$955, DW_AT_bit_offset(0x0c), DW_AT_bit_size(0x01)
    8654                      .dwattr $C$DW$955, DW_AT_data_member_location[DW_OP_plus_uconst 0x0]
    8655                      .dwattr $C$DW$955, DW_AT_accessibility(DW_ACCESS_public)
    8656              $C$DW$956       .dwtag  DW_TAG_member
    8657                      .dwattr $C$DW$956, DW_AT_type(*$C$DW$T$19)
    8658                      .dwattr $C$DW$956, DW_AT_name("INTx5")
    8659                      .dwattr $C$DW$956, DW_AT_TI_symbol_name("_INTx5")
    8660                      .dwattr $C$DW$956, DW_AT_bit_offset(0x0b), DW_AT_bit_size(0x01)
    8661                      .dwattr $C$DW$956, DW_AT_data_member_location[DW_OP_plus_uconst 0x0]
    8662                      .dwattr $C$DW$956, DW_AT_accessibility(DW_ACCESS_public)
    8663              $C$DW$957       .dwtag  DW_TAG_member
    8664                      .dwattr $C$DW$957, DW_AT_type(*$C$DW$T$19)
    8665                      .dwattr $C$DW$957, DW_AT_name("INTx6")
    8666                      .dwattr $C$DW$957, DW_AT_TI_symbol_name("_INTx6")
    8667                      .dwattr $C$DW$957, DW_AT_bit_offset(0x0a), DW_AT_bit_size(0x01)
    8668                      .dwattr $C$DW$957, DW_AT_data_member_location[DW_OP_plus_uconst 0x0]
    8669                      .dwattr $C$DW$957, DW_AT_accessibility(DW_ACCESS_public)
    8670              $C$DW$958       .dwtag  DW_TAG_member
    8671                      .dwattr $C$DW$958, DW_AT_type(*$C$DW$T$19)
    8672                      .dwattr $C$DW$958, DW_AT_name("INTx7")
TMS320C2000 Assembler PC v6.1.3 Thu Jan 30 10:26:14 2014

Tools Copyright (c) 1996-2012 Texas Instruments Incorporated
C:\Users\a0272466\AppData\Local\Temp\0274010                         PAGE  164

    8673                      .dwattr $C$DW$958, DW_AT_TI_symbol_name("_INTx7")
    8674                      .dwattr $C$DW$958, DW_AT_bit_offset(0x09), DW_AT_bit_size(0x01)
    8675                      .dwattr $C$DW$958, DW_AT_data_member_location[DW_OP_plus_uconst 0x0]
    8676                      .dwattr $C$DW$958, DW_AT_accessibility(DW_ACCESS_public)
    8677              $C$DW$959       .dwtag  DW_TAG_member
    8678                      .dwattr $C$DW$959, DW_AT_type(*$C$DW$T$19)
    8679                      .dwattr $C$DW$959, DW_AT_name("INTx8")
    8680                      .dwattr $C$DW$959, DW_AT_TI_symbol_name("_INTx8")
    8681                      .dwattr $C$DW$959, DW_AT_bit_offset(0x08), DW_AT_bit_size(0x01)
    8682                      .dwattr $C$DW$959, DW_AT_data_member_location[DW_OP_plus_uconst 0x0]
    8683                      .dwattr $C$DW$959, DW_AT_accessibility(DW_ACCESS_public)
    8684              $C$DW$960       .dwtag  DW_TAG_member
    8685                      .dwattr $C$DW$960, DW_AT_type(*$C$DW$T$19)
    8686                      .dwattr $C$DW$960, DW_AT_name("INTx9")
    8687                      .dwattr $C$DW$960, DW_AT_TI_symbol_name("_INTx9")
    8688                      .dwattr $C$DW$960, DW_AT_bit_offset(0x07), DW_AT_bit_size(0x01)
    8689                      .dwattr $C$DW$960, DW_AT_data_member_location[DW_OP_plus_uconst 0x0]
    8690                      .dwattr $C$DW$960, DW_AT_accessibility(DW_ACCESS_public)
    8691              $C$DW$961       .dwtag  DW_TAG_member
    8692                      .dwattr $C$DW$961, DW_AT_type(*$C$DW$T$19)
    8693                      .dwattr $C$DW$961, DW_AT_name("INTx10")
    8694                      .dwattr $C$DW$961, DW_AT_TI_symbol_name("_INTx10")
    8695                      .dwattr $C$DW$961, DW_AT_bit_offset(0x06), DW_AT_bit_size(0x01)
    8696                      .dwattr $C$DW$961, DW_AT_data_member_location[DW_OP_plus_uconst 0x0]
    8697                      .dwattr $C$DW$961, DW_AT_accessibility(DW_ACCESS_public)
    8698              $C$DW$962       .dwtag  DW_TAG_member
    8699                      .dwattr $C$DW$962, DW_AT_type(*$C$DW$T$19)
    8700                      .dwattr $C$DW$962, DW_AT_name("INTx11")
    8701                      .dwattr $C$DW$962, DW_AT_TI_symbol_name("_INTx11")
    8702                      .dwattr $C$DW$962, DW_AT_bit_offset(0x05), DW_AT_bit_size(0x01)
    8703                      .dwattr $C$DW$962, DW_AT_data_member_location[DW_OP_plus_uconst 0x0]
    8704                      .dwattr $C$DW$962, DW_AT_accessibility(DW_ACCESS_public)
    8705              $C$DW$963       .dwtag  DW_TAG_member
    8706                      .dwattr $C$DW$963, DW_AT_type(*$C$DW$T$19)
    8707                      .dwattr $C$DW$963, DW_AT_name("INTx12")
    8708                      .dwattr $C$DW$963, DW_AT_TI_symbol_name("_INTx12")
    8709                      .dwattr $C$DW$963, DW_AT_bit_offset(0x04), DW_AT_bit_size(0x01)
    8710                      .dwattr $C$DW$963, DW_AT_data_member_location[DW_OP_plus_uconst 0x0]
    8711                      .dwattr $C$DW$963, DW_AT_accessibility(DW_ACCESS_public)
    8712              $C$DW$964       .dwtag  DW_TAG_member
    8713                      .dwattr $C$DW$964, DW_AT_type(*$C$DW$T$19)
    8714                      .dwattr $C$DW$964, DW_AT_name("INTx13")
    8715                      .dwattr $C$DW$964, DW_AT_TI_symbol_name("_INTx13")
    8716                      .dwattr $C$DW$964, DW_AT_bit_offset(0x03), DW_AT_bit_size(0x01)
    8717                      .dwattr $C$DW$964, DW_AT_data_member_location[DW_OP_plus_uconst 0x0]
    8718                      .dwattr $C$DW$964, DW_AT_accessibility(DW_ACCESS_public)
    8719              $C$DW$965       .dwtag  DW_TAG_member
    8720                      .dwattr $C$DW$965, DW_AT_type(*$C$DW$T$19)
    8721                      .dwattr $C$DW$965, DW_AT_name("INTx14")
    8722                      .dwattr $C$DW$965, DW_AT_TI_symbol_name("_INTx14")
    8723                      .dwattr $C$DW$965, DW_AT_bit_offset(0x02), DW_AT_bit_size(0x01)
    8724                      .dwattr $C$DW$965, DW_AT_data_member_location[DW_OP_plus_uconst 0x0]
    8725                      .dwattr $C$DW$965, DW_AT_accessibility(DW_ACCESS_public)
    8726              $C$DW$966       .dwtag  DW_TAG_member
    8727                      .dwattr $C$DW$966, DW_AT_type(*$C$DW$T$19)
TMS320C2000 Assembler PC v6.1.3 Thu Jan 30 10:26:14 2014

Tools Copyright (c) 1996-2012 Texas Instruments Incorporated
C:\Users\a0272466\AppData\Local\Temp\0274010                         PAGE  165

    8728                      .dwattr $C$DW$966, DW_AT_name("INTx15")
    8729                      .dwattr $C$DW$966, DW_AT_TI_symbol_name("_INTx15")
    8730                      .dwattr $C$DW$966, DW_AT_bit_offset(0x01), DW_AT_bit_size(0x01)
    8731                      .dwattr $C$DW$966, DW_AT_data_member_location[DW_OP_plus_uconst 0x0]
    8732                      .dwattr $C$DW$966, DW_AT_accessibility(DW_ACCESS_public)
    8733              $C$DW$967       .dwtag  DW_TAG_member
    8734                      .dwattr $C$DW$967, DW_AT_type(*$C$DW$T$19)
    8735                      .dwattr $C$DW$967, DW_AT_name("INTx16")
    8736                      .dwattr $C$DW$967, DW_AT_TI_symbol_name("_INTx16")
    8737                      .dwattr $C$DW$967, DW_AT_bit_offset(0x00), DW_AT_bit_size(0x01)
    8738                      .dwattr $C$DW$967, DW_AT_data_member_location[DW_OP_plus_uconst 0x0]
    8739                      .dwattr $C$DW$967, DW_AT_accessibility(DW_ACCESS_public)
    8740                      .dwendtag $C$DW$T$126
    8741              
    8742              
    8743              $C$DW$T$127     .dwtag  DW_TAG_union_type
    8744                      .dwattr $C$DW$T$127, DW_AT_name("PIEIFR1_REG")
    8745                      .dwattr $C$DW$T$127, DW_AT_byte_size(0x01)
    8746              $C$DW$968       .dwtag  DW_TAG_member
    8747                      .dwattr $C$DW$968, DW_AT_type(*$C$DW$T$19)
    8748                      .dwattr $C$DW$968, DW_AT_name("all")
    8749                      .dwattr $C$DW$968, DW_AT_TI_symbol_name("_all")
    8750                      .dwattr $C$DW$968, DW_AT_data_member_location[DW_OP_plus_uconst 0x0]
    8751                      .dwattr $C$DW$968, DW_AT_accessibility(DW_ACCESS_public)
    8752              $C$DW$969       .dwtag  DW_TAG_member
    8753                      .dwattr $C$DW$969, DW_AT_type(*$C$DW$T$126)
    8754                      .dwattr $C$DW$969, DW_AT_name("bit")
    8755                      .dwattr $C$DW$969, DW_AT_TI_symbol_name("_bit")
    8756                      .dwattr $C$DW$969, DW_AT_data_member_location[DW_OP_plus_uconst 0x0]
    8757                      .dwattr $C$DW$969, DW_AT_accessibility(DW_ACCESS_public)
    8758                      .dwendtag $C$DW$T$127
    8759              
    8760              
    8761              $C$DW$T$128     .dwtag  DW_TAG_structure_type
    8762                      .dwattr $C$DW$T$128, DW_AT_name("PIEIFR2_BITS")
    8763                      .dwattr $C$DW$T$128, DW_AT_byte_size(0x01)
    8764              $C$DW$970       .dwtag  DW_TAG_member
    8765                      .dwattr $C$DW$970, DW_AT_type(*$C$DW$T$19)
    8766                      .dwattr $C$DW$970, DW_AT_name("INTx1")
    8767                      .dwattr $C$DW$970, DW_AT_TI_symbol_name("_INTx1")
    8768                      .dwattr $C$DW$970, DW_AT_bit_offset(0x0f), DW_AT_bit_size(0x01)
    8769                      .dwattr $C$DW$970, DW_AT_data_member_location[DW_OP_plus_uconst 0x0]
    8770                      .dwattr $C$DW$970, DW_AT_accessibility(DW_ACCESS_public)
    8771              $C$DW$971       .dwtag  DW_TAG_member
    8772                      .dwattr $C$DW$971, DW_AT_type(*$C$DW$T$19)
    8773                      .dwattr $C$DW$971, DW_AT_name("INTx2")
    8774                      .dwattr $C$DW$971, DW_AT_TI_symbol_name("_INTx2")
    8775                      .dwattr $C$DW$971, DW_AT_bit_offset(0x0e), DW_AT_bit_size(0x01)
    8776                      .dwattr $C$DW$971, DW_AT_data_member_location[DW_OP_plus_uconst 0x0]
    8777                      .dwattr $C$DW$971, DW_AT_accessibility(DW_ACCESS_public)
    8778              $C$DW$972       .dwtag  DW_TAG_member
    8779                      .dwattr $C$DW$972, DW_AT_type(*$C$DW$T$19)
    8780                      .dwattr $C$DW$972, DW_AT_name("INTx3")
    8781                      .dwattr $C$DW$972, DW_AT_TI_symbol_name("_INTx3")
    8782                      .dwattr $C$DW$972, DW_AT_bit_offset(0x0d), DW_AT_bit_size(0x01)
TMS320C2000 Assembler PC v6.1.3 Thu Jan 30 10:26:14 2014

Tools Copyright (c) 1996-2012 Texas Instruments Incorporated
C:\Users\a0272466\AppData\Local\Temp\0274010                         PAGE  166

    8783                      .dwattr $C$DW$972, DW_AT_data_member_location[DW_OP_plus_uconst 0x0]
    8784                      .dwattr $C$DW$972, DW_AT_accessibility(DW_ACCESS_public)
    8785              $C$DW$973       .dwtag  DW_TAG_member
    8786                      .dwattr $C$DW$973, DW_AT_type(*$C$DW$T$19)
    8787                      .dwattr $C$DW$973, DW_AT_name("INTx4")
    8788                      .dwattr $C$DW$973, DW_AT_TI_symbol_name("_INTx4")
    8789                      .dwattr $C$DW$973, DW_AT_bit_offset(0x0c), DW_AT_bit_size(0x01)
    8790                      .dwattr $C$DW$973, DW_AT_data_member_location[DW_OP_plus_uconst 0x0]
    8791                      .dwattr $C$DW$973, DW_AT_accessibility(DW_ACCESS_public)
    8792              $C$DW$974       .dwtag  DW_TAG_member
    8793                      .dwattr $C$DW$974, DW_AT_type(*$C$DW$T$19)
    8794                      .dwattr $C$DW$974, DW_AT_name("INTx5")
    8795                      .dwattr $C$DW$974, DW_AT_TI_symbol_name("_INTx5")
    8796                      .dwattr $C$DW$974, DW_AT_bit_offset(0x0b), DW_AT_bit_size(0x01)
    8797                      .dwattr $C$DW$974, DW_AT_data_member_location[DW_OP_plus_uconst 0x0]
    8798                      .dwattr $C$DW$974, DW_AT_accessibility(DW_ACCESS_public)
    8799              $C$DW$975       .dwtag  DW_TAG_member
    8800                      .dwattr $C$DW$975, DW_AT_type(*$C$DW$T$19)
    8801                      .dwattr $C$DW$975, DW_AT_name("INTx6")
    8802                      .dwattr $C$DW$975, DW_AT_TI_symbol_name("_INTx6")
    8803                      .dwattr $C$DW$975, DW_AT_bit_offset(0x0a), DW_AT_bit_size(0x01)
    8804                      .dwattr $C$DW$975, DW_AT_data_member_location[DW_OP_plus_uconst 0x0]
    8805                      .dwattr $C$DW$975, DW_AT_accessibility(DW_ACCESS_public)
    8806              $C$DW$976       .dwtag  DW_TAG_member
    8807                      .dwattr $C$DW$976, DW_AT_type(*$C$DW$T$19)
    8808                      .dwattr $C$DW$976, DW_AT_name("INTx7")
    8809                      .dwattr $C$DW$976, DW_AT_TI_symbol_name("_INTx7")
    8810                      .dwattr $C$DW$976, DW_AT_bit_offset(0x09), DW_AT_bit_size(0x01)
    8811                      .dwattr $C$DW$976, DW_AT_data_member_location[DW_OP_plus_uconst 0x0]
    8812                      .dwattr $C$DW$976, DW_AT_accessibility(DW_ACCESS_public)
    8813              $C$DW$977       .dwtag  DW_TAG_member
    8814                      .dwattr $C$DW$977, DW_AT_type(*$C$DW$T$19)
    8815                      .dwattr $C$DW$977, DW_AT_name("INTx8")
    8816                      .dwattr $C$DW$977, DW_AT_TI_symbol_name("_INTx8")
    8817                      .dwattr $C$DW$977, DW_AT_bit_offset(0x08), DW_AT_bit_size(0x01)
    8818                      .dwattr $C$DW$977, DW_AT_data_member_location[DW_OP_plus_uconst 0x0]
    8819                      .dwattr $C$DW$977, DW_AT_accessibility(DW_ACCESS_public)
    8820              $C$DW$978       .dwtag  DW_TAG_member
    8821                      .dwattr $C$DW$978, DW_AT_type(*$C$DW$T$19)
    8822                      .dwattr $C$DW$978, DW_AT_name("INTx9")
    8823                      .dwattr $C$DW$978, DW_AT_TI_symbol_name("_INTx9")
    8824                      .dwattr $C$DW$978, DW_AT_bit_offset(0x07), DW_AT_bit_size(0x01)
    8825                      .dwattr $C$DW$978, DW_AT_data_member_location[DW_OP_plus_uconst 0x0]
    8826                      .dwattr $C$DW$978, DW_AT_accessibility(DW_ACCESS_public)
    8827              $C$DW$979       .dwtag  DW_TAG_member
    8828                      .dwattr $C$DW$979, DW_AT_type(*$C$DW$T$19)
    8829                      .dwattr $C$DW$979, DW_AT_name("INTx10")
    8830                      .dwattr $C$DW$979, DW_AT_TI_symbol_name("_INTx10")
    8831                      .dwattr $C$DW$979, DW_AT_bit_offset(0x06), DW_AT_bit_size(0x01)
    8832                      .dwattr $C$DW$979, DW_AT_data_member_location[DW_OP_plus_uconst 0x0]
    8833                      .dwattr $C$DW$979, DW_AT_accessibility(DW_ACCESS_public)
    8834              $C$DW$980       .dwtag  DW_TAG_member
    8835                      .dwattr $C$DW$980, DW_AT_type(*$C$DW$T$19)
    8836                      .dwattr $C$DW$980, DW_AT_name("INTx11")
    8837                      .dwattr $C$DW$980, DW_AT_TI_symbol_name("_INTx11")
TMS320C2000 Assembler PC v6.1.3 Thu Jan 30 10:26:14 2014

Tools Copyright (c) 1996-2012 Texas Instruments Incorporated
C:\Users\a0272466\AppData\Local\Temp\0274010                         PAGE  167

    8838                      .dwattr $C$DW$980, DW_AT_bit_offset(0x05), DW_AT_bit_size(0x01)
    8839                      .dwattr $C$DW$980, DW_AT_data_member_location[DW_OP_plus_uconst 0x0]
    8840                      .dwattr $C$DW$980, DW_AT_accessibility(DW_ACCESS_public)
    8841              $C$DW$981       .dwtag  DW_TAG_member
    8842                      .dwattr $C$DW$981, DW_AT_type(*$C$DW$T$19)
    8843                      .dwattr $C$DW$981, DW_AT_name("INTx12")
    8844                      .dwattr $C$DW$981, DW_AT_TI_symbol_name("_INTx12")
    8845                      .dwattr $C$DW$981, DW_AT_bit_offset(0x04), DW_AT_bit_size(0x01)
    8846                      .dwattr $C$DW$981, DW_AT_data_member_location[DW_OP_plus_uconst 0x0]
    8847                      .dwattr $C$DW$981, DW_AT_accessibility(DW_ACCESS_public)
    8848              $C$DW$982       .dwtag  DW_TAG_member
    8849                      .dwattr $C$DW$982, DW_AT_type(*$C$DW$T$19)
    8850                      .dwattr $C$DW$982, DW_AT_name("INTx13")
    8851                      .dwattr $C$DW$982, DW_AT_TI_symbol_name("_INTx13")
    8852                      .dwattr $C$DW$982, DW_AT_bit_offset(0x03), DW_AT_bit_size(0x01)
    8853                      .dwattr $C$DW$982, DW_AT_data_member_location[DW_OP_plus_uconst 0x0]
    8854                      .dwattr $C$DW$982, DW_AT_accessibility(DW_ACCESS_public)
    8855              $C$DW$983       .dwtag  DW_TAG_member
    8856                      .dwattr $C$DW$983, DW_AT_type(*$C$DW$T$19)
    8857                      .dwattr $C$DW$983, DW_AT_name("INTx14")
    8858                      .dwattr $C$DW$983, DW_AT_TI_symbol_name("_INTx14")
    8859                      .dwattr $C$DW$983, DW_AT_bit_offset(0x02), DW_AT_bit_size(0x01)
    8860                      .dwattr $C$DW$983, DW_AT_data_member_location[DW_OP_plus_uconst 0x0]
    8861                      .dwattr $C$DW$983, DW_AT_accessibility(DW_ACCESS_public)
    8862              $C$DW$984       .dwtag  DW_TAG_member
    8863                      .dwattr $C$DW$984, DW_AT_type(*$C$DW$T$19)
    8864                      .dwattr $C$DW$984, DW_AT_name("INTx15")
    8865                      .dwattr $C$DW$984, DW_AT_TI_symbol_name("_INTx15")
    8866                      .dwattr $C$DW$984, DW_AT_bit_offset(0x01), DW_AT_bit_size(0x01)
    8867                      .dwattr $C$DW$984, DW_AT_data_member_location[DW_OP_plus_uconst 0x0]
    8868                      .dwattr $C$DW$984, DW_AT_accessibility(DW_ACCESS_public)
    8869              $C$DW$985       .dwtag  DW_TAG_member
    8870                      .dwattr $C$DW$985, DW_AT_type(*$C$DW$T$19)
    8871                      .dwattr $C$DW$985, DW_AT_name("INTx16")
    8872                      .dwattr $C$DW$985, DW_AT_TI_symbol_name("_INTx16")
    8873                      .dwattr $C$DW$985, DW_AT_bit_offset(0x00), DW_AT_bit_size(0x01)
    8874                      .dwattr $C$DW$985, DW_AT_data_member_location[DW_OP_plus_uconst 0x0]
    8875                      .dwattr $C$DW$985, DW_AT_accessibility(DW_ACCESS_public)
    8876                      .dwendtag $C$DW$T$128
    8877              
    8878              
    8879              $C$DW$T$129     .dwtag  DW_TAG_union_type
    8880                      .dwattr $C$DW$T$129, DW_AT_name("PIEIFR2_REG")
    8881                      .dwattr $C$DW$T$129, DW_AT_byte_size(0x01)
    8882              $C$DW$986       .dwtag  DW_TAG_member
    8883                      .dwattr $C$DW$986, DW_AT_type(*$C$DW$T$19)
    8884                      .dwattr $C$DW$986, DW_AT_name("all")
    8885                      .dwattr $C$DW$986, DW_AT_TI_symbol_name("_all")
    8886                      .dwattr $C$DW$986, DW_AT_data_member_location[DW_OP_plus_uconst 0x0]
    8887                      .dwattr $C$DW$986, DW_AT_accessibility(DW_ACCESS_public)
    8888              $C$DW$987       .dwtag  DW_TAG_member
    8889                      .dwattr $C$DW$987, DW_AT_type(*$C$DW$T$128)
    8890                      .dwattr $C$DW$987, DW_AT_name("bit")
    8891                      .dwattr $C$DW$987, DW_AT_TI_symbol_name("_bit")
    8892                      .dwattr $C$DW$987, DW_AT_data_member_location[DW_OP_plus_uconst 0x0]
TMS320C2000 Assembler PC v6.1.3 Thu Jan 30 10:26:14 2014

Tools Copyright (c) 1996-2012 Texas Instruments Incorporated
C:\Users\a0272466\AppData\Local\Temp\0274010                         PAGE  168

    8893                      .dwattr $C$DW$987, DW_AT_accessibility(DW_ACCESS_public)
    8894                      .dwendtag $C$DW$T$129
    8895              
    8896              
    8897              $C$DW$T$130     .dwtag  DW_TAG_structure_type
    8898                      .dwattr $C$DW$T$130, DW_AT_name("PIEIFR3_BITS")
    8899                      .dwattr $C$DW$T$130, DW_AT_byte_size(0x01)
    8900              $C$DW$988       .dwtag  DW_TAG_member
    8901                      .dwattr $C$DW$988, DW_AT_type(*$C$DW$T$19)
    8902                      .dwattr $C$DW$988, DW_AT_name("INTx1")
    8903                      .dwattr $C$DW$988, DW_AT_TI_symbol_name("_INTx1")
    8904                      .dwattr $C$DW$988, DW_AT_bit_offset(0x0f), DW_AT_bit_size(0x01)
    8905                      .dwattr $C$DW$988, DW_AT_data_member_location[DW_OP_plus_uconst 0x0]
    8906                      .dwattr $C$DW$988, DW_AT_accessibility(DW_ACCESS_public)
    8907              $C$DW$989       .dwtag  DW_TAG_member
    8908                      .dwattr $C$DW$989, DW_AT_type(*$C$DW$T$19)
    8909                      .dwattr $C$DW$989, DW_AT_name("INTx2")
    8910                      .dwattr $C$DW$989, DW_AT_TI_symbol_name("_INTx2")
    8911                      .dwattr $C$DW$989, DW_AT_bit_offset(0x0e), DW_AT_bit_size(0x01)
    8912                      .dwattr $C$DW$989, DW_AT_data_member_location[DW_OP_plus_uconst 0x0]
    8913                      .dwattr $C$DW$989, DW_AT_accessibility(DW_ACCESS_public)
    8914              $C$DW$990       .dwtag  DW_TAG_member
    8915                      .dwattr $C$DW$990, DW_AT_type(*$C$DW$T$19)
    8916                      .dwattr $C$DW$990, DW_AT_name("INTx3")
    8917                      .dwattr $C$DW$990, DW_AT_TI_symbol_name("_INTx3")
    8918                      .dwattr $C$DW$990, DW_AT_bit_offset(0x0d), DW_AT_bit_size(0x01)
    8919                      .dwattr $C$DW$990, DW_AT_data_member_location[DW_OP_plus_uconst 0x0]
    8920                      .dwattr $C$DW$990, DW_AT_accessibility(DW_ACCESS_public)
    8921              $C$DW$991       .dwtag  DW_TAG_member
    8922                      .dwattr $C$DW$991, DW_AT_type(*$C$DW$T$19)
    8923                      .dwattr $C$DW$991, DW_AT_name("INTx4")
    8924                      .dwattr $C$DW$991, DW_AT_TI_symbol_name("_INTx4")
    8925                      .dwattr $C$DW$991, DW_AT_bit_offset(0x0c), DW_AT_bit_size(0x01)
    8926                      .dwattr $C$DW$991, DW_AT_data_member_location[DW_OP_plus_uconst 0x0]
    8927                      .dwattr $C$DW$991, DW_AT_accessibility(DW_ACCESS_public)
    8928              $C$DW$992       .dwtag  DW_TAG_member
    8929                      .dwattr $C$DW$992, DW_AT_type(*$C$DW$T$19)
    8930                      .dwattr $C$DW$992, DW_AT_name("INTx5")
    8931                      .dwattr $C$DW$992, DW_AT_TI_symbol_name("_INTx5")
    8932                      .dwattr $C$DW$992, DW_AT_bit_offset(0x0b), DW_AT_bit_size(0x01)
    8933                      .dwattr $C$DW$992, DW_AT_data_member_location[DW_OP_plus_uconst 0x0]
    8934                      .dwattr $C$DW$992, DW_AT_accessibility(DW_ACCESS_public)
    8935              $C$DW$993       .dwtag  DW_TAG_member
    8936                      .dwattr $C$DW$993, DW_AT_type(*$C$DW$T$19)
    8937                      .dwattr $C$DW$993, DW_AT_name("INTx6")
    8938                      .dwattr $C$DW$993, DW_AT_TI_symbol_name("_INTx6")
    8939                      .dwattr $C$DW$993, DW_AT_bit_offset(0x0a), DW_AT_bit_size(0x01)
    8940                      .dwattr $C$DW$993, DW_AT_data_member_location[DW_OP_plus_uconst 0x0]
    8941                      .dwattr $C$DW$993, DW_AT_accessibility(DW_ACCESS_public)
    8942              $C$DW$994       .dwtag  DW_TAG_member
    8943                      .dwattr $C$DW$994, DW_AT_type(*$C$DW$T$19)
    8944                      .dwattr $C$DW$994, DW_AT_name("INTx7")
    8945                      .dwattr $C$DW$994, DW_AT_TI_symbol_name("_INTx7")
    8946                      .dwattr $C$DW$994, DW_AT_bit_offset(0x09), DW_AT_bit_size(0x01)
    8947                      .dwattr $C$DW$994, DW_AT_data_member_location[DW_OP_plus_uconst 0x0]
TMS320C2000 Assembler PC v6.1.3 Thu Jan 30 10:26:14 2014

Tools Copyright (c) 1996-2012 Texas Instruments Incorporated
C:\Users\a0272466\AppData\Local\Temp\0274010                         PAGE  169

    8948                      .dwattr $C$DW$994, DW_AT_accessibility(DW_ACCESS_public)
    8949              $C$DW$995       .dwtag  DW_TAG_member
    8950                      .dwattr $C$DW$995, DW_AT_type(*$C$DW$T$19)
    8951                      .dwattr $C$DW$995, DW_AT_name("INTx8")
    8952                      .dwattr $C$DW$995, DW_AT_TI_symbol_name("_INTx8")
    8953                      .dwattr $C$DW$995, DW_AT_bit_offset(0x08), DW_AT_bit_size(0x01)
    8954                      .dwattr $C$DW$995, DW_AT_data_member_location[DW_OP_plus_uconst 0x0]
    8955                      .dwattr $C$DW$995, DW_AT_accessibility(DW_ACCESS_public)
    8956              $C$DW$996       .dwtag  DW_TAG_member
    8957                      .dwattr $C$DW$996, DW_AT_type(*$C$DW$T$19)
    8958                      .dwattr $C$DW$996, DW_AT_name("INTx9")
    8959                      .dwattr $C$DW$996, DW_AT_TI_symbol_name("_INTx9")
    8960                      .dwattr $C$DW$996, DW_AT_bit_offset(0x07), DW_AT_bit_size(0x01)
    8961                      .dwattr $C$DW$996, DW_AT_data_member_location[DW_OP_plus_uconst 0x0]
    8962                      .dwattr $C$DW$996, DW_AT_accessibility(DW_ACCESS_public)
    8963              $C$DW$997       .dwtag  DW_TAG_member
    8964                      .dwattr $C$DW$997, DW_AT_type(*$C$DW$T$19)
    8965                      .dwattr $C$DW$997, DW_AT_name("INTx10")
    8966                      .dwattr $C$DW$997, DW_AT_TI_symbol_name("_INTx10")
    8967                      .dwattr $C$DW$997, DW_AT_bit_offset(0x06), DW_AT_bit_size(0x01)
    8968                      .dwattr $C$DW$997, DW_AT_data_member_location[DW_OP_plus_uconst 0x0]
    8969                      .dwattr $C$DW$997, DW_AT_accessibility(DW_ACCESS_public)
    8970              $C$DW$998       .dwtag  DW_TAG_member
    8971                      .dwattr $C$DW$998, DW_AT_type(*$C$DW$T$19)
    8972                      .dwattr $C$DW$998, DW_AT_name("INTx11")
    8973                      .dwattr $C$DW$998, DW_AT_TI_symbol_name("_INTx11")
    8974                      .dwattr $C$DW$998, DW_AT_bit_offset(0x05), DW_AT_bit_size(0x01)
    8975                      .dwattr $C$DW$998, DW_AT_data_member_location[DW_OP_plus_uconst 0x0]
    8976                      .dwattr $C$DW$998, DW_AT_accessibility(DW_ACCESS_public)
    8977              $C$DW$999       .dwtag  DW_TAG_member
    8978                      .dwattr $C$DW$999, DW_AT_type(*$C$DW$T$19)
    8979                      .dwattr $C$DW$999, DW_AT_name("INTx12")
    8980                      .dwattr $C$DW$999, DW_AT_TI_symbol_name("_INTx12")
    8981                      .dwattr $C$DW$999, DW_AT_bit_offset(0x04), DW_AT_bit_size(0x01)
    8982                      .dwattr $C$DW$999, DW_AT_data_member_location[DW_OP_plus_uconst 0x0]
    8983                      .dwattr $C$DW$999, DW_AT_accessibility(DW_ACCESS_public)
    8984              $C$DW$1000      .dwtag  DW_TAG_member
    8985                      .dwattr $C$DW$1000, DW_AT_type(*$C$DW$T$19)
    8986                      .dwattr $C$DW$1000, DW_AT_name("INTx13")
    8987                      .dwattr $C$DW$1000, DW_AT_TI_symbol_name("_INTx13")
    8988                      .dwattr $C$DW$1000, DW_AT_bit_offset(0x03), DW_AT_bit_size(0x01)
    8989                      .dwattr $C$DW$1000, DW_AT_data_member_location[DW_OP_plus_uconst 0x0]
    8990                      .dwattr $C$DW$1000, DW_AT_accessibility(DW_ACCESS_public)
    8991              $C$DW$1001      .dwtag  DW_TAG_member
    8992                      .dwattr $C$DW$1001, DW_AT_type(*$C$DW$T$19)
    8993                      .dwattr $C$DW$1001, DW_AT_name("INTx14")
    8994                      .dwattr $C$DW$1001, DW_AT_TI_symbol_name("_INTx14")
    8995                      .dwattr $C$DW$1001, DW_AT_bit_offset(0x02), DW_AT_bit_size(0x01)
    8996                      .dwattr $C$DW$1001, DW_AT_data_member_location[DW_OP_plus_uconst 0x0]
    8997                      .dwattr $C$DW$1001, DW_AT_accessibility(DW_ACCESS_public)
    8998              $C$DW$1002      .dwtag  DW_TAG_member
    8999                      .dwattr $C$DW$1002, DW_AT_type(*$C$DW$T$19)
    9000                      .dwattr $C$DW$1002, DW_AT_name("INTx15")
    9001                      .dwattr $C$DW$1002, DW_AT_TI_symbol_name("_INTx15")
    9002                      .dwattr $C$DW$1002, DW_AT_bit_offset(0x01), DW_AT_bit_size(0x01)
TMS320C2000 Assembler PC v6.1.3 Thu Jan 30 10:26:14 2014

Tools Copyright (c) 1996-2012 Texas Instruments Incorporated
C:\Users\a0272466\AppData\Local\Temp\0274010                         PAGE  170

    9003                      .dwattr $C$DW$1002, DW_AT_data_member_location[DW_OP_plus_uconst 0x0]
    9004                      .dwattr $C$DW$1002, DW_AT_accessibility(DW_ACCESS_public)
    9005              $C$DW$1003      .dwtag  DW_TAG_member
    9006                      .dwattr $C$DW$1003, DW_AT_type(*$C$DW$T$19)
    9007                      .dwattr $C$DW$1003, DW_AT_name("INTx16")
    9008                      .dwattr $C$DW$1003, DW_AT_TI_symbol_name("_INTx16")
    9009                      .dwattr $C$DW$1003, DW_AT_bit_offset(0x00), DW_AT_bit_size(0x01)
    9010                      .dwattr $C$DW$1003, DW_AT_data_member_location[DW_OP_plus_uconst 0x0]
    9011                      .dwattr $C$DW$1003, DW_AT_accessibility(DW_ACCESS_public)
    9012                      .dwendtag $C$DW$T$130
    9013              
    9014              
    9015              $C$DW$T$131     .dwtag  DW_TAG_union_type
    9016                      .dwattr $C$DW$T$131, DW_AT_name("PIEIFR3_REG")
    9017                      .dwattr $C$DW$T$131, DW_AT_byte_size(0x01)
    9018              $C$DW$1004      .dwtag  DW_TAG_member
    9019                      .dwattr $C$DW$1004, DW_AT_type(*$C$DW$T$19)
    9020                      .dwattr $C$DW$1004, DW_AT_name("all")
    9021                      .dwattr $C$DW$1004, DW_AT_TI_symbol_name("_all")
    9022                      .dwattr $C$DW$1004, DW_AT_data_member_location[DW_OP_plus_uconst 0x0]
    9023                      .dwattr $C$DW$1004, DW_AT_accessibility(DW_ACCESS_public)
    9024              $C$DW$1005      .dwtag  DW_TAG_member
    9025                      .dwattr $C$DW$1005, DW_AT_type(*$C$DW$T$130)
    9026                      .dwattr $C$DW$1005, DW_AT_name("bit")
    9027                      .dwattr $C$DW$1005, DW_AT_TI_symbol_name("_bit")
    9028                      .dwattr $C$DW$1005, DW_AT_data_member_location[DW_OP_plus_uconst 0x0]
    9029                      .dwattr $C$DW$1005, DW_AT_accessibility(DW_ACCESS_public)
    9030                      .dwendtag $C$DW$T$131
    9031              
    9032              
    9033              $C$DW$T$132     .dwtag  DW_TAG_structure_type
    9034                      .dwattr $C$DW$T$132, DW_AT_name("PIEIFR4_BITS")
    9035                      .dwattr $C$DW$T$132, DW_AT_byte_size(0x01)
    9036              $C$DW$1006      .dwtag  DW_TAG_member
    9037                      .dwattr $C$DW$1006, DW_AT_type(*$C$DW$T$19)
    9038                      .dwattr $C$DW$1006, DW_AT_name("INTx1")
    9039                      .dwattr $C$DW$1006, DW_AT_TI_symbol_name("_INTx1")
    9040                      .dwattr $C$DW$1006, DW_AT_bit_offset(0x0f), DW_AT_bit_size(0x01)
    9041                      .dwattr $C$DW$1006, DW_AT_data_member_location[DW_OP_plus_uconst 0x0]
    9042                      .dwattr $C$DW$1006, DW_AT_accessibility(DW_ACCESS_public)
    9043              $C$DW$1007      .dwtag  DW_TAG_member
    9044                      .dwattr $C$DW$1007, DW_AT_type(*$C$DW$T$19)
    9045                      .dwattr $C$DW$1007, DW_AT_name("INTx2")
    9046                      .dwattr $C$DW$1007, DW_AT_TI_symbol_name("_INTx2")
    9047                      .dwattr $C$DW$1007, DW_AT_bit_offset(0x0e), DW_AT_bit_size(0x01)
    9048                      .dwattr $C$DW$1007, DW_AT_data_member_location[DW_OP_plus_uconst 0x0]
    9049                      .dwattr $C$DW$1007, DW_AT_accessibility(DW_ACCESS_public)
    9050              $C$DW$1008      .dwtag  DW_TAG_member
    9051                      .dwattr $C$DW$1008, DW_AT_type(*$C$DW$T$19)
    9052                      .dwattr $C$DW$1008, DW_AT_name("INTx3")
    9053                      .dwattr $C$DW$1008, DW_AT_TI_symbol_name("_INTx3")
    9054                      .dwattr $C$DW$1008, DW_AT_bit_offset(0x0d), DW_AT_bit_size(0x01)
    9055                      .dwattr $C$DW$1008, DW_AT_data_member_location[DW_OP_plus_uconst 0x0]
    9056                      .dwattr $C$DW$1008, DW_AT_accessibility(DW_ACCESS_public)
    9057              $C$DW$1009      .dwtag  DW_TAG_member
TMS320C2000 Assembler PC v6.1.3 Thu Jan 30 10:26:14 2014

Tools Copyright (c) 1996-2012 Texas Instruments Incorporated
C:\Users\a0272466\AppData\Local\Temp\0274010                         PAGE  171

    9058                      .dwattr $C$DW$1009, DW_AT_type(*$C$DW$T$19)
    9059                      .dwattr $C$DW$1009, DW_AT_name("INTx4")
    9060                      .dwattr $C$DW$1009, DW_AT_TI_symbol_name("_INTx4")
    9061                      .dwattr $C$DW$1009, DW_AT_bit_offset(0x0c), DW_AT_bit_size(0x01)
    9062                      .dwattr $C$DW$1009, DW_AT_data_member_location[DW_OP_plus_uconst 0x0]
    9063                      .dwattr $C$DW$1009, DW_AT_accessibility(DW_ACCESS_public)
    9064              $C$DW$1010      .dwtag  DW_TAG_member
    9065                      .dwattr $C$DW$1010, DW_AT_type(*$C$DW$T$19)
    9066                      .dwattr $C$DW$1010, DW_AT_name("INTx5")
    9067                      .dwattr $C$DW$1010, DW_AT_TI_symbol_name("_INTx5")
    9068                      .dwattr $C$DW$1010, DW_AT_bit_offset(0x0b), DW_AT_bit_size(0x01)
    9069                      .dwattr $C$DW$1010, DW_AT_data_member_location[DW_OP_plus_uconst 0x0]
    9070                      .dwattr $C$DW$1010, DW_AT_accessibility(DW_ACCESS_public)
    9071              $C$DW$1011      .dwtag  DW_TAG_member
    9072                      .dwattr $C$DW$1011, DW_AT_type(*$C$DW$T$19)
    9073                      .dwattr $C$DW$1011, DW_AT_name("INTx6")
    9074                      .dwattr $C$DW$1011, DW_AT_TI_symbol_name("_INTx6")
    9075                      .dwattr $C$DW$1011, DW_AT_bit_offset(0x0a), DW_AT_bit_size(0x01)
    9076                      .dwattr $C$DW$1011, DW_AT_data_member_location[DW_OP_plus_uconst 0x0]
    9077                      .dwattr $C$DW$1011, DW_AT_accessibility(DW_ACCESS_public)
    9078              $C$DW$1012      .dwtag  DW_TAG_member
    9079                      .dwattr $C$DW$1012, DW_AT_type(*$C$DW$T$19)
    9080                      .dwattr $C$DW$1012, DW_AT_name("INTx7")
    9081                      .dwattr $C$DW$1012, DW_AT_TI_symbol_name("_INTx7")
    9082                      .dwattr $C$DW$1012, DW_AT_bit_offset(0x09), DW_AT_bit_size(0x01)
    9083                      .dwattr $C$DW$1012, DW_AT_data_member_location[DW_OP_plus_uconst 0x0]
    9084                      .dwattr $C$DW$1012, DW_AT_accessibility(DW_ACCESS_public)
    9085              $C$DW$1013      .dwtag  DW_TAG_member
    9086                      .dwattr $C$DW$1013, DW_AT_type(*$C$DW$T$19)
    9087                      .dwattr $C$DW$1013, DW_AT_name("INTx8")
    9088                      .dwattr $C$DW$1013, DW_AT_TI_symbol_name("_INTx8")
    9089                      .dwattr $C$DW$1013, DW_AT_bit_offset(0x08), DW_AT_bit_size(0x01)
    9090                      .dwattr $C$DW$1013, DW_AT_data_member_location[DW_OP_plus_uconst 0x0]
    9091                      .dwattr $C$DW$1013, DW_AT_accessibility(DW_ACCESS_public)
    9092              $C$DW$1014      .dwtag  DW_TAG_member
    9093                      .dwattr $C$DW$1014, DW_AT_type(*$C$DW$T$19)
    9094                      .dwattr $C$DW$1014, DW_AT_name("INTx9")
    9095                      .dwattr $C$DW$1014, DW_AT_TI_symbol_name("_INTx9")
    9096                      .dwattr $C$DW$1014, DW_AT_bit_offset(0x07), DW_AT_bit_size(0x01)
    9097                      .dwattr $C$DW$1014, DW_AT_data_member_location[DW_OP_plus_uconst 0x0]
    9098                      .dwattr $C$DW$1014, DW_AT_accessibility(DW_ACCESS_public)
    9099              $C$DW$1015      .dwtag  DW_TAG_member
    9100                      .dwattr $C$DW$1015, DW_AT_type(*$C$DW$T$19)
    9101                      .dwattr $C$DW$1015, DW_AT_name("INTx10")
    9102                      .dwattr $C$DW$1015, DW_AT_TI_symbol_name("_INTx10")
    9103                      .dwattr $C$DW$1015, DW_AT_bit_offset(0x06), DW_AT_bit_size(0x01)
    9104                      .dwattr $C$DW$1015, DW_AT_data_member_location[DW_OP_plus_uconst 0x0]
    9105                      .dwattr $C$DW$1015, DW_AT_accessibility(DW_ACCESS_public)
    9106              $C$DW$1016      .dwtag  DW_TAG_member
    9107                      .dwattr $C$DW$1016, DW_AT_type(*$C$DW$T$19)
    9108                      .dwattr $C$DW$1016, DW_AT_name("INTx11")
    9109                      .dwattr $C$DW$1016, DW_AT_TI_symbol_name("_INTx11")
    9110                      .dwattr $C$DW$1016, DW_AT_bit_offset(0x05), DW_AT_bit_size(0x01)
    9111                      .dwattr $C$DW$1016, DW_AT_data_member_location[DW_OP_plus_uconst 0x0]
    9112                      .dwattr $C$DW$1016, DW_AT_accessibility(DW_ACCESS_public)
TMS320C2000 Assembler PC v6.1.3 Thu Jan 30 10:26:14 2014

Tools Copyright (c) 1996-2012 Texas Instruments Incorporated
C:\Users\a0272466\AppData\Local\Temp\0274010                         PAGE  172

    9113              $C$DW$1017      .dwtag  DW_TAG_member
    9114                      .dwattr $C$DW$1017, DW_AT_type(*$C$DW$T$19)
    9115                      .dwattr $C$DW$1017, DW_AT_name("INTx12")
    9116                      .dwattr $C$DW$1017, DW_AT_TI_symbol_name("_INTx12")
    9117                      .dwattr $C$DW$1017, DW_AT_bit_offset(0x04), DW_AT_bit_size(0x01)
    9118                      .dwattr $C$DW$1017, DW_AT_data_member_location[DW_OP_plus_uconst 0x0]
    9119                      .dwattr $C$DW$1017, DW_AT_accessibility(DW_ACCESS_public)
    9120              $C$DW$1018      .dwtag  DW_TAG_member
    9121                      .dwattr $C$DW$1018, DW_AT_type(*$C$DW$T$19)
    9122                      .dwattr $C$DW$1018, DW_AT_name("INTx13")
    9123                      .dwattr $C$DW$1018, DW_AT_TI_symbol_name("_INTx13")
    9124                      .dwattr $C$DW$1018, DW_AT_bit_offset(0x03), DW_AT_bit_size(0x01)
    9125                      .dwattr $C$DW$1018, DW_AT_data_member_location[DW_OP_plus_uconst 0x0]
    9126                      .dwattr $C$DW$1018, DW_AT_accessibility(DW_ACCESS_public)
    9127              $C$DW$1019      .dwtag  DW_TAG_member
    9128                      .dwattr $C$DW$1019, DW_AT_type(*$C$DW$T$19)
    9129                      .dwattr $C$DW$1019, DW_AT_name("INTx14")
    9130                      .dwattr $C$DW$1019, DW_AT_TI_symbol_name("_INTx14")
    9131                      .dwattr $C$DW$1019, DW_AT_bit_offset(0x02), DW_AT_bit_size(0x01)
    9132                      .dwattr $C$DW$1019, DW_AT_data_member_location[DW_OP_plus_uconst 0x0]
    9133                      .dwattr $C$DW$1019, DW_AT_accessibility(DW_ACCESS_public)
    9134              $C$DW$1020      .dwtag  DW_TAG_member
    9135                      .dwattr $C$DW$1020, DW_AT_type(*$C$DW$T$19)
    9136                      .dwattr $C$DW$1020, DW_AT_name("INTx15")
    9137                      .dwattr $C$DW$1020, DW_AT_TI_symbol_name("_INTx15")
    9138                      .dwattr $C$DW$1020, DW_AT_bit_offset(0x01), DW_AT_bit_size(0x01)
    9139                      .dwattr $C$DW$1020, DW_AT_data_member_location[DW_OP_plus_uconst 0x0]
    9140                      .dwattr $C$DW$1020, DW_AT_accessibility(DW_ACCESS_public)
    9141              $C$DW$1021      .dwtag  DW_TAG_member
    9142                      .dwattr $C$DW$1021, DW_AT_type(*$C$DW$T$19)
    9143                      .dwattr $C$DW$1021, DW_AT_name("INTx16")
    9144                      .dwattr $C$DW$1021, DW_AT_TI_symbol_name("_INTx16")
    9145                      .dwattr $C$DW$1021, DW_AT_bit_offset(0x00), DW_AT_bit_size(0x01)
    9146                      .dwattr $C$DW$1021, DW_AT_data_member_location[DW_OP_plus_uconst 0x0]
    9147                      .dwattr $C$DW$1021, DW_AT_accessibility(DW_ACCESS_public)
    9148                      .dwendtag $C$DW$T$132
    9149              
    9150              
    9151              $C$DW$T$133     .dwtag  DW_TAG_union_type
    9152                      .dwattr $C$DW$T$133, DW_AT_name("PIEIFR4_REG")
    9153                      .dwattr $C$DW$T$133, DW_AT_byte_size(0x01)
    9154              $C$DW$1022      .dwtag  DW_TAG_member
    9155                      .dwattr $C$DW$1022, DW_AT_type(*$C$DW$T$19)
    9156                      .dwattr $C$DW$1022, DW_AT_name("all")
    9157                      .dwattr $C$DW$1022, DW_AT_TI_symbol_name("_all")
    9158                      .dwattr $C$DW$1022, DW_AT_data_member_location[DW_OP_plus_uconst 0x0]
    9159                      .dwattr $C$DW$1022, DW_AT_accessibility(DW_ACCESS_public)
    9160              $C$DW$1023      .dwtag  DW_TAG_member
    9161                      .dwattr $C$DW$1023, DW_AT_type(*$C$DW$T$132)
    9162                      .dwattr $C$DW$1023, DW_AT_name("bit")
    9163                      .dwattr $C$DW$1023, DW_AT_TI_symbol_name("_bit")
    9164                      .dwattr $C$DW$1023, DW_AT_data_member_location[DW_OP_plus_uconst 0x0]
    9165                      .dwattr $C$DW$1023, DW_AT_accessibility(DW_ACCESS_public)
    9166                      .dwendtag $C$DW$T$133
    9167              
TMS320C2000 Assembler PC v6.1.3 Thu Jan 30 10:26:14 2014

Tools Copyright (c) 1996-2012 Texas Instruments Incorporated
C:\Users\a0272466\AppData\Local\Temp\0274010                         PAGE  173

    9168              
    9169              $C$DW$T$134     .dwtag  DW_TAG_structure_type
    9170                      .dwattr $C$DW$T$134, DW_AT_name("PIEIFR5_BITS")
    9171                      .dwattr $C$DW$T$134, DW_AT_byte_size(0x01)
    9172              $C$DW$1024      .dwtag  DW_TAG_member
    9173                      .dwattr $C$DW$1024, DW_AT_type(*$C$DW$T$19)
    9174                      .dwattr $C$DW$1024, DW_AT_name("INTx1")
    9175                      .dwattr $C$DW$1024, DW_AT_TI_symbol_name("_INTx1")
    9176                      .dwattr $C$DW$1024, DW_AT_bit_offset(0x0f), DW_AT_bit_size(0x01)
    9177                      .dwattr $C$DW$1024, DW_AT_data_member_location[DW_OP_plus_uconst 0x0]
    9178                      .dwattr $C$DW$1024, DW_AT_accessibility(DW_ACCESS_public)
    9179              $C$DW$1025      .dwtag  DW_TAG_member
    9180                      .dwattr $C$DW$1025, DW_AT_type(*$C$DW$T$19)
    9181                      .dwattr $C$DW$1025, DW_AT_name("INTx2")
    9182                      .dwattr $C$DW$1025, DW_AT_TI_symbol_name("_INTx2")
    9183                      .dwattr $C$DW$1025, DW_AT_bit_offset(0x0e), DW_AT_bit_size(0x01)
    9184                      .dwattr $C$DW$1025, DW_AT_data_member_location[DW_OP_plus_uconst 0x0]
    9185                      .dwattr $C$DW$1025, DW_AT_accessibility(DW_ACCESS_public)
    9186              $C$DW$1026      .dwtag  DW_TAG_member
    9187                      .dwattr $C$DW$1026, DW_AT_type(*$C$DW$T$19)
    9188                      .dwattr $C$DW$1026, DW_AT_name("INTx3")
    9189                      .dwattr $C$DW$1026, DW_AT_TI_symbol_name("_INTx3")
    9190                      .dwattr $C$DW$1026, DW_AT_bit_offset(0x0d), DW_AT_bit_size(0x01)
    9191                      .dwattr $C$DW$1026, DW_AT_data_member_location[DW_OP_plus_uconst 0x0]
    9192                      .dwattr $C$DW$1026, DW_AT_accessibility(DW_ACCESS_public)
    9193              $C$DW$1027      .dwtag  DW_TAG_member
    9194                      .dwattr $C$DW$1027, DW_AT_type(*$C$DW$T$19)
    9195                      .dwattr $C$DW$1027, DW_AT_name("INTx4")
    9196                      .dwattr $C$DW$1027, DW_AT_TI_symbol_name("_INTx4")
    9197                      .dwattr $C$DW$1027, DW_AT_bit_offset(0x0c), DW_AT_bit_size(0x01)
    9198                      .dwattr $C$DW$1027, DW_AT_data_member_location[DW_OP_plus_uconst 0x0]
    9199                      .dwattr $C$DW$1027, DW_AT_accessibility(DW_ACCESS_public)
    9200              $C$DW$1028      .dwtag  DW_TAG_member
    9201                      .dwattr $C$DW$1028, DW_AT_type(*$C$DW$T$19)
    9202                      .dwattr $C$DW$1028, DW_AT_name("INTx5")
    9203                      .dwattr $C$DW$1028, DW_AT_TI_symbol_name("_INTx5")
    9204                      .dwattr $C$DW$1028, DW_AT_bit_offset(0x0b), DW_AT_bit_size(0x01)
    9205                      .dwattr $C$DW$1028, DW_AT_data_member_location[DW_OP_plus_uconst 0x0]
    9206                      .dwattr $C$DW$1028, DW_AT_accessibility(DW_ACCESS_public)
    9207              $C$DW$1029      .dwtag  DW_TAG_member
    9208                      .dwattr $C$DW$1029, DW_AT_type(*$C$DW$T$19)
    9209                      .dwattr $C$DW$1029, DW_AT_name("INTx6")
    9210                      .dwattr $C$DW$1029, DW_AT_TI_symbol_name("_INTx6")
    9211                      .dwattr $C$DW$1029, DW_AT_bit_offset(0x0a), DW_AT_bit_size(0x01)
    9212                      .dwattr $C$DW$1029, DW_AT_data_member_location[DW_OP_plus_uconst 0x0]
    9213                      .dwattr $C$DW$1029, DW_AT_accessibility(DW_ACCESS_public)
    9214              $C$DW$1030      .dwtag  DW_TAG_member
    9215                      .dwattr $C$DW$1030, DW_AT_type(*$C$DW$T$19)
    9216                      .dwattr $C$DW$1030, DW_AT_name("INTx7")
    9217                      .dwattr $C$DW$1030, DW_AT_TI_symbol_name("_INTx7")
    9218                      .dwattr $C$DW$1030, DW_AT_bit_offset(0x09), DW_AT_bit_size(0x01)
    9219                      .dwattr $C$DW$1030, DW_AT_data_member_location[DW_OP_plus_uconst 0x0]
    9220                      .dwattr $C$DW$1030, DW_AT_accessibility(DW_ACCESS_public)
    9221              $C$DW$1031      .dwtag  DW_TAG_member
    9222                      .dwattr $C$DW$1031, DW_AT_type(*$C$DW$T$19)
TMS320C2000 Assembler PC v6.1.3 Thu Jan 30 10:26:14 2014

Tools Copyright (c) 1996-2012 Texas Instruments Incorporated
C:\Users\a0272466\AppData\Local\Temp\0274010                         PAGE  174

    9223                      .dwattr $C$DW$1031, DW_AT_name("INTx8")
    9224                      .dwattr $C$DW$1031, DW_AT_TI_symbol_name("_INTx8")
    9225                      .dwattr $C$DW$1031, DW_AT_bit_offset(0x08), DW_AT_bit_size(0x01)
    9226                      .dwattr $C$DW$1031, DW_AT_data_member_location[DW_OP_plus_uconst 0x0]
    9227                      .dwattr $C$DW$1031, DW_AT_accessibility(DW_ACCESS_public)
    9228              $C$DW$1032      .dwtag  DW_TAG_member
    9229                      .dwattr $C$DW$1032, DW_AT_type(*$C$DW$T$19)
    9230                      .dwattr $C$DW$1032, DW_AT_name("INTx9")
    9231                      .dwattr $C$DW$1032, DW_AT_TI_symbol_name("_INTx9")
    9232                      .dwattr $C$DW$1032, DW_AT_bit_offset(0x07), DW_AT_bit_size(0x01)
    9233                      .dwattr $C$DW$1032, DW_AT_data_member_location[DW_OP_plus_uconst 0x0]
    9234                      .dwattr $C$DW$1032, DW_AT_accessibility(DW_ACCESS_public)
    9235              $C$DW$1033      .dwtag  DW_TAG_member
    9236                      .dwattr $C$DW$1033, DW_AT_type(*$C$DW$T$19)
    9237                      .dwattr $C$DW$1033, DW_AT_name("INTx10")
    9238                      .dwattr $C$DW$1033, DW_AT_TI_symbol_name("_INTx10")
    9239                      .dwattr $C$DW$1033, DW_AT_bit_offset(0x06), DW_AT_bit_size(0x01)
    9240                      .dwattr $C$DW$1033, DW_AT_data_member_location[DW_OP_plus_uconst 0x0]
    9241                      .dwattr $C$DW$1033, DW_AT_accessibility(DW_ACCESS_public)
    9242              $C$DW$1034      .dwtag  DW_TAG_member
    9243                      .dwattr $C$DW$1034, DW_AT_type(*$C$DW$T$19)
    9244                      .dwattr $C$DW$1034, DW_AT_name("INTx11")
    9245                      .dwattr $C$DW$1034, DW_AT_TI_symbol_name("_INTx11")
    9246                      .dwattr $C$DW$1034, DW_AT_bit_offset(0x05), DW_AT_bit_size(0x01)
    9247                      .dwattr $C$DW$1034, DW_AT_data_member_location[DW_OP_plus_uconst 0x0]
    9248                      .dwattr $C$DW$1034, DW_AT_accessibility(DW_ACCESS_public)
    9249              $C$DW$1035      .dwtag  DW_TAG_member
    9250                      .dwattr $C$DW$1035, DW_AT_type(*$C$DW$T$19)
    9251                      .dwattr $C$DW$1035, DW_AT_name("INTx12")
    9252                      .dwattr $C$DW$1035, DW_AT_TI_symbol_name("_INTx12")
    9253                      .dwattr $C$DW$1035, DW_AT_bit_offset(0x04), DW_AT_bit_size(0x01)
    9254                      .dwattr $C$DW$1035, DW_AT_data_member_location[DW_OP_plus_uconst 0x0]
    9255                      .dwattr $C$DW$1035, DW_AT_accessibility(DW_ACCESS_public)
    9256              $C$DW$1036      .dwtag  DW_TAG_member
    9257                      .dwattr $C$DW$1036, DW_AT_type(*$C$DW$T$19)
    9258                      .dwattr $C$DW$1036, DW_AT_name("INTx13")
    9259                      .dwattr $C$DW$1036, DW_AT_TI_symbol_name("_INTx13")
    9260                      .dwattr $C$DW$1036, DW_AT_bit_offset(0x03), DW_AT_bit_size(0x01)
    9261                      .dwattr $C$DW$1036, DW_AT_data_member_location[DW_OP_plus_uconst 0x0]
    9262                      .dwattr $C$DW$1036, DW_AT_accessibility(DW_ACCESS_public)
    9263              $C$DW$1037      .dwtag  DW_TAG_member
    9264                      .dwattr $C$DW$1037, DW_AT_type(*$C$DW$T$19)
    9265                      .dwattr $C$DW$1037, DW_AT_name("INTx14")
    9266                      .dwattr $C$DW$1037, DW_AT_TI_symbol_name("_INTx14")
    9267                      .dwattr $C$DW$1037, DW_AT_bit_offset(0x02), DW_AT_bit_size(0x01)
    9268                      .dwattr $C$DW$1037, DW_AT_data_member_location[DW_OP_plus_uconst 0x0]
    9269                      .dwattr $C$DW$1037, DW_AT_accessibility(DW_ACCESS_public)
    9270              $C$DW$1038      .dwtag  DW_TAG_member
    9271                      .dwattr $C$DW$1038, DW_AT_type(*$C$DW$T$19)
    9272                      .dwattr $C$DW$1038, DW_AT_name("INTx15")
    9273                      .dwattr $C$DW$1038, DW_AT_TI_symbol_name("_INTx15")
    9274                      .dwattr $C$DW$1038, DW_AT_bit_offset(0x01), DW_AT_bit_size(0x01)
    9275                      .dwattr $C$DW$1038, DW_AT_data_member_location[DW_OP_plus_uconst 0x0]
    9276                      .dwattr $C$DW$1038, DW_AT_accessibility(DW_ACCESS_public)
    9277              $C$DW$1039      .dwtag  DW_TAG_member
TMS320C2000 Assembler PC v6.1.3 Thu Jan 30 10:26:14 2014

Tools Copyright (c) 1996-2012 Texas Instruments Incorporated
C:\Users\a0272466\AppData\Local\Temp\0274010                         PAGE  175

    9278                      .dwattr $C$DW$1039, DW_AT_type(*$C$DW$T$19)
    9279                      .dwattr $C$DW$1039, DW_AT_name("INTx16")
    9280                      .dwattr $C$DW$1039, DW_AT_TI_symbol_name("_INTx16")
    9281                      .dwattr $C$DW$1039, DW_AT_bit_offset(0x00), DW_AT_bit_size(0x01)
    9282                      .dwattr $C$DW$1039, DW_AT_data_member_location[DW_OP_plus_uconst 0x0]
    9283                      .dwattr $C$DW$1039, DW_AT_accessibility(DW_ACCESS_public)
    9284                      .dwendtag $C$DW$T$134
    9285              
    9286              
    9287              $C$DW$T$135     .dwtag  DW_TAG_union_type
    9288                      .dwattr $C$DW$T$135, DW_AT_name("PIEIFR5_REG")
    9289                      .dwattr $C$DW$T$135, DW_AT_byte_size(0x01)
    9290              $C$DW$1040      .dwtag  DW_TAG_member
    9291                      .dwattr $C$DW$1040, DW_AT_type(*$C$DW$T$19)
    9292                      .dwattr $C$DW$1040, DW_AT_name("all")
    9293                      .dwattr $C$DW$1040, DW_AT_TI_symbol_name("_all")
    9294                      .dwattr $C$DW$1040, DW_AT_data_member_location[DW_OP_plus_uconst 0x0]
    9295                      .dwattr $C$DW$1040, DW_AT_accessibility(DW_ACCESS_public)
    9296              $C$DW$1041      .dwtag  DW_TAG_member
    9297                      .dwattr $C$DW$1041, DW_AT_type(*$C$DW$T$134)
    9298                      .dwattr $C$DW$1041, DW_AT_name("bit")
    9299                      .dwattr $C$DW$1041, DW_AT_TI_symbol_name("_bit")
    9300                      .dwattr $C$DW$1041, DW_AT_data_member_location[DW_OP_plus_uconst 0x0]
    9301                      .dwattr $C$DW$1041, DW_AT_accessibility(DW_ACCESS_public)
    9302                      .dwendtag $C$DW$T$135
    9303              
    9304              
    9305              $C$DW$T$136     .dwtag  DW_TAG_structure_type
    9306                      .dwattr $C$DW$T$136, DW_AT_name("PIEIFR6_BITS")
    9307                      .dwattr $C$DW$T$136, DW_AT_byte_size(0x01)
    9308              $C$DW$1042      .dwtag  DW_TAG_member
    9309                      .dwattr $C$DW$1042, DW_AT_type(*$C$DW$T$19)
    9310                      .dwattr $C$DW$1042, DW_AT_name("INTx1")
    9311                      .dwattr $C$DW$1042, DW_AT_TI_symbol_name("_INTx1")
    9312                      .dwattr $C$DW$1042, DW_AT_bit_offset(0x0f), DW_AT_bit_size(0x01)
    9313                      .dwattr $C$DW$1042, DW_AT_data_member_location[DW_OP_plus_uconst 0x0]
    9314                      .dwattr $C$DW$1042, DW_AT_accessibility(DW_ACCESS_public)
    9315              $C$DW$1043      .dwtag  DW_TAG_member
    9316                      .dwattr $C$DW$1043, DW_AT_type(*$C$DW$T$19)
    9317                      .dwattr $C$DW$1043, DW_AT_name("INTx2")
    9318                      .dwattr $C$DW$1043, DW_AT_TI_symbol_name("_INTx2")
    9319                      .dwattr $C$DW$1043, DW_AT_bit_offset(0x0e), DW_AT_bit_size(0x01)
    9320                      .dwattr $C$DW$1043, DW_AT_data_member_location[DW_OP_plus_uconst 0x0]
    9321                      .dwattr $C$DW$1043, DW_AT_accessibility(DW_ACCESS_public)
    9322              $C$DW$1044      .dwtag  DW_TAG_member
    9323                      .dwattr $C$DW$1044, DW_AT_type(*$C$DW$T$19)
    9324                      .dwattr $C$DW$1044, DW_AT_name("INTx3")
    9325                      .dwattr $C$DW$1044, DW_AT_TI_symbol_name("_INTx3")
    9326                      .dwattr $C$DW$1044, DW_AT_bit_offset(0x0d), DW_AT_bit_size(0x01)
    9327                      .dwattr $C$DW$1044, DW_AT_data_member_location[DW_OP_plus_uconst 0x0]
    9328                      .dwattr $C$DW$1044, DW_AT_accessibility(DW_ACCESS_public)
    9329              $C$DW$1045      .dwtag  DW_TAG_member
    9330                      .dwattr $C$DW$1045, DW_AT_type(*$C$DW$T$19)
    9331                      .dwattr $C$DW$1045, DW_AT_name("INTx4")
    9332                      .dwattr $C$DW$1045, DW_AT_TI_symbol_name("_INTx4")
TMS320C2000 Assembler PC v6.1.3 Thu Jan 30 10:26:14 2014

Tools Copyright (c) 1996-2012 Texas Instruments Incorporated
C:\Users\a0272466\AppData\Local\Temp\0274010                         PAGE  176

    9333                      .dwattr $C$DW$1045, DW_AT_bit_offset(0x0c), DW_AT_bit_size(0x01)
    9334                      .dwattr $C$DW$1045, DW_AT_data_member_location[DW_OP_plus_uconst 0x0]
    9335                      .dwattr $C$DW$1045, DW_AT_accessibility(DW_ACCESS_public)
    9336              $C$DW$1046      .dwtag  DW_TAG_member
    9337                      .dwattr $C$DW$1046, DW_AT_type(*$C$DW$T$19)
    9338                      .dwattr $C$DW$1046, DW_AT_name("INTx5")
    9339                      .dwattr $C$DW$1046, DW_AT_TI_symbol_name("_INTx5")
    9340                      .dwattr $C$DW$1046, DW_AT_bit_offset(0x0b), DW_AT_bit_size(0x01)
    9341                      .dwattr $C$DW$1046, DW_AT_data_member_location[DW_OP_plus_uconst 0x0]
    9342                      .dwattr $C$DW$1046, DW_AT_accessibility(DW_ACCESS_public)
    9343              $C$DW$1047      .dwtag  DW_TAG_member
    9344                      .dwattr $C$DW$1047, DW_AT_type(*$C$DW$T$19)
    9345                      .dwattr $C$DW$1047, DW_AT_name("INTx6")
    9346                      .dwattr $C$DW$1047, DW_AT_TI_symbol_name("_INTx6")
    9347                      .dwattr $C$DW$1047, DW_AT_bit_offset(0x0a), DW_AT_bit_size(0x01)
    9348                      .dwattr $C$DW$1047, DW_AT_data_member_location[DW_OP_plus_uconst 0x0]
    9349                      .dwattr $C$DW$1047, DW_AT_accessibility(DW_ACCESS_public)
    9350              $C$DW$1048      .dwtag  DW_TAG_member
    9351                      .dwattr $C$DW$1048, DW_AT_type(*$C$DW$T$19)
    9352                      .dwattr $C$DW$1048, DW_AT_name("INTx7")
    9353                      .dwattr $C$DW$1048, DW_AT_TI_symbol_name("_INTx7")
    9354                      .dwattr $C$DW$1048, DW_AT_bit_offset(0x09), DW_AT_bit_size(0x01)
    9355                      .dwattr $C$DW$1048, DW_AT_data_member_location[DW_OP_plus_uconst 0x0]
    9356                      .dwattr $C$DW$1048, DW_AT_accessibility(DW_ACCESS_public)
    9357              $C$DW$1049      .dwtag  DW_TAG_member
    9358                      .dwattr $C$DW$1049, DW_AT_type(*$C$DW$T$19)
    9359                      .dwattr $C$DW$1049, DW_AT_name("INTx8")
    9360                      .dwattr $C$DW$1049, DW_AT_TI_symbol_name("_INTx8")
    9361                      .dwattr $C$DW$1049, DW_AT_bit_offset(0x08), DW_AT_bit_size(0x01)
    9362                      .dwattr $C$DW$1049, DW_AT_data_member_location[DW_OP_plus_uconst 0x0]
    9363                      .dwattr $C$DW$1049, DW_AT_accessibility(DW_ACCESS_public)
    9364              $C$DW$1050      .dwtag  DW_TAG_member
    9365                      .dwattr $C$DW$1050, DW_AT_type(*$C$DW$T$19)
    9366                      .dwattr $C$DW$1050, DW_AT_name("INTx9")
    9367                      .dwattr $C$DW$1050, DW_AT_TI_symbol_name("_INTx9")
    9368                      .dwattr $C$DW$1050, DW_AT_bit_offset(0x07), DW_AT_bit_size(0x01)
    9369                      .dwattr $C$DW$1050, DW_AT_data_member_location[DW_OP_plus_uconst 0x0]
    9370                      .dwattr $C$DW$1050, DW_AT_accessibility(DW_ACCESS_public)
    9371              $C$DW$1051      .dwtag  DW_TAG_member
    9372                      .dwattr $C$DW$1051, DW_AT_type(*$C$DW$T$19)
    9373                      .dwattr $C$DW$1051, DW_AT_name("INTx10")
    9374                      .dwattr $C$DW$1051, DW_AT_TI_symbol_name("_INTx10")
    9375                      .dwattr $C$DW$1051, DW_AT_bit_offset(0x06), DW_AT_bit_size(0x01)
    9376                      .dwattr $C$DW$1051, DW_AT_data_member_location[DW_OP_plus_uconst 0x0]
    9377                      .dwattr $C$DW$1051, DW_AT_accessibility(DW_ACCESS_public)
    9378              $C$DW$1052      .dwtag  DW_TAG_member
    9379                      .dwattr $C$DW$1052, DW_AT_type(*$C$DW$T$19)
    9380                      .dwattr $C$DW$1052, DW_AT_name("INTx11")
    9381                      .dwattr $C$DW$1052, DW_AT_TI_symbol_name("_INTx11")
    9382                      .dwattr $C$DW$1052, DW_AT_bit_offset(0x05), DW_AT_bit_size(0x01)
    9383                      .dwattr $C$DW$1052, DW_AT_data_member_location[DW_OP_plus_uconst 0x0]
    9384                      .dwattr $C$DW$1052, DW_AT_accessibility(DW_ACCESS_public)
    9385              $C$DW$1053      .dwtag  DW_TAG_member
    9386                      .dwattr $C$DW$1053, DW_AT_type(*$C$DW$T$19)
    9387                      .dwattr $C$DW$1053, DW_AT_name("INTx12")
TMS320C2000 Assembler PC v6.1.3 Thu Jan 30 10:26:14 2014

Tools Copyright (c) 1996-2012 Texas Instruments Incorporated
C:\Users\a0272466\AppData\Local\Temp\0274010                         PAGE  177

    9388                      .dwattr $C$DW$1053, DW_AT_TI_symbol_name("_INTx12")
    9389                      .dwattr $C$DW$1053, DW_AT_bit_offset(0x04), DW_AT_bit_size(0x01)
    9390                      .dwattr $C$DW$1053, DW_AT_data_member_location[DW_OP_plus_uconst 0x0]
    9391                      .dwattr $C$DW$1053, DW_AT_accessibility(DW_ACCESS_public)
    9392              $C$DW$1054      .dwtag  DW_TAG_member
    9393                      .dwattr $C$DW$1054, DW_AT_type(*$C$DW$T$19)
    9394                      .dwattr $C$DW$1054, DW_AT_name("INTx13")
    9395                      .dwattr $C$DW$1054, DW_AT_TI_symbol_name("_INTx13")
    9396                      .dwattr $C$DW$1054, DW_AT_bit_offset(0x03), DW_AT_bit_size(0x01)
    9397                      .dwattr $C$DW$1054, DW_AT_data_member_location[DW_OP_plus_uconst 0x0]
    9398                      .dwattr $C$DW$1054, DW_AT_accessibility(DW_ACCESS_public)
    9399              $C$DW$1055      .dwtag  DW_TAG_member
    9400                      .dwattr $C$DW$1055, DW_AT_type(*$C$DW$T$19)
    9401                      .dwattr $C$DW$1055, DW_AT_name("INTx14")
    9402                      .dwattr $C$DW$1055, DW_AT_TI_symbol_name("_INTx14")
    9403                      .dwattr $C$DW$1055, DW_AT_bit_offset(0x02), DW_AT_bit_size(0x01)
    9404                      .dwattr $C$DW$1055, DW_AT_data_member_location[DW_OP_plus_uconst 0x0]
    9405                      .dwattr $C$DW$1055, DW_AT_accessibility(DW_ACCESS_public)
    9406              $C$DW$1056      .dwtag  DW_TAG_member
    9407                      .dwattr $C$DW$1056, DW_AT_type(*$C$DW$T$19)
    9408                      .dwattr $C$DW$1056, DW_AT_name("INTx15")
    9409                      .dwattr $C$DW$1056, DW_AT_TI_symbol_name("_INTx15")
    9410                      .dwattr $C$DW$1056, DW_AT_bit_offset(0x01), DW_AT_bit_size(0x01)
    9411                      .dwattr $C$DW$1056, DW_AT_data_member_location[DW_OP_plus_uconst 0x0]
    9412                      .dwattr $C$DW$1056, DW_AT_accessibility(DW_ACCESS_public)
    9413              $C$DW$1057      .dwtag  DW_TAG_member
    9414                      .dwattr $C$DW$1057, DW_AT_type(*$C$DW$T$19)
    9415                      .dwattr $C$DW$1057, DW_AT_name("INTx16")
    9416                      .dwattr $C$DW$1057, DW_AT_TI_symbol_name("_INTx16")
    9417                      .dwattr $C$DW$1057, DW_AT_bit_offset(0x00), DW_AT_bit_size(0x01)
    9418                      .dwattr $C$DW$1057, DW_AT_data_member_location[DW_OP_plus_uconst 0x0]
    9419                      .dwattr $C$DW$1057, DW_AT_accessibility(DW_ACCESS_public)
    9420                      .dwendtag $C$DW$T$136
    9421              
    9422              
    9423              $C$DW$T$137     .dwtag  DW_TAG_union_type
    9424                      .dwattr $C$DW$T$137, DW_AT_name("PIEIFR6_REG")
    9425                      .dwattr $C$DW$T$137, DW_AT_byte_size(0x01)
    9426              $C$DW$1058      .dwtag  DW_TAG_member
    9427                      .dwattr $C$DW$1058, DW_AT_type(*$C$DW$T$19)
    9428                      .dwattr $C$DW$1058, DW_AT_name("all")
    9429                      .dwattr $C$DW$1058, DW_AT_TI_symbol_name("_all")
    9430                      .dwattr $C$DW$1058, DW_AT_data_member_location[DW_OP_plus_uconst 0x0]
    9431                      .dwattr $C$DW$1058, DW_AT_accessibility(DW_ACCESS_public)
    9432              $C$DW$1059      .dwtag  DW_TAG_member
    9433                      .dwattr $C$DW$1059, DW_AT_type(*$C$DW$T$136)
    9434                      .dwattr $C$DW$1059, DW_AT_name("bit")
    9435                      .dwattr $C$DW$1059, DW_AT_TI_symbol_name("_bit")
    9436                      .dwattr $C$DW$1059, DW_AT_data_member_location[DW_OP_plus_uconst 0x0]
    9437                      .dwattr $C$DW$1059, DW_AT_accessibility(DW_ACCESS_public)
    9438                      .dwendtag $C$DW$T$137
    9439              
    9440              
    9441              $C$DW$T$138     .dwtag  DW_TAG_structure_type
    9442                      .dwattr $C$DW$T$138, DW_AT_name("PIEIFR7_BITS")
TMS320C2000 Assembler PC v6.1.3 Thu Jan 30 10:26:14 2014

Tools Copyright (c) 1996-2012 Texas Instruments Incorporated
C:\Users\a0272466\AppData\Local\Temp\0274010                         PAGE  178

    9443                      .dwattr $C$DW$T$138, DW_AT_byte_size(0x01)
    9444              $C$DW$1060      .dwtag  DW_TAG_member
    9445                      .dwattr $C$DW$1060, DW_AT_type(*$C$DW$T$19)
    9446                      .dwattr $C$DW$1060, DW_AT_name("INTx1")
    9447                      .dwattr $C$DW$1060, DW_AT_TI_symbol_name("_INTx1")
    9448                      .dwattr $C$DW$1060, DW_AT_bit_offset(0x0f), DW_AT_bit_size(0x01)
    9449                      .dwattr $C$DW$1060, DW_AT_data_member_location[DW_OP_plus_uconst 0x0]
    9450                      .dwattr $C$DW$1060, DW_AT_accessibility(DW_ACCESS_public)
    9451              $C$DW$1061      .dwtag  DW_TAG_member
    9452                      .dwattr $C$DW$1061, DW_AT_type(*$C$DW$T$19)
    9453                      .dwattr $C$DW$1061, DW_AT_name("INTx2")
    9454                      .dwattr $C$DW$1061, DW_AT_TI_symbol_name("_INTx2")
    9455                      .dwattr $C$DW$1061, DW_AT_bit_offset(0x0e), DW_AT_bit_size(0x01)
    9456                      .dwattr $C$DW$1061, DW_AT_data_member_location[DW_OP_plus_uconst 0x0]
    9457                      .dwattr $C$DW$1061, DW_AT_accessibility(DW_ACCESS_public)
    9458              $C$DW$1062      .dwtag  DW_TAG_member
    9459                      .dwattr $C$DW$1062, DW_AT_type(*$C$DW$T$19)
    9460                      .dwattr $C$DW$1062, DW_AT_name("INTx3")
    9461                      .dwattr $C$DW$1062, DW_AT_TI_symbol_name("_INTx3")
    9462                      .dwattr $C$DW$1062, DW_AT_bit_offset(0x0d), DW_AT_bit_size(0x01)
    9463                      .dwattr $C$DW$1062, DW_AT_data_member_location[DW_OP_plus_uconst 0x0]
    9464                      .dwattr $C$DW$1062, DW_AT_accessibility(DW_ACCESS_public)
    9465              $C$DW$1063      .dwtag  DW_TAG_member
    9466                      .dwattr $C$DW$1063, DW_AT_type(*$C$DW$T$19)
    9467                      .dwattr $C$DW$1063, DW_AT_name("INTx4")
    9468                      .dwattr $C$DW$1063, DW_AT_TI_symbol_name("_INTx4")
    9469                      .dwattr $C$DW$1063, DW_AT_bit_offset(0x0c), DW_AT_bit_size(0x01)
    9470                      .dwattr $C$DW$1063, DW_AT_data_member_location[DW_OP_plus_uconst 0x0]
    9471                      .dwattr $C$DW$1063, DW_AT_accessibility(DW_ACCESS_public)
    9472              $C$DW$1064      .dwtag  DW_TAG_member
    9473                      .dwattr $C$DW$1064, DW_AT_type(*$C$DW$T$19)
    9474                      .dwattr $C$DW$1064, DW_AT_name("INTx5")
    9475                      .dwattr $C$DW$1064, DW_AT_TI_symbol_name("_INTx5")
    9476                      .dwattr $C$DW$1064, DW_AT_bit_offset(0x0b), DW_AT_bit_size(0x01)
    9477                      .dwattr $C$DW$1064, DW_AT_data_member_location[DW_OP_plus_uconst 0x0]
    9478                      .dwattr $C$DW$1064, DW_AT_accessibility(DW_ACCESS_public)
    9479              $C$DW$1065      .dwtag  DW_TAG_member
    9480                      .dwattr $C$DW$1065, DW_AT_type(*$C$DW$T$19)
    9481                      .dwattr $C$DW$1065, DW_AT_name("INTx6")
    9482                      .dwattr $C$DW$1065, DW_AT_TI_symbol_name("_INTx6")
    9483                      .dwattr $C$DW$1065, DW_AT_bit_offset(0x0a), DW_AT_bit_size(0x01)
    9484                      .dwattr $C$DW$1065, DW_AT_data_member_location[DW_OP_plus_uconst 0x0]
    9485                      .dwattr $C$DW$1065, DW_AT_accessibility(DW_ACCESS_public)
    9486              $C$DW$1066      .dwtag  DW_TAG_member
    9487                      .dwattr $C$DW$1066, DW_AT_type(*$C$DW$T$19)
    9488                      .dwattr $C$DW$1066, DW_AT_name("INTx7")
    9489                      .dwattr $C$DW$1066, DW_AT_TI_symbol_name("_INTx7")
    9490                      .dwattr $C$DW$1066, DW_AT_bit_offset(0x09), DW_AT_bit_size(0x01)
    9491                      .dwattr $C$DW$1066, DW_AT_data_member_location[DW_OP_plus_uconst 0x0]
    9492                      .dwattr $C$DW$1066, DW_AT_accessibility(DW_ACCESS_public)
    9493              $C$DW$1067      .dwtag  DW_TAG_member
    9494                      .dwattr $C$DW$1067, DW_AT_type(*$C$DW$T$19)
    9495                      .dwattr $C$DW$1067, DW_AT_name("INTx8")
    9496                      .dwattr $C$DW$1067, DW_AT_TI_symbol_name("_INTx8")
    9497                      .dwattr $C$DW$1067, DW_AT_bit_offset(0x08), DW_AT_bit_size(0x01)
TMS320C2000 Assembler PC v6.1.3 Thu Jan 30 10:26:14 2014

Tools Copyright (c) 1996-2012 Texas Instruments Incorporated
C:\Users\a0272466\AppData\Local\Temp\0274010                         PAGE  179

    9498                      .dwattr $C$DW$1067, DW_AT_data_member_location[DW_OP_plus_uconst 0x0]
    9499                      .dwattr $C$DW$1067, DW_AT_accessibility(DW_ACCESS_public)
    9500              $C$DW$1068      .dwtag  DW_TAG_member
    9501                      .dwattr $C$DW$1068, DW_AT_type(*$C$DW$T$19)
    9502                      .dwattr $C$DW$1068, DW_AT_name("INTx9")
    9503                      .dwattr $C$DW$1068, DW_AT_TI_symbol_name("_INTx9")
    9504                      .dwattr $C$DW$1068, DW_AT_bit_offset(0x07), DW_AT_bit_size(0x01)
    9505                      .dwattr $C$DW$1068, DW_AT_data_member_location[DW_OP_plus_uconst 0x0]
    9506                      .dwattr $C$DW$1068, DW_AT_accessibility(DW_ACCESS_public)
    9507              $C$DW$1069      .dwtag  DW_TAG_member
    9508                      .dwattr $C$DW$1069, DW_AT_type(*$C$DW$T$19)
    9509                      .dwattr $C$DW$1069, DW_AT_name("INTx10")
    9510                      .dwattr $C$DW$1069, DW_AT_TI_symbol_name("_INTx10")
    9511                      .dwattr $C$DW$1069, DW_AT_bit_offset(0x06), DW_AT_bit_size(0x01)
    9512                      .dwattr $C$DW$1069, DW_AT_data_member_location[DW_OP_plus_uconst 0x0]
    9513                      .dwattr $C$DW$1069, DW_AT_accessibility(DW_ACCESS_public)
    9514              $C$DW$1070      .dwtag  DW_TAG_member
    9515                      .dwattr $C$DW$1070, DW_AT_type(*$C$DW$T$19)
    9516                      .dwattr $C$DW$1070, DW_AT_name("INTx11")
    9517                      .dwattr $C$DW$1070, DW_AT_TI_symbol_name("_INTx11")
    9518                      .dwattr $C$DW$1070, DW_AT_bit_offset(0x05), DW_AT_bit_size(0x01)
    9519                      .dwattr $C$DW$1070, DW_AT_data_member_location[DW_OP_plus_uconst 0x0]
    9520                      .dwattr $C$DW$1070, DW_AT_accessibility(DW_ACCESS_public)
    9521              $C$DW$1071      .dwtag  DW_TAG_member
    9522                      .dwattr $C$DW$1071, DW_AT_type(*$C$DW$T$19)
    9523                      .dwattr $C$DW$1071, DW_AT_name("INTx12")
    9524                      .dwattr $C$DW$1071, DW_AT_TI_symbol_name("_INTx12")
    9525                      .dwattr $C$DW$1071, DW_AT_bit_offset(0x04), DW_AT_bit_size(0x01)
    9526                      .dwattr $C$DW$1071, DW_AT_data_member_location[DW_OP_plus_uconst 0x0]
    9527                      .dwattr $C$DW$1071, DW_AT_accessibility(DW_ACCESS_public)
    9528              $C$DW$1072      .dwtag  DW_TAG_member
    9529                      .dwattr $C$DW$1072, DW_AT_type(*$C$DW$T$19)
    9530                      .dwattr $C$DW$1072, DW_AT_name("INTx13")
    9531                      .dwattr $C$DW$1072, DW_AT_TI_symbol_name("_INTx13")
    9532                      .dwattr $C$DW$1072, DW_AT_bit_offset(0x03), DW_AT_bit_size(0x01)
    9533                      .dwattr $C$DW$1072, DW_AT_data_member_location[DW_OP_plus_uconst 0x0]
    9534                      .dwattr $C$DW$1072, DW_AT_accessibility(DW_ACCESS_public)
    9535              $C$DW$1073      .dwtag  DW_TAG_member
    9536                      .dwattr $C$DW$1073, DW_AT_type(*$C$DW$T$19)
    9537                      .dwattr $C$DW$1073, DW_AT_name("INTx14")
    9538                      .dwattr $C$DW$1073, DW_AT_TI_symbol_name("_INTx14")
    9539                      .dwattr $C$DW$1073, DW_AT_bit_offset(0x02), DW_AT_bit_size(0x01)
    9540                      .dwattr $C$DW$1073, DW_AT_data_member_location[DW_OP_plus_uconst 0x0]
    9541                      .dwattr $C$DW$1073, DW_AT_accessibility(DW_ACCESS_public)
    9542              $C$DW$1074      .dwtag  DW_TAG_member
    9543                      .dwattr $C$DW$1074, DW_AT_type(*$C$DW$T$19)
    9544                      .dwattr $C$DW$1074, DW_AT_name("INTx15")
    9545                      .dwattr $C$DW$1074, DW_AT_TI_symbol_name("_INTx15")
    9546                      .dwattr $C$DW$1074, DW_AT_bit_offset(0x01), DW_AT_bit_size(0x01)
    9547                      .dwattr $C$DW$1074, DW_AT_data_member_location[DW_OP_plus_uconst 0x0]
    9548                      .dwattr $C$DW$1074, DW_AT_accessibility(DW_ACCESS_public)
    9549              $C$DW$1075      .dwtag  DW_TAG_member
    9550                      .dwattr $C$DW$1075, DW_AT_type(*$C$DW$T$19)
    9551                      .dwattr $C$DW$1075, DW_AT_name("INTx16")
    9552                      .dwattr $C$DW$1075, DW_AT_TI_symbol_name("_INTx16")
TMS320C2000 Assembler PC v6.1.3 Thu Jan 30 10:26:14 2014

Tools Copyright (c) 1996-2012 Texas Instruments Incorporated
C:\Users\a0272466\AppData\Local\Temp\0274010                         PAGE  180

    9553                      .dwattr $C$DW$1075, DW_AT_bit_offset(0x00), DW_AT_bit_size(0x01)
    9554                      .dwattr $C$DW$1075, DW_AT_data_member_location[DW_OP_plus_uconst 0x0]
    9555                      .dwattr $C$DW$1075, DW_AT_accessibility(DW_ACCESS_public)
    9556                      .dwendtag $C$DW$T$138
    9557              
    9558              
    9559              $C$DW$T$139     .dwtag  DW_TAG_union_type
    9560                      .dwattr $C$DW$T$139, DW_AT_name("PIEIFR7_REG")
    9561                      .dwattr $C$DW$T$139, DW_AT_byte_size(0x01)
    9562              $C$DW$1076      .dwtag  DW_TAG_member
    9563                      .dwattr $C$DW$1076, DW_AT_type(*$C$DW$T$19)
    9564                      .dwattr $C$DW$1076, DW_AT_name("all")
    9565                      .dwattr $C$DW$1076, DW_AT_TI_symbol_name("_all")
    9566                      .dwattr $C$DW$1076, DW_AT_data_member_location[DW_OP_plus_uconst 0x0]
    9567                      .dwattr $C$DW$1076, DW_AT_accessibility(DW_ACCESS_public)
    9568              $C$DW$1077      .dwtag  DW_TAG_member
    9569                      .dwattr $C$DW$1077, DW_AT_type(*$C$DW$T$138)
    9570                      .dwattr $C$DW$1077, DW_AT_name("bit")
    9571                      .dwattr $C$DW$1077, DW_AT_TI_symbol_name("_bit")
    9572                      .dwattr $C$DW$1077, DW_AT_data_member_location[DW_OP_plus_uconst 0x0]
    9573                      .dwattr $C$DW$1077, DW_AT_accessibility(DW_ACCESS_public)
    9574                      .dwendtag $C$DW$T$139
    9575              
    9576              
    9577              $C$DW$T$140     .dwtag  DW_TAG_structure_type
    9578                      .dwattr $C$DW$T$140, DW_AT_name("PIEIFR8_BITS")
    9579                      .dwattr $C$DW$T$140, DW_AT_byte_size(0x01)
    9580              $C$DW$1078      .dwtag  DW_TAG_member
    9581                      .dwattr $C$DW$1078, DW_AT_type(*$C$DW$T$19)
    9582                      .dwattr $C$DW$1078, DW_AT_name("INTx1")
    9583                      .dwattr $C$DW$1078, DW_AT_TI_symbol_name("_INTx1")
    9584                      .dwattr $C$DW$1078, DW_AT_bit_offset(0x0f), DW_AT_bit_size(0x01)
    9585                      .dwattr $C$DW$1078, DW_AT_data_member_location[DW_OP_plus_uconst 0x0]
    9586                      .dwattr $C$DW$1078, DW_AT_accessibility(DW_ACCESS_public)
    9587              $C$DW$1079      .dwtag  DW_TAG_member
    9588                      .dwattr $C$DW$1079, DW_AT_type(*$C$DW$T$19)
    9589                      .dwattr $C$DW$1079, DW_AT_name("INTx2")
    9590                      .dwattr $C$DW$1079, DW_AT_TI_symbol_name("_INTx2")
    9591                      .dwattr $C$DW$1079, DW_AT_bit_offset(0x0e), DW_AT_bit_size(0x01)
    9592                      .dwattr $C$DW$1079, DW_AT_data_member_location[DW_OP_plus_uconst 0x0]
    9593                      .dwattr $C$DW$1079, DW_AT_accessibility(DW_ACCESS_public)
    9594              $C$DW$1080      .dwtag  DW_TAG_member
    9595                      .dwattr $C$DW$1080, DW_AT_type(*$C$DW$T$19)
    9596                      .dwattr $C$DW$1080, DW_AT_name("INTx3")
    9597                      .dwattr $C$DW$1080, DW_AT_TI_symbol_name("_INTx3")
    9598                      .dwattr $C$DW$1080, DW_AT_bit_offset(0x0d), DW_AT_bit_size(0x01)
    9599                      .dwattr $C$DW$1080, DW_AT_data_member_location[DW_OP_plus_uconst 0x0]
    9600                      .dwattr $C$DW$1080, DW_AT_accessibility(DW_ACCESS_public)
    9601              $C$DW$1081      .dwtag  DW_TAG_member
    9602                      .dwattr $C$DW$1081, DW_AT_type(*$C$DW$T$19)
    9603                      .dwattr $C$DW$1081, DW_AT_name("INTx4")
    9604                      .dwattr $C$DW$1081, DW_AT_TI_symbol_name("_INTx4")
    9605                      .dwattr $C$DW$1081, DW_AT_bit_offset(0x0c), DW_AT_bit_size(0x01)
    9606                      .dwattr $C$DW$1081, DW_AT_data_member_location[DW_OP_plus_uconst 0x0]
    9607                      .dwattr $C$DW$1081, DW_AT_accessibility(DW_ACCESS_public)
TMS320C2000 Assembler PC v6.1.3 Thu Jan 30 10:26:14 2014

Tools Copyright (c) 1996-2012 Texas Instruments Incorporated
C:\Users\a0272466\AppData\Local\Temp\0274010                         PAGE  181

    9608              $C$DW$1082      .dwtag  DW_TAG_member
    9609                      .dwattr $C$DW$1082, DW_AT_type(*$C$DW$T$19)
    9610                      .dwattr $C$DW$1082, DW_AT_name("INTx5")
    9611                      .dwattr $C$DW$1082, DW_AT_TI_symbol_name("_INTx5")
    9612                      .dwattr $C$DW$1082, DW_AT_bit_offset(0x0b), DW_AT_bit_size(0x01)
    9613                      .dwattr $C$DW$1082, DW_AT_data_member_location[DW_OP_plus_uconst 0x0]
    9614                      .dwattr $C$DW$1082, DW_AT_accessibility(DW_ACCESS_public)
    9615              $C$DW$1083      .dwtag  DW_TAG_member
    9616                      .dwattr $C$DW$1083, DW_AT_type(*$C$DW$T$19)
    9617                      .dwattr $C$DW$1083, DW_AT_name("INTx6")
    9618                      .dwattr $C$DW$1083, DW_AT_TI_symbol_name("_INTx6")
    9619                      .dwattr $C$DW$1083, DW_AT_bit_offset(0x0a), DW_AT_bit_size(0x01)
    9620                      .dwattr $C$DW$1083, DW_AT_data_member_location[DW_OP_plus_uconst 0x0]
    9621                      .dwattr $C$DW$1083, DW_AT_accessibility(DW_ACCESS_public)
    9622              $C$DW$1084      .dwtag  DW_TAG_member
    9623                      .dwattr $C$DW$1084, DW_AT_type(*$C$DW$T$19)
    9624                      .dwattr $C$DW$1084, DW_AT_name("INTx7")
    9625                      .dwattr $C$DW$1084, DW_AT_TI_symbol_name("_INTx7")
    9626                      .dwattr $C$DW$1084, DW_AT_bit_offset(0x09), DW_AT_bit_size(0x01)
    9627                      .dwattr $C$DW$1084, DW_AT_data_member_location[DW_OP_plus_uconst 0x0]
    9628                      .dwattr $C$DW$1084, DW_AT_accessibility(DW_ACCESS_public)
    9629              $C$DW$1085      .dwtag  DW_TAG_member
    9630                      .dwattr $C$DW$1085, DW_AT_type(*$C$DW$T$19)
    9631                      .dwattr $C$DW$1085, DW_AT_name("INTx8")
    9632                      .dwattr $C$DW$1085, DW_AT_TI_symbol_name("_INTx8")
    9633                      .dwattr $C$DW$1085, DW_AT_bit_offset(0x08), DW_AT_bit_size(0x01)
    9634                      .dwattr $C$DW$1085, DW_AT_data_member_location[DW_OP_plus_uconst 0x0]
    9635                      .dwattr $C$DW$1085, DW_AT_accessibility(DW_ACCESS_public)
    9636              $C$DW$1086      .dwtag  DW_TAG_member
    9637                      .dwattr $C$DW$1086, DW_AT_type(*$C$DW$T$19)
    9638                      .dwattr $C$DW$1086, DW_AT_name("INTx9")
    9639                      .dwattr $C$DW$1086, DW_AT_TI_symbol_name("_INTx9")
    9640                      .dwattr $C$DW$1086, DW_AT_bit_offset(0x07), DW_AT_bit_size(0x01)
    9641                      .dwattr $C$DW$1086, DW_AT_data_member_location[DW_OP_plus_uconst 0x0]
    9642                      .dwattr $C$DW$1086, DW_AT_accessibility(DW_ACCESS_public)
    9643              $C$DW$1087      .dwtag  DW_TAG_member
    9644                      .dwattr $C$DW$1087, DW_AT_type(*$C$DW$T$19)
    9645                      .dwattr $C$DW$1087, DW_AT_name("INTx10")
    9646                      .dwattr $C$DW$1087, DW_AT_TI_symbol_name("_INTx10")
    9647                      .dwattr $C$DW$1087, DW_AT_bit_offset(0x06), DW_AT_bit_size(0x01)
    9648                      .dwattr $C$DW$1087, DW_AT_data_member_location[DW_OP_plus_uconst 0x0]
    9649                      .dwattr $C$DW$1087, DW_AT_accessibility(DW_ACCESS_public)
    9650              $C$DW$1088      .dwtag  DW_TAG_member
    9651                      .dwattr $C$DW$1088, DW_AT_type(*$C$DW$T$19)
    9652                      .dwattr $C$DW$1088, DW_AT_name("INTx11")
    9653                      .dwattr $C$DW$1088, DW_AT_TI_symbol_name("_INTx11")
    9654                      .dwattr $C$DW$1088, DW_AT_bit_offset(0x05), DW_AT_bit_size(0x01)
    9655                      .dwattr $C$DW$1088, DW_AT_data_member_location[DW_OP_plus_uconst 0x0]
    9656                      .dwattr $C$DW$1088, DW_AT_accessibility(DW_ACCESS_public)
    9657              $C$DW$1089      .dwtag  DW_TAG_member
    9658                      .dwattr $C$DW$1089, DW_AT_type(*$C$DW$T$19)
    9659                      .dwattr $C$DW$1089, DW_AT_name("INTx12")
    9660                      .dwattr $C$DW$1089, DW_AT_TI_symbol_name("_INTx12")
    9661                      .dwattr $C$DW$1089, DW_AT_bit_offset(0x04), DW_AT_bit_size(0x01)
    9662                      .dwattr $C$DW$1089, DW_AT_data_member_location[DW_OP_plus_uconst 0x0]
TMS320C2000 Assembler PC v6.1.3 Thu Jan 30 10:26:14 2014

Tools Copyright (c) 1996-2012 Texas Instruments Incorporated
C:\Users\a0272466\AppData\Local\Temp\0274010                         PAGE  182

    9663                      .dwattr $C$DW$1089, DW_AT_accessibility(DW_ACCESS_public)
    9664              $C$DW$1090      .dwtag  DW_TAG_member
    9665                      .dwattr $C$DW$1090, DW_AT_type(*$C$DW$T$19)
    9666                      .dwattr $C$DW$1090, DW_AT_name("INTx13")
    9667                      .dwattr $C$DW$1090, DW_AT_TI_symbol_name("_INTx13")
    9668                      .dwattr $C$DW$1090, DW_AT_bit_offset(0x03), DW_AT_bit_size(0x01)
    9669                      .dwattr $C$DW$1090, DW_AT_data_member_location[DW_OP_plus_uconst 0x0]
    9670                      .dwattr $C$DW$1090, DW_AT_accessibility(DW_ACCESS_public)
    9671              $C$DW$1091      .dwtag  DW_TAG_member
    9672                      .dwattr $C$DW$1091, DW_AT_type(*$C$DW$T$19)
    9673                      .dwattr $C$DW$1091, DW_AT_name("INTx14")
    9674                      .dwattr $C$DW$1091, DW_AT_TI_symbol_name("_INTx14")
    9675                      .dwattr $C$DW$1091, DW_AT_bit_offset(0x02), DW_AT_bit_size(0x01)
    9676                      .dwattr $C$DW$1091, DW_AT_data_member_location[DW_OP_plus_uconst 0x0]
    9677                      .dwattr $C$DW$1091, DW_AT_accessibility(DW_ACCESS_public)
    9678              $C$DW$1092      .dwtag  DW_TAG_member
    9679                      .dwattr $C$DW$1092, DW_AT_type(*$C$DW$T$19)
    9680                      .dwattr $C$DW$1092, DW_AT_name("INTx15")
    9681                      .dwattr $C$DW$1092, DW_AT_TI_symbol_name("_INTx15")
    9682                      .dwattr $C$DW$1092, DW_AT_bit_offset(0x01), DW_AT_bit_size(0x01)
    9683                      .dwattr $C$DW$1092, DW_AT_data_member_location[DW_OP_plus_uconst 0x0]
    9684                      .dwattr $C$DW$1092, DW_AT_accessibility(DW_ACCESS_public)
    9685              $C$DW$1093      .dwtag  DW_TAG_member
    9686                      .dwattr $C$DW$1093, DW_AT_type(*$C$DW$T$19)
    9687                      .dwattr $C$DW$1093, DW_AT_name("INTx16")
    9688                      .dwattr $C$DW$1093, DW_AT_TI_symbol_name("_INTx16")
    9689                      .dwattr $C$DW$1093, DW_AT_bit_offset(0x00), DW_AT_bit_size(0x01)
    9690                      .dwattr $C$DW$1093, DW_AT_data_member_location[DW_OP_plus_uconst 0x0]
    9691                      .dwattr $C$DW$1093, DW_AT_accessibility(DW_ACCESS_public)
    9692                      .dwendtag $C$DW$T$140
    9693              
    9694              
    9695              $C$DW$T$141     .dwtag  DW_TAG_union_type
    9696                      .dwattr $C$DW$T$141, DW_AT_name("PIEIFR8_REG")
    9697                      .dwattr $C$DW$T$141, DW_AT_byte_size(0x01)
    9698              $C$DW$1094      .dwtag  DW_TAG_member
    9699                      .dwattr $C$DW$1094, DW_AT_type(*$C$DW$T$19)
    9700                      .dwattr $C$DW$1094, DW_AT_name("all")
    9701                      .dwattr $C$DW$1094, DW_AT_TI_symbol_name("_all")
    9702                      .dwattr $C$DW$1094, DW_AT_data_member_location[DW_OP_plus_uconst 0x0]
    9703                      .dwattr $C$DW$1094, DW_AT_accessibility(DW_ACCESS_public)
    9704              $C$DW$1095      .dwtag  DW_TAG_member
    9705                      .dwattr $C$DW$1095, DW_AT_type(*$C$DW$T$140)
    9706                      .dwattr $C$DW$1095, DW_AT_name("bit")
    9707                      .dwattr $C$DW$1095, DW_AT_TI_symbol_name("_bit")
    9708                      .dwattr $C$DW$1095, DW_AT_data_member_location[DW_OP_plus_uconst 0x0]
    9709                      .dwattr $C$DW$1095, DW_AT_accessibility(DW_ACCESS_public)
    9710                      .dwendtag $C$DW$T$141
    9711              
    9712              
    9713              $C$DW$T$142     .dwtag  DW_TAG_structure_type
    9714                      .dwattr $C$DW$T$142, DW_AT_name("PIEIFR9_BITS")
    9715                      .dwattr $C$DW$T$142, DW_AT_byte_size(0x01)
    9716              $C$DW$1096      .dwtag  DW_TAG_member
    9717                      .dwattr $C$DW$1096, DW_AT_type(*$C$DW$T$19)
TMS320C2000 Assembler PC v6.1.3 Thu Jan 30 10:26:14 2014

Tools Copyright (c) 1996-2012 Texas Instruments Incorporated
C:\Users\a0272466\AppData\Local\Temp\0274010                         PAGE  183

    9718                      .dwattr $C$DW$1096, DW_AT_name("INTx1")
    9719                      .dwattr $C$DW$1096, DW_AT_TI_symbol_name("_INTx1")
    9720                      .dwattr $C$DW$1096, DW_AT_bit_offset(0x0f), DW_AT_bit_size(0x01)
    9721                      .dwattr $C$DW$1096, DW_AT_data_member_location[DW_OP_plus_uconst 0x0]
    9722                      .dwattr $C$DW$1096, DW_AT_accessibility(DW_ACCESS_public)
    9723              $C$DW$1097      .dwtag  DW_TAG_member
    9724                      .dwattr $C$DW$1097, DW_AT_type(*$C$DW$T$19)
    9725                      .dwattr $C$DW$1097, DW_AT_name("INTx2")
    9726                      .dwattr $C$DW$1097, DW_AT_TI_symbol_name("_INTx2")
    9727                      .dwattr $C$DW$1097, DW_AT_bit_offset(0x0e), DW_AT_bit_size(0x01)
    9728                      .dwattr $C$DW$1097, DW_AT_data_member_location[DW_OP_plus_uconst 0x0]
    9729                      .dwattr $C$DW$1097, DW_AT_accessibility(DW_ACCESS_public)
    9730              $C$DW$1098      .dwtag  DW_TAG_member
    9731                      .dwattr $C$DW$1098, DW_AT_type(*$C$DW$T$19)
    9732                      .dwattr $C$DW$1098, DW_AT_name("INTx3")
    9733                      .dwattr $C$DW$1098, DW_AT_TI_symbol_name("_INTx3")
    9734                      .dwattr $C$DW$1098, DW_AT_bit_offset(0x0d), DW_AT_bit_size(0x01)
    9735                      .dwattr $C$DW$1098, DW_AT_data_member_location[DW_OP_plus_uconst 0x0]
    9736                      .dwattr $C$DW$1098, DW_AT_accessibility(DW_ACCESS_public)
    9737              $C$DW$1099      .dwtag  DW_TAG_member
    9738                      .dwattr $C$DW$1099, DW_AT_type(*$C$DW$T$19)
    9739                      .dwattr $C$DW$1099, DW_AT_name("INTx4")
    9740                      .dwattr $C$DW$1099, DW_AT_TI_symbol_name("_INTx4")
    9741                      .dwattr $C$DW$1099, DW_AT_bit_offset(0x0c), DW_AT_bit_size(0x01)
    9742                      .dwattr $C$DW$1099, DW_AT_data_member_location[DW_OP_plus_uconst 0x0]
    9743                      .dwattr $C$DW$1099, DW_AT_accessibility(DW_ACCESS_public)
    9744              $C$DW$1100      .dwtag  DW_TAG_member
    9745                      .dwattr $C$DW$1100, DW_AT_type(*$C$DW$T$19)
    9746                      .dwattr $C$DW$1100, DW_AT_name("INTx5")
    9747                      .dwattr $C$DW$1100, DW_AT_TI_symbol_name("_INTx5")
    9748                      .dwattr $C$DW$1100, DW_AT_bit_offset(0x0b), DW_AT_bit_size(0x01)
    9749                      .dwattr $C$DW$1100, DW_AT_data_member_location[DW_OP_plus_uconst 0x0]
    9750                      .dwattr $C$DW$1100, DW_AT_accessibility(DW_ACCESS_public)
    9751              $C$DW$1101      .dwtag  DW_TAG_member
    9752                      .dwattr $C$DW$1101, DW_AT_type(*$C$DW$T$19)
    9753                      .dwattr $C$DW$1101, DW_AT_name("INTx6")
    9754                      .dwattr $C$DW$1101, DW_AT_TI_symbol_name("_INTx6")
    9755                      .dwattr $C$DW$1101, DW_AT_bit_offset(0x0a), DW_AT_bit_size(0x01)
    9756                      .dwattr $C$DW$1101, DW_AT_data_member_location[DW_OP_plus_uconst 0x0]
    9757                      .dwattr $C$DW$1101, DW_AT_accessibility(DW_ACCESS_public)
    9758              $C$DW$1102      .dwtag  DW_TAG_member
    9759                      .dwattr $C$DW$1102, DW_AT_type(*$C$DW$T$19)
    9760                      .dwattr $C$DW$1102, DW_AT_name("INTx7")
    9761                      .dwattr $C$DW$1102, DW_AT_TI_symbol_name("_INTx7")
    9762                      .dwattr $C$DW$1102, DW_AT_bit_offset(0x09), DW_AT_bit_size(0x01)
    9763                      .dwattr $C$DW$1102, DW_AT_data_member_location[DW_OP_plus_uconst 0x0]
    9764                      .dwattr $C$DW$1102, DW_AT_accessibility(DW_ACCESS_public)
    9765              $C$DW$1103      .dwtag  DW_TAG_member
    9766                      .dwattr $C$DW$1103, DW_AT_type(*$C$DW$T$19)
    9767                      .dwattr $C$DW$1103, DW_AT_name("INTx8")
    9768                      .dwattr $C$DW$1103, DW_AT_TI_symbol_name("_INTx8")
    9769                      .dwattr $C$DW$1103, DW_AT_bit_offset(0x08), DW_AT_bit_size(0x01)
    9770                      .dwattr $C$DW$1103, DW_AT_data_member_location[DW_OP_plus_uconst 0x0]
    9771                      .dwattr $C$DW$1103, DW_AT_accessibility(DW_ACCESS_public)
    9772              $C$DW$1104      .dwtag  DW_TAG_member
TMS320C2000 Assembler PC v6.1.3 Thu Jan 30 10:26:14 2014

Tools Copyright (c) 1996-2012 Texas Instruments Incorporated
C:\Users\a0272466\AppData\Local\Temp\0274010                         PAGE  184

    9773                      .dwattr $C$DW$1104, DW_AT_type(*$C$DW$T$19)
    9774                      .dwattr $C$DW$1104, DW_AT_name("INTx9")
    9775                      .dwattr $C$DW$1104, DW_AT_TI_symbol_name("_INTx9")
    9776                      .dwattr $C$DW$1104, DW_AT_bit_offset(0x07), DW_AT_bit_size(0x01)
    9777                      .dwattr $C$DW$1104, DW_AT_data_member_location[DW_OP_plus_uconst 0x0]
    9778                      .dwattr $C$DW$1104, DW_AT_accessibility(DW_ACCESS_public)
    9779              $C$DW$1105      .dwtag  DW_TAG_member
    9780                      .dwattr $C$DW$1105, DW_AT_type(*$C$DW$T$19)
    9781                      .dwattr $C$DW$1105, DW_AT_name("INTx10")
    9782                      .dwattr $C$DW$1105, DW_AT_TI_symbol_name("_INTx10")
    9783                      .dwattr $C$DW$1105, DW_AT_bit_offset(0x06), DW_AT_bit_size(0x01)
    9784                      .dwattr $C$DW$1105, DW_AT_data_member_location[DW_OP_plus_uconst 0x0]
    9785                      .dwattr $C$DW$1105, DW_AT_accessibility(DW_ACCESS_public)
    9786              $C$DW$1106      .dwtag  DW_TAG_member
    9787                      .dwattr $C$DW$1106, DW_AT_type(*$C$DW$T$19)
    9788                      .dwattr $C$DW$1106, DW_AT_name("INTx11")
    9789                      .dwattr $C$DW$1106, DW_AT_TI_symbol_name("_INTx11")
    9790                      .dwattr $C$DW$1106, DW_AT_bit_offset(0x05), DW_AT_bit_size(0x01)
    9791                      .dwattr $C$DW$1106, DW_AT_data_member_location[DW_OP_plus_uconst 0x0]
    9792                      .dwattr $C$DW$1106, DW_AT_accessibility(DW_ACCESS_public)
    9793              $C$DW$1107      .dwtag  DW_TAG_member
    9794                      .dwattr $C$DW$1107, DW_AT_type(*$C$DW$T$19)
    9795                      .dwattr $C$DW$1107, DW_AT_name("INTx12")
    9796                      .dwattr $C$DW$1107, DW_AT_TI_symbol_name("_INTx12")
    9797                      .dwattr $C$DW$1107, DW_AT_bit_offset(0x04), DW_AT_bit_size(0x01)
    9798                      .dwattr $C$DW$1107, DW_AT_data_member_location[DW_OP_plus_uconst 0x0]
    9799                      .dwattr $C$DW$1107, DW_AT_accessibility(DW_ACCESS_public)
    9800              $C$DW$1108      .dwtag  DW_TAG_member
    9801                      .dwattr $C$DW$1108, DW_AT_type(*$C$DW$T$19)
    9802                      .dwattr $C$DW$1108, DW_AT_name("INTx13")
    9803                      .dwattr $C$DW$1108, DW_AT_TI_symbol_name("_INTx13")
    9804                      .dwattr $C$DW$1108, DW_AT_bit_offset(0x03), DW_AT_bit_size(0x01)
    9805                      .dwattr $C$DW$1108, DW_AT_data_member_location[DW_OP_plus_uconst 0x0]
    9806                      .dwattr $C$DW$1108, DW_AT_accessibility(DW_ACCESS_public)
    9807              $C$DW$1109      .dwtag  DW_TAG_member
    9808                      .dwattr $C$DW$1109, DW_AT_type(*$C$DW$T$19)
    9809                      .dwattr $C$DW$1109, DW_AT_name("INTx14")
    9810                      .dwattr $C$DW$1109, DW_AT_TI_symbol_name("_INTx14")
    9811                      .dwattr $C$DW$1109, DW_AT_bit_offset(0x02), DW_AT_bit_size(0x01)
    9812                      .dwattr $C$DW$1109, DW_AT_data_member_location[DW_OP_plus_uconst 0x0]
    9813                      .dwattr $C$DW$1109, DW_AT_accessibility(DW_ACCESS_public)
    9814              $C$DW$1110      .dwtag  DW_TAG_member
    9815                      .dwattr $C$DW$1110, DW_AT_type(*$C$DW$T$19)
    9816                      .dwattr $C$DW$1110, DW_AT_name("INTx15")
    9817                      .dwattr $C$DW$1110, DW_AT_TI_symbol_name("_INTx15")
    9818                      .dwattr $C$DW$1110, DW_AT_bit_offset(0x01), DW_AT_bit_size(0x01)
    9819                      .dwattr $C$DW$1110, DW_AT_data_member_location[DW_OP_plus_uconst 0x0]
    9820                      .dwattr $C$DW$1110, DW_AT_accessibility(DW_ACCESS_public)
    9821              $C$DW$1111      .dwtag  DW_TAG_member
    9822                      .dwattr $C$DW$1111, DW_AT_type(*$C$DW$T$19)
    9823                      .dwattr $C$DW$1111, DW_AT_name("INTx16")
    9824                      .dwattr $C$DW$1111, DW_AT_TI_symbol_name("_INTx16")
    9825                      .dwattr $C$DW$1111, DW_AT_bit_offset(0x00), DW_AT_bit_size(0x01)
    9826                      .dwattr $C$DW$1111, DW_AT_data_member_location[DW_OP_plus_uconst 0x0]
    9827                      .dwattr $C$DW$1111, DW_AT_accessibility(DW_ACCESS_public)
TMS320C2000 Assembler PC v6.1.3 Thu Jan 30 10:26:14 2014

Tools Copyright (c) 1996-2012 Texas Instruments Incorporated
C:\Users\a0272466\AppData\Local\Temp\0274010                         PAGE  185

    9828                      .dwendtag $C$DW$T$142
    9829              
    9830              
    9831              $C$DW$T$143     .dwtag  DW_TAG_union_type
    9832                      .dwattr $C$DW$T$143, DW_AT_name("PIEIFR9_REG")
    9833                      .dwattr $C$DW$T$143, DW_AT_byte_size(0x01)
    9834              $C$DW$1112      .dwtag  DW_TAG_member
    9835                      .dwattr $C$DW$1112, DW_AT_type(*$C$DW$T$19)
    9836                      .dwattr $C$DW$1112, DW_AT_name("all")
    9837                      .dwattr $C$DW$1112, DW_AT_TI_symbol_name("_all")
    9838                      .dwattr $C$DW$1112, DW_AT_data_member_location[DW_OP_plus_uconst 0x0]
    9839                      .dwattr $C$DW$1112, DW_AT_accessibility(DW_ACCESS_public)
    9840              $C$DW$1113      .dwtag  DW_TAG_member
    9841                      .dwattr $C$DW$1113, DW_AT_type(*$C$DW$T$142)
    9842                      .dwattr $C$DW$1113, DW_AT_name("bit")
    9843                      .dwattr $C$DW$1113, DW_AT_TI_symbol_name("_bit")
    9844                      .dwattr $C$DW$1113, DW_AT_data_member_location[DW_OP_plus_uconst 0x0]
    9845                      .dwattr $C$DW$1113, DW_AT_accessibility(DW_ACCESS_public)
    9846                      .dwendtag $C$DW$T$143
    9847              
    9848              
    9849              $C$DW$T$144     .dwtag  DW_TAG_structure_type
    9850                      .dwattr $C$DW$T$144, DW_AT_name("PIEVERRADDR_BITS")
    9851                      .dwattr $C$DW$T$144, DW_AT_byte_size(0x02)
    9852              $C$DW$1114      .dwtag  DW_TAG_member
    9853                      .dwattr $C$DW$1114, DW_AT_type(*$C$DW$T$21)
    9854                      .dwattr $C$DW$1114, DW_AT_name("ADDR")
    9855                      .dwattr $C$DW$1114, DW_AT_TI_symbol_name("_ADDR")
    9856                      .dwattr $C$DW$1114, DW_AT_bit_offset(0x0a), DW_AT_bit_size(0x16)
    9857                      .dwattr $C$DW$1114, DW_AT_data_member_location[DW_OP_plus_uconst 0x0]
    9858                      .dwattr $C$DW$1114, DW_AT_accessibility(DW_ACCESS_public)
    9859              $C$DW$1115      .dwtag  DW_TAG_member
    9860                      .dwattr $C$DW$1115, DW_AT_type(*$C$DW$T$19)
    9861                      .dwattr $C$DW$1115, DW_AT_name("rsvd1")
    9862                      .dwattr $C$DW$1115, DW_AT_TI_symbol_name("_rsvd1")
    9863                      .dwattr $C$DW$1115, DW_AT_bit_offset(0x00), DW_AT_bit_size(0x0a)
    9864                      .dwattr $C$DW$1115, DW_AT_data_member_location[DW_OP_plus_uconst 0x1]
    9865                      .dwattr $C$DW$1115, DW_AT_accessibility(DW_ACCESS_public)
    9866                      .dwendtag $C$DW$T$144
    9867              
    9868              
    9869              $C$DW$T$145     .dwtag  DW_TAG_union_type
    9870                      .dwattr $C$DW$T$145, DW_AT_name("PIEVERRADDR_REG")
    9871                      .dwattr $C$DW$T$145, DW_AT_byte_size(0x02)
    9872              $C$DW$1116      .dwtag  DW_TAG_member
    9873                      .dwattr $C$DW$1116, DW_AT_type(*$C$DW$T$21)
    9874                      .dwattr $C$DW$1116, DW_AT_name("all")
    9875                      .dwattr $C$DW$1116, DW_AT_TI_symbol_name("_all")
    9876                      .dwattr $C$DW$1116, DW_AT_data_member_location[DW_OP_plus_uconst 0x0]
    9877                      .dwattr $C$DW$1116, DW_AT_accessibility(DW_ACCESS_public)
    9878              $C$DW$1117      .dwtag  DW_TAG_member
    9879                      .dwattr $C$DW$1117, DW_AT_type(*$C$DW$T$144)
    9880                      .dwattr $C$DW$1117, DW_AT_name("bit")
    9881                      .dwattr $C$DW$1117, DW_AT_TI_symbol_name("_bit")
    9882                      .dwattr $C$DW$1117, DW_AT_data_member_location[DW_OP_plus_uconst 0x0]
TMS320C2000 Assembler PC v6.1.3 Thu Jan 30 10:26:14 2014

Tools Copyright (c) 1996-2012 Texas Instruments Incorporated
C:\Users\a0272466\AppData\Local\Temp\0274010                         PAGE  186

    9883                      .dwattr $C$DW$1117, DW_AT_accessibility(DW_ACCESS_public)
    9884                      .dwendtag $C$DW$T$145
    9885              
    9886              
    9887              $C$DW$T$146     .dwtag  DW_TAG_structure_type
    9888                      .dwattr $C$DW$T$146, DW_AT_name("PIE_CTRL_REGS")
    9889                      .dwattr $C$DW$T$146, DW_AT_byte_size(0x1a)
    9890              $C$DW$1118      .dwtag  DW_TAG_member
    9891                      .dwattr $C$DW$1118, DW_AT_type(*$C$DW$T$95)
    9892                      .dwattr $C$DW$1118, DW_AT_name("PIECTRL")
    9893                      .dwattr $C$DW$1118, DW_AT_TI_symbol_name("_PIECTRL")
    9894                      .dwattr $C$DW$1118, DW_AT_data_member_location[DW_OP_plus_uconst 0x0]
    9895                      .dwattr $C$DW$1118, DW_AT_accessibility(DW_ACCESS_public)
    9896              $C$DW$1119      .dwtag  DW_TAG_member
    9897                      .dwattr $C$DW$1119, DW_AT_type(*$C$DW$T$93)
    9898                      .dwattr $C$DW$1119, DW_AT_name("PIEACK")
    9899                      .dwattr $C$DW$1119, DW_AT_TI_symbol_name("_PIEACK")
    9900                      .dwattr $C$DW$1119, DW_AT_data_member_location[DW_OP_plus_uconst 0x1]
    9901                      .dwattr $C$DW$1119, DW_AT_accessibility(DW_ACCESS_public)
    9902              $C$DW$1120      .dwtag  DW_TAG_member
    9903                      .dwattr $C$DW$1120, DW_AT_type(*$C$DW$T$103)
    9904                      .dwattr $C$DW$1120, DW_AT_name("PIEIER1")
    9905                      .dwattr $C$DW$1120, DW_AT_TI_symbol_name("_PIEIER1")
    9906                      .dwattr $C$DW$1120, DW_AT_data_member_location[DW_OP_plus_uconst 0x2]
    9907                      .dwattr $C$DW$1120, DW_AT_accessibility(DW_ACCESS_public)
    9908              $C$DW$1121      .dwtag  DW_TAG_member
    9909                      .dwattr $C$DW$1121, DW_AT_type(*$C$DW$T$127)
    9910                      .dwattr $C$DW$1121, DW_AT_name("PIEIFR1")
    9911                      .dwattr $C$DW$1121, DW_AT_TI_symbol_name("_PIEIFR1")
    9912                      .dwattr $C$DW$1121, DW_AT_data_member_location[DW_OP_plus_uconst 0x3]
    9913                      .dwattr $C$DW$1121, DW_AT_accessibility(DW_ACCESS_public)
    9914              $C$DW$1122      .dwtag  DW_TAG_member
    9915                      .dwattr $C$DW$1122, DW_AT_type(*$C$DW$T$105)
    9916                      .dwattr $C$DW$1122, DW_AT_name("PIEIER2")
    9917                      .dwattr $C$DW$1122, DW_AT_TI_symbol_name("_PIEIER2")
    9918                      .dwattr $C$DW$1122, DW_AT_data_member_location[DW_OP_plus_uconst 0x4]
    9919                      .dwattr $C$DW$1122, DW_AT_accessibility(DW_ACCESS_public)
    9920              $C$DW$1123      .dwtag  DW_TAG_member
    9921                      .dwattr $C$DW$1123, DW_AT_type(*$C$DW$T$129)
    9922                      .dwattr $C$DW$1123, DW_AT_name("PIEIFR2")
    9923                      .dwattr $C$DW$1123, DW_AT_TI_symbol_name("_PIEIFR2")
    9924                      .dwattr $C$DW$1123, DW_AT_data_member_location[DW_OP_plus_uconst 0x5]
    9925                      .dwattr $C$DW$1123, DW_AT_accessibility(DW_ACCESS_public)
    9926              $C$DW$1124      .dwtag  DW_TAG_member
    9927                      .dwattr $C$DW$1124, DW_AT_type(*$C$DW$T$107)
    9928                      .dwattr $C$DW$1124, DW_AT_name("PIEIER3")
    9929                      .dwattr $C$DW$1124, DW_AT_TI_symbol_name("_PIEIER3")
    9930                      .dwattr $C$DW$1124, DW_AT_data_member_location[DW_OP_plus_uconst 0x6]
    9931                      .dwattr $C$DW$1124, DW_AT_accessibility(DW_ACCESS_public)
    9932              $C$DW$1125      .dwtag  DW_TAG_member
    9933                      .dwattr $C$DW$1125, DW_AT_type(*$C$DW$T$131)
    9934                      .dwattr $C$DW$1125, DW_AT_name("PIEIFR3")
    9935                      .dwattr $C$DW$1125, DW_AT_TI_symbol_name("_PIEIFR3")
    9936                      .dwattr $C$DW$1125, DW_AT_data_member_location[DW_OP_plus_uconst 0x7]
    9937                      .dwattr $C$DW$1125, DW_AT_accessibility(DW_ACCESS_public)
TMS320C2000 Assembler PC v6.1.3 Thu Jan 30 10:26:14 2014

Tools Copyright (c) 1996-2012 Texas Instruments Incorporated
C:\Users\a0272466\AppData\Local\Temp\0274010                         PAGE  187

    9938              $C$DW$1126      .dwtag  DW_TAG_member
    9939                      .dwattr $C$DW$1126, DW_AT_type(*$C$DW$T$109)
    9940                      .dwattr $C$DW$1126, DW_AT_name("PIEIER4")
    9941                      .dwattr $C$DW$1126, DW_AT_TI_symbol_name("_PIEIER4")
    9942                      .dwattr $C$DW$1126, DW_AT_data_member_location[DW_OP_plus_uconst 0x8]
    9943                      .dwattr $C$DW$1126, DW_AT_accessibility(DW_ACCESS_public)
    9944              $C$DW$1127      .dwtag  DW_TAG_member
    9945                      .dwattr $C$DW$1127, DW_AT_type(*$C$DW$T$133)
    9946                      .dwattr $C$DW$1127, DW_AT_name("PIEIFR4")
    9947                      .dwattr $C$DW$1127, DW_AT_TI_symbol_name("_PIEIFR4")
    9948                      .dwattr $C$DW$1127, DW_AT_data_member_location[DW_OP_plus_uconst 0x9]
    9949                      .dwattr $C$DW$1127, DW_AT_accessibility(DW_ACCESS_public)
    9950              $C$DW$1128      .dwtag  DW_TAG_member
    9951                      .dwattr $C$DW$1128, DW_AT_type(*$C$DW$T$111)
    9952                      .dwattr $C$DW$1128, DW_AT_name("PIEIER5")
    9953                      .dwattr $C$DW$1128, DW_AT_TI_symbol_name("_PIEIER5")
    9954                      .dwattr $C$DW$1128, DW_AT_data_member_location[DW_OP_plus_uconst 0xa]
    9955                      .dwattr $C$DW$1128, DW_AT_accessibility(DW_ACCESS_public)
    9956              $C$DW$1129      .dwtag  DW_TAG_member
    9957                      .dwattr $C$DW$1129, DW_AT_type(*$C$DW$T$135)
    9958                      .dwattr $C$DW$1129, DW_AT_name("PIEIFR5")
    9959                      .dwattr $C$DW$1129, DW_AT_TI_symbol_name("_PIEIFR5")
    9960                      .dwattr $C$DW$1129, DW_AT_data_member_location[DW_OP_plus_uconst 0xb]
    9961                      .dwattr $C$DW$1129, DW_AT_accessibility(DW_ACCESS_public)
    9962              $C$DW$1130      .dwtag  DW_TAG_member
    9963                      .dwattr $C$DW$1130, DW_AT_type(*$C$DW$T$113)
    9964                      .dwattr $C$DW$1130, DW_AT_name("PIEIER6")
    9965                      .dwattr $C$DW$1130, DW_AT_TI_symbol_name("_PIEIER6")
    9966                      .dwattr $C$DW$1130, DW_AT_data_member_location[DW_OP_plus_uconst 0xc]
    9967                      .dwattr $C$DW$1130, DW_AT_accessibility(DW_ACCESS_public)
    9968              $C$DW$1131      .dwtag  DW_TAG_member
    9969                      .dwattr $C$DW$1131, DW_AT_type(*$C$DW$T$137)
    9970                      .dwattr $C$DW$1131, DW_AT_name("PIEIFR6")
    9971                      .dwattr $C$DW$1131, DW_AT_TI_symbol_name("_PIEIFR6")
    9972                      .dwattr $C$DW$1131, DW_AT_data_member_location[DW_OP_plus_uconst 0xd]
    9973                      .dwattr $C$DW$1131, DW_AT_accessibility(DW_ACCESS_public)
    9974              $C$DW$1132      .dwtag  DW_TAG_member
    9975                      .dwattr $C$DW$1132, DW_AT_type(*$C$DW$T$115)
    9976                      .dwattr $C$DW$1132, DW_AT_name("PIEIER7")
    9977                      .dwattr $C$DW$1132, DW_AT_TI_symbol_name("_PIEIER7")
    9978                      .dwattr $C$DW$1132, DW_AT_data_member_location[DW_OP_plus_uconst 0xe]
    9979                      .dwattr $C$DW$1132, DW_AT_accessibility(DW_ACCESS_public)
    9980              $C$DW$1133      .dwtag  DW_TAG_member
    9981                      .dwattr $C$DW$1133, DW_AT_type(*$C$DW$T$139)
    9982                      .dwattr $C$DW$1133, DW_AT_name("PIEIFR7")
    9983                      .dwattr $C$DW$1133, DW_AT_TI_symbol_name("_PIEIFR7")
    9984                      .dwattr $C$DW$1133, DW_AT_data_member_location[DW_OP_plus_uconst 0xf]
    9985                      .dwattr $C$DW$1133, DW_AT_accessibility(DW_ACCESS_public)
    9986              $C$DW$1134      .dwtag  DW_TAG_member
    9987                      .dwattr $C$DW$1134, DW_AT_type(*$C$DW$T$117)
    9988                      .dwattr $C$DW$1134, DW_AT_name("PIEIER8")
    9989                      .dwattr $C$DW$1134, DW_AT_TI_symbol_name("_PIEIER8")
    9990                      .dwattr $C$DW$1134, DW_AT_data_member_location[DW_OP_plus_uconst 0x10]
    9991                      .dwattr $C$DW$1134, DW_AT_accessibility(DW_ACCESS_public)
    9992              $C$DW$1135      .dwtag  DW_TAG_member
TMS320C2000 Assembler PC v6.1.3 Thu Jan 30 10:26:14 2014

Tools Copyright (c) 1996-2012 Texas Instruments Incorporated
C:\Users\a0272466\AppData\Local\Temp\0274010                         PAGE  188

    9993                      .dwattr $C$DW$1135, DW_AT_type(*$C$DW$T$141)
    9994                      .dwattr $C$DW$1135, DW_AT_name("PIEIFR8")
    9995                      .dwattr $C$DW$1135, DW_AT_TI_symbol_name("_PIEIFR8")
    9996                      .dwattr $C$DW$1135, DW_AT_data_member_location[DW_OP_plus_uconst 0x11]
    9997                      .dwattr $C$DW$1135, DW_AT_accessibility(DW_ACCESS_public)
    9998              $C$DW$1136      .dwtag  DW_TAG_member
    9999                      .dwattr $C$DW$1136, DW_AT_type(*$C$DW$T$119)
   10000                      .dwattr $C$DW$1136, DW_AT_name("PIEIER9")
   10001                      .dwattr $C$DW$1136, DW_AT_TI_symbol_name("_PIEIER9")
   10002                      .dwattr $C$DW$1136, DW_AT_data_member_location[DW_OP_plus_uconst 0x12]
   10003                      .dwattr $C$DW$1136, DW_AT_accessibility(DW_ACCESS_public)
   10004              $C$DW$1137      .dwtag  DW_TAG_member
   10005                      .dwattr $C$DW$1137, DW_AT_type(*$C$DW$T$143)
   10006                      .dwattr $C$DW$1137, DW_AT_name("PIEIFR9")
   10007                      .dwattr $C$DW$1137, DW_AT_TI_symbol_name("_PIEIFR9")
   10008                      .dwattr $C$DW$1137, DW_AT_data_member_location[DW_OP_plus_uconst 0x13]
   10009                      .dwattr $C$DW$1137, DW_AT_accessibility(DW_ACCESS_public)
   10010              $C$DW$1138      .dwtag  DW_TAG_member
   10011                      .dwattr $C$DW$1138, DW_AT_type(*$C$DW$T$97)
   10012                      .dwattr $C$DW$1138, DW_AT_name("PIEIER10")
   10013                      .dwattr $C$DW$1138, DW_AT_TI_symbol_name("_PIEIER10")
   10014                      .dwattr $C$DW$1138, DW_AT_data_member_location[DW_OP_plus_uconst 0x14]
   10015                      .dwattr $C$DW$1138, DW_AT_accessibility(DW_ACCESS_public)
   10016              $C$DW$1139      .dwtag  DW_TAG_member
   10017                      .dwattr $C$DW$1139, DW_AT_type(*$C$DW$T$121)
   10018                      .dwattr $C$DW$1139, DW_AT_name("PIEIFR10")
   10019                      .dwattr $C$DW$1139, DW_AT_TI_symbol_name("_PIEIFR10")
   10020                      .dwattr $C$DW$1139, DW_AT_data_member_location[DW_OP_plus_uconst 0x15]
   10021                      .dwattr $C$DW$1139, DW_AT_accessibility(DW_ACCESS_public)
   10022              $C$DW$1140      .dwtag  DW_TAG_member
   10023                      .dwattr $C$DW$1140, DW_AT_type(*$C$DW$T$99)
   10024                      .dwattr $C$DW$1140, DW_AT_name("PIEIER11")
   10025                      .dwattr $C$DW$1140, DW_AT_TI_symbol_name("_PIEIER11")
   10026                      .dwattr $C$DW$1140, DW_AT_data_member_location[DW_OP_plus_uconst 0x16]
   10027                      .dwattr $C$DW$1140, DW_AT_accessibility(DW_ACCESS_public)
   10028              $C$DW$1141      .dwtag  DW_TAG_member
   10029                      .dwattr $C$DW$1141, DW_AT_type(*$C$DW$T$123)
   10030                      .dwattr $C$DW$1141, DW_AT_name("PIEIFR11")
   10031                      .dwattr $C$DW$1141, DW_AT_TI_symbol_name("_PIEIFR11")
   10032                      .dwattr $C$DW$1141, DW_AT_data_member_location[DW_OP_plus_uconst 0x17]
   10033                      .dwattr $C$DW$1141, DW_AT_accessibility(DW_ACCESS_public)
   10034              $C$DW$1142      .dwtag  DW_TAG_member
   10035                      .dwattr $C$DW$1142, DW_AT_type(*$C$DW$T$101)
   10036                      .dwattr $C$DW$1142, DW_AT_name("PIEIER12")
   10037                      .dwattr $C$DW$1142, DW_AT_TI_symbol_name("_PIEIER12")
   10038                      .dwattr $C$DW$1142, DW_AT_data_member_location[DW_OP_plus_uconst 0x18]
   10039                      .dwattr $C$DW$1142, DW_AT_accessibility(DW_ACCESS_public)
   10040              $C$DW$1143      .dwtag  DW_TAG_member
   10041                      .dwattr $C$DW$1143, DW_AT_type(*$C$DW$T$125)
   10042                      .dwattr $C$DW$1143, DW_AT_name("PIEIFR12")
   10043                      .dwattr $C$DW$1143, DW_AT_TI_symbol_name("_PIEIFR12")
   10044                      .dwattr $C$DW$1143, DW_AT_data_member_location[DW_OP_plus_uconst 0x19]
   10045                      .dwattr $C$DW$1143, DW_AT_accessibility(DW_ACCESS_public)
   10046                      .dwendtag $C$DW$T$146
   10047              
TMS320C2000 Assembler PC v6.1.3 Thu Jan 30 10:26:14 2014

Tools Copyright (c) 1996-2012 Texas Instruments Incorporated
C:\Users\a0272466\AppData\Local\Temp\0274010                         PAGE  189

   10048              $C$DW$1144      .dwtag  DW_TAG_TI_far_type
   10049                      .dwattr $C$DW$1144, DW_AT_type(*$C$DW$T$146)
   10050              $C$DW$T$203     .dwtag  DW_TAG_volatile_type
   10051                      .dwattr $C$DW$T$203, DW_AT_type(*$C$DW$1144)
   10052              
   10053              $C$DW$T$150     .dwtag  DW_TAG_structure_type
   10054                      .dwattr $C$DW$T$150, DW_AT_name("PIE_VECT_TABLE")
   10055                      .dwattr $C$DW$T$150, DW_AT_byte_size(0x1c0)
   10056              $C$DW$1145      .dwtag  DW_TAG_member
   10057                      .dwattr $C$DW$1145, DW_AT_type(*$C$DW$T$149)
   10058                      .dwattr $C$DW$1145, DW_AT_name("PIE1_RESERVED")
   10059                      .dwattr $C$DW$1145, DW_AT_TI_symbol_name("_PIE1_RESERVED")
   10060                      .dwattr $C$DW$1145, DW_AT_data_member_location[DW_OP_plus_uconst 0x0]
   10061                      .dwattr $C$DW$1145, DW_AT_accessibility(DW_ACCESS_public)
   10062              $C$DW$1146      .dwtag  DW_TAG_member
   10063                      .dwattr $C$DW$1146, DW_AT_type(*$C$DW$T$149)
   10064                      .dwattr $C$DW$1146, DW_AT_name("PIE2_RESERVED")
   10065                      .dwattr $C$DW$1146, DW_AT_TI_symbol_name("_PIE2_RESERVED")
   10066                      .dwattr $C$DW$1146, DW_AT_data_member_location[DW_OP_plus_uconst 0x2]
   10067                      .dwattr $C$DW$1146, DW_AT_accessibility(DW_ACCESS_public)
   10068              $C$DW$1147      .dwtag  DW_TAG_member
   10069                      .dwattr $C$DW$1147, DW_AT_type(*$C$DW$T$149)
   10070                      .dwattr $C$DW$1147, DW_AT_name("PIE3_RESERVED")
   10071                      .dwattr $C$DW$1147, DW_AT_TI_symbol_name("_PIE3_RESERVED")
   10072                      .dwattr $C$DW$1147, DW_AT_data_member_location[DW_OP_plus_uconst 0x4]
   10073                      .dwattr $C$DW$1147, DW_AT_accessibility(DW_ACCESS_public)
   10074              $C$DW$1148      .dwtag  DW_TAG_member
   10075                      .dwattr $C$DW$1148, DW_AT_type(*$C$DW$T$149)
   10076                      .dwattr $C$DW$1148, DW_AT_name("PIE4_RESERVED")
   10077                      .dwattr $C$DW$1148, DW_AT_TI_symbol_name("_PIE4_RESERVED")
   10078                      .dwattr $C$DW$1148, DW_AT_data_member_location[DW_OP_plus_uconst 0x6]
   10079                      .dwattr $C$DW$1148, DW_AT_accessibility(DW_ACCESS_public)
   10080              $C$DW$1149      .dwtag  DW_TAG_member
   10081                      .dwattr $C$DW$1149, DW_AT_type(*$C$DW$T$149)
   10082                      .dwattr $C$DW$1149, DW_AT_name("PIE5_RESERVED")
   10083                      .dwattr $C$DW$1149, DW_AT_TI_symbol_name("_PIE5_RESERVED")
   10084                      .dwattr $C$DW$1149, DW_AT_data_member_location[DW_OP_plus_uconst 0x8]
   10085                      .dwattr $C$DW$1149, DW_AT_accessibility(DW_ACCESS_public)
   10086              $C$DW$1150      .dwtag  DW_TAG_member
   10087                      .dwattr $C$DW$1150, DW_AT_type(*$C$DW$T$149)
   10088                      .dwattr $C$DW$1150, DW_AT_name("PIE6_RESERVED")
   10089                      .dwattr $C$DW$1150, DW_AT_TI_symbol_name("_PIE6_RESERVED")
   10090                      .dwattr $C$DW$1150, DW_AT_data_member_location[DW_OP_plus_uconst 0xa]
   10091                      .dwattr $C$DW$1150, DW_AT_accessibility(DW_ACCESS_public)
   10092              $C$DW$1151      .dwtag  DW_TAG_member
   10093                      .dwattr $C$DW$1151, DW_AT_type(*$C$DW$T$149)
   10094                      .dwattr $C$DW$1151, DW_AT_name("PIE7_RESERVED")
   10095                      .dwattr $C$DW$1151, DW_AT_TI_symbol_name("_PIE7_RESERVED")
   10096                      .dwattr $C$DW$1151, DW_AT_data_member_location[DW_OP_plus_uconst 0xc]
   10097                      .dwattr $C$DW$1151, DW_AT_accessibility(DW_ACCESS_public)
   10098              $C$DW$1152      .dwtag  DW_TAG_member
   10099                      .dwattr $C$DW$1152, DW_AT_type(*$C$DW$T$149)
   10100                      .dwattr $C$DW$1152, DW_AT_name("PIE8_RESERVED")
   10101                      .dwattr $C$DW$1152, DW_AT_TI_symbol_name("_PIE8_RESERVED")
   10102                      .dwattr $C$DW$1152, DW_AT_data_member_location[DW_OP_plus_uconst 0xe]
TMS320C2000 Assembler PC v6.1.3 Thu Jan 30 10:26:14 2014

Tools Copyright (c) 1996-2012 Texas Instruments Incorporated
C:\Users\a0272466\AppData\Local\Temp\0274010                         PAGE  190

   10103                      .dwattr $C$DW$1152, DW_AT_accessibility(DW_ACCESS_public)
   10104              $C$DW$1153      .dwtag  DW_TAG_member
   10105                      .dwattr $C$DW$1153, DW_AT_type(*$C$DW$T$149)
   10106                      .dwattr $C$DW$1153, DW_AT_name("PIE9_RESERVED")
   10107                      .dwattr $C$DW$1153, DW_AT_TI_symbol_name("_PIE9_RESERVED")
   10108                      .dwattr $C$DW$1153, DW_AT_data_member_location[DW_OP_plus_uconst 0x10]
   10109                      .dwattr $C$DW$1153, DW_AT_accessibility(DW_ACCESS_public)
   10110              $C$DW$1154      .dwtag  DW_TAG_member
   10111                      .dwattr $C$DW$1154, DW_AT_type(*$C$DW$T$149)
   10112                      .dwattr $C$DW$1154, DW_AT_name("PIE10_RESERVED")
   10113                      .dwattr $C$DW$1154, DW_AT_TI_symbol_name("_PIE10_RESERVED")
   10114                      .dwattr $C$DW$1154, DW_AT_data_member_location[DW_OP_plus_uconst 0x12]
   10115                      .dwattr $C$DW$1154, DW_AT_accessibility(DW_ACCESS_public)
   10116              $C$DW$1155      .dwtag  DW_TAG_member
   10117                      .dwattr $C$DW$1155, DW_AT_type(*$C$DW$T$149)
   10118                      .dwattr $C$DW$1155, DW_AT_name("PIE11_RESERVED")
   10119                      .dwattr $C$DW$1155, DW_AT_TI_symbol_name("_PIE11_RESERVED")
   10120                      .dwattr $C$DW$1155, DW_AT_data_member_location[DW_OP_plus_uconst 0x14]
   10121                      .dwattr $C$DW$1155, DW_AT_accessibility(DW_ACCESS_public)
   10122              $C$DW$1156      .dwtag  DW_TAG_member
   10123                      .dwattr $C$DW$1156, DW_AT_type(*$C$DW$T$149)
   10124                      .dwattr $C$DW$1156, DW_AT_name("PIE12_RESERVED")
   10125                      .dwattr $C$DW$1156, DW_AT_TI_symbol_name("_PIE12_RESERVED")
   10126                      .dwattr $C$DW$1156, DW_AT_data_member_location[DW_OP_plus_uconst 0x16]
   10127                      .dwattr $C$DW$1156, DW_AT_accessibility(DW_ACCESS_public)
   10128              $C$DW$1157      .dwtag  DW_TAG_member
   10129                      .dwattr $C$DW$1157, DW_AT_type(*$C$DW$T$149)
   10130                      .dwattr $C$DW$1157, DW_AT_name("PIE13_RESERVED")
   10131                      .dwattr $C$DW$1157, DW_AT_TI_symbol_name("_PIE13_RESERVED")
   10132                      .dwattr $C$DW$1157, DW_AT_data_member_location[DW_OP_plus_uconst 0x18]
   10133                      .dwattr $C$DW$1157, DW_AT_accessibility(DW_ACCESS_public)
   10134              $C$DW$1158      .dwtag  DW_TAG_member
   10135                      .dwattr $C$DW$1158, DW_AT_type(*$C$DW$T$149)
   10136                      .dwattr $C$DW$1158, DW_AT_name("T1_INT")
   10137                      .dwattr $C$DW$1158, DW_AT_TI_symbol_name("_T1_INT")
   10138                      .dwattr $C$DW$1158, DW_AT_data_member_location[DW_OP_plus_uconst 0x1a]
   10139                      .dwattr $C$DW$1158, DW_AT_accessibility(DW_ACCESS_public)
   10140              $C$DW$1159      .dwtag  DW_TAG_member
   10141                      .dwattr $C$DW$1159, DW_AT_type(*$C$DW$T$149)
   10142                      .dwattr $C$DW$1159, DW_AT_name("T2_INT")
   10143                      .dwattr $C$DW$1159, DW_AT_TI_symbol_name("_T2_INT")
   10144                      .dwattr $C$DW$1159, DW_AT_data_member_location[DW_OP_plus_uconst 0x1c]
   10145                      .dwattr $C$DW$1159, DW_AT_accessibility(DW_ACCESS_public)
   10146              $C$DW$1160      .dwtag  DW_TAG_member
   10147                      .dwattr $C$DW$1160, DW_AT_type(*$C$DW$T$149)
   10148                      .dwattr $C$DW$1160, DW_AT_name("DATALOG_INT")
   10149                      .dwattr $C$DW$1160, DW_AT_TI_symbol_name("_DATALOG_INT")
   10150                      .dwattr $C$DW$1160, DW_AT_data_member_location[DW_OP_plus_uconst 0x1e]
   10151                      .dwattr $C$DW$1160, DW_AT_accessibility(DW_ACCESS_public)
   10152              $C$DW$1161      .dwtag  DW_TAG_member
   10153                      .dwattr $C$DW$1161, DW_AT_type(*$C$DW$T$149)
   10154                      .dwattr $C$DW$1161, DW_AT_name("RTOS_INT")
   10155                      .dwattr $C$DW$1161, DW_AT_TI_symbol_name("_RTOS_INT")
   10156                      .dwattr $C$DW$1161, DW_AT_data_member_location[DW_OP_plus_uconst 0x20]
   10157                      .dwattr $C$DW$1161, DW_AT_accessibility(DW_ACCESS_public)
TMS320C2000 Assembler PC v6.1.3 Thu Jan 30 10:26:14 2014

Tools Copyright (c) 1996-2012 Texas Instruments Incorporated
C:\Users\a0272466\AppData\Local\Temp\0274010                         PAGE  191

   10158              $C$DW$1162      .dwtag  DW_TAG_member
   10159                      .dwattr $C$DW$1162, DW_AT_type(*$C$DW$T$149)
   10160                      .dwattr $C$DW$1162, DW_AT_name("EMU_INT")
   10161                      .dwattr $C$DW$1162, DW_AT_TI_symbol_name("_EMU_INT")
   10162                      .dwattr $C$DW$1162, DW_AT_data_member_location[DW_OP_plus_uconst 0x22]
   10163                      .dwattr $C$DW$1162, DW_AT_accessibility(DW_ACCESS_public)
   10164              $C$DW$1163      .dwtag  DW_TAG_member
   10165                      .dwattr $C$DW$1163, DW_AT_type(*$C$DW$T$149)
   10166                      .dwattr $C$DW$1163, DW_AT_name("NMI_INT")
   10167                      .dwattr $C$DW$1163, DW_AT_TI_symbol_name("_NMI_INT")
   10168                      .dwattr $C$DW$1163, DW_AT_data_member_location[DW_OP_plus_uconst 0x24]
   10169                      .dwattr $C$DW$1163, DW_AT_accessibility(DW_ACCESS_public)
   10170              $C$DW$1164      .dwtag  DW_TAG_member
   10171                      .dwattr $C$DW$1164, DW_AT_type(*$C$DW$T$149)
   10172                      .dwattr $C$DW$1164, DW_AT_name("ILLEGAL_INT")
   10173                      .dwattr $C$DW$1164, DW_AT_TI_symbol_name("_ILLEGAL_INT")
   10174                      .dwattr $C$DW$1164, DW_AT_data_member_location[DW_OP_plus_uconst 0x26]
   10175                      .dwattr $C$DW$1164, DW_AT_accessibility(DW_ACCESS_public)
   10176              $C$DW$1165      .dwtag  DW_TAG_member
   10177                      .dwattr $C$DW$1165, DW_AT_type(*$C$DW$T$149)
   10178                      .dwattr $C$DW$1165, DW_AT_name("USER1_INT")
   10179                      .dwattr $C$DW$1165, DW_AT_TI_symbol_name("_USER1_INT")
   10180                      .dwattr $C$DW$1165, DW_AT_data_member_location[DW_OP_plus_uconst 0x28]
   10181                      .dwattr $C$DW$1165, DW_AT_accessibility(DW_ACCESS_public)
   10182              $C$DW$1166      .dwtag  DW_TAG_member
   10183                      .dwattr $C$DW$1166, DW_AT_type(*$C$DW$T$149)
   10184                      .dwattr $C$DW$1166, DW_AT_name("USER2_INT")
   10185                      .dwattr $C$DW$1166, DW_AT_TI_symbol_name("_USER2_INT")
   10186                      .dwattr $C$DW$1166, DW_AT_data_member_location[DW_OP_plus_uconst 0x2a]
   10187                      .dwattr $C$DW$1166, DW_AT_accessibility(DW_ACCESS_public)
   10188              $C$DW$1167      .dwtag  DW_TAG_member
   10189                      .dwattr $C$DW$1167, DW_AT_type(*$C$DW$T$149)
   10190                      .dwattr $C$DW$1167, DW_AT_name("USER3_INT")
   10191                      .dwattr $C$DW$1167, DW_AT_TI_symbol_name("_USER3_INT")
   10192                      .dwattr $C$DW$1167, DW_AT_data_member_location[DW_OP_plus_uconst 0x2c]
   10193                      .dwattr $C$DW$1167, DW_AT_accessibility(DW_ACCESS_public)
   10194              $C$DW$1168      .dwtag  DW_TAG_member
   10195                      .dwattr $C$DW$1168, DW_AT_type(*$C$DW$T$149)
   10196                      .dwattr $C$DW$1168, DW_AT_name("USER4_INT")
   10197                      .dwattr $C$DW$1168, DW_AT_TI_symbol_name("_USER4_INT")
   10198                      .dwattr $C$DW$1168, DW_AT_data_member_location[DW_OP_plus_uconst 0x2e]
   10199                      .dwattr $C$DW$1168, DW_AT_accessibility(DW_ACCESS_public)
   10200              $C$DW$1169      .dwtag  DW_TAG_member
   10201                      .dwattr $C$DW$1169, DW_AT_type(*$C$DW$T$149)
   10202                      .dwattr $C$DW$1169, DW_AT_name("USER5_INT")
   10203                      .dwattr $C$DW$1169, DW_AT_TI_symbol_name("_USER5_INT")
   10204                      .dwattr $C$DW$1169, DW_AT_data_member_location[DW_OP_plus_uconst 0x30]
   10205                      .dwattr $C$DW$1169, DW_AT_accessibility(DW_ACCESS_public)
   10206              $C$DW$1170      .dwtag  DW_TAG_member
   10207                      .dwattr $C$DW$1170, DW_AT_type(*$C$DW$T$149)
   10208                      .dwattr $C$DW$1170, DW_AT_name("USER6_INT")
   10209                      .dwattr $C$DW$1170, DW_AT_TI_symbol_name("_USER6_INT")
   10210                      .dwattr $C$DW$1170, DW_AT_data_member_location[DW_OP_plus_uconst 0x32]
   10211                      .dwattr $C$DW$1170, DW_AT_accessibility(DW_ACCESS_public)
   10212              $C$DW$1171      .dwtag  DW_TAG_member
TMS320C2000 Assembler PC v6.1.3 Thu Jan 30 10:26:14 2014

Tools Copyright (c) 1996-2012 Texas Instruments Incorporated
C:\Users\a0272466\AppData\Local\Temp\0274010                         PAGE  192

   10213                      .dwattr $C$DW$1171, DW_AT_type(*$C$DW$T$149)
   10214                      .dwattr $C$DW$1171, DW_AT_name("USER7_INT")
   10215                      .dwattr $C$DW$1171, DW_AT_TI_symbol_name("_USER7_INT")
   10216                      .dwattr $C$DW$1171, DW_AT_data_member_location[DW_OP_plus_uconst 0x34]
   10217                      .dwattr $C$DW$1171, DW_AT_accessibility(DW_ACCESS_public)
   10218              $C$DW$1172      .dwtag  DW_TAG_member
   10219                      .dwattr $C$DW$1172, DW_AT_type(*$C$DW$T$149)
   10220                      .dwattr $C$DW$1172, DW_AT_name("USER8_INT")
   10221                      .dwattr $C$DW$1172, DW_AT_TI_symbol_name("_USER8_INT")
   10222                      .dwattr $C$DW$1172, DW_AT_data_member_location[DW_OP_plus_uconst 0x36]
   10223                      .dwattr $C$DW$1172, DW_AT_accessibility(DW_ACCESS_public)
   10224              $C$DW$1173      .dwtag  DW_TAG_member
   10225                      .dwattr $C$DW$1173, DW_AT_type(*$C$DW$T$149)
   10226                      .dwattr $C$DW$1173, DW_AT_name("USER9_INT")
   10227                      .dwattr $C$DW$1173, DW_AT_TI_symbol_name("_USER9_INT")
   10228                      .dwattr $C$DW$1173, DW_AT_data_member_location[DW_OP_plus_uconst 0x38]
   10229                      .dwattr $C$DW$1173, DW_AT_accessibility(DW_ACCESS_public)
   10230              $C$DW$1174      .dwtag  DW_TAG_member
   10231                      .dwattr $C$DW$1174, DW_AT_type(*$C$DW$T$149)
   10232                      .dwattr $C$DW$1174, DW_AT_name("USER10_INT")
   10233                      .dwattr $C$DW$1174, DW_AT_TI_symbol_name("_USER10_INT")
   10234                      .dwattr $C$DW$1174, DW_AT_data_member_location[DW_OP_plus_uconst 0x3a]
   10235                      .dwattr $C$DW$1174, DW_AT_accessibility(DW_ACCESS_public)
   10236              $C$DW$1175      .dwtag  DW_TAG_member
   10237                      .dwattr $C$DW$1175, DW_AT_type(*$C$DW$T$149)
   10238                      .dwattr $C$DW$1175, DW_AT_name("USER11_INT")
   10239                      .dwattr $C$DW$1175, DW_AT_TI_symbol_name("_USER11_INT")
   10240                      .dwattr $C$DW$1175, DW_AT_data_member_location[DW_OP_plus_uconst 0x3c]
   10241                      .dwattr $C$DW$1175, DW_AT_accessibility(DW_ACCESS_public)
   10242              $C$DW$1176      .dwtag  DW_TAG_member
   10243                      .dwattr $C$DW$1176, DW_AT_type(*$C$DW$T$149)
   10244                      .dwattr $C$DW$1176, DW_AT_name("USER12_INT")
   10245                      .dwattr $C$DW$1176, DW_AT_TI_symbol_name("_USER12_INT")
   10246                      .dwattr $C$DW$1176, DW_AT_data_member_location[DW_OP_plus_uconst 0x3e]
   10247                      .dwattr $C$DW$1176, DW_AT_accessibility(DW_ACCESS_public)
   10248              $C$DW$1177      .dwtag  DW_TAG_member
   10249                      .dwattr $C$DW$1177, DW_AT_type(*$C$DW$T$149)
   10250                      .dwattr $C$DW$1177, DW_AT_name("ADC1_CH1_INT")
   10251                      .dwattr $C$DW$1177, DW_AT_TI_symbol_name("_ADC1_CH1_INT")
   10252                      .dwattr $C$DW$1177, DW_AT_data_member_location[DW_OP_plus_uconst 0x40]
   10253                      .dwattr $C$DW$1177, DW_AT_accessibility(DW_ACCESS_public)
   10254              $C$DW$1178      .dwtag  DW_TAG_member
   10255                      .dwattr $C$DW$1178, DW_AT_type(*$C$DW$T$149)
   10256                      .dwattr $C$DW$1178, DW_AT_name("ADC2_CH1_INT")
   10257                      .dwattr $C$DW$1178, DW_AT_TI_symbol_name("_ADC2_CH1_INT")
   10258                      .dwattr $C$DW$1178, DW_AT_data_member_location[DW_OP_plus_uconst 0x42]
   10259                      .dwattr $C$DW$1178, DW_AT_accessibility(DW_ACCESS_public)
   10260              $C$DW$1179      .dwtag  DW_TAG_member
   10261                      .dwattr $C$DW$1179, DW_AT_type(*$C$DW$T$149)
   10262                      .dwattr $C$DW$1179, DW_AT_name("ADC3_CH1_INT")
   10263                      .dwattr $C$DW$1179, DW_AT_TI_symbol_name("_ADC3_CH1_INT")
   10264                      .dwattr $C$DW$1179, DW_AT_data_member_location[DW_OP_plus_uconst 0x44]
   10265                      .dwattr $C$DW$1179, DW_AT_accessibility(DW_ACCESS_public)
   10266              $C$DW$1180      .dwtag  DW_TAG_member
   10267                      .dwattr $C$DW$1180, DW_AT_type(*$C$DW$T$149)
TMS320C2000 Assembler PC v6.1.3 Thu Jan 30 10:26:14 2014

Tools Copyright (c) 1996-2012 Texas Instruments Incorporated
C:\Users\a0272466\AppData\Local\Temp\0274010                         PAGE  193

   10268                      .dwattr $C$DW$1180, DW_AT_name("XINT1_INT")
   10269                      .dwattr $C$DW$1180, DW_AT_TI_symbol_name("_XINT1_INT")
   10270                      .dwattr $C$DW$1180, DW_AT_data_member_location[DW_OP_plus_uconst 0x46]
   10271                      .dwattr $C$DW$1180, DW_AT_accessibility(DW_ACCESS_public)
   10272              $C$DW$1181      .dwtag  DW_TAG_member
   10273                      .dwattr $C$DW$1181, DW_AT_type(*$C$DW$T$149)
   10274                      .dwattr $C$DW$1181, DW_AT_name("XINT2_INT")
   10275                      .dwattr $C$DW$1181, DW_AT_TI_symbol_name("_XINT2_INT")
   10276                      .dwattr $C$DW$1181, DW_AT_data_member_location[DW_OP_plus_uconst 0x48]
   10277                      .dwattr $C$DW$1181, DW_AT_accessibility(DW_ACCESS_public)
   10278              $C$DW$1182      .dwtag  DW_TAG_member
   10279                      .dwattr $C$DW$1182, DW_AT_type(*$C$DW$T$149)
   10280                      .dwattr $C$DW$1182, DW_AT_name("ADC4_CH1_INT")
   10281                      .dwattr $C$DW$1182, DW_AT_TI_symbol_name("_ADC4_CH1_INT")
   10282                      .dwattr $C$DW$1182, DW_AT_data_member_location[DW_OP_plus_uconst 0x4a]
   10283                      .dwattr $C$DW$1182, DW_AT_accessibility(DW_ACCESS_public)
   10284              $C$DW$1183      .dwtag  DW_TAG_member
   10285                      .dwattr $C$DW$1183, DW_AT_type(*$C$DW$T$149)
   10286                      .dwattr $C$DW$1183, DW_AT_name("T0_INT")
   10287                      .dwattr $C$DW$1183, DW_AT_TI_symbol_name("_T0_INT")
   10288                      .dwattr $C$DW$1183, DW_AT_data_member_location[DW_OP_plus_uconst 0x4c]
   10289                      .dwattr $C$DW$1183, DW_AT_accessibility(DW_ACCESS_public)
   10290              $C$DW$1184      .dwtag  DW_TAG_member
   10291                      .dwattr $C$DW$1184, DW_AT_type(*$C$DW$T$149)
   10292                      .dwattr $C$DW$1184, DW_AT_name("WAKE_INT")
   10293                      .dwattr $C$DW$1184, DW_AT_TI_symbol_name("_WAKE_INT")
   10294                      .dwattr $C$DW$1184, DW_AT_data_member_location[DW_OP_plus_uconst 0x4e]
   10295                      .dwattr $C$DW$1184, DW_AT_accessibility(DW_ACCESS_public)
   10296              $C$DW$1185      .dwtag  DW_TAG_member
   10297                      .dwattr $C$DW$1185, DW_AT_type(*$C$DW$T$149)
   10298                      .dwattr $C$DW$1185, DW_AT_name("EPWM1_TZ_INT")
   10299                      .dwattr $C$DW$1185, DW_AT_TI_symbol_name("_EPWM1_TZ_INT")
   10300                      .dwattr $C$DW$1185, DW_AT_data_member_location[DW_OP_plus_uconst 0x50]
   10301                      .dwattr $C$DW$1185, DW_AT_accessibility(DW_ACCESS_public)
   10302              $C$DW$1186      .dwtag  DW_TAG_member
   10303                      .dwattr $C$DW$1186, DW_AT_type(*$C$DW$T$149)
   10304                      .dwattr $C$DW$1186, DW_AT_name("EPWM2_TZ_INT")
   10305                      .dwattr $C$DW$1186, DW_AT_TI_symbol_name("_EPWM2_TZ_INT")
   10306                      .dwattr $C$DW$1186, DW_AT_data_member_location[DW_OP_plus_uconst 0x52]
   10307                      .dwattr $C$DW$1186, DW_AT_accessibility(DW_ACCESS_public)
   10308              $C$DW$1187      .dwtag  DW_TAG_member
   10309                      .dwattr $C$DW$1187, DW_AT_type(*$C$DW$T$149)
   10310                      .dwattr $C$DW$1187, DW_AT_name("EPWM3_TZ_INT")
   10311                      .dwattr $C$DW$1187, DW_AT_TI_symbol_name("_EPWM3_TZ_INT")
   10312                      .dwattr $C$DW$1187, DW_AT_data_member_location[DW_OP_plus_uconst 0x54]
   10313                      .dwattr $C$DW$1187, DW_AT_accessibility(DW_ACCESS_public)
   10314              $C$DW$1188      .dwtag  DW_TAG_member
   10315                      .dwattr $C$DW$1188, DW_AT_type(*$C$DW$T$149)
   10316                      .dwattr $C$DW$1188, DW_AT_name("EPWM4_TZ_INT")
   10317                      .dwattr $C$DW$1188, DW_AT_TI_symbol_name("_EPWM4_TZ_INT")
   10318                      .dwattr $C$DW$1188, DW_AT_data_member_location[DW_OP_plus_uconst 0x56]
   10319                      .dwattr $C$DW$1188, DW_AT_accessibility(DW_ACCESS_public)
   10320              $C$DW$1189      .dwtag  DW_TAG_member
   10321                      .dwattr $C$DW$1189, DW_AT_type(*$C$DW$T$149)
   10322                      .dwattr $C$DW$1189, DW_AT_name("EPWM5_TZ_INT")
TMS320C2000 Assembler PC v6.1.3 Thu Jan 30 10:26:14 2014

Tools Copyright (c) 1996-2012 Texas Instruments Incorporated
C:\Users\a0272466\AppData\Local\Temp\0274010                         PAGE  194

   10323                      .dwattr $C$DW$1189, DW_AT_TI_symbol_name("_EPWM5_TZ_INT")
   10324                      .dwattr $C$DW$1189, DW_AT_data_member_location[DW_OP_plus_uconst 0x58]
   10325                      .dwattr $C$DW$1189, DW_AT_accessibility(DW_ACCESS_public)
   10326              $C$DW$1190      .dwtag  DW_TAG_member
   10327                      .dwattr $C$DW$1190, DW_AT_type(*$C$DW$T$149)
   10328                      .dwattr $C$DW$1190, DW_AT_name("EPWM6_TZ_INT")
   10329                      .dwattr $C$DW$1190, DW_AT_TI_symbol_name("_EPWM6_TZ_INT")
   10330                      .dwattr $C$DW$1190, DW_AT_data_member_location[DW_OP_plus_uconst 0x5a]
   10331                      .dwattr $C$DW$1190, DW_AT_accessibility(DW_ACCESS_public)
   10332              $C$DW$1191      .dwtag  DW_TAG_member
   10333                      .dwattr $C$DW$1191, DW_AT_type(*$C$DW$T$149)
   10334                      .dwattr $C$DW$1191, DW_AT_name("EPWM7_TZ_INT")
   10335                      .dwattr $C$DW$1191, DW_AT_TI_symbol_name("_EPWM7_TZ_INT")
   10336                      .dwattr $C$DW$1191, DW_AT_data_member_location[DW_OP_plus_uconst 0x5c]
   10337                      .dwattr $C$DW$1191, DW_AT_accessibility(DW_ACCESS_public)
   10338              $C$DW$1192      .dwtag  DW_TAG_member
   10339                      .dwattr $C$DW$1192, DW_AT_type(*$C$DW$T$149)
   10340                      .dwattr $C$DW$1192, DW_AT_name("EPWM8_TZ_INT")
   10341                      .dwattr $C$DW$1192, DW_AT_TI_symbol_name("_EPWM8_TZ_INT")
   10342                      .dwattr $C$DW$1192, DW_AT_data_member_location[DW_OP_plus_uconst 0x5e]
   10343                      .dwattr $C$DW$1192, DW_AT_accessibility(DW_ACCESS_public)
   10344              $C$DW$1193      .dwtag  DW_TAG_member
   10345                      .dwattr $C$DW$1193, DW_AT_type(*$C$DW$T$149)
   10346                      .dwattr $C$DW$1193, DW_AT_name("EPWM1_INT")
   10347                      .dwattr $C$DW$1193, DW_AT_TI_symbol_name("_EPWM1_INT")
   10348                      .dwattr $C$DW$1193, DW_AT_data_member_location[DW_OP_plus_uconst 0x60]
   10349                      .dwattr $C$DW$1193, DW_AT_accessibility(DW_ACCESS_public)
   10350              $C$DW$1194      .dwtag  DW_TAG_member
   10351                      .dwattr $C$DW$1194, DW_AT_type(*$C$DW$T$149)
   10352                      .dwattr $C$DW$1194, DW_AT_name("EPWM2_INT")
   10353                      .dwattr $C$DW$1194, DW_AT_TI_symbol_name("_EPWM2_INT")
   10354                      .dwattr $C$DW$1194, DW_AT_data_member_location[DW_OP_plus_uconst 0x62]
   10355                      .dwattr $C$DW$1194, DW_AT_accessibility(DW_ACCESS_public)
   10356              $C$DW$1195      .dwtag  DW_TAG_member
   10357                      .dwattr $C$DW$1195, DW_AT_type(*$C$DW$T$149)
   10358                      .dwattr $C$DW$1195, DW_AT_name("EPWM3_INT")
   10359                      .dwattr $C$DW$1195, DW_AT_TI_symbol_name("_EPWM3_INT")
   10360                      .dwattr $C$DW$1195, DW_AT_data_member_location[DW_OP_plus_uconst 0x64]
   10361                      .dwattr $C$DW$1195, DW_AT_accessibility(DW_ACCESS_public)
   10362              $C$DW$1196      .dwtag  DW_TAG_member
   10363                      .dwattr $C$DW$1196, DW_AT_type(*$C$DW$T$149)
   10364                      .dwattr $C$DW$1196, DW_AT_name("EPWM4_INT")
   10365                      .dwattr $C$DW$1196, DW_AT_TI_symbol_name("_EPWM4_INT")
   10366                      .dwattr $C$DW$1196, DW_AT_data_member_location[DW_OP_plus_uconst 0x66]
   10367                      .dwattr $C$DW$1196, DW_AT_accessibility(DW_ACCESS_public)
   10368              $C$DW$1197      .dwtag  DW_TAG_member
   10369                      .dwattr $C$DW$1197, DW_AT_type(*$C$DW$T$149)
   10370                      .dwattr $C$DW$1197, DW_AT_name("EPWM5_INT")
   10371                      .dwattr $C$DW$1197, DW_AT_TI_symbol_name("_EPWM5_INT")
   10372                      .dwattr $C$DW$1197, DW_AT_data_member_location[DW_OP_plus_uconst 0x68]
   10373                      .dwattr $C$DW$1197, DW_AT_accessibility(DW_ACCESS_public)
   10374              $C$DW$1198      .dwtag  DW_TAG_member
   10375                      .dwattr $C$DW$1198, DW_AT_type(*$C$DW$T$149)
   10376                      .dwattr $C$DW$1198, DW_AT_name("EPWM6_INT")
   10377                      .dwattr $C$DW$1198, DW_AT_TI_symbol_name("_EPWM6_INT")
TMS320C2000 Assembler PC v6.1.3 Thu Jan 30 10:26:14 2014

Tools Copyright (c) 1996-2012 Texas Instruments Incorporated
C:\Users\a0272466\AppData\Local\Temp\0274010                         PAGE  195

   10378                      .dwattr $C$DW$1198, DW_AT_data_member_location[DW_OP_plus_uconst 0x6a]
   10379                      .dwattr $C$DW$1198, DW_AT_accessibility(DW_ACCESS_public)
   10380              $C$DW$1199      .dwtag  DW_TAG_member
   10381                      .dwattr $C$DW$1199, DW_AT_type(*$C$DW$T$149)
   10382                      .dwattr $C$DW$1199, DW_AT_name("EPWM7_INT")
   10383                      .dwattr $C$DW$1199, DW_AT_TI_symbol_name("_EPWM7_INT")
   10384                      .dwattr $C$DW$1199, DW_AT_data_member_location[DW_OP_plus_uconst 0x6c]
   10385                      .dwattr $C$DW$1199, DW_AT_accessibility(DW_ACCESS_public)
   10386              $C$DW$1200      .dwtag  DW_TAG_member
   10387                      .dwattr $C$DW$1200, DW_AT_type(*$C$DW$T$149)
   10388                      .dwattr $C$DW$1200, DW_AT_name("EPWM8_INT")
   10389                      .dwattr $C$DW$1200, DW_AT_TI_symbol_name("_EPWM8_INT")
   10390                      .dwattr $C$DW$1200, DW_AT_data_member_location[DW_OP_plus_uconst 0x6e]
   10391                      .dwattr $C$DW$1200, DW_AT_accessibility(DW_ACCESS_public)
   10392              $C$DW$1201      .dwtag  DW_TAG_member
   10393                      .dwattr $C$DW$1201, DW_AT_type(*$C$DW$T$149)
   10394                      .dwattr $C$DW$1201, DW_AT_name("ECAP1_INT")
   10395                      .dwattr $C$DW$1201, DW_AT_TI_symbol_name("_ECAP1_INT")
   10396                      .dwattr $C$DW$1201, DW_AT_data_member_location[DW_OP_plus_uconst 0x70]
   10397                      .dwattr $C$DW$1201, DW_AT_accessibility(DW_ACCESS_public)
   10398              $C$DW$1202      .dwtag  DW_TAG_member
   10399                      .dwattr $C$DW$1202, DW_AT_type(*$C$DW$T$149)
   10400                      .dwattr $C$DW$1202, DW_AT_name("ECAP2_INT")
   10401                      .dwattr $C$DW$1202, DW_AT_TI_symbol_name("_ECAP2_INT")
   10402                      .dwattr $C$DW$1202, DW_AT_data_member_location[DW_OP_plus_uconst 0x72]
   10403                      .dwattr $C$DW$1202, DW_AT_accessibility(DW_ACCESS_public)
   10404              $C$DW$1203      .dwtag  DW_TAG_member
   10405                      .dwattr $C$DW$1203, DW_AT_type(*$C$DW$T$149)
   10406                      .dwattr $C$DW$1203, DW_AT_name("ECAP3_INT")
   10407                      .dwattr $C$DW$1203, DW_AT_TI_symbol_name("_ECAP3_INT")
   10408                      .dwattr $C$DW$1203, DW_AT_data_member_location[DW_OP_plus_uconst 0x74]
   10409                      .dwattr $C$DW$1203, DW_AT_accessibility(DW_ACCESS_public)
   10410              $C$DW$1204      .dwtag  DW_TAG_member
   10411                      .dwattr $C$DW$1204, DW_AT_type(*$C$DW$T$149)
   10412                      .dwattr $C$DW$1204, DW_AT_name("ECAP4_INT")
   10413                      .dwattr $C$DW$1204, DW_AT_TI_symbol_name("_ECAP4_INT")
   10414                      .dwattr $C$DW$1204, DW_AT_data_member_location[DW_OP_plus_uconst 0x76]
   10415                      .dwattr $C$DW$1204, DW_AT_accessibility(DW_ACCESS_public)
   10416              $C$DW$1205      .dwtag  DW_TAG_member
   10417                      .dwattr $C$DW$1205, DW_AT_type(*$C$DW$T$149)
   10418                      .dwattr $C$DW$1205, DW_AT_name("ECAP5_INT")
   10419                      .dwattr $C$DW$1205, DW_AT_TI_symbol_name("_ECAP5_INT")
   10420                      .dwattr $C$DW$1205, DW_AT_data_member_location[DW_OP_plus_uconst 0x78]
   10421                      .dwattr $C$DW$1205, DW_AT_accessibility(DW_ACCESS_public)
   10422              $C$DW$1206      .dwtag  DW_TAG_member
   10423                      .dwattr $C$DW$1206, DW_AT_type(*$C$DW$T$149)
   10424                      .dwattr $C$DW$1206, DW_AT_name("ECAP6_INT")
   10425                      .dwattr $C$DW$1206, DW_AT_TI_symbol_name("_ECAP6_INT")
   10426                      .dwattr $C$DW$1206, DW_AT_data_member_location[DW_OP_plus_uconst 0x7a]
   10427                      .dwattr $C$DW$1206, DW_AT_accessibility(DW_ACCESS_public)
   10428              $C$DW$1207      .dwtag  DW_TAG_member
   10429                      .dwattr $C$DW$1207, DW_AT_type(*$C$DW$T$149)
   10430                      .dwattr $C$DW$1207, DW_AT_name("PIE14_RESERVED")
   10431                      .dwattr $C$DW$1207, DW_AT_TI_symbol_name("_PIE14_RESERVED")
   10432                      .dwattr $C$DW$1207, DW_AT_data_member_location[DW_OP_plus_uconst 0x7c]
TMS320C2000 Assembler PC v6.1.3 Thu Jan 30 10:26:14 2014

Tools Copyright (c) 1996-2012 Texas Instruments Incorporated
C:\Users\a0272466\AppData\Local\Temp\0274010                         PAGE  196

   10433                      .dwattr $C$DW$1207, DW_AT_accessibility(DW_ACCESS_public)
   10434              $C$DW$1208      .dwtag  DW_TAG_member
   10435                      .dwattr $C$DW$1208, DW_AT_type(*$C$DW$T$149)
   10436                      .dwattr $C$DW$1208, DW_AT_name("PIE15_RESERVED")
   10437                      .dwattr $C$DW$1208, DW_AT_TI_symbol_name("_PIE15_RESERVED")
   10438                      .dwattr $C$DW$1208, DW_AT_data_member_location[DW_OP_plus_uconst 0x7e]
   10439                      .dwattr $C$DW$1208, DW_AT_accessibility(DW_ACCESS_public)
   10440              $C$DW$1209      .dwtag  DW_TAG_member
   10441                      .dwattr $C$DW$1209, DW_AT_type(*$C$DW$T$149)
   10442                      .dwattr $C$DW$1209, DW_AT_name("EQEP1_INT")
   10443                      .dwattr $C$DW$1209, DW_AT_TI_symbol_name("_EQEP1_INT")
   10444                      .dwattr $C$DW$1209, DW_AT_data_member_location[DW_OP_plus_uconst 0x80]
   10445                      .dwattr $C$DW$1209, DW_AT_accessibility(DW_ACCESS_public)
   10446              $C$DW$1210      .dwtag  DW_TAG_member
   10447                      .dwattr $C$DW$1210, DW_AT_type(*$C$DW$T$149)
   10448                      .dwattr $C$DW$1210, DW_AT_name("EQEP2_INT")
   10449                      .dwattr $C$DW$1210, DW_AT_TI_symbol_name("_EQEP2_INT")
   10450                      .dwattr $C$DW$1210, DW_AT_data_member_location[DW_OP_plus_uconst 0x82]
   10451                      .dwattr $C$DW$1210, DW_AT_accessibility(DW_ACCESS_public)
   10452              $C$DW$1211      .dwtag  DW_TAG_member
   10453                      .dwattr $C$DW$1211, DW_AT_type(*$C$DW$T$149)
   10454                      .dwattr $C$DW$1211, DW_AT_name("EQEP3_INT")
   10455                      .dwattr $C$DW$1211, DW_AT_TI_symbol_name("_EQEP3_INT")
   10456                      .dwattr $C$DW$1211, DW_AT_data_member_location[DW_OP_plus_uconst 0x84]
   10457                      .dwattr $C$DW$1211, DW_AT_accessibility(DW_ACCESS_public)
   10458              $C$DW$1212      .dwtag  DW_TAG_member
   10459                      .dwattr $C$DW$1212, DW_AT_type(*$C$DW$T$149)
   10460                      .dwattr $C$DW$1212, DW_AT_name("PIE16_RESERVED")
   10461                      .dwattr $C$DW$1212, DW_AT_TI_symbol_name("_PIE16_RESERVED")
   10462                      .dwattr $C$DW$1212, DW_AT_data_member_location[DW_OP_plus_uconst 0x86]
   10463                      .dwattr $C$DW$1212, DW_AT_accessibility(DW_ACCESS_public)
   10464              $C$DW$1213      .dwtag  DW_TAG_member
   10465                      .dwattr $C$DW$1213, DW_AT_type(*$C$DW$T$149)
   10466                      .dwattr $C$DW$1213, DW_AT_name("CLB1_INT")
   10467                      .dwattr $C$DW$1213, DW_AT_TI_symbol_name("_CLB1_INT")
   10468                      .dwattr $C$DW$1213, DW_AT_data_member_location[DW_OP_plus_uconst 0x88]
   10469                      .dwattr $C$DW$1213, DW_AT_accessibility(DW_ACCESS_public)
   10470              $C$DW$1214      .dwtag  DW_TAG_member
   10471                      .dwattr $C$DW$1214, DW_AT_type(*$C$DW$T$149)
   10472                      .dwattr $C$DW$1214, DW_AT_name("CLB2_INT")
   10473                      .dwattr $C$DW$1214, DW_AT_TI_symbol_name("_CLB2_INT")
   10474                      .dwattr $C$DW$1214, DW_AT_data_member_location[DW_OP_plus_uconst 0x8a]
   10475                      .dwattr $C$DW$1214, DW_AT_accessibility(DW_ACCESS_public)
   10476              $C$DW$1215      .dwtag  DW_TAG_member
   10477                      .dwattr $C$DW$1215, DW_AT_type(*$C$DW$T$149)
   10478                      .dwattr $C$DW$1215, DW_AT_name("CLB3_INT")
   10479                      .dwattr $C$DW$1215, DW_AT_TI_symbol_name("_CLB3_INT")
   10480                      .dwattr $C$DW$1215, DW_AT_data_member_location[DW_OP_plus_uconst 0x8c]
   10481                      .dwattr $C$DW$1215, DW_AT_accessibility(DW_ACCESS_public)
   10482              $C$DW$1216      .dwtag  DW_TAG_member
   10483                      .dwattr $C$DW$1216, DW_AT_type(*$C$DW$T$149)
   10484                      .dwattr $C$DW$1216, DW_AT_name("CLB4_INT")
   10485                      .dwattr $C$DW$1216, DW_AT_TI_symbol_name("_CLB4_INT")
   10486                      .dwattr $C$DW$1216, DW_AT_data_member_location[DW_OP_plus_uconst 0x8e]
   10487                      .dwattr $C$DW$1216, DW_AT_accessibility(DW_ACCESS_public)
TMS320C2000 Assembler PC v6.1.3 Thu Jan 30 10:26:14 2014

Tools Copyright (c) 1996-2012 Texas Instruments Incorporated
C:\Users\a0272466\AppData\Local\Temp\0274010                         PAGE  197

   10488              $C$DW$1217      .dwtag  DW_TAG_member
   10489                      .dwattr $C$DW$1217, DW_AT_type(*$C$DW$T$149)
   10490                      .dwattr $C$DW$1217, DW_AT_name("SPIA_RX_INT")
   10491                      .dwattr $C$DW$1217, DW_AT_TI_symbol_name("_SPIA_RX_INT")
   10492                      .dwattr $C$DW$1217, DW_AT_data_member_location[DW_OP_plus_uconst 0x90]
   10493                      .dwattr $C$DW$1217, DW_AT_accessibility(DW_ACCESS_public)
   10494              $C$DW$1218      .dwtag  DW_TAG_member
   10495                      .dwattr $C$DW$1218, DW_AT_type(*$C$DW$T$149)
   10496                      .dwattr $C$DW$1218, DW_AT_name("SPIA_TX_INT")
   10497                      .dwattr $C$DW$1218, DW_AT_TI_symbol_name("_SPIA_TX_INT")
   10498                      .dwattr $C$DW$1218, DW_AT_data_member_location[DW_OP_plus_uconst 0x92]
   10499                      .dwattr $C$DW$1218, DW_AT_accessibility(DW_ACCESS_public)
   10500              $C$DW$1219      .dwtag  DW_TAG_member
   10501                      .dwattr $C$DW$1219, DW_AT_type(*$C$DW$T$149)
   10502                      .dwattr $C$DW$1219, DW_AT_name("SPIB_RX_INT")
   10503                      .dwattr $C$DW$1219, DW_AT_TI_symbol_name("_SPIB_RX_INT")
   10504                      .dwattr $C$DW$1219, DW_AT_data_member_location[DW_OP_plus_uconst 0x94]
   10505                      .dwattr $C$DW$1219, DW_AT_accessibility(DW_ACCESS_public)
   10506              $C$DW$1220      .dwtag  DW_TAG_member
   10507                      .dwattr $C$DW$1220, DW_AT_type(*$C$DW$T$149)
   10508                      .dwattr $C$DW$1220, DW_AT_name("SPIB_TX_INT")
   10509                      .dwattr $C$DW$1220, DW_AT_TI_symbol_name("_SPIB_TX_INT")
   10510                      .dwattr $C$DW$1220, DW_AT_data_member_location[DW_OP_plus_uconst 0x96]
   10511                      .dwattr $C$DW$1220, DW_AT_accessibility(DW_ACCESS_public)
   10512              $C$DW$1221      .dwtag  DW_TAG_member
   10513                      .dwattr $C$DW$1221, DW_AT_type(*$C$DW$T$149)
   10514                      .dwattr $C$DW$1221, DW_AT_name("MCBSPA_RX_INT")
   10515                      .dwattr $C$DW$1221, DW_AT_TI_symbol_name("_MCBSPA_RX_INT")
   10516                      .dwattr $C$DW$1221, DW_AT_data_member_location[DW_OP_plus_uconst 0x98]
   10517                      .dwattr $C$DW$1221, DW_AT_accessibility(DW_ACCESS_public)
   10518              $C$DW$1222      .dwtag  DW_TAG_member
   10519                      .dwattr $C$DW$1222, DW_AT_type(*$C$DW$T$149)
   10520                      .dwattr $C$DW$1222, DW_AT_name("MCBSPA_TX_INT")
   10521                      .dwattr $C$DW$1222, DW_AT_TI_symbol_name("_MCBSPA_TX_INT")
   10522                      .dwattr $C$DW$1222, DW_AT_data_member_location[DW_OP_plus_uconst 0x9a]
   10523                      .dwattr $C$DW$1222, DW_AT_accessibility(DW_ACCESS_public)
   10524              $C$DW$1223      .dwtag  DW_TAG_member
   10525                      .dwattr $C$DW$1223, DW_AT_type(*$C$DW$T$149)
   10526                      .dwattr $C$DW$1223, DW_AT_name("MCBSPB_RX_INT")
   10527                      .dwattr $C$DW$1223, DW_AT_TI_symbol_name("_MCBSPB_RX_INT")
   10528                      .dwattr $C$DW$1223, DW_AT_data_member_location[DW_OP_plus_uconst 0x9c]
   10529                      .dwattr $C$DW$1223, DW_AT_accessibility(DW_ACCESS_public)
   10530              $C$DW$1224      .dwtag  DW_TAG_member
   10531                      .dwattr $C$DW$1224, DW_AT_type(*$C$DW$T$149)
   10532                      .dwattr $C$DW$1224, DW_AT_name("MCBSPB_TX_INT")
   10533                      .dwattr $C$DW$1224, DW_AT_TI_symbol_name("_MCBSPB_TX_INT")
   10534                      .dwattr $C$DW$1224, DW_AT_data_member_location[DW_OP_plus_uconst 0x9e]
   10535                      .dwattr $C$DW$1224, DW_AT_accessibility(DW_ACCESS_public)
   10536              $C$DW$1225      .dwtag  DW_TAG_member
   10537                      .dwattr $C$DW$1225, DW_AT_type(*$C$DW$T$149)
   10538                      .dwattr $C$DW$1225, DW_AT_name("DMA_CH1_INT")
   10539                      .dwattr $C$DW$1225, DW_AT_TI_symbol_name("_DMA_CH1_INT")
   10540                      .dwattr $C$DW$1225, DW_AT_data_member_location[DW_OP_plus_uconst 0xa0]
   10541                      .dwattr $C$DW$1225, DW_AT_accessibility(DW_ACCESS_public)
   10542              $C$DW$1226      .dwtag  DW_TAG_member
TMS320C2000 Assembler PC v6.1.3 Thu Jan 30 10:26:14 2014

Tools Copyright (c) 1996-2012 Texas Instruments Incorporated
C:\Users\a0272466\AppData\Local\Temp\0274010                         PAGE  198

   10543                      .dwattr $C$DW$1226, DW_AT_type(*$C$DW$T$149)
   10544                      .dwattr $C$DW$1226, DW_AT_name("DMA_CH2_INT")
   10545                      .dwattr $C$DW$1226, DW_AT_TI_symbol_name("_DMA_CH2_INT")
   10546                      .dwattr $C$DW$1226, DW_AT_data_member_location[DW_OP_plus_uconst 0xa2]
   10547                      .dwattr $C$DW$1226, DW_AT_accessibility(DW_ACCESS_public)
   10548              $C$DW$1227      .dwtag  DW_TAG_member
   10549                      .dwattr $C$DW$1227, DW_AT_type(*$C$DW$T$149)
   10550                      .dwattr $C$DW$1227, DW_AT_name("DMA_CH3_INT")
   10551                      .dwattr $C$DW$1227, DW_AT_TI_symbol_name("_DMA_CH3_INT")
   10552                      .dwattr $C$DW$1227, DW_AT_data_member_location[DW_OP_plus_uconst 0xa4]
   10553                      .dwattr $C$DW$1227, DW_AT_accessibility(DW_ACCESS_public)
   10554              $C$DW$1228      .dwtag  DW_TAG_member
   10555                      .dwattr $C$DW$1228, DW_AT_type(*$C$DW$T$149)
   10556                      .dwattr $C$DW$1228, DW_AT_name("DMA_CH4_INT")
   10557                      .dwattr $C$DW$1228, DW_AT_TI_symbol_name("_DMA_CH4_INT")
   10558                      .dwattr $C$DW$1228, DW_AT_data_member_location[DW_OP_plus_uconst 0xa6]
   10559                      .dwattr $C$DW$1228, DW_AT_accessibility(DW_ACCESS_public)
   10560              $C$DW$1229      .dwtag  DW_TAG_member
   10561                      .dwattr $C$DW$1229, DW_AT_type(*$C$DW$T$149)
   10562                      .dwattr $C$DW$1229, DW_AT_name("DMA_CH5_INT")
   10563                      .dwattr $C$DW$1229, DW_AT_TI_symbol_name("_DMA_CH5_INT")
   10564                      .dwattr $C$DW$1229, DW_AT_data_member_location[DW_OP_plus_uconst 0xa8]
   10565                      .dwattr $C$DW$1229, DW_AT_accessibility(DW_ACCESS_public)
   10566              $C$DW$1230      .dwtag  DW_TAG_member
   10567                      .dwattr $C$DW$1230, DW_AT_type(*$C$DW$T$149)
   10568                      .dwattr $C$DW$1230, DW_AT_name("DMA_CH6_INT")
   10569                      .dwattr $C$DW$1230, DW_AT_TI_symbol_name("_DMA_CH6_INT")
   10570                      .dwattr $C$DW$1230, DW_AT_data_member_location[DW_OP_plus_uconst 0xaa]
   10571                      .dwattr $C$DW$1230, DW_AT_accessibility(DW_ACCESS_public)
   10572              $C$DW$1231      .dwtag  DW_TAG_member
   10573                      .dwattr $C$DW$1231, DW_AT_type(*$C$DW$T$149)
   10574                      .dwattr $C$DW$1231, DW_AT_name("PIE17_RESERVED")
   10575                      .dwattr $C$DW$1231, DW_AT_TI_symbol_name("_PIE17_RESERVED")
   10576                      .dwattr $C$DW$1231, DW_AT_data_member_location[DW_OP_plus_uconst 0xac]
   10577                      .dwattr $C$DW$1231, DW_AT_accessibility(DW_ACCESS_public)
   10578              $C$DW$1232      .dwtag  DW_TAG_member
   10579                      .dwattr $C$DW$1232, DW_AT_type(*$C$DW$T$149)
   10580                      .dwattr $C$DW$1232, DW_AT_name("PIE18_RESERVED")
   10581                      .dwattr $C$DW$1232, DW_AT_TI_symbol_name("_PIE18_RESERVED")
   10582                      .dwattr $C$DW$1232, DW_AT_data_member_location[DW_OP_plus_uconst 0xae]
   10583                      .dwattr $C$DW$1232, DW_AT_accessibility(DW_ACCESS_public)
   10584              $C$DW$1233      .dwtag  DW_TAG_member
   10585                      .dwattr $C$DW$1233, DW_AT_type(*$C$DW$T$149)
   10586                      .dwattr $C$DW$1233, DW_AT_name("I2CA_R1_INT")
   10587                      .dwattr $C$DW$1233, DW_AT_TI_symbol_name("_I2CA_R1_INT")
   10588                      .dwattr $C$DW$1233, DW_AT_data_member_location[DW_OP_plus_uconst 0xb0]
   10589                      .dwattr $C$DW$1233, DW_AT_accessibility(DW_ACCESS_public)
   10590              $C$DW$1234      .dwtag  DW_TAG_member
   10591                      .dwattr $C$DW$1234, DW_AT_type(*$C$DW$T$149)
   10592                      .dwattr $C$DW$1234, DW_AT_name("I2CA_R2_INT")
   10593                      .dwattr $C$DW$1234, DW_AT_TI_symbol_name("_I2CA_R2_INT")
   10594                      .dwattr $C$DW$1234, DW_AT_data_member_location[DW_OP_plus_uconst 0xb2]
   10595                      .dwattr $C$DW$1234, DW_AT_accessibility(DW_ACCESS_public)
   10596              $C$DW$1235      .dwtag  DW_TAG_member
   10597                      .dwattr $C$DW$1235, DW_AT_type(*$C$DW$T$149)
TMS320C2000 Assembler PC v6.1.3 Thu Jan 30 10:26:14 2014

Tools Copyright (c) 1996-2012 Texas Instruments Incorporated
C:\Users\a0272466\AppData\Local\Temp\0274010                         PAGE  199

   10598                      .dwattr $C$DW$1235, DW_AT_name("I2CB_R1_INT")
   10599                      .dwattr $C$DW$1235, DW_AT_TI_symbol_name("_I2CB_R1_INT")
   10600                      .dwattr $C$DW$1235, DW_AT_data_member_location[DW_OP_plus_uconst 0xb4]
   10601                      .dwattr $C$DW$1235, DW_AT_accessibility(DW_ACCESS_public)
   10602              $C$DW$1236      .dwtag  DW_TAG_member
   10603                      .dwattr $C$DW$1236, DW_AT_type(*$C$DW$T$149)
   10604                      .dwattr $C$DW$1236, DW_AT_name("I2CB_R2_INT")
   10605                      .dwattr $C$DW$1236, DW_AT_TI_symbol_name("_I2CB_R2_INT")
   10606                      .dwattr $C$DW$1236, DW_AT_data_member_location[DW_OP_plus_uconst 0xb6]
   10607                      .dwattr $C$DW$1236, DW_AT_accessibility(DW_ACCESS_public)
   10608              $C$DW$1237      .dwtag  DW_TAG_member
   10609                      .dwattr $C$DW$1237, DW_AT_type(*$C$DW$T$149)
   10610                      .dwattr $C$DW$1237, DW_AT_name("SCIC_RX_INT")
   10611                      .dwattr $C$DW$1237, DW_AT_TI_symbol_name("_SCIC_RX_INT")
   10612                      .dwattr $C$DW$1237, DW_AT_data_member_location[DW_OP_plus_uconst 0xb8]
   10613                      .dwattr $C$DW$1237, DW_AT_accessibility(DW_ACCESS_public)
   10614              $C$DW$1238      .dwtag  DW_TAG_member
   10615                      .dwattr $C$DW$1238, DW_AT_type(*$C$DW$T$149)
   10616                      .dwattr $C$DW$1238, DW_AT_name("SCIC_TX_INT")
   10617                      .dwattr $C$DW$1238, DW_AT_TI_symbol_name("_SCIC_TX_INT")
   10618                      .dwattr $C$DW$1238, DW_AT_data_member_location[DW_OP_plus_uconst 0xba]
   10619                      .dwattr $C$DW$1238, DW_AT_accessibility(DW_ACCESS_public)
   10620              $C$DW$1239      .dwtag  DW_TAG_member
   10621                      .dwattr $C$DW$1239, DW_AT_type(*$C$DW$T$149)
   10622                      .dwattr $C$DW$1239, DW_AT_name("SCID_RX_INT")
   10623                      .dwattr $C$DW$1239, DW_AT_TI_symbol_name("_SCID_RX_INT")
   10624                      .dwattr $C$DW$1239, DW_AT_data_member_location[DW_OP_plus_uconst 0xbc]
   10625                      .dwattr $C$DW$1239, DW_AT_accessibility(DW_ACCESS_public)
   10626              $C$DW$1240      .dwtag  DW_TAG_member
   10627                      .dwattr $C$DW$1240, DW_AT_type(*$C$DW$T$149)
   10628                      .dwattr $C$DW$1240, DW_AT_name("SCID_TX_INT")
   10629                      .dwattr $C$DW$1240, DW_AT_TI_symbol_name("_SCID_TX_INT")
   10630                      .dwattr $C$DW$1240, DW_AT_data_member_location[DW_OP_plus_uconst 0xbe]
   10631                      .dwattr $C$DW$1240, DW_AT_accessibility(DW_ACCESS_public)
   10632              $C$DW$1241      .dwtag  DW_TAG_member
   10633                      .dwattr $C$DW$1241, DW_AT_type(*$C$DW$T$149)
   10634                      .dwattr $C$DW$1241, DW_AT_name("SCIA_RX_INT")
   10635                      .dwattr $C$DW$1241, DW_AT_TI_symbol_name("_SCIA_RX_INT")
   10636                      .dwattr $C$DW$1241, DW_AT_data_member_location[DW_OP_plus_uconst 0xc0]
   10637                      .dwattr $C$DW$1241, DW_AT_accessibility(DW_ACCESS_public)
   10638              $C$DW$1242      .dwtag  DW_TAG_member
   10639                      .dwattr $C$DW$1242, DW_AT_type(*$C$DW$T$149)
   10640                      .dwattr $C$DW$1242, DW_AT_name("SCIA_TX_INT")
   10641                      .dwattr $C$DW$1242, DW_AT_TI_symbol_name("_SCIA_TX_INT")
   10642                      .dwattr $C$DW$1242, DW_AT_data_member_location[DW_OP_plus_uconst 0xc2]
   10643                      .dwattr $C$DW$1242, DW_AT_accessibility(DW_ACCESS_public)
   10644              $C$DW$1243      .dwtag  DW_TAG_member
   10645                      .dwattr $C$DW$1243, DW_AT_type(*$C$DW$T$149)
   10646                      .dwattr $C$DW$1243, DW_AT_name("SCIB_RX_INT")
   10647                      .dwattr $C$DW$1243, DW_AT_TI_symbol_name("_SCIB_RX_INT")
   10648                      .dwattr $C$DW$1243, DW_AT_data_member_location[DW_OP_plus_uconst 0xc4]
   10649                      .dwattr $C$DW$1243, DW_AT_accessibility(DW_ACCESS_public)
   10650              $C$DW$1244      .dwtag  DW_TAG_member
   10651                      .dwattr $C$DW$1244, DW_AT_type(*$C$DW$T$149)
   10652                      .dwattr $C$DW$1244, DW_AT_name("SCIB_TX_INT")
TMS320C2000 Assembler PC v6.1.3 Thu Jan 30 10:26:14 2014

Tools Copyright (c) 1996-2012 Texas Instruments Incorporated
C:\Users\a0272466\AppData\Local\Temp\0274010                         PAGE  200

   10653                      .dwattr $C$DW$1244, DW_AT_TI_symbol_name("_SCIB_TX_INT")
   10654                      .dwattr $C$DW$1244, DW_AT_data_member_location[DW_OP_plus_uconst 0xc6]
   10655                      .dwattr $C$DW$1244, DW_AT_accessibility(DW_ACCESS_public)
   10656              $C$DW$1245      .dwtag  DW_TAG_member
   10657                      .dwattr $C$DW$1245, DW_AT_type(*$C$DW$T$149)
   10658                      .dwattr $C$DW$1245, DW_AT_name("DCANA_1_INT")
   10659                      .dwattr $C$DW$1245, DW_AT_TI_symbol_name("_DCANA_1_INT")
   10660                      .dwattr $C$DW$1245, DW_AT_data_member_location[DW_OP_plus_uconst 0xc8]
   10661                      .dwattr $C$DW$1245, DW_AT_accessibility(DW_ACCESS_public)
   10662              $C$DW$1246      .dwtag  DW_TAG_member
   10663                      .dwattr $C$DW$1246, DW_AT_type(*$C$DW$T$149)
   10664                      .dwattr $C$DW$1246, DW_AT_name("DCANA_2_INT")
   10665                      .dwattr $C$DW$1246, DW_AT_TI_symbol_name("_DCANA_2_INT")
   10666                      .dwattr $C$DW$1246, DW_AT_data_member_location[DW_OP_plus_uconst 0xca]
   10667                      .dwattr $C$DW$1246, DW_AT_accessibility(DW_ACCESS_public)
   10668              $C$DW$1247      .dwtag  DW_TAG_member
   10669                      .dwattr $C$DW$1247, DW_AT_type(*$C$DW$T$149)
   10670                      .dwattr $C$DW$1247, DW_AT_name("DCANB_1_INT")
   10671                      .dwattr $C$DW$1247, DW_AT_TI_symbol_name("_DCANB_1_INT")
   10672                      .dwattr $C$DW$1247, DW_AT_data_member_location[DW_OP_plus_uconst 0xcc]
   10673                      .dwattr $C$DW$1247, DW_AT_accessibility(DW_ACCESS_public)
   10674              $C$DW$1248      .dwtag  DW_TAG_member
   10675                      .dwattr $C$DW$1248, DW_AT_type(*$C$DW$T$149)
   10676                      .dwattr $C$DW$1248, DW_AT_name("DCANB_2_INT")
   10677                      .dwattr $C$DW$1248, DW_AT_TI_symbol_name("_DCANB_2_INT")
   10678                      .dwattr $C$DW$1248, DW_AT_data_member_location[DW_OP_plus_uconst 0xce]
   10679                      .dwattr $C$DW$1248, DW_AT_accessibility(DW_ACCESS_public)
   10680              $C$DW$1249      .dwtag  DW_TAG_member
   10681                      .dwattr $C$DW$1249, DW_AT_type(*$C$DW$T$149)
   10682                      .dwattr $C$DW$1249, DW_AT_name("ADC1_EVT_INT")
   10683                      .dwattr $C$DW$1249, DW_AT_TI_symbol_name("_ADC1_EVT_INT")
   10684                      .dwattr $C$DW$1249, DW_AT_data_member_location[DW_OP_plus_uconst 0xd0]
   10685                      .dwattr $C$DW$1249, DW_AT_accessibility(DW_ACCESS_public)
   10686              $C$DW$1250      .dwtag  DW_TAG_member
   10687                      .dwattr $C$DW$1250, DW_AT_type(*$C$DW$T$149)
   10688                      .dwattr $C$DW$1250, DW_AT_name("ADC1_CH2_INT")
   10689                      .dwattr $C$DW$1250, DW_AT_TI_symbol_name("_ADC1_CH2_INT")
   10690                      .dwattr $C$DW$1250, DW_AT_data_member_location[DW_OP_plus_uconst 0xd2]
   10691                      .dwattr $C$DW$1250, DW_AT_accessibility(DW_ACCESS_public)
   10692              $C$DW$1251      .dwtag  DW_TAG_member
   10693                      .dwattr $C$DW$1251, DW_AT_type(*$C$DW$T$149)
   10694                      .dwattr $C$DW$1251, DW_AT_name("ADC1_CH3_INT")
   10695                      .dwattr $C$DW$1251, DW_AT_TI_symbol_name("_ADC1_CH3_INT")
   10696                      .dwattr $C$DW$1251, DW_AT_data_member_location[DW_OP_plus_uconst 0xd4]
   10697                      .dwattr $C$DW$1251, DW_AT_accessibility(DW_ACCESS_public)
   10698              $C$DW$1252      .dwtag  DW_TAG_member
   10699                      .dwattr $C$DW$1252, DW_AT_type(*$C$DW$T$149)
   10700                      .dwattr $C$DW$1252, DW_AT_name("ADC1_CH4_INT")
   10701                      .dwattr $C$DW$1252, DW_AT_TI_symbol_name("_ADC1_CH4_INT")
   10702                      .dwattr $C$DW$1252, DW_AT_data_member_location[DW_OP_plus_uconst 0xd6]
   10703                      .dwattr $C$DW$1252, DW_AT_accessibility(DW_ACCESS_public)
   10704              $C$DW$1253      .dwtag  DW_TAG_member
   10705                      .dwattr $C$DW$1253, DW_AT_type(*$C$DW$T$149)
   10706                      .dwattr $C$DW$1253, DW_AT_name("ADC2_EVT_INT")
   10707                      .dwattr $C$DW$1253, DW_AT_TI_symbol_name("_ADC2_EVT_INT")
TMS320C2000 Assembler PC v6.1.3 Thu Jan 30 10:26:14 2014

Tools Copyright (c) 1996-2012 Texas Instruments Incorporated
C:\Users\a0272466\AppData\Local\Temp\0274010                         PAGE  201

   10708                      .dwattr $C$DW$1253, DW_AT_data_member_location[DW_OP_plus_uconst 0xd8]
   10709                      .dwattr $C$DW$1253, DW_AT_accessibility(DW_ACCESS_public)
   10710              $C$DW$1254      .dwtag  DW_TAG_member
   10711                      .dwattr $C$DW$1254, DW_AT_type(*$C$DW$T$149)
   10712                      .dwattr $C$DW$1254, DW_AT_name("ADC2_CH2_INT")
   10713                      .dwattr $C$DW$1254, DW_AT_TI_symbol_name("_ADC2_CH2_INT")
   10714                      .dwattr $C$DW$1254, DW_AT_data_member_location[DW_OP_plus_uconst 0xda]
   10715                      .dwattr $C$DW$1254, DW_AT_accessibility(DW_ACCESS_public)
   10716              $C$DW$1255      .dwtag  DW_TAG_member
   10717                      .dwattr $C$DW$1255, DW_AT_type(*$C$DW$T$149)
   10718                      .dwattr $C$DW$1255, DW_AT_name("ADC2_CH3_INT")
   10719                      .dwattr $C$DW$1255, DW_AT_TI_symbol_name("_ADC2_CH3_INT")
   10720                      .dwattr $C$DW$1255, DW_AT_data_member_location[DW_OP_plus_uconst 0xdc]
   10721                      .dwattr $C$DW$1255, DW_AT_accessibility(DW_ACCESS_public)
   10722              $C$DW$1256      .dwtag  DW_TAG_member
   10723                      .dwattr $C$DW$1256, DW_AT_type(*$C$DW$T$149)
   10724                      .dwattr $C$DW$1256, DW_AT_name("ADC2_CH4_INT")
   10725                      .dwattr $C$DW$1256, DW_AT_TI_symbol_name("_ADC2_CH4_INT")
   10726                      .dwattr $C$DW$1256, DW_AT_data_member_location[DW_OP_plus_uconst 0xde]
   10727                      .dwattr $C$DW$1256, DW_AT_accessibility(DW_ACCESS_public)
   10728              $C$DW$1257      .dwtag  DW_TAG_member
   10729                      .dwattr $C$DW$1257, DW_AT_type(*$C$DW$T$149)
   10730                      .dwattr $C$DW$1257, DW_AT_name("CLA1_1_INT")
   10731                      .dwattr $C$DW$1257, DW_AT_TI_symbol_name("_CLA1_1_INT")
   10732                      .dwattr $C$DW$1257, DW_AT_data_member_location[DW_OP_plus_uconst 0xe0]
   10733                      .dwattr $C$DW$1257, DW_AT_accessibility(DW_ACCESS_public)
   10734              $C$DW$1258      .dwtag  DW_TAG_member
   10735                      .dwattr $C$DW$1258, DW_AT_type(*$C$DW$T$149)
   10736                      .dwattr $C$DW$1258, DW_AT_name("CLA1_2_INT")
   10737                      .dwattr $C$DW$1258, DW_AT_TI_symbol_name("_CLA1_2_INT")
   10738                      .dwattr $C$DW$1258, DW_AT_data_member_location[DW_OP_plus_uconst 0xe2]
   10739                      .dwattr $C$DW$1258, DW_AT_accessibility(DW_ACCESS_public)
   10740              $C$DW$1259      .dwtag  DW_TAG_member
   10741                      .dwattr $C$DW$1259, DW_AT_type(*$C$DW$T$149)
   10742                      .dwattr $C$DW$1259, DW_AT_name("CLA1_3_INT")
   10743                      .dwattr $C$DW$1259, DW_AT_TI_symbol_name("_CLA1_3_INT")
   10744                      .dwattr $C$DW$1259, DW_AT_data_member_location[DW_OP_plus_uconst 0xe4]
   10745                      .dwattr $C$DW$1259, DW_AT_accessibility(DW_ACCESS_public)
   10746              $C$DW$1260      .dwtag  DW_TAG_member
   10747                      .dwattr $C$DW$1260, DW_AT_type(*$C$DW$T$149)
   10748                      .dwattr $C$DW$1260, DW_AT_name("CLA1_4_INT")
   10749                      .dwattr $C$DW$1260, DW_AT_TI_symbol_name("_CLA1_4_INT")
   10750                      .dwattr $C$DW$1260, DW_AT_data_member_location[DW_OP_plus_uconst 0xe6]
   10751                      .dwattr $C$DW$1260, DW_AT_accessibility(DW_ACCESS_public)
   10752              $C$DW$1261      .dwtag  DW_TAG_member
   10753                      .dwattr $C$DW$1261, DW_AT_type(*$C$DW$T$149)
   10754                      .dwattr $C$DW$1261, DW_AT_name("CLA1_5_INT")
   10755                      .dwattr $C$DW$1261, DW_AT_TI_symbol_name("_CLA1_5_INT")
   10756                      .dwattr $C$DW$1261, DW_AT_data_member_location[DW_OP_plus_uconst 0xe8]
   10757                      .dwattr $C$DW$1261, DW_AT_accessibility(DW_ACCESS_public)
   10758              $C$DW$1262      .dwtag  DW_TAG_member
   10759                      .dwattr $C$DW$1262, DW_AT_type(*$C$DW$T$149)
   10760                      .dwattr $C$DW$1262, DW_AT_name("CLA1_6_INT")
   10761                      .dwattr $C$DW$1262, DW_AT_TI_symbol_name("_CLA1_6_INT")
   10762                      .dwattr $C$DW$1262, DW_AT_data_member_location[DW_OP_plus_uconst 0xea]
TMS320C2000 Assembler PC v6.1.3 Thu Jan 30 10:26:14 2014

Tools Copyright (c) 1996-2012 Texas Instruments Incorporated
C:\Users\a0272466\AppData\Local\Temp\0274010                         PAGE  202

   10763                      .dwattr $C$DW$1262, DW_AT_accessibility(DW_ACCESS_public)
   10764              $C$DW$1263      .dwtag  DW_TAG_member
   10765                      .dwattr $C$DW$1263, DW_AT_type(*$C$DW$T$149)
   10766                      .dwattr $C$DW$1263, DW_AT_name("CLA1_7_INT")
   10767                      .dwattr $C$DW$1263, DW_AT_TI_symbol_name("_CLA1_7_INT")
   10768                      .dwattr $C$DW$1263, DW_AT_data_member_location[DW_OP_plus_uconst 0xec]
   10769                      .dwattr $C$DW$1263, DW_AT_accessibility(DW_ACCESS_public)
   10770              $C$DW$1264      .dwtag  DW_TAG_member
   10771                      .dwattr $C$DW$1264, DW_AT_type(*$C$DW$T$149)
   10772                      .dwattr $C$DW$1264, DW_AT_name("CLA1_8_INT")
   10773                      .dwattr $C$DW$1264, DW_AT_TI_symbol_name("_CLA1_8_INT")
   10774                      .dwattr $C$DW$1264, DW_AT_data_member_location[DW_OP_plus_uconst 0xee]
   10775                      .dwattr $C$DW$1264, DW_AT_accessibility(DW_ACCESS_public)
   10776              $C$DW$1265      .dwtag  DW_TAG_member
   10777                      .dwattr $C$DW$1265, DW_AT_type(*$C$DW$T$149)
   10778                      .dwattr $C$DW$1265, DW_AT_name("XINT3_INT")
   10779                      .dwattr $C$DW$1265, DW_AT_TI_symbol_name("_XINT3_INT")
   10780                      .dwattr $C$DW$1265, DW_AT_data_member_location[DW_OP_plus_uconst 0xf0]
   10781                      .dwattr $C$DW$1265, DW_AT_accessibility(DW_ACCESS_public)
   10782              $C$DW$1266      .dwtag  DW_TAG_member
   10783                      .dwattr $C$DW$1266, DW_AT_type(*$C$DW$T$149)
   10784                      .dwattr $C$DW$1266, DW_AT_name("XINT4_INT")
   10785                      .dwattr $C$DW$1266, DW_AT_TI_symbol_name("_XINT4_INT")
   10786                      .dwattr $C$DW$1266, DW_AT_data_member_location[DW_OP_plus_uconst 0xf2]
   10787                      .dwattr $C$DW$1266, DW_AT_accessibility(DW_ACCESS_public)
   10788              $C$DW$1267      .dwtag  DW_TAG_member
   10789                      .dwattr $C$DW$1267, DW_AT_type(*$C$DW$T$149)
   10790                      .dwattr $C$DW$1267, DW_AT_name("XINT5_INT")
   10791                      .dwattr $C$DW$1267, DW_AT_TI_symbol_name("_XINT5_INT")
   10792                      .dwattr $C$DW$1267, DW_AT_data_member_location[DW_OP_plus_uconst 0xf4]
   10793                      .dwattr $C$DW$1267, DW_AT_accessibility(DW_ACCESS_public)
   10794              $C$DW$1268      .dwtag  DW_TAG_member
   10795                      .dwattr $C$DW$1268, DW_AT_type(*$C$DW$T$149)
   10796                      .dwattr $C$DW$1268, DW_AT_name("PBIST_INT")
   10797                      .dwattr $C$DW$1268, DW_AT_TI_symbol_name("_PBIST_INT")
   10798                      .dwattr $C$DW$1268, DW_AT_data_member_location[DW_OP_plus_uconst 0xf6]
   10799                      .dwattr $C$DW$1268, DW_AT_accessibility(DW_ACCESS_public)
   10800              $C$DW$1269      .dwtag  DW_TAG_member
   10801                      .dwattr $C$DW$1269, DW_AT_type(*$C$DW$T$149)
   10802                      .dwattr $C$DW$1269, DW_AT_name("FMC_INT")
   10803                      .dwattr $C$DW$1269, DW_AT_TI_symbol_name("_FMC_INT")
   10804                      .dwattr $C$DW$1269, DW_AT_data_member_location[DW_OP_plus_uconst 0xf8]
   10805                      .dwattr $C$DW$1269, DW_AT_accessibility(DW_ACCESS_public)
   10806              $C$DW$1270      .dwtag  DW_TAG_member
   10807                      .dwattr $C$DW$1270, DW_AT_type(*$C$DW$T$149)
   10808                      .dwattr $C$DW$1270, DW_AT_name("VCU_INT")
   10809                      .dwattr $C$DW$1270, DW_AT_TI_symbol_name("_VCU_INT")
   10810                      .dwattr $C$DW$1270, DW_AT_data_member_location[DW_OP_plus_uconst 0xfa]
   10811                      .dwattr $C$DW$1270, DW_AT_accessibility(DW_ACCESS_public)
   10812              $C$DW$1271      .dwtag  DW_TAG_member
   10813                      .dwattr $C$DW$1271, DW_AT_type(*$C$DW$T$149)
   10814                      .dwattr $C$DW$1271, DW_AT_name("FPU_OFLOW_INT")
   10815                      .dwattr $C$DW$1271, DW_AT_TI_symbol_name("_FPU_OFLOW_INT")
   10816                      .dwattr $C$DW$1271, DW_AT_data_member_location[DW_OP_plus_uconst 0xfc]
   10817                      .dwattr $C$DW$1271, DW_AT_accessibility(DW_ACCESS_public)
TMS320C2000 Assembler PC v6.1.3 Thu Jan 30 10:26:14 2014

Tools Copyright (c) 1996-2012 Texas Instruments Incorporated
C:\Users\a0272466\AppData\Local\Temp\0274010                         PAGE  203

   10818              $C$DW$1272      .dwtag  DW_TAG_member
   10819                      .dwattr $C$DW$1272, DW_AT_type(*$C$DW$T$149)
   10820                      .dwattr $C$DW$1272, DW_AT_name("FPU_UFLOW_INT")
   10821                      .dwattr $C$DW$1272, DW_AT_TI_symbol_name("_FPU_UFLOW_INT")
   10822                      .dwattr $C$DW$1272, DW_AT_data_member_location[DW_OP_plus_uconst 0xfe]
   10823                      .dwattr $C$DW$1272, DW_AT_accessibility(DW_ACCESS_public)
   10824              $C$DW$1273      .dwtag  DW_TAG_member
   10825                      .dwattr $C$DW$1273, DW_AT_type(*$C$DW$T$149)
   10826                      .dwattr $C$DW$1273, DW_AT_name("PIE20_RESERVED")
   10827                      .dwattr $C$DW$1273, DW_AT_TI_symbol_name("_PIE20_RESERVED")
   10828                      .dwattr $C$DW$1273, DW_AT_data_member_location[DW_OP_plus_uconst 0x100]
   10829                      .dwattr $C$DW$1273, DW_AT_accessibility(DW_ACCESS_public)
   10830              $C$DW$1274      .dwtag  DW_TAG_member
   10831                      .dwattr $C$DW$1274, DW_AT_type(*$C$DW$T$149)
   10832                      .dwattr $C$DW$1274, DW_AT_name("PIE21_RESERVED")
   10833                      .dwattr $C$DW$1274, DW_AT_TI_symbol_name("_PIE21_RESERVED")
   10834                      .dwattr $C$DW$1274, DW_AT_data_member_location[DW_OP_plus_uconst 0x102]
   10835                      .dwattr $C$DW$1274, DW_AT_accessibility(DW_ACCESS_public)
   10836              $C$DW$1275      .dwtag  DW_TAG_member
   10837                      .dwattr $C$DW$1275, DW_AT_type(*$C$DW$T$149)
   10838                      .dwattr $C$DW$1275, DW_AT_name("PIE22_RESERVED")
   10839                      .dwattr $C$DW$1275, DW_AT_TI_symbol_name("_PIE22_RESERVED")
   10840                      .dwattr $C$DW$1275, DW_AT_data_member_location[DW_OP_plus_uconst 0x104]
   10841                      .dwattr $C$DW$1275, DW_AT_accessibility(DW_ACCESS_public)
   10842              $C$DW$1276      .dwtag  DW_TAG_member
   10843                      .dwattr $C$DW$1276, DW_AT_type(*$C$DW$T$149)
   10844                      .dwattr $C$DW$1276, DW_AT_name("PIE23_RESERVED")
   10845                      .dwattr $C$DW$1276, DW_AT_TI_symbol_name("_PIE23_RESERVED")
   10846                      .dwattr $C$DW$1276, DW_AT_data_member_location[DW_OP_plus_uconst 0x106]
   10847                      .dwattr $C$DW$1276, DW_AT_accessibility(DW_ACCESS_public)
   10848              $C$DW$1277      .dwtag  DW_TAG_member
   10849                      .dwattr $C$DW$1277, DW_AT_type(*$C$DW$T$149)
   10850                      .dwattr $C$DW$1277, DW_AT_name("CIPC1_INT")
   10851                      .dwattr $C$DW$1277, DW_AT_TI_symbol_name("_CIPC1_INT")
   10852                      .dwattr $C$DW$1277, DW_AT_data_member_location[DW_OP_plus_uconst 0x108]
   10853                      .dwattr $C$DW$1277, DW_AT_accessibility(DW_ACCESS_public)
   10854              $C$DW$1278      .dwtag  DW_TAG_member
   10855                      .dwattr $C$DW$1278, DW_AT_type(*$C$DW$T$149)
   10856                      .dwattr $C$DW$1278, DW_AT_name("CIPC2_INT")
   10857                      .dwattr $C$DW$1278, DW_AT_TI_symbol_name("_CIPC2_INT")
   10858                      .dwattr $C$DW$1278, DW_AT_data_member_location[DW_OP_plus_uconst 0x10a]
   10859                      .dwattr $C$DW$1278, DW_AT_accessibility(DW_ACCESS_public)
   10860              $C$DW$1279      .dwtag  DW_TAG_member
   10861                      .dwattr $C$DW$1279, DW_AT_type(*$C$DW$T$149)
   10862                      .dwattr $C$DW$1279, DW_AT_name("CIPC3_INT")
   10863                      .dwattr $C$DW$1279, DW_AT_TI_symbol_name("_CIPC3_INT")
   10864                      .dwattr $C$DW$1279, DW_AT_data_member_location[DW_OP_plus_uconst 0x10c]
   10865                      .dwattr $C$DW$1279, DW_AT_accessibility(DW_ACCESS_public)
   10866              $C$DW$1280      .dwtag  DW_TAG_member
   10867                      .dwattr $C$DW$1280, DW_AT_type(*$C$DW$T$149)
   10868                      .dwattr $C$DW$1280, DW_AT_name("CIPC4_INT")
   10869                      .dwattr $C$DW$1280, DW_AT_TI_symbol_name("_CIPC4_INT")
   10870                      .dwattr $C$DW$1280, DW_AT_data_member_location[DW_OP_plus_uconst 0x10e]
   10871                      .dwattr $C$DW$1280, DW_AT_accessibility(DW_ACCESS_public)
   10872              $C$DW$1281      .dwtag  DW_TAG_member
TMS320C2000 Assembler PC v6.1.3 Thu Jan 30 10:26:14 2014

Tools Copyright (c) 1996-2012 Texas Instruments Incorporated
C:\Users\a0272466\AppData\Local\Temp\0274010                         PAGE  204

   10873                      .dwattr $C$DW$1281, DW_AT_type(*$C$DW$T$149)
   10874                      .dwattr $C$DW$1281, DW_AT_name("EPWM9_TZ_INT")
   10875                      .dwattr $C$DW$1281, DW_AT_TI_symbol_name("_EPWM9_TZ_INT")
   10876                      .dwattr $C$DW$1281, DW_AT_data_member_location[DW_OP_plus_uconst 0x110]
   10877                      .dwattr $C$DW$1281, DW_AT_accessibility(DW_ACCESS_public)
   10878              $C$DW$1282      .dwtag  DW_TAG_member
   10879                      .dwattr $C$DW$1282, DW_AT_type(*$C$DW$T$149)
   10880                      .dwattr $C$DW$1282, DW_AT_name("EPWM10_TZ_INT")
   10881                      .dwattr $C$DW$1282, DW_AT_TI_symbol_name("_EPWM10_TZ_INT")
   10882                      .dwattr $C$DW$1282, DW_AT_data_member_location[DW_OP_plus_uconst 0x112]
   10883                      .dwattr $C$DW$1282, DW_AT_accessibility(DW_ACCESS_public)
   10884              $C$DW$1283      .dwtag  DW_TAG_member
   10885                      .dwattr $C$DW$1283, DW_AT_type(*$C$DW$T$149)
   10886                      .dwattr $C$DW$1283, DW_AT_name("EPWM11_TZ_INT")
   10887                      .dwattr $C$DW$1283, DW_AT_TI_symbol_name("_EPWM11_TZ_INT")
   10888                      .dwattr $C$DW$1283, DW_AT_data_member_location[DW_OP_plus_uconst 0x114]
   10889                      .dwattr $C$DW$1283, DW_AT_accessibility(DW_ACCESS_public)
   10890              $C$DW$1284      .dwtag  DW_TAG_member
   10891                      .dwattr $C$DW$1284, DW_AT_type(*$C$DW$T$149)
   10892                      .dwattr $C$DW$1284, DW_AT_name("EPWM12_TZ_INT")
   10893                      .dwattr $C$DW$1284, DW_AT_TI_symbol_name("_EPWM12_TZ_INT")
   10894                      .dwattr $C$DW$1284, DW_AT_data_member_location[DW_OP_plus_uconst 0x116]
   10895                      .dwattr $C$DW$1284, DW_AT_accessibility(DW_ACCESS_public)
   10896              $C$DW$1285      .dwtag  DW_TAG_member
   10897                      .dwattr $C$DW$1285, DW_AT_type(*$C$DW$T$149)
   10898                      .dwattr $C$DW$1285, DW_AT_name("PIE24_RESERVED")
   10899                      .dwattr $C$DW$1285, DW_AT_TI_symbol_name("_PIE24_RESERVED")
   10900                      .dwattr $C$DW$1285, DW_AT_data_member_location[DW_OP_plus_uconst 0x118]
   10901                      .dwattr $C$DW$1285, DW_AT_accessibility(DW_ACCESS_public)
   10902              $C$DW$1286      .dwtag  DW_TAG_member
   10903                      .dwattr $C$DW$1286, DW_AT_type(*$C$DW$T$149)
   10904                      .dwattr $C$DW$1286, DW_AT_name("PIE25_RESERVED")
   10905                      .dwattr $C$DW$1286, DW_AT_TI_symbol_name("_PIE25_RESERVED")
   10906                      .dwattr $C$DW$1286, DW_AT_data_member_location[DW_OP_plus_uconst 0x11a]
   10907                      .dwattr $C$DW$1286, DW_AT_accessibility(DW_ACCESS_public)
   10908              $C$DW$1287      .dwtag  DW_TAG_member
   10909                      .dwattr $C$DW$1287, DW_AT_type(*$C$DW$T$149)
   10910                      .dwattr $C$DW$1287, DW_AT_name("PIE26_RESERVED")
   10911                      .dwattr $C$DW$1287, DW_AT_TI_symbol_name("_PIE26_RESERVED")
   10912                      .dwattr $C$DW$1287, DW_AT_data_member_location[DW_OP_plus_uconst 0x11c]
   10913                      .dwattr $C$DW$1287, DW_AT_accessibility(DW_ACCESS_public)
   10914              $C$DW$1288      .dwtag  DW_TAG_member
   10915                      .dwattr $C$DW$1288, DW_AT_type(*$C$DW$T$149)
   10916                      .dwattr $C$DW$1288, DW_AT_name("PIE27_RESERVED")
   10917                      .dwattr $C$DW$1288, DW_AT_TI_symbol_name("_PIE27_RESERVED")
   10918                      .dwattr $C$DW$1288, DW_AT_data_member_location[DW_OP_plus_uconst 0x11e]
   10919                      .dwattr $C$DW$1288, DW_AT_accessibility(DW_ACCESS_public)
   10920              $C$DW$1289      .dwtag  DW_TAG_member
   10921                      .dwattr $C$DW$1289, DW_AT_type(*$C$DW$T$149)
   10922                      .dwattr $C$DW$1289, DW_AT_name("EPWM9_INT")
   10923                      .dwattr $C$DW$1289, DW_AT_TI_symbol_name("_EPWM9_INT")
   10924                      .dwattr $C$DW$1289, DW_AT_data_member_location[DW_OP_plus_uconst 0x120]
   10925                      .dwattr $C$DW$1289, DW_AT_accessibility(DW_ACCESS_public)
   10926              $C$DW$1290      .dwtag  DW_TAG_member
   10927                      .dwattr $C$DW$1290, DW_AT_type(*$C$DW$T$149)
TMS320C2000 Assembler PC v6.1.3 Thu Jan 30 10:26:14 2014

Tools Copyright (c) 1996-2012 Texas Instruments Incorporated
C:\Users\a0272466\AppData\Local\Temp\0274010                         PAGE  205

   10928                      .dwattr $C$DW$1290, DW_AT_name("EPWM10_INT")
   10929                      .dwattr $C$DW$1290, DW_AT_TI_symbol_name("_EPWM10_INT")
   10930                      .dwattr $C$DW$1290, DW_AT_data_member_location[DW_OP_plus_uconst 0x122]
   10931                      .dwattr $C$DW$1290, DW_AT_accessibility(DW_ACCESS_public)
   10932              $C$DW$1291      .dwtag  DW_TAG_member
   10933                      .dwattr $C$DW$1291, DW_AT_type(*$C$DW$T$149)
   10934                      .dwattr $C$DW$1291, DW_AT_name("EPWM11_INT")
   10935                      .dwattr $C$DW$1291, DW_AT_TI_symbol_name("_EPWM11_INT")
   10936                      .dwattr $C$DW$1291, DW_AT_data_member_location[DW_OP_plus_uconst 0x124]
   10937                      .dwattr $C$DW$1291, DW_AT_accessibility(DW_ACCESS_public)
   10938              $C$DW$1292      .dwtag  DW_TAG_member
   10939                      .dwattr $C$DW$1292, DW_AT_type(*$C$DW$T$149)
   10940                      .dwattr $C$DW$1292, DW_AT_name("EPWM12_INT")
   10941                      .dwattr $C$DW$1292, DW_AT_TI_symbol_name("_EPWM12_INT")
   10942                      .dwattr $C$DW$1292, DW_AT_data_member_location[DW_OP_plus_uconst 0x126]
   10943                      .dwattr $C$DW$1292, DW_AT_accessibility(DW_ACCESS_public)
   10944              $C$DW$1293      .dwtag  DW_TAG_member
   10945                      .dwattr $C$DW$1293, DW_AT_type(*$C$DW$T$149)
   10946                      .dwattr $C$DW$1293, DW_AT_name("PIE28_RESERVED")
   10947                      .dwattr $C$DW$1293, DW_AT_TI_symbol_name("_PIE28_RESERVED")
   10948                      .dwattr $C$DW$1293, DW_AT_data_member_location[DW_OP_plus_uconst 0x128]
   10949                      .dwattr $C$DW$1293, DW_AT_accessibility(DW_ACCESS_public)
   10950              $C$DW$1294      .dwtag  DW_TAG_member
   10951                      .dwattr $C$DW$1294, DW_AT_type(*$C$DW$T$149)
   10952                      .dwattr $C$DW$1294, DW_AT_name("PIE29_RESERVED")
   10953                      .dwattr $C$DW$1294, DW_AT_TI_symbol_name("_PIE29_RESERVED")
   10954                      .dwattr $C$DW$1294, DW_AT_data_member_location[DW_OP_plus_uconst 0x12a]
   10955                      .dwattr $C$DW$1294, DW_AT_accessibility(DW_ACCESS_public)
   10956              $C$DW$1295      .dwtag  DW_TAG_member
   10957                      .dwattr $C$DW$1295, DW_AT_type(*$C$DW$T$149)
   10958                      .dwattr $C$DW$1295, DW_AT_name("PIE30_RESERVED")
   10959                      .dwattr $C$DW$1295, DW_AT_TI_symbol_name("_PIE30_RESERVED")
   10960                      .dwattr $C$DW$1295, DW_AT_data_member_location[DW_OP_plus_uconst 0x12c]
   10961                      .dwattr $C$DW$1295, DW_AT_accessibility(DW_ACCESS_public)
   10962              $C$DW$1296      .dwtag  DW_TAG_member
   10963                      .dwattr $C$DW$1296, DW_AT_type(*$C$DW$T$149)
   10964                      .dwattr $C$DW$1296, DW_AT_name("PIE31_RESERVED")
   10965                      .dwattr $C$DW$1296, DW_AT_TI_symbol_name("_PIE31_RESERVED")
   10966                      .dwattr $C$DW$1296, DW_AT_data_member_location[DW_OP_plus_uconst 0x12e]
   10967                      .dwattr $C$DW$1296, DW_AT_accessibility(DW_ACCESS_public)
   10968              $C$DW$1297      .dwtag  DW_TAG_member
   10969                      .dwattr $C$DW$1297, DW_AT_type(*$C$DW$T$149)
   10970                      .dwattr $C$DW$1297, DW_AT_name("PIE32_RESERVED")
   10971                      .dwattr $C$DW$1297, DW_AT_TI_symbol_name("_PIE32_RESERVED")
   10972                      .dwattr $C$DW$1297, DW_AT_data_member_location[DW_OP_plus_uconst 0x130]
   10973                      .dwattr $C$DW$1297, DW_AT_accessibility(DW_ACCESS_public)
   10974              $C$DW$1298      .dwtag  DW_TAG_member
   10975                      .dwattr $C$DW$1298, DW_AT_type(*$C$DW$T$149)
   10976                      .dwattr $C$DW$1298, DW_AT_name("PIE33_RESERVED")
   10977                      .dwattr $C$DW$1298, DW_AT_TI_symbol_name("_PIE33_RESERVED")
   10978                      .dwattr $C$DW$1298, DW_AT_data_member_location[DW_OP_plus_uconst 0x132]
   10979                      .dwattr $C$DW$1298, DW_AT_accessibility(DW_ACCESS_public)
   10980              $C$DW$1299      .dwtag  DW_TAG_member
   10981                      .dwattr $C$DW$1299, DW_AT_type(*$C$DW$T$149)
   10982                      .dwattr $C$DW$1299, DW_AT_name("PIE34_RESERVED")
TMS320C2000 Assembler PC v6.1.3 Thu Jan 30 10:26:14 2014

Tools Copyright (c) 1996-2012 Texas Instruments Incorporated
C:\Users\a0272466\AppData\Local\Temp\0274010                         PAGE  206

   10983                      .dwattr $C$DW$1299, DW_AT_TI_symbol_name("_PIE34_RESERVED")
   10984                      .dwattr $C$DW$1299, DW_AT_data_member_location[DW_OP_plus_uconst 0x134]
   10985                      .dwattr $C$DW$1299, DW_AT_accessibility(DW_ACCESS_public)
   10986              $C$DW$1300      .dwtag  DW_TAG_member
   10987                      .dwattr $C$DW$1300, DW_AT_type(*$C$DW$T$149)
   10988                      .dwattr $C$DW$1300, DW_AT_name("PIE35_RESERVED")
   10989                      .dwattr $C$DW$1300, DW_AT_TI_symbol_name("_PIE35_RESERVED")
   10990                      .dwattr $C$DW$1300, DW_AT_data_member_location[DW_OP_plus_uconst 0x136]
   10991                      .dwattr $C$DW$1300, DW_AT_accessibility(DW_ACCESS_public)
   10992              $C$DW$1301      .dwtag  DW_TAG_member
   10993                      .dwattr $C$DW$1301, DW_AT_type(*$C$DW$T$149)
   10994                      .dwattr $C$DW$1301, DW_AT_name("PIE36_RESERVED")
   10995                      .dwattr $C$DW$1301, DW_AT_TI_symbol_name("_PIE36_RESERVED")
   10996                      .dwattr $C$DW$1301, DW_AT_data_member_location[DW_OP_plus_uconst 0x138]
   10997                      .dwattr $C$DW$1301, DW_AT_accessibility(DW_ACCESS_public)
   10998              $C$DW$1302      .dwtag  DW_TAG_member
   10999                      .dwattr $C$DW$1302, DW_AT_type(*$C$DW$T$149)
   11000                      .dwattr $C$DW$1302, DW_AT_name("PIE37_RESERVED")
   11001                      .dwattr $C$DW$1302, DW_AT_TI_symbol_name("_PIE37_RESERVED")
   11002                      .dwattr $C$DW$1302, DW_AT_data_member_location[DW_OP_plus_uconst 0x13a]
   11003                      .dwattr $C$DW$1302, DW_AT_accessibility(DW_ACCESS_public)
   11004              $C$DW$1303      .dwtag  DW_TAG_member
   11005                      .dwattr $C$DW$1303, DW_AT_type(*$C$DW$T$149)
   11006                      .dwattr $C$DW$1303, DW_AT_name("PIE38_RESERVED")
   11007                      .dwattr $C$DW$1303, DW_AT_TI_symbol_name("_PIE38_RESERVED")
   11008                      .dwattr $C$DW$1303, DW_AT_data_member_location[DW_OP_plus_uconst 0x13c]
   11009                      .dwattr $C$DW$1303, DW_AT_accessibility(DW_ACCESS_public)
   11010              $C$DW$1304      .dwtag  DW_TAG_member
   11011                      .dwattr $C$DW$1304, DW_AT_type(*$C$DW$T$149)
   11012                      .dwattr $C$DW$1304, DW_AT_name("PIE39_RESERVED")
   11013                      .dwattr $C$DW$1304, DW_AT_TI_symbol_name("_PIE39_RESERVED")
   11014                      .dwattr $C$DW$1304, DW_AT_data_member_location[DW_OP_plus_uconst 0x13e]
   11015                      .dwattr $C$DW$1304, DW_AT_accessibility(DW_ACCESS_public)
   11016              $C$DW$1305      .dwtag  DW_TAG_member
   11017                      .dwattr $C$DW$1305, DW_AT_type(*$C$DW$T$149)
   11018                      .dwattr $C$DW$1305, DW_AT_name("SD1_INT")
   11019                      .dwattr $C$DW$1305, DW_AT_TI_symbol_name("_SD1_INT")
   11020                      .dwattr $C$DW$1305, DW_AT_data_member_location[DW_OP_plus_uconst 0x140]
   11021                      .dwattr $C$DW$1305, DW_AT_accessibility(DW_ACCESS_public)
   11022              $C$DW$1306      .dwtag  DW_TAG_member
   11023                      .dwattr $C$DW$1306, DW_AT_type(*$C$DW$T$149)
   11024                      .dwattr $C$DW$1306, DW_AT_name("SD2_INT")
   11025                      .dwattr $C$DW$1306, DW_AT_TI_symbol_name("_SD2_INT")
   11026                      .dwattr $C$DW$1306, DW_AT_data_member_location[DW_OP_plus_uconst 0x142]
   11027                      .dwattr $C$DW$1306, DW_AT_accessibility(DW_ACCESS_public)
   11028              $C$DW$1307      .dwtag  DW_TAG_member
   11029                      .dwattr $C$DW$1307, DW_AT_type(*$C$DW$T$149)
   11030                      .dwattr $C$DW$1307, DW_AT_name("PIE40_RESERVED")
   11031                      .dwattr $C$DW$1307, DW_AT_TI_symbol_name("_PIE40_RESERVED")
   11032                      .dwattr $C$DW$1307, DW_AT_data_member_location[DW_OP_plus_uconst 0x144]
   11033                      .dwattr $C$DW$1307, DW_AT_accessibility(DW_ACCESS_public)
   11034              $C$DW$1308      .dwtag  DW_TAG_member
   11035                      .dwattr $C$DW$1308, DW_AT_type(*$C$DW$T$149)
   11036                      .dwattr $C$DW$1308, DW_AT_name("PIE41_RESERVED")
   11037                      .dwattr $C$DW$1308, DW_AT_TI_symbol_name("_PIE41_RESERVED")
TMS320C2000 Assembler PC v6.1.3 Thu Jan 30 10:26:14 2014

Tools Copyright (c) 1996-2012 Texas Instruments Incorporated
C:\Users\a0272466\AppData\Local\Temp\0274010                         PAGE  207

   11038                      .dwattr $C$DW$1308, DW_AT_data_member_location[DW_OP_plus_uconst 0x146]
   11039                      .dwattr $C$DW$1308, DW_AT_accessibility(DW_ACCESS_public)
   11040              $C$DW$1309      .dwtag  DW_TAG_member
   11041                      .dwattr $C$DW$1309, DW_AT_type(*$C$DW$T$149)
   11042                      .dwattr $C$DW$1309, DW_AT_name("PIE42_RESERVED")
   11043                      .dwattr $C$DW$1309, DW_AT_TI_symbol_name("_PIE42_RESERVED")
   11044                      .dwattr $C$DW$1309, DW_AT_data_member_location[DW_OP_plus_uconst 0x148]
   11045                      .dwattr $C$DW$1309, DW_AT_accessibility(DW_ACCESS_public)
   11046              $C$DW$1310      .dwtag  DW_TAG_member
   11047                      .dwattr $C$DW$1310, DW_AT_type(*$C$DW$T$149)
   11048                      .dwattr $C$DW$1310, DW_AT_name("PIE43_RESERVED")
   11049                      .dwattr $C$DW$1310, DW_AT_TI_symbol_name("_PIE43_RESERVED")
   11050                      .dwattr $C$DW$1310, DW_AT_data_member_location[DW_OP_plus_uconst 0x14a]
   11051                      .dwattr $C$DW$1310, DW_AT_accessibility(DW_ACCESS_public)
   11052              $C$DW$1311      .dwtag  DW_TAG_member
   11053                      .dwattr $C$DW$1311, DW_AT_type(*$C$DW$T$149)
   11054                      .dwattr $C$DW$1311, DW_AT_name("PIE44_RESERVED")
   11055                      .dwattr $C$DW$1311, DW_AT_TI_symbol_name("_PIE44_RESERVED")
   11056                      .dwattr $C$DW$1311, DW_AT_data_member_location[DW_OP_plus_uconst 0x14c]
   11057                      .dwattr $C$DW$1311, DW_AT_accessibility(DW_ACCESS_public)
   11058              $C$DW$1312      .dwtag  DW_TAG_member
   11059                      .dwattr $C$DW$1312, DW_AT_type(*$C$DW$T$149)
   11060                      .dwattr $C$DW$1312, DW_AT_name("PIE45_RESERVED")
   11061                      .dwattr $C$DW$1312, DW_AT_TI_symbol_name("_PIE45_RESERVED")
   11062                      .dwattr $C$DW$1312, DW_AT_data_member_location[DW_OP_plus_uconst 0x14e]
   11063                      .dwattr $C$DW$1312, DW_AT_accessibility(DW_ACCESS_public)
   11064              $C$DW$1313      .dwtag  DW_TAG_member
   11065                      .dwattr $C$DW$1313, DW_AT_type(*$C$DW$T$149)
   11066                      .dwattr $C$DW$1313, DW_AT_name("SPIC_RX_INT")
   11067                      .dwattr $C$DW$1313, DW_AT_TI_symbol_name("_SPIC_RX_INT")
   11068                      .dwattr $C$DW$1313, DW_AT_data_member_location[DW_OP_plus_uconst 0x150]
   11069                      .dwattr $C$DW$1313, DW_AT_accessibility(DW_ACCESS_public)
   11070              $C$DW$1314      .dwtag  DW_TAG_member
   11071                      .dwattr $C$DW$1314, DW_AT_type(*$C$DW$T$149)
   11072                      .dwattr $C$DW$1314, DW_AT_name("SPIC_TX_INT")
   11073                      .dwattr $C$DW$1314, DW_AT_TI_symbol_name("_SPIC_TX_INT")
   11074                      .dwattr $C$DW$1314, DW_AT_data_member_location[DW_OP_plus_uconst 0x152]
   11075                      .dwattr $C$DW$1314, DW_AT_accessibility(DW_ACCESS_public)
   11076              $C$DW$1315      .dwtag  DW_TAG_member
   11077                      .dwattr $C$DW$1315, DW_AT_type(*$C$DW$T$149)
   11078                      .dwattr $C$DW$1315, DW_AT_name("PIE46_RESERVED")
   11079                      .dwattr $C$DW$1315, DW_AT_TI_symbol_name("_PIE46_RESERVED")
   11080                      .dwattr $C$DW$1315, DW_AT_data_member_location[DW_OP_plus_uconst 0x154]
   11081                      .dwattr $C$DW$1315, DW_AT_accessibility(DW_ACCESS_public)
   11082              $C$DW$1316      .dwtag  DW_TAG_member
   11083                      .dwattr $C$DW$1316, DW_AT_type(*$C$DW$T$149)
   11084                      .dwattr $C$DW$1316, DW_AT_name("PIE47_RESERVED")
   11085                      .dwattr $C$DW$1316, DW_AT_TI_symbol_name("_PIE47_RESERVED")
   11086                      .dwattr $C$DW$1316, DW_AT_data_member_location[DW_OP_plus_uconst 0x156]
   11087                      .dwattr $C$DW$1316, DW_AT_accessibility(DW_ACCESS_public)
   11088              $C$DW$1317      .dwtag  DW_TAG_member
   11089                      .dwattr $C$DW$1317, DW_AT_type(*$C$DW$T$149)
   11090                      .dwattr $C$DW$1317, DW_AT_name("PIE48_RESERVED")
   11091                      .dwattr $C$DW$1317, DW_AT_TI_symbol_name("_PIE48_RESERVED")
   11092                      .dwattr $C$DW$1317, DW_AT_data_member_location[DW_OP_plus_uconst 0x158]
TMS320C2000 Assembler PC v6.1.3 Thu Jan 30 10:26:14 2014

Tools Copyright (c) 1996-2012 Texas Instruments Incorporated
C:\Users\a0272466\AppData\Local\Temp\0274010                         PAGE  208

   11093                      .dwattr $C$DW$1317, DW_AT_accessibility(DW_ACCESS_public)
   11094              $C$DW$1318      .dwtag  DW_TAG_member
   11095                      .dwattr $C$DW$1318, DW_AT_type(*$C$DW$T$149)
   11096                      .dwattr $C$DW$1318, DW_AT_name("PIE49_RESERVED")
   11097                      .dwattr $C$DW$1318, DW_AT_TI_symbol_name("_PIE49_RESERVED")
   11098                      .dwattr $C$DW$1318, DW_AT_data_member_location[DW_OP_plus_uconst 0x15a]
   11099                      .dwattr $C$DW$1318, DW_AT_accessibility(DW_ACCESS_public)
   11100              $C$DW$1319      .dwtag  DW_TAG_member
   11101                      .dwattr $C$DW$1319, DW_AT_type(*$C$DW$T$149)
   11102                      .dwattr $C$DW$1319, DW_AT_name("PIE50_RESERVED")
   11103                      .dwattr $C$DW$1319, DW_AT_TI_symbol_name("_PIE50_RESERVED")
   11104                      .dwattr $C$DW$1319, DW_AT_data_member_location[DW_OP_plus_uconst 0x15c]
   11105                      .dwattr $C$DW$1319, DW_AT_accessibility(DW_ACCESS_public)
   11106              $C$DW$1320      .dwtag  DW_TAG_member
   11107                      .dwattr $C$DW$1320, DW_AT_type(*$C$DW$T$149)
   11108                      .dwattr $C$DW$1320, DW_AT_name("PIE51_RESERVED")
   11109                      .dwattr $C$DW$1320, DW_AT_TI_symbol_name("_PIE51_RESERVED")
   11110                      .dwattr $C$DW$1320, DW_AT_data_member_location[DW_OP_plus_uconst 0x15e]
   11111                      .dwattr $C$DW$1320, DW_AT_accessibility(DW_ACCESS_public)
   11112              $C$DW$1321      .dwtag  DW_TAG_member
   11113                      .dwattr $C$DW$1321, DW_AT_type(*$C$DW$T$149)
   11114                      .dwattr $C$DW$1321, DW_AT_name("PIE52_RESERVED")
   11115                      .dwattr $C$DW$1321, DW_AT_TI_symbol_name("_PIE52_RESERVED")
   11116                      .dwattr $C$DW$1321, DW_AT_data_member_location[DW_OP_plus_uconst 0x160]
   11117                      .dwattr $C$DW$1321, DW_AT_accessibility(DW_ACCESS_public)
   11118              $C$DW$1322      .dwtag  DW_TAG_member
   11119                      .dwattr $C$DW$1322, DW_AT_type(*$C$DW$T$149)
   11120                      .dwattr $C$DW$1322, DW_AT_name("PIE53_RESERVED")
   11121                      .dwattr $C$DW$1322, DW_AT_TI_symbol_name("_PIE53_RESERVED")
   11122                      .dwattr $C$DW$1322, DW_AT_data_member_location[DW_OP_plus_uconst 0x162]
   11123                      .dwattr $C$DW$1322, DW_AT_accessibility(DW_ACCESS_public)
   11124              $C$DW$1323      .dwtag  DW_TAG_member
   11125                      .dwattr $C$DW$1323, DW_AT_type(*$C$DW$T$149)
   11126                      .dwattr $C$DW$1323, DW_AT_name("PIE54_RESERVED")
   11127                      .dwattr $C$DW$1323, DW_AT_TI_symbol_name("_PIE54_RESERVED")
   11128                      .dwattr $C$DW$1323, DW_AT_data_member_location[DW_OP_plus_uconst 0x164]
   11129                      .dwattr $C$DW$1323, DW_AT_accessibility(DW_ACCESS_public)
   11130              $C$DW$1324      .dwtag  DW_TAG_member
   11131                      .dwattr $C$DW$1324, DW_AT_type(*$C$DW$T$149)
   11132                      .dwattr $C$DW$1324, DW_AT_name("PIE55_RESERVED")
   11133                      .dwattr $C$DW$1324, DW_AT_TI_symbol_name("_PIE55_RESERVED")
   11134                      .dwattr $C$DW$1324, DW_AT_data_member_location[DW_OP_plus_uconst 0x166]
   11135                      .dwattr $C$DW$1324, DW_AT_accessibility(DW_ACCESS_public)
   11136              $C$DW$1325      .dwtag  DW_TAG_member
   11137                      .dwattr $C$DW$1325, DW_AT_type(*$C$DW$T$149)
   11138                      .dwattr $C$DW$1325, DW_AT_name("PIE56_RESERVED")
   11139                      .dwattr $C$DW$1325, DW_AT_TI_symbol_name("_PIE56_RESERVED")
   11140                      .dwattr $C$DW$1325, DW_AT_data_member_location[DW_OP_plus_uconst 0x168]
   11141                      .dwattr $C$DW$1325, DW_AT_accessibility(DW_ACCESS_public)
   11142              $C$DW$1326      .dwtag  DW_TAG_member
   11143                      .dwattr $C$DW$1326, DW_AT_type(*$C$DW$T$149)
   11144                      .dwattr $C$DW$1326, DW_AT_name("PIE57_RESERVED")
   11145                      .dwattr $C$DW$1326, DW_AT_TI_symbol_name("_PIE57_RESERVED")
   11146                      .dwattr $C$DW$1326, DW_AT_data_member_location[DW_OP_plus_uconst 0x16a]
   11147                      .dwattr $C$DW$1326, DW_AT_accessibility(DW_ACCESS_public)
TMS320C2000 Assembler PC v6.1.3 Thu Jan 30 10:26:14 2014

Tools Copyright (c) 1996-2012 Texas Instruments Incorporated
C:\Users\a0272466\AppData\Local\Temp\0274010                         PAGE  209

   11148              $C$DW$1327      .dwtag  DW_TAG_member
   11149                      .dwattr $C$DW$1327, DW_AT_type(*$C$DW$T$149)
   11150                      .dwattr $C$DW$1327, DW_AT_name("PIE58_RESERVED")
   11151                      .dwattr $C$DW$1327, DW_AT_TI_symbol_name("_PIE58_RESERVED")
   11152                      .dwattr $C$DW$1327, DW_AT_data_member_location[DW_OP_plus_uconst 0x16c]
   11153                      .dwattr $C$DW$1327, DW_AT_accessibility(DW_ACCESS_public)
   11154              $C$DW$1328      .dwtag  DW_TAG_member
   11155                      .dwattr $C$DW$1328, DW_AT_type(*$C$DW$T$149)
   11156                      .dwattr $C$DW$1328, DW_AT_name("PIE59_RESERVED")
   11157                      .dwattr $C$DW$1328, DW_AT_TI_symbol_name("_PIE59_RESERVED")
   11158                      .dwattr $C$DW$1328, DW_AT_data_member_location[DW_OP_plus_uconst 0x16e]
   11159                      .dwattr $C$DW$1328, DW_AT_accessibility(DW_ACCESS_public)
   11160              $C$DW$1329      .dwtag  DW_TAG_member
   11161                      .dwattr $C$DW$1329, DW_AT_type(*$C$DW$T$149)
   11162                      .dwattr $C$DW$1329, DW_AT_name("PIE60_RESERVED")
   11163                      .dwattr $C$DW$1329, DW_AT_TI_symbol_name("_PIE60_RESERVED")
   11164                      .dwattr $C$DW$1329, DW_AT_data_member_location[DW_OP_plus_uconst 0x170]
   11165                      .dwattr $C$DW$1329, DW_AT_accessibility(DW_ACCESS_public)
   11166              $C$DW$1330      .dwtag  DW_TAG_member
   11167                      .dwattr $C$DW$1330, DW_AT_type(*$C$DW$T$149)
   11168                      .dwattr $C$DW$1330, DW_AT_name("PIE61_RESERVED")
   11169                      .dwattr $C$DW$1330, DW_AT_TI_symbol_name("_PIE61_RESERVED")
   11170                      .dwattr $C$DW$1330, DW_AT_data_member_location[DW_OP_plus_uconst 0x172]
   11171                      .dwattr $C$DW$1330, DW_AT_accessibility(DW_ACCESS_public)
   11172              $C$DW$1331      .dwtag  DW_TAG_member
   11173                      .dwattr $C$DW$1331, DW_AT_type(*$C$DW$T$149)
   11174                      .dwattr $C$DW$1331, DW_AT_name("PIE62_RESERVED")
   11175                      .dwattr $C$DW$1331, DW_AT_TI_symbol_name("_PIE62_RESERVED")
   11176                      .dwattr $C$DW$1331, DW_AT_data_member_location[DW_OP_plus_uconst 0x174]
   11177                      .dwattr $C$DW$1331, DW_AT_accessibility(DW_ACCESS_public)
   11178              $C$DW$1332      .dwtag  DW_TAG_member
   11179                      .dwattr $C$DW$1332, DW_AT_type(*$C$DW$T$149)
   11180                      .dwattr $C$DW$1332, DW_AT_name("PIE63_RESERVED")
   11181                      .dwattr $C$DW$1332, DW_AT_TI_symbol_name("_PIE63_RESERVED")
   11182                      .dwattr $C$DW$1332, DW_AT_data_member_location[DW_OP_plus_uconst 0x176]
   11183                      .dwattr $C$DW$1332, DW_AT_accessibility(DW_ACCESS_public)
   11184              $C$DW$1333      .dwtag  DW_TAG_member
   11185                      .dwattr $C$DW$1333, DW_AT_type(*$C$DW$T$149)
   11186                      .dwattr $C$DW$1333, DW_AT_name("PIE64_RESERVED")
   11187                      .dwattr $C$DW$1333, DW_AT_TI_symbol_name("_PIE64_RESERVED")
   11188                      .dwattr $C$DW$1333, DW_AT_data_member_location[DW_OP_plus_uconst 0x178]
   11189                      .dwattr $C$DW$1333, DW_AT_accessibility(DW_ACCESS_public)
   11190              $C$DW$1334      .dwtag  DW_TAG_member
   11191                      .dwattr $C$DW$1334, DW_AT_type(*$C$DW$T$149)
   11192                      .dwattr $C$DW$1334, DW_AT_name("PIE65_RESERVED")
   11193                      .dwattr $C$DW$1334, DW_AT_TI_symbol_name("_PIE65_RESERVED")
   11194                      .dwattr $C$DW$1334, DW_AT_data_member_location[DW_OP_plus_uconst 0x17a]
   11195                      .dwattr $C$DW$1334, DW_AT_accessibility(DW_ACCESS_public)
   11196              $C$DW$1335      .dwtag  DW_TAG_member
   11197                      .dwattr $C$DW$1335, DW_AT_type(*$C$DW$T$149)
   11198                      .dwattr $C$DW$1335, DW_AT_name("UPPA_INT")
   11199                      .dwattr $C$DW$1335, DW_AT_TI_symbol_name("_UPPA_INT")
   11200                      .dwattr $C$DW$1335, DW_AT_data_member_location[DW_OP_plus_uconst 0x17c]
   11201                      .dwattr $C$DW$1335, DW_AT_accessibility(DW_ACCESS_public)
   11202              $C$DW$1336      .dwtag  DW_TAG_member
TMS320C2000 Assembler PC v6.1.3 Thu Jan 30 10:26:14 2014

Tools Copyright (c) 1996-2012 Texas Instruments Incorporated
C:\Users\a0272466\AppData\Local\Temp\0274010                         PAGE  210

   11203                      .dwattr $C$DW$1336, DW_AT_type(*$C$DW$T$149)
   11204                      .dwattr $C$DW$1336, DW_AT_name("PIE67_RESERVED")
   11205                      .dwattr $C$DW$1336, DW_AT_TI_symbol_name("_PIE67_RESERVED")
   11206                      .dwattr $C$DW$1336, DW_AT_data_member_location[DW_OP_plus_uconst 0x17e]
   11207                      .dwattr $C$DW$1336, DW_AT_accessibility(DW_ACCESS_public)
   11208              $C$DW$1337      .dwtag  DW_TAG_member
   11209                      .dwattr $C$DW$1337, DW_AT_type(*$C$DW$T$149)
   11210                      .dwattr $C$DW$1337, DW_AT_name("PIE69_RESERVED")
   11211                      .dwattr $C$DW$1337, DW_AT_TI_symbol_name("_PIE69_RESERVED")
   11212                      .dwattr $C$DW$1337, DW_AT_data_member_location[DW_OP_plus_uconst 0x180]
   11213                      .dwattr $C$DW$1337, DW_AT_accessibility(DW_ACCESS_public)
   11214              $C$DW$1338      .dwtag  DW_TAG_member
   11215                      .dwattr $C$DW$1338, DW_AT_type(*$C$DW$T$149)
   11216                      .dwattr $C$DW$1338, DW_AT_name("PIE70_RESERVED")
   11217                      .dwattr $C$DW$1338, DW_AT_TI_symbol_name("_PIE70_RESERVED")
   11218                      .dwattr $C$DW$1338, DW_AT_data_member_location[DW_OP_plus_uconst 0x182]
   11219                      .dwattr $C$DW$1338, DW_AT_accessibility(DW_ACCESS_public)
   11220              $C$DW$1339      .dwtag  DW_TAG_member
   11221                      .dwattr $C$DW$1339, DW_AT_type(*$C$DW$T$149)
   11222                      .dwattr $C$DW$1339, DW_AT_name("PIE71_RESERVED")
   11223                      .dwattr $C$DW$1339, DW_AT_TI_symbol_name("_PIE71_RESERVED")
   11224                      .dwattr $C$DW$1339, DW_AT_data_member_location[DW_OP_plus_uconst 0x184]
   11225                      .dwattr $C$DW$1339, DW_AT_accessibility(DW_ACCESS_public)
   11226              $C$DW$1340      .dwtag  DW_TAG_member
   11227                      .dwattr $C$DW$1340, DW_AT_type(*$C$DW$T$149)
   11228                      .dwattr $C$DW$1340, DW_AT_name("PIE72_RESERVED")
   11229                      .dwattr $C$DW$1340, DW_AT_TI_symbol_name("_PIE72_RESERVED")
   11230                      .dwattr $C$DW$1340, DW_AT_data_member_location[DW_OP_plus_uconst 0x186]
   11231                      .dwattr $C$DW$1340, DW_AT_accessibility(DW_ACCESS_public)
   11232              $C$DW$1341      .dwtag  DW_TAG_member
   11233                      .dwattr $C$DW$1341, DW_AT_type(*$C$DW$T$149)
   11234                      .dwattr $C$DW$1341, DW_AT_name("PIE73_RESERVED")
   11235                      .dwattr $C$DW$1341, DW_AT_TI_symbol_name("_PIE73_RESERVED")
   11236                      .dwattr $C$DW$1341, DW_AT_data_member_location[DW_OP_plus_uconst 0x188]
   11237                      .dwattr $C$DW$1341, DW_AT_accessibility(DW_ACCESS_public)
   11238              $C$DW$1342      .dwtag  DW_TAG_member
   11239                      .dwattr $C$DW$1342, DW_AT_type(*$C$DW$T$149)
   11240                      .dwattr $C$DW$1342, DW_AT_name("PIE74_RESERVED")
   11241                      .dwattr $C$DW$1342, DW_AT_TI_symbol_name("_PIE74_RESERVED")
   11242                      .dwattr $C$DW$1342, DW_AT_data_member_location[DW_OP_plus_uconst 0x18a]
   11243                      .dwattr $C$DW$1342, DW_AT_accessibility(DW_ACCESS_public)
   11244              $C$DW$1343      .dwtag  DW_TAG_member
   11245                      .dwattr $C$DW$1343, DW_AT_type(*$C$DW$T$149)
   11246                      .dwattr $C$DW$1343, DW_AT_name("USBA_INT")
   11247                      .dwattr $C$DW$1343, DW_AT_TI_symbol_name("_USBA_INT")
   11248                      .dwattr $C$DW$1343, DW_AT_data_member_location[DW_OP_plus_uconst 0x18c]
   11249                      .dwattr $C$DW$1343, DW_AT_accessibility(DW_ACCESS_public)
   11250              $C$DW$1344      .dwtag  DW_TAG_member
   11251                      .dwattr $C$DW$1344, DW_AT_type(*$C$DW$T$149)
   11252                      .dwattr $C$DW$1344, DW_AT_name("USBB_INT")
   11253                      .dwattr $C$DW$1344, DW_AT_TI_symbol_name("_USBB_INT")
   11254                      .dwattr $C$DW$1344, DW_AT_data_member_location[DW_OP_plus_uconst 0x18e]
   11255                      .dwattr $C$DW$1344, DW_AT_accessibility(DW_ACCESS_public)
   11256              $C$DW$1345      .dwtag  DW_TAG_member
   11257                      .dwattr $C$DW$1345, DW_AT_type(*$C$DW$T$149)
TMS320C2000 Assembler PC v6.1.3 Thu Jan 30 10:26:14 2014

Tools Copyright (c) 1996-2012 Texas Instruments Incorporated
C:\Users\a0272466\AppData\Local\Temp\0274010                         PAGE  211

   11258                      .dwattr $C$DW$1345, DW_AT_name("ADC3_EVT_INT")
   11259                      .dwattr $C$DW$1345, DW_AT_TI_symbol_name("_ADC3_EVT_INT")
   11260                      .dwattr $C$DW$1345, DW_AT_data_member_location[DW_OP_plus_uconst 0x190]
   11261                      .dwattr $C$DW$1345, DW_AT_accessibility(DW_ACCESS_public)
   11262              $C$DW$1346      .dwtag  DW_TAG_member
   11263                      .dwattr $C$DW$1346, DW_AT_type(*$C$DW$T$149)
   11264                      .dwattr $C$DW$1346, DW_AT_name("ADC3_CH2_INT")
   11265                      .dwattr $C$DW$1346, DW_AT_TI_symbol_name("_ADC3_CH2_INT")
   11266                      .dwattr $C$DW$1346, DW_AT_data_member_location[DW_OP_plus_uconst 0x192]
   11267                      .dwattr $C$DW$1346, DW_AT_accessibility(DW_ACCESS_public)
   11268              $C$DW$1347      .dwtag  DW_TAG_member
   11269                      .dwattr $C$DW$1347, DW_AT_type(*$C$DW$T$149)
   11270                      .dwattr $C$DW$1347, DW_AT_name("ADC3_CH3_INT")
   11271                      .dwattr $C$DW$1347, DW_AT_TI_symbol_name("_ADC3_CH3_INT")
   11272                      .dwattr $C$DW$1347, DW_AT_data_member_location[DW_OP_plus_uconst 0x194]
   11273                      .dwattr $C$DW$1347, DW_AT_accessibility(DW_ACCESS_public)
   11274              $C$DW$1348      .dwtag  DW_TAG_member
   11275                      .dwattr $C$DW$1348, DW_AT_type(*$C$DW$T$149)
   11276                      .dwattr $C$DW$1348, DW_AT_name("ADC3_CH4_INT")
   11277                      .dwattr $C$DW$1348, DW_AT_TI_symbol_name("_ADC3_CH4_INT")
   11278                      .dwattr $C$DW$1348, DW_AT_data_member_location[DW_OP_plus_uconst 0x196]
   11279                      .dwattr $C$DW$1348, DW_AT_accessibility(DW_ACCESS_public)
   11280              $C$DW$1349      .dwtag  DW_TAG_member
   11281                      .dwattr $C$DW$1349, DW_AT_type(*$C$DW$T$149)
   11282                      .dwattr $C$DW$1349, DW_AT_name("ADC4_EVT_INT")
   11283                      .dwattr $C$DW$1349, DW_AT_TI_symbol_name("_ADC4_EVT_INT")
   11284                      .dwattr $C$DW$1349, DW_AT_data_member_location[DW_OP_plus_uconst 0x198]
   11285                      .dwattr $C$DW$1349, DW_AT_accessibility(DW_ACCESS_public)
   11286              $C$DW$1350      .dwtag  DW_TAG_member
   11287                      .dwattr $C$DW$1350, DW_AT_type(*$C$DW$T$149)
   11288                      .dwattr $C$DW$1350, DW_AT_name("ADC4_CH2_INT")
   11289                      .dwattr $C$DW$1350, DW_AT_TI_symbol_name("_ADC4_CH2_INT")
   11290                      .dwattr $C$DW$1350, DW_AT_data_member_location[DW_OP_plus_uconst 0x19a]
   11291                      .dwattr $C$DW$1350, DW_AT_accessibility(DW_ACCESS_public)
   11292              $C$DW$1351      .dwtag  DW_TAG_member
   11293                      .dwattr $C$DW$1351, DW_AT_type(*$C$DW$T$149)
   11294                      .dwattr $C$DW$1351, DW_AT_name("ADC4_CH3_INT")
   11295                      .dwattr $C$DW$1351, DW_AT_TI_symbol_name("_ADC4_CH3_INT")
   11296                      .dwattr $C$DW$1351, DW_AT_data_member_location[DW_OP_plus_uconst 0x19c]
   11297                      .dwattr $C$DW$1351, DW_AT_accessibility(DW_ACCESS_public)
   11298              $C$DW$1352      .dwtag  DW_TAG_member
   11299                      .dwattr $C$DW$1352, DW_AT_type(*$C$DW$T$149)
   11300                      .dwattr $C$DW$1352, DW_AT_name("ADC4_CH4_INT")
   11301                      .dwattr $C$DW$1352, DW_AT_TI_symbol_name("_ADC4_CH4_INT")
   11302                      .dwattr $C$DW$1352, DW_AT_data_member_location[DW_OP_plus_uconst 0x19e]
   11303                      .dwattr $C$DW$1352, DW_AT_accessibility(DW_ACCESS_public)
   11304              $C$DW$1353      .dwtag  DW_TAG_member
   11305                      .dwattr $C$DW$1353, DW_AT_type(*$C$DW$T$149)
   11306                      .dwattr $C$DW$1353, DW_AT_name("PIE76_RESERVED")
   11307                      .dwattr $C$DW$1353, DW_AT_TI_symbol_name("_PIE76_RESERVED")
   11308                      .dwattr $C$DW$1353, DW_AT_data_member_location[DW_OP_plus_uconst 0x1a0]
   11309                      .dwattr $C$DW$1353, DW_AT_accessibility(DW_ACCESS_public)
   11310              $C$DW$1354      .dwtag  DW_TAG_member
   11311                      .dwattr $C$DW$1354, DW_AT_type(*$C$DW$T$149)
   11312                      .dwattr $C$DW$1354, DW_AT_name("PIE77_RESERVED")
TMS320C2000 Assembler PC v6.1.3 Thu Jan 30 10:26:14 2014

Tools Copyright (c) 1996-2012 Texas Instruments Incorporated
C:\Users\a0272466\AppData\Local\Temp\0274010                         PAGE  212

   11313                      .dwattr $C$DW$1354, DW_AT_TI_symbol_name("_PIE77_RESERVED")
   11314                      .dwattr $C$DW$1354, DW_AT_data_member_location[DW_OP_plus_uconst 0x1a2]
   11315                      .dwattr $C$DW$1354, DW_AT_accessibility(DW_ACCESS_public)
   11316              $C$DW$1355      .dwtag  DW_TAG_member
   11317                      .dwattr $C$DW$1355, DW_AT_type(*$C$DW$T$149)
   11318                      .dwattr $C$DW$1355, DW_AT_name("PIE78_RESERVED")
   11319                      .dwattr $C$DW$1355, DW_AT_TI_symbol_name("_PIE78_RESERVED")
   11320                      .dwattr $C$DW$1355, DW_AT_data_member_location[DW_OP_plus_uconst 0x1a4]
   11321                      .dwattr $C$DW$1355, DW_AT_accessibility(DW_ACCESS_public)
   11322              $C$DW$1356      .dwtag  DW_TAG_member
   11323                      .dwattr $C$DW$1356, DW_AT_type(*$C$DW$T$149)
   11324                      .dwattr $C$DW$1356, DW_AT_name("PIE79_RESERVED")
   11325                      .dwattr $C$DW$1356, DW_AT_TI_symbol_name("_PIE79_RESERVED")
   11326                      .dwattr $C$DW$1356, DW_AT_data_member_location[DW_OP_plus_uconst 0x1a6]
   11327                      .dwattr $C$DW$1356, DW_AT_accessibility(DW_ACCESS_public)
   11328              $C$DW$1357      .dwtag  DW_TAG_member
   11329                      .dwattr $C$DW$1357, DW_AT_type(*$C$DW$T$149)
   11330                      .dwattr $C$DW$1357, DW_AT_name("PIE80_RESERVED")
   11331                      .dwattr $C$DW$1357, DW_AT_TI_symbol_name("_PIE80_RESERVED")
   11332                      .dwattr $C$DW$1357, DW_AT_data_member_location[DW_OP_plus_uconst 0x1a8]
   11333                      .dwattr $C$DW$1357, DW_AT_accessibility(DW_ACCESS_public)
   11334              $C$DW$1358      .dwtag  DW_TAG_member
   11335                      .dwattr $C$DW$1358, DW_AT_type(*$C$DW$T$149)
   11336                      .dwattr $C$DW$1358, DW_AT_name("PIE81_RESERVED")
   11337                      .dwattr $C$DW$1358, DW_AT_TI_symbol_name("_PIE81_RESERVED")
   11338                      .dwattr $C$DW$1358, DW_AT_data_member_location[DW_OP_plus_uconst 0x1aa]
   11339                      .dwattr $C$DW$1358, DW_AT_accessibility(DW_ACCESS_public)
   11340              $C$DW$1359      .dwtag  DW_TAG_member
   11341                      .dwattr $C$DW$1359, DW_AT_type(*$C$DW$T$149)
   11342                      .dwattr $C$DW$1359, DW_AT_name("PIE82_RESERVED")
   11343                      .dwattr $C$DW$1359, DW_AT_TI_symbol_name("_PIE82_RESERVED")
   11344                      .dwattr $C$DW$1359, DW_AT_data_member_location[DW_OP_plus_uconst 0x1ac]
   11345                      .dwattr $C$DW$1359, DW_AT_accessibility(DW_ACCESS_public)
   11346              $C$DW$1360      .dwtag  DW_TAG_member
   11347                      .dwattr $C$DW$1360, DW_AT_type(*$C$DW$T$149)
   11348                      .dwattr $C$DW$1360, DW_AT_name("PIE83_RESERVED")
   11349                      .dwattr $C$DW$1360, DW_AT_TI_symbol_name("_PIE83_RESERVED")
   11350                      .dwattr $C$DW$1360, DW_AT_data_member_location[DW_OP_plus_uconst 0x1ae]
   11351                      .dwattr $C$DW$1360, DW_AT_accessibility(DW_ACCESS_public)
   11352              $C$DW$1361      .dwtag  DW_TAG_member
   11353                      .dwattr $C$DW$1361, DW_AT_type(*$C$DW$T$149)
   11354                      .dwattr $C$DW$1361, DW_AT_name("EMIF_ERR_INT")
   11355                      .dwattr $C$DW$1361, DW_AT_TI_symbol_name("_EMIF_ERR_INT")
   11356                      .dwattr $C$DW$1361, DW_AT_data_member_location[DW_OP_plus_uconst 0x1b0]
   11357                      .dwattr $C$DW$1361, DW_AT_accessibility(DW_ACCESS_public)
   11358              $C$DW$1362      .dwtag  DW_TAG_member
   11359                      .dwattr $C$DW$1362, DW_AT_type(*$C$DW$T$149)
   11360                      .dwattr $C$DW$1362, DW_AT_name("RAM_CORRECTABLE_ERR_INT")
   11361                      .dwattr $C$DW$1362, DW_AT_TI_symbol_name("_RAM_CORRECTABLE_ERR_INT")
   11362                      .dwattr $C$DW$1362, DW_AT_data_member_location[DW_OP_plus_uconst 0x1b2]
   11363                      .dwattr $C$DW$1362, DW_AT_accessibility(DW_ACCESS_public)
   11364              $C$DW$1363      .dwtag  DW_TAG_member
   11365                      .dwattr $C$DW$1363, DW_AT_type(*$C$DW$T$149)
   11366                      .dwattr $C$DW$1363, DW_AT_name("FLASH_CORRECTABLE_ERR_INT")
   11367                      .dwattr $C$DW$1363, DW_AT_TI_symbol_name("_FLASH_CORRECTABLE_ERR_INT")
TMS320C2000 Assembler PC v6.1.3 Thu Jan 30 10:26:14 2014

Tools Copyright (c) 1996-2012 Texas Instruments Incorporated
C:\Users\a0272466\AppData\Local\Temp\0274010                         PAGE  213

   11368                      .dwattr $C$DW$1363, DW_AT_data_member_location[DW_OP_plus_uconst 0x1b4]
   11369                      .dwattr $C$DW$1363, DW_AT_accessibility(DW_ACCESS_public)
   11370              $C$DW$1364      .dwtag  DW_TAG_member
   11371                      .dwattr $C$DW$1364, DW_AT_type(*$C$DW$T$149)
   11372                      .dwattr $C$DW$1364, DW_AT_name("RAM_ACC_VIOL_INT")
   11373                      .dwattr $C$DW$1364, DW_AT_TI_symbol_name("_RAM_ACC_VIOL_INT")
   11374                      .dwattr $C$DW$1364, DW_AT_data_member_location[DW_OP_plus_uconst 0x1b6]
   11375                      .dwattr $C$DW$1364, DW_AT_accessibility(DW_ACCESS_public)
   11376              $C$DW$1365      .dwtag  DW_TAG_member
   11377                      .dwattr $C$DW$1365, DW_AT_type(*$C$DW$T$149)
   11378                      .dwattr $C$DW$1365, DW_AT_name("SYS_PLL_SLIP_INT")
   11379                      .dwattr $C$DW$1365, DW_AT_TI_symbol_name("_SYS_PLL_SLIP_INT")
   11380                      .dwattr $C$DW$1365, DW_AT_data_member_location[DW_OP_plus_uconst 0x1b8]
   11381                      .dwattr $C$DW$1365, DW_AT_accessibility(DW_ACCESS_public)
   11382              $C$DW$1366      .dwtag  DW_TAG_member
   11383                      .dwattr $C$DW$1366, DW_AT_type(*$C$DW$T$149)
   11384                      .dwattr $C$DW$1366, DW_AT_name("AUX_PLL_SLIP_INT")
   11385                      .dwattr $C$DW$1366, DW_AT_TI_symbol_name("_AUX_PLL_SLIP_INT")
   11386                      .dwattr $C$DW$1366, DW_AT_data_member_location[DW_OP_plus_uconst 0x1ba]
   11387                      .dwattr $C$DW$1366, DW_AT_accessibility(DW_ACCESS_public)
   11388              $C$DW$1367      .dwtag  DW_TAG_member
   11389                      .dwattr $C$DW$1367, DW_AT_type(*$C$DW$T$149)
   11390                      .dwattr $C$DW$1367, DW_AT_name("CLA_LVF_INT")
   11391                      .dwattr $C$DW$1367, DW_AT_TI_symbol_name("_CLA_LVF_INT")
   11392                      .dwattr $C$DW$1367, DW_AT_data_member_location[DW_OP_plus_uconst 0x1bc]
   11393                      .dwattr $C$DW$1367, DW_AT_accessibility(DW_ACCESS_public)
   11394              $C$DW$1368      .dwtag  DW_TAG_member
   11395                      .dwattr $C$DW$1368, DW_AT_type(*$C$DW$T$149)
   11396                      .dwattr $C$DW$1368, DW_AT_name("CLA_LUF_INT")
   11397                      .dwattr $C$DW$1368, DW_AT_TI_symbol_name("_CLA_LUF_INT")
   11398                      .dwattr $C$DW$1368, DW_AT_data_member_location[DW_OP_plus_uconst 0x1be]
   11399                      .dwattr $C$DW$1368, DW_AT_accessibility(DW_ACCESS_public)
   11400                      .dwendtag $C$DW$T$150
   11401              
   11402              
   11403              $C$DW$T$151     .dwtag  DW_TAG_structure_type
   11404                      .dwattr $C$DW$T$151, DW_AT_name("PUMPREQUEST_BITS")
   11405                      .dwattr $C$DW$T$151, DW_AT_byte_size(0x02)
   11406              $C$DW$1369      .dwtag  DW_TAG_member
   11407                      .dwattr $C$DW$1369, DW_AT_type(*$C$DW$T$19)
   11408                      .dwattr $C$DW$1369, DW_AT_name("SEM")
   11409                      .dwattr $C$DW$1369, DW_AT_TI_symbol_name("_SEM")
   11410                      .dwattr $C$DW$1369, DW_AT_bit_offset(0x0e), DW_AT_bit_size(0x02)
   11411                      .dwattr $C$DW$1369, DW_AT_data_member_location[DW_OP_plus_uconst 0x0]
   11412                      .dwattr $C$DW$1369, DW_AT_accessibility(DW_ACCESS_public)
   11413              $C$DW$1370      .dwtag  DW_TAG_member
   11414                      .dwattr $C$DW$1370, DW_AT_type(*$C$DW$T$19)
   11415                      .dwattr $C$DW$1370, DW_AT_name("rsvd1")
   11416                      .dwattr $C$DW$1370, DW_AT_TI_symbol_name("_rsvd1")
   11417                      .dwattr $C$DW$1370, DW_AT_bit_offset(0x00), DW_AT_bit_size(0x0e)
   11418                      .dwattr $C$DW$1370, DW_AT_data_member_location[DW_OP_plus_uconst 0x0]
   11419                      .dwattr $C$DW$1370, DW_AT_accessibility(DW_ACCESS_public)
   11420              $C$DW$1371      .dwtag  DW_TAG_member
   11421                      .dwattr $C$DW$1371, DW_AT_type(*$C$DW$T$19)
   11422                      .dwattr $C$DW$1371, DW_AT_name("KEY")
TMS320C2000 Assembler PC v6.1.3 Thu Jan 30 10:26:14 2014

Tools Copyright (c) 1996-2012 Texas Instruments Incorporated
C:\Users\a0272466\AppData\Local\Temp\0274010                         PAGE  214

   11423                      .dwattr $C$DW$1371, DW_AT_TI_symbol_name("_KEY")
   11424                      .dwattr $C$DW$1371, DW_AT_bit_offset(0x00), DW_AT_bit_size(0x10)
   11425                      .dwattr $C$DW$1371, DW_AT_data_member_location[DW_OP_plus_uconst 0x1]
   11426                      .dwattr $C$DW$1371, DW_AT_accessibility(DW_ACCESS_public)
   11427                      .dwendtag $C$DW$T$151
   11428              
   11429              
   11430              $C$DW$T$152     .dwtag  DW_TAG_union_type
   11431                      .dwattr $C$DW$T$152, DW_AT_name("PUMPREQUEST_REG")
   11432                      .dwattr $C$DW$T$152, DW_AT_byte_size(0x02)
   11433              $C$DW$1372      .dwtag  DW_TAG_member
   11434                      .dwattr $C$DW$1372, DW_AT_type(*$C$DW$T$21)
   11435                      .dwattr $C$DW$1372, DW_AT_name("all")
   11436                      .dwattr $C$DW$1372, DW_AT_TI_symbol_name("_all")
   11437                      .dwattr $C$DW$1372, DW_AT_data_member_location[DW_OP_plus_uconst 0x0]
   11438                      .dwattr $C$DW$1372, DW_AT_accessibility(DW_ACCESS_public)
   11439              $C$DW$1373      .dwtag  DW_TAG_member
   11440                      .dwattr $C$DW$1373, DW_AT_type(*$C$DW$T$151)
   11441                      .dwattr $C$DW$1373, DW_AT_name("bit")
   11442                      .dwattr $C$DW$1373, DW_AT_TI_symbol_name("_bit")
   11443                      .dwattr $C$DW$1373, DW_AT_data_member_location[DW_OP_plus_uconst 0x0]
   11444                      .dwattr $C$DW$1373, DW_AT_accessibility(DW_ACCESS_public)
   11445                      .dwendtag $C$DW$T$152
   11446              
   11447              
   11448              $C$DW$T$153     .dwtag  DW_TAG_structure_type
   11449                      .dwattr $C$DW$T$153, DW_AT_name("RESC_BITS")
   11450                      .dwattr $C$DW$T$153, DW_AT_byte_size(0x02)
   11451              $C$DW$1374      .dwtag  DW_TAG_member
   11452                      .dwattr $C$DW$1374, DW_AT_type(*$C$DW$T$19)
   11453                      .dwattr $C$DW$1374, DW_AT_name("POR")
   11454                      .dwattr $C$DW$1374, DW_AT_TI_symbol_name("_POR")
   11455                      .dwattr $C$DW$1374, DW_AT_bit_offset(0x0f), DW_AT_bit_size(0x01)
   11456                      .dwattr $C$DW$1374, DW_AT_data_member_location[DW_OP_plus_uconst 0x0]
   11457                      .dwattr $C$DW$1374, DW_AT_accessibility(DW_ACCESS_public)
   11458              $C$DW$1375      .dwtag  DW_TAG_member
   11459                      .dwattr $C$DW$1375, DW_AT_type(*$C$DW$T$19)
   11460                      .dwattr $C$DW$1375, DW_AT_name("XRSn")
   11461                      .dwattr $C$DW$1375, DW_AT_TI_symbol_name("_XRSn")
   11462                      .dwattr $C$DW$1375, DW_AT_bit_offset(0x0e), DW_AT_bit_size(0x01)
   11463                      .dwattr $C$DW$1375, DW_AT_data_member_location[DW_OP_plus_uconst 0x0]
   11464                      .dwattr $C$DW$1375, DW_AT_accessibility(DW_ACCESS_public)
   11465              $C$DW$1376      .dwtag  DW_TAG_member
   11466                      .dwattr $C$DW$1376, DW_AT_type(*$C$DW$T$19)
   11467                      .dwattr $C$DW$1376, DW_AT_name("WDRSn")
   11468                      .dwattr $C$DW$1376, DW_AT_TI_symbol_name("_WDRSn")
   11469                      .dwattr $C$DW$1376, DW_AT_bit_offset(0x0d), DW_AT_bit_size(0x01)
   11470                      .dwattr $C$DW$1376, DW_AT_data_member_location[DW_OP_plus_uconst 0x0]
   11471                      .dwattr $C$DW$1376, DW_AT_accessibility(DW_ACCESS_public)
   11472              $C$DW$1377      .dwtag  DW_TAG_member
   11473                      .dwattr $C$DW$1377, DW_AT_type(*$C$DW$T$19)
   11474                      .dwattr $C$DW$1377, DW_AT_name("NMIWDRSn")
   11475                      .dwattr $C$DW$1377, DW_AT_TI_symbol_name("_NMIWDRSn")
   11476                      .dwattr $C$DW$1377, DW_AT_bit_offset(0x0c), DW_AT_bit_size(0x01)
   11477                      .dwattr $C$DW$1377, DW_AT_data_member_location[DW_OP_plus_uconst 0x0]
TMS320C2000 Assembler PC v6.1.3 Thu Jan 30 10:26:14 2014

Tools Copyright (c) 1996-2012 Texas Instruments Incorporated
C:\Users\a0272466\AppData\Local\Temp\0274010                         PAGE  215

   11478                      .dwattr $C$DW$1377, DW_AT_accessibility(DW_ACCESS_public)
   11479              $C$DW$1378      .dwtag  DW_TAG_member
   11480                      .dwattr $C$DW$1378, DW_AT_type(*$C$DW$T$19)
   11481                      .dwattr $C$DW$1378, DW_AT_name("rsvd1")
   11482                      .dwattr $C$DW$1378, DW_AT_TI_symbol_name("_rsvd1")
   11483                      .dwattr $C$DW$1378, DW_AT_bit_offset(0x0b), DW_AT_bit_size(0x01)
   11484                      .dwattr $C$DW$1378, DW_AT_data_member_location[DW_OP_plus_uconst 0x0]
   11485                      .dwattr $C$DW$1378, DW_AT_accessibility(DW_ACCESS_public)
   11486              $C$DW$1379      .dwtag  DW_TAG_member
   11487                      .dwattr $C$DW$1379, DW_AT_type(*$C$DW$T$19)
   11488                      .dwattr $C$DW$1379, DW_AT_name("HWBISTn")
   11489                      .dwattr $C$DW$1379, DW_AT_TI_symbol_name("_HWBISTn")
   11490                      .dwattr $C$DW$1379, DW_AT_bit_offset(0x0a), DW_AT_bit_size(0x01)
   11491                      .dwattr $C$DW$1379, DW_AT_data_member_location[DW_OP_plus_uconst 0x0]
   11492                      .dwattr $C$DW$1379, DW_AT_accessibility(DW_ACCESS_public)
   11493              $C$DW$1380      .dwtag  DW_TAG_member
   11494                      .dwattr $C$DW$1380, DW_AT_type(*$C$DW$T$19)
   11495                      .dwattr $C$DW$1380, DW_AT_name("HIBRESETn")
   11496                      .dwattr $C$DW$1380, DW_AT_TI_symbol_name("_HIBRESETn")
   11497                      .dwattr $C$DW$1380, DW_AT_bit_offset(0x09), DW_AT_bit_size(0x01)
   11498                      .dwattr $C$DW$1380, DW_AT_data_member_location[DW_OP_plus_uconst 0x0]
   11499                      .dwattr $C$DW$1380, DW_AT_accessibility(DW_ACCESS_public)
   11500              $C$DW$1381      .dwtag  DW_TAG_member
   11501                      .dwattr $C$DW$1381, DW_AT_type(*$C$DW$T$19)
   11502                      .dwattr $C$DW$1381, DW_AT_name("rsvd2")
   11503                      .dwattr $C$DW$1381, DW_AT_TI_symbol_name("_rsvd2")
   11504                      .dwattr $C$DW$1381, DW_AT_bit_offset(0x08), DW_AT_bit_size(0x01)
   11505                      .dwattr $C$DW$1381, DW_AT_data_member_location[DW_OP_plus_uconst 0x0]
   11506                      .dwattr $C$DW$1381, DW_AT_accessibility(DW_ACCESS_public)
   11507              $C$DW$1382      .dwtag  DW_TAG_member
   11508                      .dwattr $C$DW$1382, DW_AT_type(*$C$DW$T$19)
   11509                      .dwattr $C$DW$1382, DW_AT_name("SCCRESETn")
   11510                      .dwattr $C$DW$1382, DW_AT_TI_symbol_name("_SCCRESETn")
   11511                      .dwattr $C$DW$1382, DW_AT_bit_offset(0x07), DW_AT_bit_size(0x01)
   11512                      .dwattr $C$DW$1382, DW_AT_data_member_location[DW_OP_plus_uconst 0x0]
   11513                      .dwattr $C$DW$1382, DW_AT_accessibility(DW_ACCESS_public)
   11514              $C$DW$1383      .dwtag  DW_TAG_member
   11515                      .dwattr $C$DW$1383, DW_AT_type(*$C$DW$T$19)
   11516                      .dwattr $C$DW$1383, DW_AT_name("rsvd3")
   11517                      .dwattr $C$DW$1383, DW_AT_TI_symbol_name("_rsvd3")
   11518                      .dwattr $C$DW$1383, DW_AT_bit_offset(0x00), DW_AT_bit_size(0x07)
   11519                      .dwattr $C$DW$1383, DW_AT_data_member_location[DW_OP_plus_uconst 0x0]
   11520                      .dwattr $C$DW$1383, DW_AT_accessibility(DW_ACCESS_public)
   11521              $C$DW$1384      .dwtag  DW_TAG_member
   11522                      .dwattr $C$DW$1384, DW_AT_type(*$C$DW$T$19)
   11523                      .dwattr $C$DW$1384, DW_AT_name("rsvd4")
   11524                      .dwattr $C$DW$1384, DW_AT_TI_symbol_name("_rsvd4")
   11525                      .dwattr $C$DW$1384, DW_AT_bit_offset(0x02), DW_AT_bit_size(0x0e)
   11526                      .dwattr $C$DW$1384, DW_AT_data_member_location[DW_OP_plus_uconst 0x1]
   11527                      .dwattr $C$DW$1384, DW_AT_accessibility(DW_ACCESS_public)
   11528              $C$DW$1385      .dwtag  DW_TAG_member
   11529                      .dwattr $C$DW$1385, DW_AT_type(*$C$DW$T$19)
   11530                      .dwattr $C$DW$1385, DW_AT_name("XRSn_pin_status")
   11531                      .dwattr $C$DW$1385, DW_AT_TI_symbol_name("_XRSn_pin_status")
   11532                      .dwattr $C$DW$1385, DW_AT_bit_offset(0x01), DW_AT_bit_size(0x01)
TMS320C2000 Assembler PC v6.1.3 Thu Jan 30 10:26:14 2014

Tools Copyright (c) 1996-2012 Texas Instruments Incorporated
C:\Users\a0272466\AppData\Local\Temp\0274010                         PAGE  216

   11533                      .dwattr $C$DW$1385, DW_AT_data_member_location[DW_OP_plus_uconst 0x1]
   11534                      .dwattr $C$DW$1385, DW_AT_accessibility(DW_ACCESS_public)
   11535              $C$DW$1386      .dwtag  DW_TAG_member
   11536                      .dwattr $C$DW$1386, DW_AT_type(*$C$DW$T$19)
   11537                      .dwattr $C$DW$1386, DW_AT_name("TRSTn_pin_status")
   11538                      .dwattr $C$DW$1386, DW_AT_TI_symbol_name("_TRSTn_pin_status")
   11539                      .dwattr $C$DW$1386, DW_AT_bit_offset(0x00), DW_AT_bit_size(0x01)
   11540                      .dwattr $C$DW$1386, DW_AT_data_member_location[DW_OP_plus_uconst 0x1]
   11541                      .dwattr $C$DW$1386, DW_AT_accessibility(DW_ACCESS_public)
   11542                      .dwendtag $C$DW$T$153
   11543              
   11544              
   11545              $C$DW$T$154     .dwtag  DW_TAG_union_type
   11546                      .dwattr $C$DW$T$154, DW_AT_name("RESC_REG")
   11547                      .dwattr $C$DW$T$154, DW_AT_byte_size(0x02)
   11548              $C$DW$1387      .dwtag  DW_TAG_member
   11549                      .dwattr $C$DW$1387, DW_AT_type(*$C$DW$T$21)
   11550                      .dwattr $C$DW$1387, DW_AT_name("all")
   11551                      .dwattr $C$DW$1387, DW_AT_TI_symbol_name("_all")
   11552                      .dwattr $C$DW$1387, DW_AT_data_member_location[DW_OP_plus_uconst 0x0]
   11553                      .dwattr $C$DW$1387, DW_AT_accessibility(DW_ACCESS_public)
   11554              $C$DW$1388      .dwtag  DW_TAG_member
   11555                      .dwattr $C$DW$1388, DW_AT_type(*$C$DW$T$153)
   11556                      .dwattr $C$DW$1388, DW_AT_name("bit")
   11557                      .dwattr $C$DW$1388, DW_AT_TI_symbol_name("_bit")
   11558                      .dwattr $C$DW$1388, DW_AT_data_member_location[DW_OP_plus_uconst 0x0]
   11559                      .dwattr $C$DW$1388, DW_AT_accessibility(DW_ACCESS_public)
   11560                      .dwendtag $C$DW$T$154
   11561              
   11562              
   11563              $C$DW$T$155     .dwtag  DW_TAG_structure_type
   11564                      .dwattr $C$DW$T$155, DW_AT_name("SECMSEL_BITS")
   11565                      .dwattr $C$DW$T$155, DW_AT_byte_size(0x02)
   11566              $C$DW$1389      .dwtag  DW_TAG_member
   11567                      .dwattr $C$DW$1389, DW_AT_type(*$C$DW$T$19)
   11568                      .dwattr $C$DW$1389, DW_AT_name("VBUS32_1")
   11569                      .dwattr $C$DW$1389, DW_AT_TI_symbol_name("_VBUS32_1")
   11570                      .dwattr $C$DW$1389, DW_AT_bit_offset(0x0e), DW_AT_bit_size(0x02)
   11571                      .dwattr $C$DW$1389, DW_AT_data_member_location[DW_OP_plus_uconst 0x0]
   11572                      .dwattr $C$DW$1389, DW_AT_accessibility(DW_ACCESS_public)
   11573              $C$DW$1390      .dwtag  DW_TAG_member
   11574                      .dwattr $C$DW$1390, DW_AT_type(*$C$DW$T$19)
   11575                      .dwattr $C$DW$1390, DW_AT_name("VBUS32_2")
   11576                      .dwattr $C$DW$1390, DW_AT_TI_symbol_name("_VBUS32_2")
   11577                      .dwattr $C$DW$1390, DW_AT_bit_offset(0x0c), DW_AT_bit_size(0x02)
   11578                      .dwattr $C$DW$1390, DW_AT_data_member_location[DW_OP_plus_uconst 0x0]
   11579                      .dwattr $C$DW$1390, DW_AT_accessibility(DW_ACCESS_public)
   11580              $C$DW$1391      .dwtag  DW_TAG_member
   11581                      .dwattr $C$DW$1391, DW_AT_type(*$C$DW$T$19)
   11582                      .dwattr $C$DW$1391, DW_AT_name("rsvd1")
   11583                      .dwattr $C$DW$1391, DW_AT_TI_symbol_name("_rsvd1")
   11584                      .dwattr $C$DW$1391, DW_AT_bit_offset(0x00), DW_AT_bit_size(0x0c)
   11585                      .dwattr $C$DW$1391, DW_AT_data_member_location[DW_OP_plus_uconst 0x0]
   11586                      .dwattr $C$DW$1391, DW_AT_accessibility(DW_ACCESS_public)
   11587              $C$DW$1392      .dwtag  DW_TAG_member
TMS320C2000 Assembler PC v6.1.3 Thu Jan 30 10:26:14 2014

Tools Copyright (c) 1996-2012 Texas Instruments Incorporated
C:\Users\a0272466\AppData\Local\Temp\0274010                         PAGE  217

   11588                      .dwattr $C$DW$1392, DW_AT_type(*$C$DW$T$19)
   11589                      .dwattr $C$DW$1392, DW_AT_name("rsvd2")
   11590                      .dwattr $C$DW$1392, DW_AT_TI_symbol_name("_rsvd2")
   11591                      .dwattr $C$DW$1392, DW_AT_bit_offset(0x00), DW_AT_bit_size(0x10)
   11592                      .dwattr $C$DW$1392, DW_AT_data_member_location[DW_OP_plus_uconst 0x1]
   11593                      .dwattr $C$DW$1392, DW_AT_accessibility(DW_ACCESS_public)
   11594                      .dwendtag $C$DW$T$155
   11595              
   11596              
   11597              $C$DW$T$156     .dwtag  DW_TAG_union_type
   11598                      .dwattr $C$DW$T$156, DW_AT_name("SECMSEL_REG")
   11599                      .dwattr $C$DW$T$156, DW_AT_byte_size(0x02)
   11600              $C$DW$1393      .dwtag  DW_TAG_member
   11601                      .dwattr $C$DW$1393, DW_AT_type(*$C$DW$T$21)
   11602                      .dwattr $C$DW$1393, DW_AT_name("all")
   11603                      .dwattr $C$DW$1393, DW_AT_TI_symbol_name("_all")
   11604                      .dwattr $C$DW$1393, DW_AT_data_member_location[DW_OP_plus_uconst 0x0]
   11605                      .dwattr $C$DW$1393, DW_AT_accessibility(DW_ACCESS_public)
   11606              $C$DW$1394      .dwtag  DW_TAG_member
   11607                      .dwattr $C$DW$1394, DW_AT_type(*$C$DW$T$155)
   11608                      .dwattr $C$DW$1394, DW_AT_name("bit")
   11609                      .dwattr $C$DW$1394, DW_AT_TI_symbol_name("_bit")
   11610                      .dwattr $C$DW$1394, DW_AT_data_member_location[DW_OP_plus_uconst 0x0]
   11611                      .dwattr $C$DW$1394, DW_AT_accessibility(DW_ACCESS_public)
   11612                      .dwendtag $C$DW$T$156
   11613              
   11614              
   11615              $C$DW$T$157     .dwtag  DW_TAG_structure_type
   11616                      .dwattr $C$DW$T$157, DW_AT_name("TMR2CLKCTL_BITS")
   11617                      .dwattr $C$DW$T$157, DW_AT_byte_size(0x02)
   11618              $C$DW$1395      .dwtag  DW_TAG_member
   11619                      .dwattr $C$DW$1395, DW_AT_type(*$C$DW$T$19)
   11620                      .dwattr $C$DW$1395, DW_AT_name("TMR2CLKSRCSEL")
   11621                      .dwattr $C$DW$1395, DW_AT_TI_symbol_name("_TMR2CLKSRCSEL")
   11622                      .dwattr $C$DW$1395, DW_AT_bit_offset(0x0d), DW_AT_bit_size(0x03)
   11623                      .dwattr $C$DW$1395, DW_AT_data_member_location[DW_OP_plus_uconst 0x0]
   11624                      .dwattr $C$DW$1395, DW_AT_accessibility(DW_ACCESS_public)
   11625              $C$DW$1396      .dwtag  DW_TAG_member
   11626                      .dwattr $C$DW$1396, DW_AT_type(*$C$DW$T$19)
   11627                      .dwattr $C$DW$1396, DW_AT_name("TMR2CLKPRESCALE")
   11628                      .dwattr $C$DW$1396, DW_AT_TI_symbol_name("_TMR2CLKPRESCALE")
   11629                      .dwattr $C$DW$1396, DW_AT_bit_offset(0x0a), DW_AT_bit_size(0x03)
   11630                      .dwattr $C$DW$1396, DW_AT_data_member_location[DW_OP_plus_uconst 0x0]
   11631                      .dwattr $C$DW$1396, DW_AT_accessibility(DW_ACCESS_public)
   11632              $C$DW$1397      .dwtag  DW_TAG_member
   11633                      .dwattr $C$DW$1397, DW_AT_type(*$C$DW$T$19)
   11634                      .dwattr $C$DW$1397, DW_AT_name("rsvd1")
   11635                      .dwattr $C$DW$1397, DW_AT_TI_symbol_name("_rsvd1")
   11636                      .dwattr $C$DW$1397, DW_AT_bit_offset(0x00), DW_AT_bit_size(0x0a)
   11637                      .dwattr $C$DW$1397, DW_AT_data_member_location[DW_OP_plus_uconst 0x0]
   11638                      .dwattr $C$DW$1397, DW_AT_accessibility(DW_ACCESS_public)
   11639              $C$DW$1398      .dwtag  DW_TAG_member
   11640                      .dwattr $C$DW$1398, DW_AT_type(*$C$DW$T$19)
   11641                      .dwattr $C$DW$1398, DW_AT_name("rsvd2")
   11642                      .dwattr $C$DW$1398, DW_AT_TI_symbol_name("_rsvd2")
TMS320C2000 Assembler PC v6.1.3 Thu Jan 30 10:26:14 2014

Tools Copyright (c) 1996-2012 Texas Instruments Incorporated
C:\Users\a0272466\AppData\Local\Temp\0274010                         PAGE  218

   11643                      .dwattr $C$DW$1398, DW_AT_bit_offset(0x00), DW_AT_bit_size(0x10)
   11644                      .dwattr $C$DW$1398, DW_AT_data_member_location[DW_OP_plus_uconst 0x1]
   11645                      .dwattr $C$DW$1398, DW_AT_accessibility(DW_ACCESS_public)
   11646                      .dwendtag $C$DW$T$157
   11647              
   11648              
   11649              $C$DW$T$158     .dwtag  DW_TAG_union_type
   11650                      .dwattr $C$DW$T$158, DW_AT_name("TMR2CLKCTL_REG")
   11651                      .dwattr $C$DW$T$158, DW_AT_byte_size(0x02)
   11652              $C$DW$1399      .dwtag  DW_TAG_member
   11653                      .dwattr $C$DW$1399, DW_AT_type(*$C$DW$T$21)
   11654                      .dwattr $C$DW$1399, DW_AT_name("all")
   11655                      .dwattr $C$DW$1399, DW_AT_TI_symbol_name("_all")
   11656                      .dwattr $C$DW$1399, DW_AT_data_member_location[DW_OP_plus_uconst 0x0]
   11657                      .dwattr $C$DW$1399, DW_AT_accessibility(DW_ACCESS_public)
   11658              $C$DW$1400      .dwtag  DW_TAG_member
   11659                      .dwattr $C$DW$1400, DW_AT_type(*$C$DW$T$157)
   11660                      .dwattr $C$DW$1400, DW_AT_name("bit")
   11661                      .dwattr $C$DW$1400, DW_AT_TI_symbol_name("_bit")
   11662                      .dwattr $C$DW$1400, DW_AT_data_member_location[DW_OP_plus_uconst 0x0]
   11663                      .dwattr $C$DW$1400, DW_AT_accessibility(DW_ACCESS_public)
   11664                      .dwendtag $C$DW$T$158
   11665              
   11666              
   11667              $C$DW$T$147     .dwtag  DW_TAG_subroutine_type
   11668                      .dwattr $C$DW$T$147, DW_AT_language(DW_LANG_C)
   11669              $C$DW$T$148     .dwtag  DW_TAG_pointer_type
   11670                      .dwattr $C$DW$T$148, DW_AT_type(*$C$DW$T$147)
   11671                      .dwattr $C$DW$T$148, DW_AT_address_class(0x16)
   11672              $C$DW$T$149     .dwtag  DW_TAG_typedef, DW_AT_name("PINT")
   11673                      .dwattr $C$DW$T$149, DW_AT_type(*$C$DW$T$148)
   11674                      .dwattr $C$DW$T$149, DW_AT_language(DW_LANG_C)
   11675              $C$DW$T$4       .dwtag  DW_TAG_base_type
   11676                      .dwattr $C$DW$T$4, DW_AT_encoding(DW_ATE_boolean)
   11677                      .dwattr $C$DW$T$4, DW_AT_name("bool")
   11678                      .dwattr $C$DW$T$4, DW_AT_byte_size(0x01)
   11679              $C$DW$T$5       .dwtag  DW_TAG_base_type
   11680                      .dwattr $C$DW$T$5, DW_AT_encoding(DW_ATE_signed_char)
   11681                      .dwattr $C$DW$T$5, DW_AT_name("signed char")
   11682                      .dwattr $C$DW$T$5, DW_AT_byte_size(0x01)
   11683              $C$DW$T$6       .dwtag  DW_TAG_base_type
   11684                      .dwattr $C$DW$T$6, DW_AT_encoding(DW_ATE_unsigned_char)
   11685                      .dwattr $C$DW$T$6, DW_AT_name("unsigned char")
   11686                      .dwattr $C$DW$T$6, DW_AT_byte_size(0x01)
   11687              $C$DW$T$7       .dwtag  DW_TAG_base_type
   11688                      .dwattr $C$DW$T$7, DW_AT_encoding(DW_ATE_signed_char)
   11689                      .dwattr $C$DW$T$7, DW_AT_name("wchar_t")
   11690                      .dwattr $C$DW$T$7, DW_AT_byte_size(0x01)
   11691              $C$DW$T$8       .dwtag  DW_TAG_base_type
   11692                      .dwattr $C$DW$T$8, DW_AT_encoding(DW_ATE_signed)
   11693                      .dwattr $C$DW$T$8, DW_AT_name("short")
   11694                      .dwattr $C$DW$T$8, DW_AT_byte_size(0x01)
   11695              $C$DW$T$9       .dwtag  DW_TAG_base_type
   11696                      .dwattr $C$DW$T$9, DW_AT_encoding(DW_ATE_unsigned)
   11697                      .dwattr $C$DW$T$9, DW_AT_name("unsigned short")
TMS320C2000 Assembler PC v6.1.3 Thu Jan 30 10:26:14 2014

Tools Copyright (c) 1996-2012 Texas Instruments Incorporated
C:\Users\a0272466\AppData\Local\Temp\0274010                         PAGE  219

   11698                      .dwattr $C$DW$T$9, DW_AT_byte_size(0x01)
   11699              $C$DW$T$10      .dwtag  DW_TAG_base_type
   11700                      .dwattr $C$DW$T$10, DW_AT_encoding(DW_ATE_signed)
   11701                      .dwattr $C$DW$T$10, DW_AT_name("int")
   11702                      .dwattr $C$DW$T$10, DW_AT_byte_size(0x01)
   11703              $C$DW$T$210     .dwtag  DW_TAG_typedef, DW_AT_name("int16")
   11704                      .dwattr $C$DW$T$210, DW_AT_type(*$C$DW$T$10)
   11705                      .dwattr $C$DW$T$210, DW_AT_language(DW_LANG_C)
   11706              $C$DW$T$11      .dwtag  DW_TAG_base_type
   11707                      .dwattr $C$DW$T$11, DW_AT_encoding(DW_ATE_unsigned)
   11708                      .dwattr $C$DW$T$11, DW_AT_name("unsigned int")
   11709                      .dwattr $C$DW$T$11, DW_AT_byte_size(0x01)
   11710              $C$DW$T$19      .dwtag  DW_TAG_typedef, DW_AT_name("Uint16")
   11711                      .dwattr $C$DW$T$19, DW_AT_type(*$C$DW$T$11)
   11712                      .dwattr $C$DW$T$19, DW_AT_language(DW_LANG_C)
   11713              $C$DW$1401      .dwtag  DW_TAG_TI_far_type
   11714                      .dwattr $C$DW$1401, DW_AT_type(*$C$DW$T$19)
   11715              $C$DW$T$211     .dwtag  DW_TAG_volatile_type
   11716                      .dwattr $C$DW$T$211, DW_AT_type(*$C$DW$1401)
   11717              
   11718              $C$DW$T$25      .dwtag  DW_TAG_array_type
   11719                      .dwattr $C$DW$T$25, DW_AT_type(*$C$DW$T$19)
   11720                      .dwattr $C$DW$T$25, DW_AT_language(DW_LANG_C)
   11721                      .dwattr $C$DW$T$25, DW_AT_byte_size(0x04)
   11722              $C$DW$1402      .dwtag  DW_TAG_subrange_type
   11723                      .dwattr $C$DW$1402, DW_AT_upper_bound(0x03)
   11724                      .dwendtag $C$DW$T$25
   11725              
   11726              
   11727              $C$DW$T$26      .dwtag  DW_TAG_array_type
   11728                      .dwattr $C$DW$T$26, DW_AT_type(*$C$DW$T$19)
   11729                      .dwattr $C$DW$T$26, DW_AT_language(DW_LANG_C)
   11730                      .dwattr $C$DW$T$26, DW_AT_byte_size(0x16)
   11731              $C$DW$1403      .dwtag  DW_TAG_subrange_type
   11732                      .dwattr $C$DW$1403, DW_AT_upper_bound(0x15)
   11733                      .dwendtag $C$DW$T$26
   11734              
   11735              
   11736              $C$DW$T$27      .dwtag  DW_TAG_array_type
   11737                      .dwattr $C$DW$T$27, DW_AT_type(*$C$DW$T$19)
   11738                      .dwattr $C$DW$T$27, DW_AT_language(DW_LANG_C)
   11739                      .dwattr $C$DW$T$27, DW_AT_byte_size(0x02)
   11740              $C$DW$1404      .dwtag  DW_TAG_subrange_type
   11741                      .dwattr $C$DW$1404, DW_AT_upper_bound(0x01)
   11742                      .dwendtag $C$DW$T$27
   11743              
   11744              
   11745              $C$DW$T$28      .dwtag  DW_TAG_array_type
   11746                      .dwattr $C$DW$T$28, DW_AT_type(*$C$DW$T$19)
   11747                      .dwattr $C$DW$T$28, DW_AT_language(DW_LANG_C)
   11748                      .dwattr $C$DW$T$28, DW_AT_byte_size(0x2e)
   11749              $C$DW$1405      .dwtag  DW_TAG_subrange_type
   11750                      .dwattr $C$DW$1405, DW_AT_upper_bound(0x2d)
   11751                      .dwendtag $C$DW$T$28
   11752              
TMS320C2000 Assembler PC v6.1.3 Thu Jan 30 10:26:14 2014

Tools Copyright (c) 1996-2012 Texas Instruments Incorporated
C:\Users\a0272466\AppData\Local\Temp\0274010                         PAGE  220

   11753              $C$DW$T$12      .dwtag  DW_TAG_base_type
   11754                      .dwattr $C$DW$T$12, DW_AT_encoding(DW_ATE_signed)
   11755                      .dwattr $C$DW$T$12, DW_AT_name("long")
   11756                      .dwattr $C$DW$T$12, DW_AT_byte_size(0x02)
   11757              $C$DW$T$13      .dwtag  DW_TAG_base_type
   11758                      .dwattr $C$DW$T$13, DW_AT_encoding(DW_ATE_unsigned)
   11759                      .dwattr $C$DW$T$13, DW_AT_name("unsigned long")
   11760                      .dwattr $C$DW$T$13, DW_AT_byte_size(0x02)
   11761              $C$DW$T$21      .dwtag  DW_TAG_typedef, DW_AT_name("Uint32")
   11762                      .dwattr $C$DW$T$21, DW_AT_type(*$C$DW$T$13)
   11763                      .dwattr $C$DW$T$21, DW_AT_language(DW_LANG_C)
   11764              $C$DW$T$205     .dwtag  DW_TAG_pointer_type
   11765                      .dwattr $C$DW$T$205, DW_AT_type(*$C$DW$T$21)
   11766                      .dwattr $C$DW$T$205, DW_AT_address_class(0x16)
   11767              $C$DW$T$161     .dwtag  DW_TAG_typedef, DW_AT_name("uint32_t")
   11768                      .dwattr $C$DW$T$161, DW_AT_type(*$C$DW$T$13)
   11769                      .dwattr $C$DW$T$161, DW_AT_language(DW_LANG_C)
   11770              $C$DW$T$14      .dwtag  DW_TAG_base_type
   11771                      .dwattr $C$DW$T$14, DW_AT_encoding(DW_ATE_signed)
   11772                      .dwattr $C$DW$T$14, DW_AT_name("long long")
   11773                      .dwattr $C$DW$T$14, DW_AT_byte_size(0x04)
   11774              $C$DW$T$15      .dwtag  DW_TAG_base_type
   11775                      .dwattr $C$DW$T$15, DW_AT_encoding(DW_ATE_unsigned)
   11776                      .dwattr $C$DW$T$15, DW_AT_name("unsigned long long")
   11777                      .dwattr $C$DW$T$15, DW_AT_byte_size(0x04)
   11778              $C$DW$T$16      .dwtag  DW_TAG_base_type
   11779                      .dwattr $C$DW$T$16, DW_AT_encoding(DW_ATE_float)
   11780                      .dwattr $C$DW$T$16, DW_AT_name("float")
   11781                      .dwattr $C$DW$T$16, DW_AT_byte_size(0x02)
   11782              $C$DW$T$17      .dwtag  DW_TAG_base_type
   11783                      .dwattr $C$DW$T$17, DW_AT_encoding(DW_ATE_float)
   11784                      .dwattr $C$DW$T$17, DW_AT_name("double")
   11785                      .dwattr $C$DW$T$17, DW_AT_byte_size(0x02)
   11786              $C$DW$T$18      .dwtag  DW_TAG_base_type
   11787                      .dwattr $C$DW$T$18, DW_AT_encoding(DW_ATE_float)
   11788                      .dwattr $C$DW$T$18, DW_AT_name("long double")
   11789                      .dwattr $C$DW$T$18, DW_AT_byte_size(0x04)
   11790              $C$DW$T$215     .dwtag  DW_TAG_base_type
   11791                      .dwattr $C$DW$T$215, DW_AT_encoding(DW_ATE_signed_char)
   11792                      .dwattr $C$DW$T$215, DW_AT_name("signed char")
   11793                      .dwattr $C$DW$T$215, DW_AT_byte_size(0x01)
   11794              $C$DW$T$216     .dwtag  DW_TAG_typedef, DW_AT_name("status_t")
   11795                      .dwattr $C$DW$T$216, DW_AT_type(*$C$DW$T$215)
   11796                      .dwattr $C$DW$T$216, DW_AT_language(DW_LANG_C)
   11797              
   11798              $C$DW$T$162     .dwtag  DW_TAG_structure_type
   11799                      .dwattr $C$DW$T$162, DW_AT_name("current_c2c1_ipc_status")
   11800                      .dwattr $C$DW$T$162, DW_AT_byte_size(0x04)
   11801              $C$DW$1406      .dwtag  DW_TAG_member
   11802                      .dwattr $C$DW$1406, DW_AT_type(*$C$DW$T$160)
   11803                      .dwattr $C$DW$1406, DW_AT_name("status")
   11804                      .dwattr $C$DW$1406, DW_AT_TI_symbol_name("_status")
   11805                      .dwattr $C$DW$1406, DW_AT_data_member_location[DW_OP_plus_uconst 0x0]
   11806                      .dwattr $C$DW$1406, DW_AT_accessibility(DW_ACCESS_public)
   11807              $C$DW$1407      .dwtag  DW_TAG_member
TMS320C2000 Assembler PC v6.1.3 Thu Jan 30 10:26:14 2014

Tools Copyright (c) 1996-2012 Texas Instruments Incorporated
C:\Users\a0272466\AppData\Local\Temp\0274010                         PAGE  221

   11808                      .dwattr $C$DW$1407, DW_AT_type(*$C$DW$T$161)
   11809                      .dwattr $C$DW$1407, DW_AT_name("command")
   11810                      .dwattr $C$DW$1407, DW_AT_TI_symbol_name("_command")
   11811                      .dwattr $C$DW$1407, DW_AT_data_member_location[DW_OP_plus_uconst 0x2]
   11812                      .dwattr $C$DW$1407, DW_AT_accessibility(DW_ACCESS_public)
   11813                      .dwendtag $C$DW$T$162
   11814              
   11815              $C$DW$T$219     .dwtag  DW_TAG_typedef, DW_AT_name("cur_c2c1_ipc_cmd_sts_t")
   11816                      .dwattr $C$DW$T$219, DW_AT_type(*$C$DW$T$162)
   11817                      .dwattr $C$DW$T$219, DW_AT_language(DW_LANG_C)
   11818                      .dwattr $C$DW$CU, DW_AT_language(DW_LANG_C)
   11819              
   11820              ;***************************************************************
   11821              ;* DWARF CIE ENTRIES                                           *
   11822              ;***************************************************************
   11823              
   11824              $C$DW$CIE       .dwcie 78
   11825                      .dwcfi  cfa_register, 20
   11826                      .dwcfi  cfa_offset, 0
   11827                      .dwcfi  undefined, 0
   11828                      .dwcfi  undefined, 1
   11829                      .dwcfi  undefined, 2
   11830                      .dwcfi  undefined, 3
   11831                      .dwcfi  undefined, 22
   11832                      .dwcfi  undefined, 37
   11833                      .dwcfi  undefined, 36
   11834                      .dwcfi  undefined, 23
   11835                      .dwcfi  undefined, 30
   11836                      .dwcfi  undefined, 31
   11837                      .dwcfi  undefined, 32
   11838                      .dwcfi  undefined, 38
   11839                      .dwcfi  undefined, 75
   11840                      .dwcfi  undefined, 24
   11841                      .dwcfi  undefined, 33
   11842                      .dwcfi  undefined, 35
   11843                      .dwcfi  undefined, 34
   11844                      .dwcfi  undefined, 76
   11845                      .dwcfi  undefined, 21
   11846                      .dwcfi  undefined, 20
   11847                      .dwcfi  same_value, 28
   11848                      .dwcfi  undefined, 29
   11849                      .dwcfi  undefined, 25
   11850                      .dwcfi  undefined, 77
   11851                      .dwcfi  undefined, 4
   11852                      .dwcfi  same_value, 6
   11853                      .dwcfi  same_value, 8
   11854                      .dwcfi  same_value, 10
   11855                      .dwcfi  undefined, 12
   11856                      .dwcfi  undefined, 14
   11857                      .dwcfi  undefined, 16
   11858                      .dwcfi  undefined, 17
   11859                      .dwcfi  undefined, 18
   11860                      .dwcfi  undefined, 19
   11861                      .dwcfi  undefined, 5
   11862                      .dwcfi  same_value, 7
TMS320C2000 Assembler PC v6.1.3 Thu Jan 30 10:26:14 2014

Tools Copyright (c) 1996-2012 Texas Instruments Incorporated
C:\Users\a0272466\AppData\Local\Temp\0274010                         PAGE  222

   11863                      .dwcfi  same_value, 9
   11864                      .dwcfi  same_value, 11
   11865                      .dwcfi  undefined, 13
   11866                      .dwcfi  undefined, 15
   11867                      .dwcfi  undefined, 43
   11868                      .dwcfi  undefined, 44
   11869                      .dwcfi  undefined, 47
   11870                      .dwcfi  undefined, 48
   11871                      .dwcfi  undefined, 51
   11872                      .dwcfi  undefined, 52
   11873                      .dwcfi  undefined, 55
   11874                      .dwcfi  undefined, 56
   11875                      .dwcfi  same_value, 59
   11876                      .dwcfi  same_value, 60
   11877                      .dwcfi  same_value, 63
   11878                      .dwcfi  same_value, 64
   11879                      .dwcfi  same_value, 67
   11880                      .dwcfi  same_value, 68
   11881                      .dwcfi  same_value, 71
   11882                      .dwcfi  same_value, 72
   11883                      .dwcfi  undefined, 73
   11884                      .dwcfi  undefined, 74
   11885                      .dwcfi  undefined, 39
   11886                      .dwcfi  undefined, 40
   11887                      .dwcfi  undefined, 27
   11888                      .dwcfi  undefined, 78
   11889                      .dwendentry
   11890              
   11891              ;***************************************************************
   11892              ;* DWARF REGISTER MAP                                          *
   11893              ;***************************************************************
   11894              
   11895              $C$DW$1408      .dwtag  DW_TAG_TI_assign_register, DW_AT_name("AL")
   11896                      .dwattr $C$DW$1408, DW_AT_location[DW_OP_reg0]
   11897              $C$DW$1409      .dwtag  DW_TAG_TI_assign_register, DW_AT_name("AH")
   11898                      .dwattr $C$DW$1409, DW_AT_location[DW_OP_reg1]
   11899              $C$DW$1410      .dwtag  DW_TAG_TI_assign_register, DW_AT_name("PL")
   11900                      .dwattr $C$DW$1410, DW_AT_location[DW_OP_reg2]
   11901              $C$DW$1411      .dwtag  DW_TAG_TI_assign_register, DW_AT_name("PH")
   11902                      .dwattr $C$DW$1411, DW_AT_location[DW_OP_reg3]
   11903              $C$DW$1412      .dwtag  DW_TAG_TI_assign_register, DW_AT_name("T")
   11904                      .dwattr $C$DW$1412, DW_AT_location[DW_OP_reg22]
   11905              $C$DW$1413      .dwtag  DW_TAG_TI_assign_register, DW_AT_name("IER")
   11906                      .dwattr $C$DW$1413, DW_AT_location[DW_OP_regx 0x25]
   11907              $C$DW$1414      .dwtag  DW_TAG_TI_assign_register, DW_AT_name("IFR")
   11908                      .dwattr $C$DW$1414, DW_AT_location[DW_OP_regx 0x24]
   11909              $C$DW$1415      .dwtag  DW_TAG_TI_assign_register, DW_AT_name("ST0")
   11910                      .dwattr $C$DW$1415, DW_AT_location[DW_OP_reg23]
   11911              $C$DW$1416      .dwtag  DW_TAG_TI_assign_register, DW_AT_name("SXM")
   11912                      .dwattr $C$DW$1416, DW_AT_location[DW_OP_reg30]
   11913              $C$DW$1417      .dwtag  DW_TAG_TI_assign_register, DW_AT_name("PM")
   11914                      .dwattr $C$DW$1417, DW_AT_location[DW_OP_reg31]
   11915              $C$DW$1418      .dwtag  DW_TAG_TI_assign_register, DW_AT_name("OVM")
   11916                      .dwattr $C$DW$1418, DW_AT_location[DW_OP_regx 0x20]
   11917              $C$DW$1419      .dwtag  DW_TAG_TI_assign_register, DW_AT_name("V")
TMS320C2000 Assembler PC v6.1.3 Thu Jan 30 10:26:14 2014

Tools Copyright (c) 1996-2012 Texas Instruments Incorporated
C:\Users\a0272466\AppData\Local\Temp\0274010                         PAGE  223

   11918                      .dwattr $C$DW$1419, DW_AT_location[DW_OP_regx 0x26]
   11919              $C$DW$1420      .dwtag  DW_TAG_TI_assign_register, DW_AT_name("ST1")
   11920                      .dwattr $C$DW$1420, DW_AT_location[DW_OP_reg24]
   11921              $C$DW$1421      .dwtag  DW_TAG_TI_assign_register, DW_AT_name("PAGE0")
   11922                      .dwattr $C$DW$1421, DW_AT_location[DW_OP_regx 0x21]
   11923              $C$DW$1422      .dwtag  DW_TAG_TI_assign_register, DW_AT_name("INTM")
   11924                      .dwattr $C$DW$1422, DW_AT_location[DW_OP_regx 0x23]
   11925              $C$DW$1423      .dwtag  DW_TAG_TI_assign_register, DW_AT_name("AMODE")
   11926                      .dwattr $C$DW$1423, DW_AT_location[DW_OP_regx 0x22]
   11927              $C$DW$1424      .dwtag  DW_TAG_TI_assign_register, DW_AT_name("PSEUDOH")
   11928                      .dwattr $C$DW$1424, DW_AT_location[DW_OP_regx 0x4c]
   11929              $C$DW$1425      .dwtag  DW_TAG_TI_assign_register, DW_AT_name("XT")
   11930                      .dwattr $C$DW$1425, DW_AT_location[DW_OP_reg21]
   11931              $C$DW$1426      .dwtag  DW_TAG_TI_assign_register, DW_AT_name("SP")
   11932                      .dwattr $C$DW$1426, DW_AT_location[DW_OP_reg20]
   11933              $C$DW$1427      .dwtag  DW_TAG_TI_assign_register, DW_AT_name("FP")
   11934                      .dwattr $C$DW$1427, DW_AT_location[DW_OP_reg28]
   11935              $C$DW$1428      .dwtag  DW_TAG_TI_assign_register, DW_AT_name("DP")
   11936                      .dwattr $C$DW$1428, DW_AT_location[DW_OP_reg29]
   11937              $C$DW$1429      .dwtag  DW_TAG_TI_assign_register, DW_AT_name("PC")
   11938                      .dwattr $C$DW$1429, DW_AT_location[DW_OP_reg25]
   11939              $C$DW$1430      .dwtag  DW_TAG_TI_assign_register, DW_AT_name("VOL")
   11940                      .dwattr $C$DW$1430, DW_AT_location[DW_OP_regx 0x4d]
   11941              $C$DW$1431      .dwtag  DW_TAG_TI_assign_register, DW_AT_name("AR0")
   11942                      .dwattr $C$DW$1431, DW_AT_location[DW_OP_reg4]
   11943              $C$DW$1432      .dwtag  DW_TAG_TI_assign_register, DW_AT_name("AR1")
   11944                      .dwattr $C$DW$1432, DW_AT_location[DW_OP_reg6]
   11945              $C$DW$1433      .dwtag  DW_TAG_TI_assign_register, DW_AT_name("AR2")
   11946                      .dwattr $C$DW$1433, DW_AT_location[DW_OP_reg8]
   11947              $C$DW$1434      .dwtag  DW_TAG_TI_assign_register, DW_AT_name("AR3")
   11948                      .dwattr $C$DW$1434, DW_AT_location[DW_OP_reg10]
   11949              $C$DW$1435      .dwtag  DW_TAG_TI_assign_register, DW_AT_name("AR4")
   11950                      .dwattr $C$DW$1435, DW_AT_location[DW_OP_reg12]
   11951              $C$DW$1436      .dwtag  DW_TAG_TI_assign_register, DW_AT_name("AR5")
   11952                      .dwattr $C$DW$1436, DW_AT_location[DW_OP_reg14]
   11953              $C$DW$1437      .dwtag  DW_TAG_TI_assign_register, DW_AT_name("AR6")
   11954                      .dwattr $C$DW$1437, DW_AT_location[DW_OP_reg16]
   11955              $C$DW$1438      .dwtag  DW_TAG_TI_assign_register, DW_AT_name("XAR6")
   11956                      .dwattr $C$DW$1438, DW_AT_location[DW_OP_reg17]
   11957              $C$DW$1439      .dwtag  DW_TAG_TI_assign_register, DW_AT_name("AR7")
   11958                      .dwattr $C$DW$1439, DW_AT_location[DW_OP_reg18]
   11959              $C$DW$1440      .dwtag  DW_TAG_TI_assign_register, DW_AT_name("XAR7")
   11960                      .dwattr $C$DW$1440, DW_AT_location[DW_OP_reg19]
   11961              $C$DW$1441      .dwtag  DW_TAG_TI_assign_register, DW_AT_name("XAR0")
   11962                      .dwattr $C$DW$1441, DW_AT_location[DW_OP_reg5]
   11963              $C$DW$1442      .dwtag  DW_TAG_TI_assign_register, DW_AT_name("XAR1")
   11964                      .dwattr $C$DW$1442, DW_AT_location[DW_OP_reg7]
   11965              $C$DW$1443      .dwtag  DW_TAG_TI_assign_register, DW_AT_name("XAR2")
   11966                      .dwattr $C$DW$1443, DW_AT_location[DW_OP_reg9]
   11967              $C$DW$1444      .dwtag  DW_TAG_TI_assign_register, DW_AT_name("XAR3")
   11968                      .dwattr $C$DW$1444, DW_AT_location[DW_OP_reg11]
   11969              $C$DW$1445      .dwtag  DW_TAG_TI_assign_register, DW_AT_name("XAR4")
   11970                      .dwattr $C$DW$1445, DW_AT_location[DW_OP_reg13]
   11971              $C$DW$1446      .dwtag  DW_TAG_TI_assign_register, DW_AT_name("XAR5")
   11972                      .dwattr $C$DW$1446, DW_AT_location[DW_OP_reg15]
TMS320C2000 Assembler PC v6.1.3 Thu Jan 30 10:26:14 2014

Tools Copyright (c) 1996-2012 Texas Instruments Incorporated
C:\Users\a0272466\AppData\Local\Temp\0274010                         PAGE  224

   11973              $C$DW$1447      .dwtag  DW_TAG_TI_assign_register, DW_AT_name("R0HL")
   11974                      .dwattr $C$DW$1447, DW_AT_location[DW_OP_regx 0x2b]
   11975              $C$DW$1448      .dwtag  DW_TAG_TI_assign_register, DW_AT_name("R0H")
   11976                      .dwattr $C$DW$1448, DW_AT_location[DW_OP_regx 0x2c]
   11977              $C$DW$1449      .dwtag  DW_TAG_TI_assign_register, DW_AT_name("R1HL")
   11978                      .dwattr $C$DW$1449, DW_AT_location[DW_OP_regx 0x2f]
   11979              $C$DW$1450      .dwtag  DW_TAG_TI_assign_register, DW_AT_name("R1H")
   11980                      .dwattr $C$DW$1450, DW_AT_location[DW_OP_regx 0x30]
   11981              $C$DW$1451      .dwtag  DW_TAG_TI_assign_register, DW_AT_name("R2HL")
   11982                      .dwattr $C$DW$1451, DW_AT_location[DW_OP_regx 0x33]
   11983              $C$DW$1452      .dwtag  DW_TAG_TI_assign_register, DW_AT_name("R2H")
   11984                      .dwattr $C$DW$1452, DW_AT_location[DW_OP_regx 0x34]
   11985              $C$DW$1453      .dwtag  DW_TAG_TI_assign_register, DW_AT_name("R3HL")
   11986                      .dwattr $C$DW$1453, DW_AT_location[DW_OP_regx 0x37]
   11987              $C$DW$1454      .dwtag  DW_TAG_TI_assign_register, DW_AT_name("R3H")
   11988                      .dwattr $C$DW$1454, DW_AT_location[DW_OP_regx 0x38]
   11989              $C$DW$1455      .dwtag  DW_TAG_TI_assign_register, DW_AT_name("R4HL")
   11990                      .dwattr $C$DW$1455, DW_AT_location[DW_OP_regx 0x3b]
   11991              $C$DW$1456      .dwtag  DW_TAG_TI_assign_register, DW_AT_name("R4H")
   11992                      .dwattr $C$DW$1456, DW_AT_location[DW_OP_regx 0x3c]
   11993              $C$DW$1457      .dwtag  DW_TAG_TI_assign_register, DW_AT_name("R5HL")
   11994                      .dwattr $C$DW$1457, DW_AT_location[DW_OP_regx 0x3f]
   11995              $C$DW$1458      .dwtag  DW_TAG_TI_assign_register, DW_AT_name("R5H")
   11996                      .dwattr $C$DW$1458, DW_AT_location[DW_OP_regx 0x40]
   11997              $C$DW$1459      .dwtag  DW_TAG_TI_assign_register, DW_AT_name("R6HL")
   11998                      .dwattr $C$DW$1459, DW_AT_location[DW_OP_regx 0x43]
   11999              $C$DW$1460      .dwtag  DW_TAG_TI_assign_register, DW_AT_name("R6H")
   12000                      .dwattr $C$DW$1460, DW_AT_location[DW_OP_regx 0x44]
   12001              $C$DW$1461      .dwtag  DW_TAG_TI_assign_register, DW_AT_name("R7HL")
   12002                      .dwattr $C$DW$1461, DW_AT_location[DW_OP_regx 0x47]
   12003              $C$DW$1462      .dwtag  DW_TAG_TI_assign_register, DW_AT_name("R7H")
   12004                      .dwattr $C$DW$1462, DW_AT_location[DW_OP_regx 0x48]
   12005              $C$DW$1463      .dwtag  DW_TAG_TI_assign_register, DW_AT_name("RBL")
   12006                      .dwattr $C$DW$1463, DW_AT_location[DW_OP_regx 0x49]
   12007              $C$DW$1464      .dwtag  DW_TAG_TI_assign_register, DW_AT_name("RB")
   12008                      .dwattr $C$DW$1464, DW_AT_location[DW_OP_regx 0x4a]
   12009              $C$DW$1465      .dwtag  DW_TAG_TI_assign_register, DW_AT_name("STFL")
   12010                      .dwattr $C$DW$1465, DW_AT_location[DW_OP_regx 0x27]
   12011              $C$DW$1466      .dwtag  DW_TAG_TI_assign_register, DW_AT_name("STF")
   12012                      .dwattr $C$DW$1466, DW_AT_location[DW_OP_regx 0x28]
   12013              $C$DW$1467      .dwtag  DW_TAG_TI_assign_register, DW_AT_name("FPUHAZ")
   12014                      .dwattr $C$DW$1467, DW_AT_location[DW_OP_reg27]
   12015              $C$DW$1468      .dwtag  DW_TAG_TI_assign_register, DW_AT_name("CIE_RETA")
   12016                      .dwattr $C$DW$1468, DW_AT_location[DW_OP_regx 0x4e]
   12017                      .dwendtag $C$DW$CU
   12018              

No Assembly Errors, No Assembly Warnings
