TMS320C2000 Assembler PC v6.1.3 Thu Jan 30 10:26:14 2014

Tools Copyright (c) 1996-2012 Texas Instruments Incorporated
C:\Users\a0272466\AppData\Local\Temp\0274010                         PAGE    1

       1              ;***************************************************************
       2              ;* TMS320C2000 C/C++ Codegen                         PC v6.1.3 *
       3              ;* Date/Time created: Thu Jan 30 10:26:12 2014                 *
       4              ;***************************************************************
       5                      .compiler_opts --float_support=fpu32 --hll_source=on --mem_model:code=flat --mem_model:data=large --o
       6        0002  FP      .set    XAR2
       7              
       8              $C$DW$CU        .dwtag  DW_TAG_compile_unit
       9                      .dwattr $C$DW$CU, DW_AT_name("C:/work/grepos/bootrom/Boot_ROM/F2837x_bootROM-REVB/F2837x_bootROM_dev/
      10                      .dwattr $C$DW$CU, DW_AT_producer("TMS320C2000 C/C++ Codegen PC v6.1.3 Copyright (c) 1996-2012 Texas I
      11                      .dwattr $C$DW$CU, DW_AT_TI_version(0x01)
      12                      .dwattr $C$DW$CU, DW_AT_comp_dir("C:\work\grepos\bootrom\Boot_ROM\F2837x_bootROM-REVB\F2837x_bootROM_
      13              
      14              $C$DW$1 .dwtag  DW_TAG_subprogram, DW_AT_name("load_itrap_address")
      15                      .dwattr $C$DW$1, DW_AT_TI_symbol_name("_load_itrap_address")
      16                      .dwattr $C$DW$1, DW_AT_declaration
      17                      .dwattr $C$DW$1, DW_AT_external
      18              $C$DW$2 .dwtag  DW_TAG_formal_parameter
      19                      .dwattr $C$DW$2, DW_AT_type(*$C$DW$T$205)
      20                      .dwendtag $C$DW$1
      21              
      22              
      23              $C$DW$3 .dwtag  DW_TAG_subprogram, DW_AT_name("c1brom_c2c1_ipc_clear_bits_32")
      24                      .dwattr $C$DW$3, DW_AT_TI_symbol_name("_c1brom_c2c1_ipc_clear_bits_32")
      25                      .dwattr $C$DW$3, DW_AT_type(*$C$DW$T$160)
      26                      .dwattr $C$DW$3, DW_AT_declaration
      27                      .dwattr $C$DW$3, DW_AT_external
      28              
      29              $C$DW$4 .dwtag  DW_TAG_subprogram, DW_AT_name("c1brom_c2c1_ipc_clear_bits_16")
      30                      .dwattr $C$DW$4, DW_AT_TI_symbol_name("_c1brom_c2c1_ipc_clear_bits_16")
      31                      .dwattr $C$DW$4, DW_AT_type(*$C$DW$T$160)
      32                      .dwattr $C$DW$4, DW_AT_declaration
      33                      .dwattr $C$DW$4, DW_AT_external
      34              
      35              $C$DW$5 .dwtag  DW_TAG_subprogram, DW_AT_name("c1brom_c2c1_ipc_write_data_32")
      36                      .dwattr $C$DW$5, DW_AT_TI_symbol_name("_c1brom_c2c1_ipc_write_data_32")
      37                      .dwattr $C$DW$5, DW_AT_type(*$C$DW$T$160)
      38                      .dwattr $C$DW$5, DW_AT_declaration
      39                      .dwattr $C$DW$5, DW_AT_external
      40              
      41              $C$DW$6 .dwtag  DW_TAG_subprogram, DW_AT_name("c1brom_c2c1_ipc_write_data_16")
      42                      .dwattr $C$DW$6, DW_AT_TI_symbol_name("_c1brom_c2c1_ipc_write_data_16")
      43                      .dwattr $C$DW$6, DW_AT_type(*$C$DW$T$160)
      44                      .dwattr $C$DW$6, DW_AT_declaration
      45                      .dwattr $C$DW$6, DW_AT_external
      46              
      47              $C$DW$7 .dwtag  DW_TAG_subprogram, DW_AT_name("sysctl_wdog_enable")
      48                      .dwattr $C$DW$7, DW_AT_TI_symbol_name("_sysctl_wdog_enable")
      49                      .dwattr $C$DW$7, DW_AT_type(*$C$DW$T$216)
      50                      .dwattr $C$DW$7, DW_AT_declaration
      51                      .dwattr $C$DW$7, DW_AT_external
      52                      .global _c1brom_nmi_status
      53 00000000       _c1brom_nmi_status:     .usect  ".ebss",1,1,0
      54              $C$DW$8 .dwtag  DW_TAG_variable, DW_AT_name("c1brom_nmi_status")
      55                      .dwattr $C$DW$8, DW_AT_TI_symbol_name("_c1brom_nmi_status")
TMS320C2000 Assembler PC v6.1.3 Thu Jan 30 10:26:14 2014

Tools Copyright (c) 1996-2012 Texas Instruments Incorporated
C:\Users\a0272466\AppData\Local\Temp\0274010                         PAGE    2

      56                      .dwattr $C$DW$8, DW_AT_location[DW_OP_addr _c1brom_nmi_status]
      57                      .dwattr $C$DW$8, DW_AT_type(*$C$DW$T$211)
      58                      .dwattr $C$DW$8, DW_AT_external
      59              
      60              $C$DW$9 .dwtag  DW_TAG_subprogram, DW_AT_name("c1brom_c2c1_ipc_set_bits_32")
      61                      .dwattr $C$DW$9, DW_AT_TI_symbol_name("_c1brom_c2c1_ipc_set_bits_32")
      62                      .dwattr $C$DW$9, DW_AT_type(*$C$DW$T$160)
      63                      .dwattr $C$DW$9, DW_AT_declaration
      64                      .dwattr $C$DW$9, DW_AT_external
      65              
      66              $C$DW$10        .dwtag  DW_TAG_subprogram, DW_AT_name("c1brom_c2c1_ipc_set_bits_16")
      67                      .dwattr $C$DW$10, DW_AT_TI_symbol_name("_c1brom_c2c1_ipc_set_bits_16")
      68                      .dwattr $C$DW$10, DW_AT_type(*$C$DW$T$160)
      69                      .dwattr $C$DW$10, DW_AT_declaration
      70                      .dwattr $C$DW$10, DW_AT_external
      71              
      72              $C$DW$11        .dwtag  DW_TAG_subprogram, DW_AT_name("c1brom_c2c1_ipc_read_data_16")
      73                      .dwattr $C$DW$11, DW_AT_TI_symbol_name("_c1brom_c2c1_ipc_read_data_16")
      74                      .dwattr $C$DW$11, DW_AT_type(*$C$DW$T$160)
      75                      .dwattr $C$DW$11, DW_AT_declaration
      76                      .dwattr $C$DW$11, DW_AT_external
      77              
      78              $C$DW$12        .dwtag  DW_TAG_subprogram, DW_AT_name("c1brom_c2c1_ipc_clear_bits_protected_32")
      79                      .dwattr $C$DW$12, DW_AT_TI_symbol_name("_c1brom_c2c1_ipc_clear_bits_protected_32")
      80                      .dwattr $C$DW$12, DW_AT_type(*$C$DW$T$160)
      81                      .dwattr $C$DW$12, DW_AT_declaration
      82                      .dwattr $C$DW$12, DW_AT_external
      83              
      84              $C$DW$13        .dwtag  DW_TAG_subprogram, DW_AT_name("c1brom_c2c1_ipc_write_data_protected_16")
      85                      .dwattr $C$DW$13, DW_AT_TI_symbol_name("_c1brom_c2c1_ipc_write_data_protected_16")
      86                      .dwattr $C$DW$13, DW_AT_type(*$C$DW$T$160)
      87                      .dwattr $C$DW$13, DW_AT_declaration
      88                      .dwattr $C$DW$13, DW_AT_external
      89              
      90              $C$DW$14        .dwtag  DW_TAG_subprogram, DW_AT_name("c1brom_c2c1_ipc_set_bits_protected_32")
      91                      .dwattr $C$DW$14, DW_AT_TI_symbol_name("_c1brom_c2c1_ipc_set_bits_protected_32")
      92                      .dwattr $C$DW$14, DW_AT_type(*$C$DW$T$160)
      93                      .dwattr $C$DW$14, DW_AT_declaration
      94                      .dwattr $C$DW$14, DW_AT_external
      95              
      96              $C$DW$15        .dwtag  DW_TAG_subprogram, DW_AT_name("c1brom_c2c1_ipc_clear_bits_protected_16")
      97                      .dwattr $C$DW$15, DW_AT_TI_symbol_name("_c1brom_c2c1_ipc_clear_bits_protected_16")
      98                      .dwattr $C$DW$15, DW_AT_type(*$C$DW$T$160)
      99                      .dwattr $C$DW$15, DW_AT_declaration
     100                      .dwattr $C$DW$15, DW_AT_external
     101              
     102              $C$DW$16        .dwtag  DW_TAG_subprogram, DW_AT_name("c1brom_c2c1_ipc_read_data_protected_32")
     103                      .dwattr $C$DW$16, DW_AT_TI_symbol_name("_c1brom_c2c1_ipc_read_data_protected_32")
     104                      .dwattr $C$DW$16, DW_AT_type(*$C$DW$T$160)
     105                      .dwattr $C$DW$16, DW_AT_declaration
     106                      .dwattr $C$DW$16, DW_AT_external
     107              
     108              $C$DW$17        .dwtag  DW_TAG_subprogram, DW_AT_name("c1brom_c2c1_ipc_read_data_32")
     109                      .dwattr $C$DW$17, DW_AT_TI_symbol_name("_c1brom_c2c1_ipc_read_data_32")
     110                      .dwattr $C$DW$17, DW_AT_type(*$C$DW$T$160)
TMS320C2000 Assembler PC v6.1.3 Thu Jan 30 10:26:14 2014

Tools Copyright (c) 1996-2012 Texas Instruments Incorporated
C:\Users\a0272466\AppData\Local\Temp\0274010                         PAGE    3

     111                      .dwattr $C$DW$17, DW_AT_declaration
     112                      .dwattr $C$DW$17, DW_AT_external
     113              
     114              $C$DW$18        .dwtag  DW_TAG_subprogram, DW_AT_name("c1brom_c2c1_ipc_write_data_protected_32")
     115                      .dwattr $C$DW$18, DW_AT_TI_symbol_name("_c1brom_c2c1_ipc_write_data_protected_32")
     116                      .dwattr $C$DW$18, DW_AT_type(*$C$DW$T$160)
     117                      .dwattr $C$DW$18, DW_AT_declaration
     118                      .dwattr $C$DW$18, DW_AT_external
     119              
     120              $C$DW$19        .dwtag  DW_TAG_subprogram, DW_AT_name("c1brom_c2c1_ipc_read_data_protected_16")
     121                      .dwattr $C$DW$19, DW_AT_TI_symbol_name("_c1brom_c2c1_ipc_read_data_protected_16")
     122                      .dwattr $C$DW$19, DW_AT_type(*$C$DW$T$160)
     123                      .dwattr $C$DW$19, DW_AT_declaration
     124                      .dwattr $C$DW$19, DW_AT_external
     125              
     126              $C$DW$20        .dwtag  DW_TAG_subprogram, DW_AT_name("c1brom_c2c1_ipc_set_bits_protected_16")
     127                      .dwattr $C$DW$20, DW_AT_TI_symbol_name("_c1brom_c2c1_ipc_set_bits_protected_16")
     128                      .dwattr $C$DW$20, DW_AT_type(*$C$DW$T$160)
     129                      .dwattr $C$DW$20, DW_AT_declaration
     130                      .dwattr $C$DW$20, DW_AT_external
     131              $C$DW$21        .dwtag  DW_TAG_variable, DW_AT_name("c1brom_status")
     132                      .dwattr $C$DW$21, DW_AT_TI_symbol_name("_c1brom_status")
     133                      .dwattr $C$DW$21, DW_AT_type(*$C$DW$T$21)
     134                      .dwattr $C$DW$21, DW_AT_declaration
     135                      .dwattr $C$DW$21, DW_AT_external
     136                      .global _iTrap_addr
     137 00000002       _iTrap_addr:    .usect  ".ebss",2,1,1
     138              $C$DW$22        .dwtag  DW_TAG_variable, DW_AT_name("iTrap_addr")
     139                      .dwattr $C$DW$22, DW_AT_TI_symbol_name("_iTrap_addr")
     140                      .dwattr $C$DW$22, DW_AT_location[DW_OP_addr _iTrap_addr]
     141                      .dwattr $C$DW$22, DW_AT_type(*$C$DW$T$21)
     142                      .dwattr $C$DW$22, DW_AT_external
     143              $C$DW$23        .dwtag  DW_TAG_variable, DW_AT_name("c1brom_current_c2c1_ipc")
     144                      .dwattr $C$DW$23, DW_AT_TI_symbol_name("_c1brom_current_c2c1_ipc")
     145                      .dwattr $C$DW$23, DW_AT_type(*$C$DW$T$219)
     146                      .dwattr $C$DW$23, DW_AT_declaration
     147                      .dwattr $C$DW$23, DW_AT_external
     148              $C$DW$24        .dwtag  DW_TAG_variable, DW_AT_name("NmiIntruptRegs")
     149                      .dwattr $C$DW$24, DW_AT_TI_symbol_name("_NmiIntruptRegs")
     150                      .dwattr $C$DW$24, DW_AT_type(*$C$DW$T$174)
     151                      .dwattr $C$DW$24, DW_AT_declaration
     152                      .dwattr $C$DW$24, DW_AT_external
     153              $C$DW$25        .dwtag  DW_TAG_variable, DW_AT_name("PieCtrlRegs")
     154                      .dwattr $C$DW$25, DW_AT_TI_symbol_name("_PieCtrlRegs")
     155                      .dwattr $C$DW$25, DW_AT_type(*$C$DW$T$203)
     156                      .dwattr $C$DW$25, DW_AT_declaration
     157                      .dwattr $C$DW$25, DW_AT_external
     158              $C$DW$26        .dwtag  DW_TAG_variable, DW_AT_name("IpcRegs")
     159                      .dwattr $C$DW$26, DW_AT_TI_symbol_name("_IpcRegs")
     160                      .dwattr $C$DW$26, DW_AT_type(*$C$DW$T$170)
     161                      .dwattr $C$DW$26, DW_AT_declaration
     162                      .dwattr $C$DW$26, DW_AT_external
     163              $C$DW$27        .dwtag  DW_TAG_variable, DW_AT_name("CpuSysRegs")
     164                      .dwattr $C$DW$27, DW_AT_TI_symbol_name("_CpuSysRegs")
     165                      .dwattr $C$DW$27, DW_AT_type(*$C$DW$T$165)
TMS320C2000 Assembler PC v6.1.3 Thu Jan 30 10:26:14 2014

Tools Copyright (c) 1996-2012 Texas Instruments Incorporated
C:\Users\a0272466\AppData\Local\Temp\0274010                         PAGE    4

     166                      .dwattr $C$DW$27, DW_AT_declaration
     167                      .dwattr $C$DW$27, DW_AT_external
     168              $C$DW$28        .dwtag  DW_TAG_variable, DW_AT_name("PieVectTable")
     169                      .dwattr $C$DW$28, DW_AT_TI_symbol_name("_PieVectTable")
     170                      .dwattr $C$DW$28, DW_AT_type(*$C$DW$T$150)
     171                      .dwattr $C$DW$28, DW_AT_declaration
     172                      .dwattr $C$DW$28, DW_AT_external
     173              ;       C:\ti\ccsv5\tools\compiler\c2000_6.1.3\bin\ac2000.exe -@C:\\Users\\a0272466\\AppData\\Local\\Temp\\02
     174 00000000               .sect   ".text:retain"
     175                      .global _c1brom_pie_isr_not_supported
     176              
     177              $C$DW$29        .dwtag  DW_TAG_subprogram, DW_AT_name("c1brom_pie_isr_not_supported")
     178                      .dwattr $C$DW$29, DW_AT_low_pc(_c1brom_pie_isr_not_supported)
     179                      .dwattr $C$DW$29, DW_AT_high_pc(0x00)
     180                      .dwattr $C$DW$29, DW_AT_TI_symbol_name("_c1brom_pie_isr_not_supported")
     181                      .dwattr $C$DW$29, DW_AT_external
     182                      .dwattr $C$DW$29, DW_AT_TI_begin_file("C:/work/grepos/bootrom/Boot_ROM/F2837x_bootROM-REVB/F2837x_boo
     183                      .dwattr $C$DW$29, DW_AT_TI_begin_line(0x28)
     184                      .dwattr $C$DW$29, DW_AT_TI_begin_column(0x10)
     185                      .dwattr $C$DW$29, DW_AT_TI_interrupt
     186                      .dwattr $C$DW$29, DW_AT_TI_max_frame_size(-8)
     187                      .dwpsn  file "C:/work/grepos/bootrom/Boot_ROM/F2837x_bootROM-REVB/F2837x_bootROM_dev/F2837x_bootROM/c
     188              
     189                      .dwfde $C$DW$CIE, _c1brom_pie_isr_not_supported
     190              
     191              ;***************************************************************
     192              ;* FNAME: _c1brom_pie_isr_not_supported FR SIZE:   6           *
     193              ;*                                                             *
     194              ;* FUNCTION ENVIRONMENT                                        *
     195              ;*                                                             *
     196              ;* FUNCTION PROPERTIES                                         *
     197              ;*                            0 Parameter,  2 Auto,  4 SOE     *
     198              ;***************************************************************
     199              
     200 00000000       _c1brom_pie_isr_not_supported:
     201 00000000 761B          ASP       ; [CPU_] 
     202                      .dwcfi  cfa_offset, -2
     203                      .dwcfi  save_reg_to_mem, 26, 0
     204                      .dwcfi  save_reg_to_reg, 78, 26
     205 00000001 FFF0          PUSH      RB                    ; [CPU_] 
     206                      .dwcfi  save_reg_to_mem, 73, 2
     207                      .dwcfi  save_reg_to_mem, 74, 3
     208                      .dwcfi  cfa_offset, -4
     209 00000002 E200          MOV32     *SP++,STF             ; [CPU_] 
         00000003 00BD 
     210                      .dwcfi  save_reg_to_mem, 39, 4
     211                      .dwcfi  save_reg_to_mem, 40, 5
     212                      .dwcfi  cfa_offset, -6
     213 00000004 E630          SETFLG    RNDF32=1, RNDF64=1    ; [CPU_] 
         00000005 0600 
     214 00000006 FE02          ADDB      SP,#2                 ; [CPU_U] 
     215                      .dwcfi  cfa_offset, -8
     216 00000007 2942          CLRC      PAGE0,OVM             ; [CPU_] 
     217 00000008 5616          CLRC      AMODE                 ; [CPU_] 
     218              $C$DW$30        .dwtag  DW_TAG_variable, DW_AT_name("interrupt_num")
TMS320C2000 Assembler PC v6.1.3 Thu Jan 30 10:26:14 2014

Tools Copyright (c) 1996-2012 Texas Instruments Incorporated
C:\Users\a0272466\AppData\Local\Temp\0274010                         PAGE    5

     219                      .dwattr $C$DW$30, DW_AT_TI_symbol_name("_interrupt_num")
     220                      .dwattr $C$DW$30, DW_AT_type(*$C$DW$T$19)
     221                      .dwattr $C$DW$30, DW_AT_location[DW_OP_breg20 -1]
     222              $C$DW$31        .dwtag  DW_TAG_variable, DW_AT_name("address_offset")
     223                      .dwattr $C$DW$31, DW_AT_TI_symbol_name("_address_offset")
     224                      .dwattr $C$DW$31, DW_AT_type(*$C$DW$T$19)
     225                      .dwattr $C$DW$31, DW_AT_location[DW_OP_breg20 -2]
     226                      .dwpsn  file "C:/work/grepos/bootrom/Boot_ROM/F2837x_bootROM-REVB/F2837x_bootROM_dev/F2837x_bootROM/c
     227 00000009 2B41          MOV       *-SP[1],#0            ; [CPU_] |42| 
     228                      .dwpsn  file "C:/work/grepos/bootrom/Boot_ROM/F2837x_bootROM-REVB/F2837x_bootROM_dev/F2837x_bootROM/c
     229 0000000a 2B42          MOV       *-SP[2],#0            ; [CPU_] |43| 
     230                      .dwpsn  file "C:/work/grepos/bootrom/Boot_ROM/F2837x_bootROM-REVB/F2837x_bootROM_dev/F2837x_bootROM/c
     231 0000000b 761F!         MOVW      DP,#_PieCtrlRegs      ; [CPU_U] 
         0000000c 0000 
     232 0000000d 9200!         MOV       AL,@_PieCtrlRegs      ; [CPU_] |47| 
     233 0000000e 90FE          ANDB      AL,#0xfe              ; [CPU_] |47| 
     234 0000000f 9642          MOV       *-SP[2],AL            ; [CPU_] |47| 
     235                      .dwpsn  file "C:/work/grepos/bootrom/Boot_ROM/F2837x_bootROM-REVB/F2837x_bootROM_dev/F2837x_bootROM/c
     236 00000010 FFC0          LSR       AL,1                  ; [CPU_] |48| 
     237 00000011 9641          MOV       *-SP[1],AL            ; [CPU_] |48| 
     238                      .dwpsn  file "C:/work/grepos/bootrom/Boot_ROM/F2837x_bootROM-REVB/F2837x_bootROM_dev/F2837x_bootROM/c
     239 00000012 5220          CMPB      AL,#32                ; [CPU_] |53| 
     240 00000013 6808          B         $C$L1,LO              ; [CPU_] |53| 
     241                      ; branchcc occurs ; [] |53| 
     242                      .dwpsn  file "C:/work/grepos/bootrom/Boot_ROM/F2837x_bootROM-REVB/F2837x_bootROM_dev/F2837x_bootROM/c
     243 00000014 9242          MOV       AL,*-SP[2]            ; [CPU_] |56| 
     244 00000015 FFC3          LSR       AL,4                  ; [CPU_] |56| 
     245 00000016 9CFC          ADDB      AL,#-4                ; [CPU_] |56| 
     246 00000017 2DA9          MOV       T,AL                  ; [CPU_] |56| 
     247 00000018 9A01          MOVB      AL,#1                 ; [CPU_] |56| 
     248 00000019 FF66          LSL       AL,T                  ; [CPU_] |56| 
     249 0000001a 9801!         OR        @_PieCtrlRegs+1,AL    ; [CPU_] |56| 
     250                      .dwpsn  file "C:/work/grepos/bootrom/Boot_ROM/F2837x_bootROM-REVB/F2837x_bootROM_dev/F2837x_bootROM/c
     251 0000001b       $C$L1:    
     252 0000001b FE82          SUBB      SP,#2                 ; [CPU_U] 
     253                      .dwcfi  cfa_offset, -6
     254 0000001c E280          MOV32     STF,*--SP             ; [CPU_] 
         0000001d 00BE 
     255                      .dwcfi  cfa_offset, -4
     256                      .dwcfi  restore_reg, 39
     257                      .dwcfi  restore_reg, 40
     258 0000001e FFF1          POP       RB                    ; [CPU_] 
     259                      .dwcfi  cfa_offset, -2
     260                      .dwcfi  restore_reg, 73
     261                      .dwcfi  restore_reg, 74
     262 0000001f 7617          NASP      ; [CPU_] 
     263              $C$DW$32        .dwtag  DW_TAG_TI_branch
     264                      .dwattr $C$DW$32, DW_AT_low_pc(0x00)
     265                      .dwattr $C$DW$32, DW_AT_TI_return
     266 00000020 7602          IRET      ; [CPU_] 
     267                      ; return occurs ; [] 
     268                      .dwattr $C$DW$29, DW_AT_TI_end_file("C:/work/grepos/bootrom/Boot_ROM/F2837x_bootROM-REVB/F2837x_bootR
     269                      .dwattr $C$DW$29, DW_AT_TI_end_line(0x3b)
     270                      .dwattr $C$DW$29, DW_AT_TI_end_column(0x01)
     271                      .dwendentry
TMS320C2000 Assembler PC v6.1.3 Thu Jan 30 10:26:14 2014

Tools Copyright (c) 1996-2012 Texas Instruments Incorporated
C:\Users\a0272466\AppData\Local\Temp\0274010                         PAGE    6

     272                      .dwendtag $C$DW$29
     273              
     274 00000021               .sect   ".text:retain"
     275                      .global _c1brom_pie_vect_mismatch_handler
     276              
     277              $C$DW$33        .dwtag  DW_TAG_subprogram, DW_AT_name("c1brom_pie_vect_mismatch_handler")
     278                      .dwattr $C$DW$33, DW_AT_low_pc(_c1brom_pie_vect_mismatch_handler)
     279                      .dwattr $C$DW$33, DW_AT_high_pc(0x00)
     280                      .dwattr $C$DW$33, DW_AT_TI_symbol_name("_c1brom_pie_vect_mismatch_handler")
     281                      .dwattr $C$DW$33, DW_AT_external
     282                      .dwattr $C$DW$33, DW_AT_TI_begin_file("C:/work/grepos/bootrom/Boot_ROM/F2837x_bootROM-REVB/F2837x_boo
     283                      .dwattr $C$DW$33, DW_AT_TI_begin_line(0x40)
     284                      .dwattr $C$DW$33, DW_AT_TI_begin_column(0x10)
     285                      .dwattr $C$DW$33, DW_AT_TI_interrupt
     286                      .dwattr $C$DW$33, DW_AT_TI_max_frame_size(-28)
     287                      .dwpsn  file "C:/work/grepos/bootrom/Boot_ROM/F2837x_bootROM-REVB/F2837x_bootROM_dev/F2837x_bootROM/c
     288              
     289                      .dwfde $C$DW$CIE, _c1brom_pie_vect_mismatch_handler
     290              
     291              ;***************************************************************
     292              ;* FNAME: _c1brom_pie_vect_mismatch_handler FR SIZE:  26           *
     293              ;*                                                             *
     294              ;* FUNCTION ENVIRONMENT                                        *
     295              ;*                                                             *
     296              ;* FUNCTION PROPERTIES                                         *
     297              ;*                            0 Parameter,  2 Auto, 24 SOE     *
     298              ;***************************************************************
     299              
     300 00000021       _c1brom_pie_vect_mismatch_handler:
     301 00000021 761B          ASP       ; [CPU_] 
     302                      .dwcfi  cfa_offset, -2
     303                      .dwcfi  save_reg_to_mem, 26, 0
     304                      .dwcfi  save_reg_to_reg, 78, 26
     305 00000022 FFF0          PUSH      RB                    ; [CPU_] 
     306                      .dwcfi  save_reg_to_mem, 73, 2
     307                      .dwcfi  save_reg_to_mem, 74, 3
     308                      .dwcfi  cfa_offset, -4
     309 00000023 0005          PUSH      AR1H:AR0H             ; [CPU_] 
     310                      .dwcfi  save_reg_to_mem, 5, 4
     311                      .dwcfi  save_reg_to_mem, 7, 5
     312                      .dwcfi  cfa_offset, -6
     313 00000024 ABBD          MOVL      *SP++,XT              ; [CPU_] 
     314                      .dwcfi  save_reg_to_mem, 21, 6
     315                      .dwcfi  save_reg_to_mem, 22, 7
     316                      .dwcfi  cfa_offset, -8
     317 00000025 A8BD          MOVL      *SP++,XAR4            ; [CPU_] 
     318                      .dwcfi  save_reg_to_mem, 12, 8
     319                      .dwcfi  save_reg_to_mem, 13, 9
     320                      .dwcfi  cfa_offset, -10
     321 00000026 A0BD          MOVL      *SP++,XAR5            ; [CPU_] 
     322                      .dwcfi  save_reg_to_mem, 14, 10
     323                      .dwcfi  save_reg_to_mem, 15, 11
     324                      .dwcfi  cfa_offset, -12
     325 00000027 C2BD          MOVL      *SP++,XAR6            ; [CPU_] 
     326                      .dwcfi  save_reg_to_mem, 16, 12
TMS320C2000 Assembler PC v6.1.3 Thu Jan 30 10:26:14 2014

Tools Copyright (c) 1996-2012 Texas Instruments Incorporated
C:\Users\a0272466\AppData\Local\Temp\0274010                         PAGE    7

     327                      .dwcfi  save_reg_to_mem, 17, 13
     328                      .dwcfi  cfa_offset, -14
     329 00000028 C3BD          MOVL      *SP++,XAR7            ; [CPU_] 
     330                      .dwcfi  save_reg_to_mem, 18, 14
     331                      .dwcfi  save_reg_to_mem, 19, 15
     332                      .dwcfi  cfa_offset, -16
     333 00000029 E200          MOV32     *SP++,STF             ; [CPU_] 
         0000002a 00BD 
     334                      .dwcfi  save_reg_to_mem, 39, 16
     335                      .dwcfi  save_reg_to_mem, 40, 17
     336                      .dwcfi  cfa_offset, -18
     337 0000002b E203          MOV32     *SP++,R0H             ; [CPU_] 
         0000002c 00BD 
     338                      .dwcfi  save_reg_to_mem, 43, 18
     339                      .dwcfi  save_reg_to_mem, 44, 19
     340                      .dwcfi  cfa_offset, -20
     341 0000002d E203          MOV32     *SP++,R1H             ; [CPU_] 
         0000002e 01BD 
     342                      .dwcfi  save_reg_to_mem, 47, 20
     343                      .dwcfi  save_reg_to_mem, 48, 21
     344                      .dwcfi  cfa_offset, -22
     345 0000002f E203          MOV32     *SP++,R2H             ; [CPU_] 
         00000030 02BD 
     346                      .dwcfi  save_reg_to_mem, 51, 22
     347                      .dwcfi  save_reg_to_mem, 52, 23
     348                      .dwcfi  cfa_offset, -24
     349 00000031 E203          MOV32     *SP++,R3H             ; [CPU_] 
         00000032 03BD 
     350                      .dwcfi  save_reg_to_mem, 55, 24
     351                      .dwcfi  save_reg_to_mem, 56, 25
     352                      .dwcfi  cfa_offset, -26
     353 00000033 E630          SETFLG    RNDF32=1, RNDF64=1    ; [CPU_] 
         00000034 0600 
     354 00000035 FE02          ADDB      SP,#2                 ; [CPU_U] 
     355                      .dwcfi  cfa_offset, -28
     356 00000036 FF69          SPM       0                     ; [CPU_] 
     357 00000037 2942          CLRC      PAGE0,OVM             ; [CPU_] 
     358 00000038 5616          CLRC      AMODE                 ; [CPU_] 
     359              $C$DW$34        .dwtag  DW_TAG_variable, DW_AT_name("EntryAddr")
     360                      .dwattr $C$DW$34, DW_AT_TI_symbol_name("_EntryAddr")
     361                      .dwattr $C$DW$34, DW_AT_type(*$C$DW$T$21)
     362                      .dwattr $C$DW$34, DW_AT_location[DW_OP_breg20 -2]
     363                      .dwpsn  file "C:/work/grepos/bootrom/Boot_ROM/F2837x_bootROM-REVB/F2837x_bootROM_dev/F2837x_bootROM/c
     364 00000039 0200          MOVB      ACC,#0                ; [CPU_] |67| 
     365 0000003a 1901          SUBB      ACC,#1                ; [CPU_] |67| 
     366 0000003b 1E42          MOVL      *-SP[2],ACC           ; [CPU_] |67| 
     367                      .dwpsn  file "C:/work/grepos/bootrom/Boot_ROM/F2837x_bootROM-REVB/F2837x_bootROM_dev/F2837x_bootROM/c
     368 0000003c 761F!         MOVW      DP,#_c1brom_status+1  ; [CPU_U] 
         0000003d 0000 
     369 0000003e 1A01!         OR        @_c1brom_status+1,#8  ; [CPU_] |70| 
         0000003f 0008 
     370                      .dwpsn  file "C:/work/grepos/bootrom/Boot_ROM/F2837x_bootROM-REVB/F2837x_bootROM_dev/F2837x_bootROM/c
     371 00000040 7622   EALLOW
     372                      .dwpsn  file "C:/work/grepos/bootrom/Boot_ROM/F2837x_bootROM-REVB/F2837x_bootROM_dev/F2837x_bootROM/c
     373 00000041 761F!         MOVW      DP,#_CpuSysRegs+10    ; [CPU_U] 
TMS320C2000 Assembler PC v6.1.3 Thu Jan 30 10:26:14 2014

Tools Copyright (c) 1996-2012 Texas Instruments Incorporated
C:\Users\a0272466\AppData\Local\Temp\0274010                         PAGE    8

         00000042 0000 
     374 00000043 060A!         MOVL      ACC,@_CpuSysRegs+10   ; [CPU_] |73| 
     375 00000044 1E42          MOVL      *-SP[2],ACC           ; [CPU_] |73| 
     376                      .dwpsn  file "C:/work/grepos/bootrom/Boot_ROM/F2837x_bootROM-REVB/F2837x_bootROM_dev/F2837x_bootROM/c
     377 00000045 761A   EDIS
     378                      .dwpsn  file "C:/work/grepos/bootrom/Boot_ROM/F2837x_bootROM-REVB/F2837x_bootROM_dev/F2837x_bootROM/c
     379 00000046 8F3F          MOVL      XAR4,#4194303         ; [CPU_U] |87| 
         00000047 FFFF 
     380 00000048 A8A9          MOVL      ACC,XAR4              ; [CPU_] |87| 
     381 00000049 0F42          CMPL      ACC,*-SP[2]           ; [CPU_] |87| 
     382 0000004a EC05          BF        $C$L2,EQ              ; [CPU_] |87| 
     383                      ; branchcc occurs ; [] |87| 
     384                      .dwpsn  file "C:/work/grepos/bootrom/Boot_ROM/F2837x_bootROM-REVB/F2837x_bootROM_dev/F2837x_bootROM/c
     385 0000004b C542          MOVL      XAR7,*-SP[2]          ; [CPU_] |89| 
     386 0000004c FF69          SPM       #0                    ; [CPU_] 
     387              $C$DW$35        .dwtag  DW_TAG_TI_branch
     388                      .dwattr $C$DW$35, DW_AT_low_pc(0x00)
     389                      .dwattr $C$DW$35, DW_AT_TI_call
     390                      .dwattr $C$DW$35, DW_AT_TI_indirect
     391 0000004d 3E67          LCR       *XAR7                 ; [CPU_] |89| 
     392                      ; call occurs [XAR7] ; [] |89| 
     393                      .dwpsn  file "C:/work/grepos/bootrom/Boot_ROM/F2837x_bootROM-REVB/F2837x_bootROM_dev/F2837x_bootROM/c
     394 0000004e 6F09          B         $C$L5,UNC             ; [CPU_] |90| 
     395                      ; branch occurs ; [] |90| 
     396 0000004f       $C$L2:    
     397                      .dwpsn  file "C:/work/grepos/bootrom/Boot_ROM/F2837x_bootROM-REVB/F2837x_bootROM_dev/F2837x_bootROM/c
     398 0000004f 761F!         MOVW      DP,#_NmiIntruptRegs+1 ; [CPU_U] 
         00000050 0000 
     399 00000051 9201!         MOV       AL,@_NmiIntruptRegs+1 ; [CPU_] |100| 
     400 00000052 ED04          BF        $C$L3,NEQ             ; [CPU_] |100| 
     401                      ; branchcc occurs ; [] |100| 
     402                      .dwpsn  file "C:/work/grepos/bootrom/Boot_ROM/F2837x_bootROM-REVB/F2837x_bootROM_dev/F2837x_bootROM/c
     403 00000053 FF69          SPM       #0                    ; [CPU_] 
     404              $C$DW$36        .dwtag  DW_TAG_TI_branch
     405                      .dwattr $C$DW$36, DW_AT_low_pc(0x00)
     406                      .dwattr $C$DW$36, DW_AT_name("_sysctl_wdog_enable")
     407                      .dwattr $C$DW$36, DW_AT_TI_call
     408 00000054 7640!         LCR       #_sysctl_wdog_enable  ; [CPU_] |102| 
         00000055 0000 
     409                      ; call occurs [#_sysctl_wdog_enable] ; [] |102| 
     410 00000056       $C$L3:    
     411                      .dwpsn  file "C:/work/grepos/bootrom/Boot_ROM/F2837x_bootROM-REVB/F2837x_bootROM_dev/F2837x_bootROM/c
     412 00000056       $C$L4:    
     413 00000056       $C$DW$L$_c1brom_pie_vect_mismatch_handler$6$B:
     414 00000056 6F00          B         $C$L4,UNC             ; [CPU_] |105| 
     415                      ; branch occurs ; [] |105| 
     416 00000057       $C$DW$L$_c1brom_pie_vect_mismatch_handler$6$E:
     417 00000057       $C$L5:    
     418 00000057 FE82          SUBB      SP,#2                 ; [CPU_U] 
     419                      .dwcfi  cfa_offset, -26
     420 00000058 E2AF          MOV32     R3H,*--SP             ; [CPU_] 
         00000059 03BE 
     421                      .dwcfi  cfa_offset, -24
     422                      .dwcfi  restore_reg, 55
     423                      .dwcfi  restore_reg, 56
TMS320C2000 Assembler PC v6.1.3 Thu Jan 30 10:26:14 2014

Tools Copyright (c) 1996-2012 Texas Instruments Incorporated
C:\Users\a0272466\AppData\Local\Temp\0274010                         PAGE    9

     424 0000005a E2AF          MOV32     R2H,*--SP             ; [CPU_] 
         0000005b 02BE 
     425                      .dwcfi  cfa_offset, -22
     426                      .dwcfi  restore_reg, 51
     427                      .dwcfi  restore_reg, 52
     428 0000005c E2AF          MOV32     R1H,*--SP             ; [CPU_] 
         0000005d 01BE 
     429                      .dwcfi  cfa_offset, -20
     430                      .dwcfi  restore_reg, 47
     431                      .dwcfi  restore_reg, 48
     432 0000005e E2AF          MOV32     R0H,*--SP             ; [CPU_] 
         0000005f 00BE 
     433                      .dwcfi  cfa_offset, -18
     434                      .dwcfi  restore_reg, 43
     435                      .dwcfi  restore_reg, 44
     436 00000060 E280          MOV32     STF,*--SP             ; [CPU_] 
         00000061 00BE 
     437                      .dwcfi  cfa_offset, -16
     438                      .dwcfi  restore_reg, 39
     439                      .dwcfi  restore_reg, 40
     440 00000062 C5BE          MOVL      XAR7,*--SP            ; [CPU_] 
     441                      .dwcfi  cfa_offset, -14
     442                      .dwcfi  restore_reg, 18
     443 00000063 C4BE          MOVL      XAR6,*--SP            ; [CPU_] 
     444                      .dwcfi  cfa_offset, -12
     445                      .dwcfi  restore_reg, 16
     446 00000064 83BE          MOVL      XAR5,*--SP            ; [CPU_] 
     447                      .dwcfi  cfa_offset, -10
     448                      .dwcfi  restore_reg, 14
     449 00000065 8ABE          MOVL      XAR4,*--SP            ; [CPU_] 
     450                      .dwcfi  cfa_offset, -8
     451                      .dwcfi  restore_reg, 12
     452 00000066 87BE          MOVL      XT,*--SP              ; [CPU_] 
     453                      .dwcfi  cfa_offset, -6
     454                      .dwcfi  restore_reg, 22
     455                      .dwcfi  restore_reg, 21
     456 00000067 0003          POP       AR1H:AR0H             ; [CPU_] 
     457                      .dwcfi  cfa_offset, -4
     458                      .dwcfi  restore_reg, 5
     459                      .dwcfi  restore_reg, 7
     460 00000068 FFF1          POP       RB                    ; [CPU_] 
     461                      .dwcfi  cfa_offset, -2
     462                      .dwcfi  restore_reg, 73
     463                      .dwcfi  restore_reg, 74
     464 00000069 7617          NASP      ; [CPU_] 
     465              $C$DW$37        .dwtag  DW_TAG_TI_branch
     466                      .dwattr $C$DW$37, DW_AT_low_pc(0x00)
     467                      .dwattr $C$DW$37, DW_AT_TI_return
     468 0000006a 7602          IRET      ; [CPU_] 
     469                      ; return occurs ; [] 
     470              
     471              $C$DW$38        .dwtag  DW_TAG_TI_loop
     472                      .dwattr $C$DW$38, DW_AT_name("C:\\Users\\a0272466\\AppData\\Local\\Temp\\0274010:$C$L4:1:1391099172")
     473                      .dwattr $C$DW$38, DW_AT_TI_begin_file("C:/work/grepos/bootrom/Boot_ROM/F2837x_bootROM-REVB/F2837x_boo
     474                      .dwattr $C$DW$38, DW_AT_TI_begin_line(0x69)
TMS320C2000 Assembler PC v6.1.3 Thu Jan 30 10:26:14 2014

Tools Copyright (c) 1996-2012 Texas Instruments Incorporated
C:\Users\a0272466\AppData\Local\Temp\0274010                         PAGE   10

     475                      .dwattr $C$DW$38, DW_AT_TI_end_line(0x69)
     476              $C$DW$39        .dwtag  DW_TAG_TI_loop_range
     477                      .dwattr $C$DW$39, DW_AT_low_pc($C$DW$L$_c1brom_pie_vect_mismatch_handler$6$B)
     478                      .dwattr $C$DW$39, DW_AT_high_pc($C$DW$L$_c1brom_pie_vect_mismatch_handler$6$E)
     479                      .dwendtag $C$DW$38
     480              
     481                      .dwattr $C$DW$33, DW_AT_TI_end_file("C:/work/grepos/bootrom/Boot_ROM/F2837x_bootROM-REVB/F2837x_bootR
     482                      .dwattr $C$DW$33, DW_AT_TI_end_line(0x6d)
     483                      .dwattr $C$DW$33, DW_AT_TI_end_column(0x01)
     484                      .dwendentry
     485                      .dwendtag $C$DW$33
     486              
     487 00000000               .sect   ".text"
     488                      .global _c1brom_handle_nmi_at_start
     489              
     490              $C$DW$40        .dwtag  DW_TAG_subprogram, DW_AT_name("c1brom_handle_nmi_at_start")
     491                      .dwattr $C$DW$40, DW_AT_low_pc(_c1brom_handle_nmi_at_start)
     492                      .dwattr $C$DW$40, DW_AT_high_pc(0x00)
     493                      .dwattr $C$DW$40, DW_AT_TI_symbol_name("_c1brom_handle_nmi_at_start")
     494                      .dwattr $C$DW$40, DW_AT_external
     495                      .dwattr $C$DW$40, DW_AT_TI_begin_file("C:/work/grepos/bootrom/Boot_ROM/F2837x_bootROM-REVB/F2837x_boo
     496                      .dwattr $C$DW$40, DW_AT_TI_begin_line(0x72)
     497                      .dwattr $C$DW$40, DW_AT_TI_begin_column(0x06)
     498                      .dwattr $C$DW$40, DW_AT_TI_max_frame_size(-4)
     499                      .dwpsn  file "C:/work/grepos/bootrom/Boot_ROM/F2837x_bootROM-REVB/F2837x_bootROM_dev/F2837x_bootROM/c
     500              
     501                      .dwfde $C$DW$CIE, _c1brom_handle_nmi_at_start
     502              
     503              ;***************************************************************
     504              ;* FNAME: _c1brom_handle_nmi_at_start   FR SIZE:   2           *
     505              ;*                                                             *
     506              ;* FUNCTION ENVIRONMENT                                        *
     507              ;*                                                             *
     508              ;* FUNCTION PROPERTIES                                         *
     509              ;*                            0 Parameter,  2 Auto,  0 SOE     *
     510              ;***************************************************************
     511              
     512 00000000       _c1brom_handle_nmi_at_start:
     513                      .dwcfi  cfa_offset, -2
     514                      .dwcfi  save_reg_to_mem, 26, 0
     515                      .dwcfi  save_reg_to_reg, 78, 26
     516 00000000 FE02          ADDB      SP,#2                 ; [CPU_U] 
     517                      .dwcfi  cfa_offset, -4
     518              $C$DW$41        .dwtag  DW_TAG_variable, DW_AT_name("EntryAddr")
     519                      .dwattr $C$DW$41, DW_AT_TI_symbol_name("_EntryAddr")
     520                      .dwattr $C$DW$41, DW_AT_type(*$C$DW$T$161)
     521                      .dwattr $C$DW$41, DW_AT_location[DW_OP_breg20 -2]
     522                      .dwpsn  file "C:/work/grepos/bootrom/Boot_ROM/F2837x_bootROM-REVB/F2837x_bootROM_dev/F2837x_bootROM/c
     523 00000001 8F07          MOVL      XAR4,#459738          ; [CPU_U] |118| 
         00000002 03DA 
     524 00000003 06C4          MOVL      ACC,*+XAR4[0]         ; [CPU_] |118| 
     525 00000004 1E42          MOVL      *-SP[2],ACC           ; [CPU_] |118| 
     526                      .dwpsn  file "C:/work/grepos/bootrom/Boot_ROM/F2837x_bootROM-REVB/F2837x_bootROM_dev/F2837x_bootROM/c
     527 00000005 0200          MOVB      ACC,#0                ; [CPU_] |120| 
     528 00000006 1901          SUBB      ACC,#1                ; [CPU_] |120| 
TMS320C2000 Assembler PC v6.1.3 Thu Jan 30 10:26:14 2014

Tools Copyright (c) 1996-2012 Texas Instruments Incorporated
C:\Users\a0272466\AppData\Local\Temp\0274010                         PAGE   11

     529 00000007 0F42          CMPL      ACC,*-SP[2]           ; [CPU_] |120| 
     530 00000008 EC05          BF        $C$L6,EQ              ; [CPU_] |120| 
     531                      ; branchcc occurs ; [] |120| 
     532 00000009 0642          MOVL      ACC,*-SP[2]           ; [CPU_] |120| 
     533 0000000a EC03          BF        $C$L6,EQ              ; [CPU_] |120| 
     534                      ; branchcc occurs ; [] |120| 
     535                      .dwpsn  file "C:/work/grepos/bootrom/Boot_ROM/F2837x_bootROM-REVB/F2837x_bootROM_dev/F2837x_bootROM/c
     536 0000000b C542          MOVL      XAR7,*-SP[2]          ; [CPU_] |125| 
     537              $C$DW$42        .dwtag  DW_TAG_TI_branch
     538                      .dwattr $C$DW$42, DW_AT_low_pc(0x00)
     539                      .dwattr $C$DW$42, DW_AT_TI_call
     540                      .dwattr $C$DW$42, DW_AT_TI_indirect
     541 0000000c 3E67          LCR       *XAR7                 ; [CPU_] |125| 
     542                      ; call occurs [XAR7] ; [] |125| 
     543 0000000d       $C$L6:    
     544                      .dwpsn  file "C:/work/grepos/bootrom/Boot_ROM/F2837x_bootROM-REVB/F2837x_bootROM_dev/F2837x_bootROM/c
     545 0000000d 761F!         MOVW      DP,#_NmiIntruptRegs+1 ; [CPU_U] 
         0000000e 0000 
     546 0000000f 9201!         MOV       AL,@_NmiIntruptRegs+1 ; [CPU_] |129| 
     547 00000010 761F-         MOVW      DP,#_c1brom_nmi_status ; [CPU_U] 
         00000011 0000 
     548 00000012 9600-         MOV       @_c1brom_nmi_status,AL ; [CPU_] |129| 
     549 00000013       $C$L7:    
     550 00000013       $C$DW$L$_c1brom_handle_nmi_at_start$5$B:
     551                      .dwpsn  file "C:/work/grepos/bootrom/Boot_ROM/F2837x_bootROM-REVB/F2837x_bootROM_dev/F2837x_bootROM/c
     552 00000013 4100-         TBIT      @_c1brom_nmi_status,#1 ; [CPU_] |132| 
     553 00000014 EF20          BF        $C$L8,NTC             ; [CPU_] |132| 
     554                      ; branchcc occurs ; [] |132| 
     555 00000015       $C$DW$L$_c1brom_handle_nmi_at_start$5$E:
     556 00000015       $C$DW$L$_c1brom_handle_nmi_at_start$6$B:
     557                      .dwpsn  file "C:/work/grepos/bootrom/Boot_ROM/F2837x_bootROM-REVB/F2837x_bootROM_dev/F2837x_bootROM/c
     558 00000015 761F!         MOVW      DP,#_c1brom_status+1  ; [CPU_U] 
         00000016 0000 
     559 00000017 1A01!         OR        @_c1brom_status+1,#16384 ; [CPU_] |134| 
         00000018 4000 
     560                      .dwpsn  file "C:/work/grepos/bootrom/Boot_ROM/F2837x_bootROM-REVB/F2837x_bootROM_dev/F2837x_bootROM/c
     561 00000019 761F-         MOVW      DP,#_c1brom_nmi_status ; [CPU_U] 
         0000001a 0000 
     562 0000001b 1800-         AND       @_c1brom_nmi_status,#0xfffd ; [CPU_] |135| 
         0000001c FFFD 
     563                      .dwpsn  file "C:/work/grepos/bootrom/Boot_ROM/F2837x_bootROM-REVB/F2837x_bootROM_dev/F2837x_bootROM/c
     564 0000001d 7622   EALLOW
     565                      .dwpsn  file "C:/work/grepos/bootrom/Boot_ROM/F2837x_bootROM-REVB/F2837x_bootROM_dev/F2837x_bootROM/c
     566 0000001e 761F!         MOVW      DP,#_NmiIntruptRegs+2 ; [CPU_U] 
         0000001f 0000 
     567 00000020 1A02!         OR        @_NmiIntruptRegs+2,#0x0002 ; [CPU_] |138| 
         00000021 0002 
     568                      .dwpsn  file "C:/work/grepos/bootrom/Boot_ROM/F2837x_bootROM-REVB/F2837x_bootROM_dev/F2837x_bootROM/c
     569 00000022 761A   EDIS
     570                      .dwpsn  file "C:/work/grepos/bootrom/Boot_ROM/F2837x_bootROM-REVB/F2837x_bootROM_dev/F2837x_bootROM/c
     571 00000023 9201!         MOV       AL,@_NmiIntruptRegs+1 ; [CPU_] |141| 
     572 00000024 761F-         MOVW      DP,#_c1brom_nmi_status ; [CPU_U] 
         00000025 0000 
     573 00000026 9600-         MOV       @_c1brom_nmi_status,AL ; [CPU_] |141| 
     574                      .dwpsn  file "C:/work/grepos/bootrom/Boot_ROM/F2837x_bootROM-REVB/F2837x_bootROM_dev/F2837x_bootROM/c
TMS320C2000 Assembler PC v6.1.3 Thu Jan 30 10:26:14 2014

Tools Copyright (c) 1996-2012 Texas Instruments Incorporated
C:\Users\a0272466\AppData\Local\Temp\0274010                         PAGE   12

     575 00000027 9200-         MOV       AL,@_c1brom_nmi_status ; [CPU_] |144| 
     576 00000028 5201          CMPB      AL,#1                 ; [CPU_] |144| 
     577 00000029 ED0B          BF        $C$L8,NEQ             ; [CPU_] |144| 
     578                      ; branchcc occurs ; [] |144| 
     579 0000002a       $C$DW$L$_c1brom_handle_nmi_at_start$6$E:
     580                      .dwpsn  file "C:/work/grepos/bootrom/Boot_ROM/F2837x_bootROM-REVB/F2837x_bootROM_dev/F2837x_bootROM/c
     581 0000002a 1800-         AND       @_c1brom_nmi_status,#0xfffe ; [CPU_] |146| 
         0000002b FFFE 
     582                      .dwpsn  file "C:/work/grepos/bootrom/Boot_ROM/F2837x_bootROM-REVB/F2837x_bootROM_dev/F2837x_bootROM/c
     583 0000002c 7622   EALLOW
     584                      .dwpsn  file "C:/work/grepos/bootrom/Boot_ROM/F2837x_bootROM-REVB/F2837x_bootROM_dev/F2837x_bootROM/c
     585 0000002d 761F!         MOVW      DP,#_NmiIntruptRegs+2 ; [CPU_U] 
         0000002e 0000 
     586 0000002f 1A02!         OR        @_NmiIntruptRegs+2,#0x0001 ; [CPU_] |149| 
         00000030 0001 
     587                      .dwpsn  file "C:/work/grepos/bootrom/Boot_ROM/F2837x_bootROM-REVB/F2837x_bootROM_dev/F2837x_bootROM/c
     588 00000031 761A   EDIS
     589                      .dwpsn  file "C:/work/grepos/bootrom/Boot_ROM/F2837x_bootROM-REVB/F2837x_bootROM_dev/F2837x_bootROM/c
     590 00000032 FFEF          B         $C$L21,UNC            ; [CPU_] |152| 
         00000033 00B1 
     591                      ; branch occurs ; [] |152| 
     592 00000034       $C$L8:    
     593 00000034       $C$DW$L$_c1brom_handle_nmi_at_start$8$B:
     594                      .dwpsn  file "C:/work/grepos/bootrom/Boot_ROM/F2837x_bootROM-REVB/F2837x_bootROM_dev/F2837x_bootROM/c
     595 00000034 4400-         TBIT      @_c1brom_nmi_status,#4 ; [CPU_] |156| 
     596 00000035 EF0F          BF        $C$L9,NTC             ; [CPU_] |156| 
     597                      ; branchcc occurs ; [] |156| 
     598 00000036       $C$DW$L$_c1brom_handle_nmi_at_start$8$E:
     599 00000036       $C$DW$L$_c1brom_handle_nmi_at_start$9$B:
     600                      .dwpsn  file "C:/work/grepos/bootrom/Boot_ROM/F2837x_bootROM-REVB/F2837x_bootROM_dev/F2837x_bootROM/c
     601 00000036 761F!         MOVW      DP,#_c1brom_status+1  ; [CPU_U] 
         00000037 0000 
     602 00000038 1A01!         OR        @_c1brom_status+1,#2048 ; [CPU_] |158| 
         00000039 0800 
     603                      .dwpsn  file "C:/work/grepos/bootrom/Boot_ROM/F2837x_bootROM-REVB/F2837x_bootROM_dev/F2837x_bootROM/c
     604 0000003a 761F-         MOVW      DP,#_c1brom_nmi_status ; [CPU_U] 
         0000003b 0000 
     605 0000003c 1800-         AND       @_c1brom_nmi_status,#0xffef ; [CPU_] |160| 
         0000003d FFEF 
     606                      .dwpsn  file "C:/work/grepos/bootrom/Boot_ROM/F2837x_bootROM-REVB/F2837x_bootROM_dev/F2837x_bootROM/c
     607 0000003e 7622   EALLOW
     608                      .dwpsn  file "C:/work/grepos/bootrom/Boot_ROM/F2837x_bootROM-REVB/F2837x_bootROM_dev/F2837x_bootROM/c
     609 0000003f 761F!         MOVW      DP,#_NmiIntruptRegs+2 ; [CPU_U] 
         00000040 0000 
     610 00000041 1A02!         OR        @_NmiIntruptRegs+2,#0x0010 ; [CPU_] |162| 
         00000042 0010 
     611                      .dwpsn  file "C:/work/grepos/bootrom/Boot_ROM/F2837x_bootROM-REVB/F2837x_bootROM_dev/F2837x_bootROM/c
     612 00000043 761A   EDIS
     613 00000044       $C$DW$L$_c1brom_handle_nmi_at_start$9$E:
     614 00000044       $C$L9:    
     615 00000044       $C$DW$L$_c1brom_handle_nmi_at_start$10$B:
     616                      .dwpsn  file "C:/work/grepos/bootrom/Boot_ROM/F2837x_bootROM-REVB/F2837x_bootROM_dev/F2837x_bootROM/c
     617 00000044 761F-         MOVW      DP,#_c1brom_nmi_status ; [CPU_U] 
         00000045 0000 
     618 00000046 4500-         TBIT      @_c1brom_nmi_status,#5 ; [CPU_] |166| 
TMS320C2000 Assembler PC v6.1.3 Thu Jan 30 10:26:14 2014

Tools Copyright (c) 1996-2012 Texas Instruments Incorporated
C:\Users\a0272466\AppData\Local\Temp\0274010                         PAGE   13

     619 00000047 EF0F          BF        $C$L10,NTC            ; [CPU_] |166| 
     620                      ; branchcc occurs ; [] |166| 
     621 00000048       $C$DW$L$_c1brom_handle_nmi_at_start$10$E:
     622 00000048       $C$DW$L$_c1brom_handle_nmi_at_start$11$B:
     623                      .dwpsn  file "C:/work/grepos/bootrom/Boot_ROM/F2837x_bootROM-REVB/F2837x_bootROM_dev/F2837x_bootROM/c
     624 00000048 761F!         MOVW      DP,#_c1brom_status+1  ; [CPU_U] 
         00000049 0000 
     625 0000004a 1A01!         OR        @_c1brom_status+1,#1024 ; [CPU_] |168| 
         0000004b 0400 
     626                      .dwpsn  file "C:/work/grepos/bootrom/Boot_ROM/F2837x_bootROM-REVB/F2837x_bootROM_dev/F2837x_bootROM/c
     627 0000004c 761F-         MOVW      DP,#_c1brom_nmi_status ; [CPU_U] 
         0000004d 0000 
     628 0000004e 1800-         AND       @_c1brom_nmi_status,#0xffdf ; [CPU_] |170| 
         0000004f FFDF 
     629                      .dwpsn  file "C:/work/grepos/bootrom/Boot_ROM/F2837x_bootROM-REVB/F2837x_bootROM_dev/F2837x_bootROM/c
     630 00000050 7622   EALLOW
     631                      .dwpsn  file "C:/work/grepos/bootrom/Boot_ROM/F2837x_bootROM-REVB/F2837x_bootROM_dev/F2837x_bootROM/c
     632 00000051 761F!         MOVW      DP,#_NmiIntruptRegs+2 ; [CPU_U] 
         00000052 0000 
     633 00000053 1A02!         OR        @_NmiIntruptRegs+2,#0x0020 ; [CPU_] |173| 
         00000054 0020 
     634                      .dwpsn  file "C:/work/grepos/bootrom/Boot_ROM/F2837x_bootROM-REVB/F2837x_bootROM_dev/F2837x_bootROM/c
     635 00000055 761A   EDIS
     636 00000056       $C$DW$L$_c1brom_handle_nmi_at_start$11$E:
     637 00000056       $C$L10:    
     638 00000056       $C$DW$L$_c1brom_handle_nmi_at_start$12$B:
     639                      .dwpsn  file "C:/work/grepos/bootrom/Boot_ROM/F2837x_bootROM-REVB/F2837x_bootROM_dev/F2837x_bootROM/c
     640 00000056 761F-         MOVW      DP,#_c1brom_nmi_status ; [CPU_U] 
         00000057 0000 
     641 00000058 4600-         TBIT      @_c1brom_nmi_status,#6 ; [CPU_] |177| 
     642 00000059 EF0F          BF        $C$L11,NTC            ; [CPU_] |177| 
     643                      ; branchcc occurs ; [] |177| 
     644 0000005a       $C$DW$L$_c1brom_handle_nmi_at_start$12$E:
     645 0000005a       $C$DW$L$_c1brom_handle_nmi_at_start$13$B:
     646                      .dwpsn  file "C:/work/grepos/bootrom/Boot_ROM/F2837x_bootROM-REVB/F2837x_bootROM_dev/F2837x_bootROM/c
     647 0000005a 761F!         MOVW      DP,#_c1brom_status+1  ; [CPU_U] 
         0000005b 0000 
     648 0000005c 1A01!         OR        @_c1brom_status+1,#512 ; [CPU_] |179| 
         0000005d 0200 
     649                      .dwpsn  file "C:/work/grepos/bootrom/Boot_ROM/F2837x_bootROM-REVB/F2837x_bootROM_dev/F2837x_bootROM/c
     650 0000005e 761F-         MOVW      DP,#_c1brom_nmi_status ; [CPU_U] 
         0000005f 0000 
     651 00000060 1800-         AND       @_c1brom_nmi_status,#0xffbf ; [CPU_] |181| 
         00000061 FFBF 
     652                      .dwpsn  file "C:/work/grepos/bootrom/Boot_ROM/F2837x_bootROM-REVB/F2837x_bootROM_dev/F2837x_bootROM/c
     653 00000062 7622   EALLOW
     654                      .dwpsn  file "C:/work/grepos/bootrom/Boot_ROM/F2837x_bootROM-REVB/F2837x_bootROM_dev/F2837x_bootROM/c
     655 00000063 761F!         MOVW      DP,#_NmiIntruptRegs+2 ; [CPU_U] 
         00000064 0000 
     656 00000065 1A02!         OR        @_NmiIntruptRegs+2,#0x0040 ; [CPU_] |183| 
         00000066 0040 
     657                      .dwpsn  file "C:/work/grepos/bootrom/Boot_ROM/F2837x_bootROM-REVB/F2837x_bootROM_dev/F2837x_bootROM/c
     658 00000067 761A   EDIS
     659 00000068       $C$DW$L$_c1brom_handle_nmi_at_start$13$E:
     660 00000068       $C$L11:    
TMS320C2000 Assembler PC v6.1.3 Thu Jan 30 10:26:14 2014

Tools Copyright (c) 1996-2012 Texas Instruments Incorporated
C:\Users\a0272466\AppData\Local\Temp\0274010                         PAGE   14

     661 00000068       $C$DW$L$_c1brom_handle_nmi_at_start$14$B:
     662                      .dwpsn  file "C:/work/grepos/bootrom/Boot_ROM/F2837x_bootROM-REVB/F2837x_bootROM_dev/F2837x_bootROM/c
     663 00000068 761F-         MOVW      DP,#_c1brom_nmi_status ; [CPU_U] 
         00000069 0000 
     664 0000006a 4700-         TBIT      @_c1brom_nmi_status,#7 ; [CPU_] |186| 
     665 0000006b EF0F          BF        $C$L12,NTC            ; [CPU_] |186| 
     666                      ; branchcc occurs ; [] |186| 
     667 0000006c       $C$DW$L$_c1brom_handle_nmi_at_start$14$E:
     668 0000006c       $C$DW$L$_c1brom_handle_nmi_at_start$15$B:
     669                      .dwpsn  file "C:/work/grepos/bootrom/Boot_ROM/F2837x_bootROM-REVB/F2837x_bootROM_dev/F2837x_bootROM/c
     670 0000006c 761F!         MOVW      DP,#_c1brom_status+1  ; [CPU_U] 
         0000006d 0000 
     671 0000006e 1A01!         OR        @_c1brom_status+1,#256 ; [CPU_] |188| 
         0000006f 0100 
     672                      .dwpsn  file "C:/work/grepos/bootrom/Boot_ROM/F2837x_bootROM-REVB/F2837x_bootROM_dev/F2837x_bootROM/c
     673 00000070 761F-         MOVW      DP,#_c1brom_nmi_status ; [CPU_U] 
         00000071 0000 
     674 00000072 1800-         AND       @_c1brom_nmi_status,#0xff7f ; [CPU_] |190| 
         00000073 FF7F 
     675                      .dwpsn  file "C:/work/grepos/bootrom/Boot_ROM/F2837x_bootROM-REVB/F2837x_bootROM_dev/F2837x_bootROM/c
     676 00000074 7622   EALLOW
     677                      .dwpsn  file "C:/work/grepos/bootrom/Boot_ROM/F2837x_bootROM-REVB/F2837x_bootROM_dev/F2837x_bootROM/c
     678 00000075 761F!         MOVW      DP,#_NmiIntruptRegs+2 ; [CPU_U] 
         00000076 0000 
     679 00000077 1A02!         OR        @_NmiIntruptRegs+2,#0x0080 ; [CPU_] |192| 
         00000078 0080 
     680                      .dwpsn  file "C:/work/grepos/bootrom/Boot_ROM/F2837x_bootROM-REVB/F2837x_bootROM_dev/F2837x_bootROM/c
     681 00000079 761A   EDIS
     682 0000007a       $C$DW$L$_c1brom_handle_nmi_at_start$15$E:
     683 0000007a       $C$L12:    
     684 0000007a       $C$DW$L$_c1brom_handle_nmi_at_start$16$B:
     685                      .dwpsn  file "C:/work/grepos/bootrom/Boot_ROM/F2837x_bootROM-REVB/F2837x_bootROM_dev/F2837x_bootROM/c
     686 0000007a 761F-         MOVW      DP,#_c1brom_nmi_status ; [CPU_U] 
         0000007b 0000 
     687 0000007c 4800-         TBIT      @_c1brom_nmi_status,#8 ; [CPU_] |195| 
     688 0000007d EF0F          BF        $C$L13,NTC            ; [CPU_] |195| 
     689                      ; branchcc occurs ; [] |195| 
     690 0000007e       $C$DW$L$_c1brom_handle_nmi_at_start$16$E:
     691 0000007e       $C$DW$L$_c1brom_handle_nmi_at_start$17$B:
     692                      .dwpsn  file "C:/work/grepos/bootrom/Boot_ROM/F2837x_bootROM-REVB/F2837x_bootROM_dev/F2837x_bootROM/c
     693 0000007e 761F!         MOVW      DP,#_c1brom_status+1  ; [CPU_U] 
         0000007f 0000 
     694 00000080 1A01!         OR        @_c1brom_status+1,#128 ; [CPU_] |197| 
         00000081 0080 
     695                      .dwpsn  file "C:/work/grepos/bootrom/Boot_ROM/F2837x_bootROM-REVB/F2837x_bootROM_dev/F2837x_bootROM/c
     696 00000082 761F-         MOVW      DP,#_c1brom_nmi_status ; [CPU_U] 
         00000083 0000 
     697 00000084 1800-         AND       @_c1brom_nmi_status,#0xfeff ; [CPU_] |199| 
         00000085 FEFF 
     698                      .dwpsn  file "C:/work/grepos/bootrom/Boot_ROM/F2837x_bootROM-REVB/F2837x_bootROM_dev/F2837x_bootROM/c
     699 00000086 7622   EALLOW
     700                      .dwpsn  file "C:/work/grepos/bootrom/Boot_ROM/F2837x_bootROM-REVB/F2837x_bootROM_dev/F2837x_bootROM/c
     701 00000087 761F!         MOVW      DP,#_NmiIntruptRegs+2 ; [CPU_U] 
         00000088 0000 
     702 00000089 1A02!         OR        @_NmiIntruptRegs+2,#0x0100 ; [CPU_] |201| 
TMS320C2000 Assembler PC v6.1.3 Thu Jan 30 10:26:14 2014

Tools Copyright (c) 1996-2012 Texas Instruments Incorporated
C:\Users\a0272466\AppData\Local\Temp\0274010                         PAGE   15

         0000008a 0100 
     703                      .dwpsn  file "C:/work/grepos/bootrom/Boot_ROM/F2837x_bootROM-REVB/F2837x_bootROM_dev/F2837x_bootROM/c
     704 0000008b 761A   EDIS
     705 0000008c       $C$DW$L$_c1brom_handle_nmi_at_start$17$E:
     706 0000008c       $C$L13:    
     707 0000008c       $C$DW$L$_c1brom_handle_nmi_at_start$18$B:
     708                      .dwpsn  file "C:/work/grepos/bootrom/Boot_ROM/F2837x_bootROM-REVB/F2837x_bootROM_dev/F2837x_bootROM/c
     709 0000008c 761F-         MOVW      DP,#_c1brom_nmi_status ; [CPU_U] 
         0000008d 0000 
     710 0000008e 4900-         TBIT      @_c1brom_nmi_status,#9 ; [CPU_] |204| 
     711 0000008f EF0F          BF        $C$L14,NTC            ; [CPU_] |204| 
     712                      ; branchcc occurs ; [] |204| 
     713 00000090       $C$DW$L$_c1brom_handle_nmi_at_start$18$E:
     714 00000090       $C$DW$L$_c1brom_handle_nmi_at_start$19$B:
     715                      .dwpsn  file "C:/work/grepos/bootrom/Boot_ROM/F2837x_bootROM-REVB/F2837x_bootROM_dev/F2837x_bootROM/c
     716 00000090 761F!         MOVW      DP,#_c1brom_status+1  ; [CPU_U] 
         00000091 0000 
     717 00000092 1A01!         OR        @_c1brom_status+1,#64 ; [CPU_] |206| 
         00000093 0040 
     718                      .dwpsn  file "C:/work/grepos/bootrom/Boot_ROM/F2837x_bootROM-REVB/F2837x_bootROM_dev/F2837x_bootROM/c
     719 00000094 761F-         MOVW      DP,#_c1brom_nmi_status ; [CPU_U] 
         00000095 0000 
     720 00000096 1800-         AND       @_c1brom_nmi_status,#0xfdff ; [CPU_] |208| 
         00000097 FDFF 
     721                      .dwpsn  file "C:/work/grepos/bootrom/Boot_ROM/F2837x_bootROM-REVB/F2837x_bootROM_dev/F2837x_bootROM/c
     722 00000098 7622   EALLOW
     723                      .dwpsn  file "C:/work/grepos/bootrom/Boot_ROM/F2837x_bootROM-REVB/F2837x_bootROM_dev/F2837x_bootROM/c
     724 00000099 761F!         MOVW      DP,#_NmiIntruptRegs+2 ; [CPU_U] 
         0000009a 0000 
     725 0000009b 1A02!         OR        @_NmiIntruptRegs+2,#0x0200 ; [CPU_] |210| 
         0000009c 0200 
     726                      .dwpsn  file "C:/work/grepos/bootrom/Boot_ROM/F2837x_bootROM-REVB/F2837x_bootROM_dev/F2837x_bootROM/c
     727 0000009d 761A   EDIS
     728 0000009e       $C$DW$L$_c1brom_handle_nmi_at_start$19$E:
     729 0000009e       $C$L14:    
     730 0000009e       $C$DW$L$_c1brom_handle_nmi_at_start$20$B:
     731                      .dwpsn  file "C:/work/grepos/bootrom/Boot_ROM/F2837x_bootROM-REVB/F2837x_bootROM_dev/F2837x_bootROM/c
     732 0000009e 761F-         MOVW      DP,#_c1brom_nmi_status ; [CPU_U] 
         0000009f 0000 
     733 000000a0 4A00-         TBIT      @_c1brom_nmi_status,#10 ; [CPU_] |214| 
     734 000000a1 EF0F          BF        $C$L15,NTC            ; [CPU_] |214| 
     735                      ; branchcc occurs ; [] |214| 
     736 000000a2       $C$DW$L$_c1brom_handle_nmi_at_start$20$E:
     737 000000a2       $C$DW$L$_c1brom_handle_nmi_at_start$21$B:
     738                      .dwpsn  file "C:/work/grepos/bootrom/Boot_ROM/F2837x_bootROM-REVB/F2837x_bootROM_dev/F2837x_bootROM/c
     739 000000a2 761F!         MOVW      DP,#_c1brom_status+1  ; [CPU_U] 
         000000a3 0000 
     740 000000a4 1A01!         OR        @_c1brom_status+1,#64 ; [CPU_] |216| 
         000000a5 0040 
     741                      .dwpsn  file "C:/work/grepos/bootrom/Boot_ROM/F2837x_bootROM-REVB/F2837x_bootROM_dev/F2837x_bootROM/c
     742 000000a6 761F-         MOVW      DP,#_c1brom_nmi_status ; [CPU_U] 
         000000a7 0000 
     743 000000a8 1800-         AND       @_c1brom_nmi_status,#0xfbff ; [CPU_] |218| 
         000000a9 FBFF 
     744                      .dwpsn  file "C:/work/grepos/bootrom/Boot_ROM/F2837x_bootROM-REVB/F2837x_bootROM_dev/F2837x_bootROM/c
TMS320C2000 Assembler PC v6.1.3 Thu Jan 30 10:26:14 2014

Tools Copyright (c) 1996-2012 Texas Instruments Incorporated
C:\Users\a0272466\AppData\Local\Temp\0274010                         PAGE   16

     745 000000aa 7622   EALLOW
     746                      .dwpsn  file "C:/work/grepos/bootrom/Boot_ROM/F2837x_bootROM-REVB/F2837x_bootROM_dev/F2837x_bootROM/c
     747 000000ab 761F!         MOVW      DP,#_NmiIntruptRegs+2 ; [CPU_U] 
         000000ac 0000 
     748 000000ad 1A02!         OR        @_NmiIntruptRegs+2,#0x0400 ; [CPU_] |220| 
         000000ae 0400 
     749                      .dwpsn  file "C:/work/grepos/bootrom/Boot_ROM/F2837x_bootROM-REVB/F2837x_bootROM_dev/F2837x_bootROM/c
     750 000000af 761A   EDIS
     751 000000b0       $C$DW$L$_c1brom_handle_nmi_at_start$21$E:
     752 000000b0       $C$L15:    
     753 000000b0       $C$DW$L$_c1brom_handle_nmi_at_start$22$B:
     754                      .dwpsn  file "C:/work/grepos/bootrom/Boot_ROM/F2837x_bootROM-REVB/F2837x_bootROM_dev/F2837x_bootROM/c
     755 000000b0 761F-         MOVW      DP,#_c1brom_nmi_status ; [CPU_U] 
         000000b1 0000 
     756 000000b2 4B00-         TBIT      @_c1brom_nmi_status,#11 ; [CPU_] |224| 
     757 000000b3 EF0F          BF        $C$L16,NTC            ; [CPU_] |224| 
     758                      ; branchcc occurs ; [] |224| 
     759 000000b4       $C$DW$L$_c1brom_handle_nmi_at_start$22$E:
     760 000000b4       $C$DW$L$_c1brom_handle_nmi_at_start$23$B:
     761                      .dwpsn  file "C:/work/grepos/bootrom/Boot_ROM/F2837x_bootROM-REVB/F2837x_bootROM_dev/F2837x_bootROM/c
     762 000000b4 761F!         MOVW      DP,#_c1brom_status+1  ; [CPU_U] 
         000000b5 0000 
     763 000000b6 1A01!         OR        @_c1brom_status+1,#16 ; [CPU_] |226| 
         000000b7 0010 
     764                      .dwpsn  file "C:/work/grepos/bootrom/Boot_ROM/F2837x_bootROM-REVB/F2837x_bootROM_dev/F2837x_bootROM/c
     765 000000b8 761F-         MOVW      DP,#_c1brom_nmi_status ; [CPU_U] 
         000000b9 0000 
     766 000000ba 1800-         AND       @_c1brom_nmi_status,#0xf7ff ; [CPU_] |228| 
         000000bb F7FF 
     767                      .dwpsn  file "C:/work/grepos/bootrom/Boot_ROM/F2837x_bootROM-REVB/F2837x_bootROM_dev/F2837x_bootROM/c
     768 000000bc 7622   EALLOW
     769                      .dwpsn  file "C:/work/grepos/bootrom/Boot_ROM/F2837x_bootROM-REVB/F2837x_bootROM_dev/F2837x_bootROM/c
     770 000000bd 761F!         MOVW      DP,#_NmiIntruptRegs+2 ; [CPU_U] 
         000000be 0000 
     771 000000bf 1A02!         OR        @_NmiIntruptRegs+2,#0x0800 ; [CPU_] |230| 
         000000c0 0800 
     772                      .dwpsn  file "C:/work/grepos/bootrom/Boot_ROM/F2837x_bootROM-REVB/F2837x_bootROM_dev/F2837x_bootROM/c
     773 000000c1 761A   EDIS
     774 000000c2       $C$DW$L$_c1brom_handle_nmi_at_start$23$E:
     775 000000c2       $C$L16:    
     776 000000c2       $C$DW$L$_c1brom_handle_nmi_at_start$24$B:
     777                      .dwpsn  file "C:/work/grepos/bootrom/Boot_ROM/F2837x_bootROM-REVB/F2837x_bootROM_dev/F2837x_bootROM/c
     778 000000c2 761F-         MOVW      DP,#_c1brom_nmi_status ; [CPU_U] 
         000000c3 0000 
     779 000000c4 4200-         TBIT      @_c1brom_nmi_status,#2 ; [CPU_] |236| 
     780 000000c5 EF07          BF        $C$L18,NTC            ; [CPU_] |236| 
     781                      ; branchcc occurs ; [] |236| 
     782 000000c6       $C$DW$L$_c1brom_handle_nmi_at_start$24$E:
     783                      .dwpsn  file "C:/work/grepos/bootrom/Boot_ROM/F2837x_bootROM-REVB/F2837x_bootROM_dev/F2837x_bootROM/c
     784 000000c6 761F!         MOVW      DP,#_c1brom_status+1  ; [CPU_U] 
         000000c7 0000 
     785 000000c8 1A01!         OR        @_c1brom_status+1,#8192 ; [CPU_] |238| 
         000000c9 2000 
     786                      .dwpsn  file "C:/work/grepos/bootrom/Boot_ROM/F2837x_bootROM-REVB/F2837x_bootROM_dev/F2837x_bootROM/c
     787 000000ca 7625     ESTOP0
TMS320C2000 Assembler PC v6.1.3 Thu Jan 30 10:26:14 2014

Tools Copyright (c) 1996-2012 Texas Instruments Incorporated
C:\Users\a0272466\AppData\Local\Temp\0274010                         PAGE   17

     788                      .dwpsn  file "C:/work/grepos/bootrom/Boot_ROM/F2837x_bootROM-REVB/F2837x_bootROM_dev/F2837x_bootROM/c
     789 000000cb       $C$L17:    
     790 000000cb       $C$DW$L$_c1brom_handle_nmi_at_start$26$B:
     791 000000cb 6F00          B         $C$L17,UNC            ; [CPU_] |243| 
     792                      ; branch occurs ; [] |243| 
     793 000000cc       $C$DW$L$_c1brom_handle_nmi_at_start$26$E:
     794 000000cc       $C$L18:    
     795 000000cc       $C$DW$L$_c1brom_handle_nmi_at_start$27$B:
     796                      .dwpsn  file "C:/work/grepos/bootrom/Boot_ROM/F2837x_bootROM-REVB/F2837x_bootROM_dev/F2837x_bootROM/c
     797 000000cc 4300-         TBIT      @_c1brom_nmi_status,#3 ; [CPU_] |250| 
     798 000000cd EF07          BF        $C$L20,NTC            ; [CPU_] |250| 
     799                      ; branchcc occurs ; [] |250| 
     800 000000ce       $C$DW$L$_c1brom_handle_nmi_at_start$27$E:
     801                      .dwpsn  file "C:/work/grepos/bootrom/Boot_ROM/F2837x_bootROM-REVB/F2837x_bootROM_dev/F2837x_bootROM/c
     802 000000ce 761F!         MOVW      DP,#_c1brom_status+1  ; [CPU_U] 
         000000cf 0000 
     803 000000d0 1A01!         OR        @_c1brom_status+1,#4096 ; [CPU_] |252| 
         000000d1 1000 
     804                      .dwpsn  file "C:/work/grepos/bootrom/Boot_ROM/F2837x_bootROM-REVB/F2837x_bootROM_dev/F2837x_bootROM/c
     805 000000d2 7625     ESTOP0
     806                      .dwpsn  file "C:/work/grepos/bootrom/Boot_ROM/F2837x_bootROM-REVB/F2837x_bootROM_dev/F2837x_bootROM/c
     807 000000d3       $C$L19:    
     808 000000d3       $C$DW$L$_c1brom_handle_nmi_at_start$29$B:
     809 000000d3 6F00          B         $C$L19,UNC            ; [CPU_] |258| 
     810                      ; branch occurs ; [] |258| 
     811 000000d4       $C$DW$L$_c1brom_handle_nmi_at_start$29$E:
     812 000000d4       $C$L20:    
     813 000000d4       $C$DW$L$_c1brom_handle_nmi_at_start$30$B:
     814                      .dwpsn  file "C:/work/grepos/bootrom/Boot_ROM/F2837x_bootROM-REVB/F2837x_bootROM_dev/F2837x_bootROM/c
     815 000000d4 1800-         AND       @_c1brom_nmi_status,#0xfffe ; [CPU_] |266| 
         000000d5 FFFE 
     816                      .dwpsn  file "C:/work/grepos/bootrom/Boot_ROM/F2837x_bootROM-REVB/F2837x_bootROM_dev/F2837x_bootROM/c
     817 000000d6 7622   EALLOW
     818                      .dwpsn  file "C:/work/grepos/bootrom/Boot_ROM/F2837x_bootROM-REVB/F2837x_bootROM_dev/F2837x_bootROM/c
     819 000000d7 761F!         MOVW      DP,#_NmiIntruptRegs+2 ; [CPU_U] 
         000000d8 0000 
     820 000000d9 1A02!         OR        @_NmiIntruptRegs+2,#0x0001 ; [CPU_] |268| 
         000000da 0001 
     821                      .dwpsn  file "C:/work/grepos/bootrom/Boot_ROM/F2837x_bootROM-REVB/F2837x_bootROM_dev/F2837x_bootROM/c
     822 000000db 761A   EDIS
     823                      .dwpsn  file "C:/work/grepos/bootrom/Boot_ROM/F2837x_bootROM-REVB/F2837x_bootROM_dev/F2837x_bootROM/c
     824 000000dc 9201!         MOV       AL,@_NmiIntruptRegs+1 ; [CPU_] |271| 
     825 000000dd 761F-         MOVW      DP,#_c1brom_nmi_status ; [CPU_U] 
         000000de 0000 
     826 000000df 9600-         MOV       @_c1brom_nmi_status,AL ; [CPU_] |271| 
     827                      .dwpsn  file "C:/work/grepos/bootrom/Boot_ROM/F2837x_bootROM-REVB/F2837x_bootROM_dev/F2837x_bootROM/c
     828 000000e0 4000-         TBIT      @_c1brom_nmi_status,#0 ; [CPU_] |130| 
     829 000000e1 56CD          BF        $C$L7,TC              ; [CPU_] |130| 
         000000e2 FF32 
     830                      ; branchcc occurs ; [] |130| 
     831 000000e3       $C$DW$L$_c1brom_handle_nmi_at_start$30$E:
     832                      .dwpsn  file "C:/work/grepos/bootrom/Boot_ROM/F2837x_bootROM-REVB/F2837x_bootROM_dev/F2837x_bootROM/c
     833 000000e3       $C$L21:    
     834 000000e3 FE82          SUBB      SP,#2                 ; [CPU_U] 
     835                      .dwcfi  cfa_offset, -2
TMS320C2000 Assembler PC v6.1.3 Thu Jan 30 10:26:14 2014

Tools Copyright (c) 1996-2012 Texas Instruments Incorporated
C:\Users\a0272466\AppData\Local\Temp\0274010                         PAGE   18

     836 000000e4 FF69          SPM       #0                    ; [CPU_] 
     837              $C$DW$43        .dwtag  DW_TAG_TI_branch
     838                      .dwattr $C$DW$43, DW_AT_low_pc(0x00)
     839                      .dwattr $C$DW$43, DW_AT_TI_return
     840 000000e5 0006          LRETR     ; [CPU_] 
     841                      ; return occurs ; [] 
     842              
     843              $C$DW$44        .dwtag  DW_TAG_TI_loop
     844                      .dwattr $C$DW$44, DW_AT_name("C:\\Users\\a0272466\\AppData\\Local\\Temp\\0274010:$C$L19:1:1391099172"
     845                      .dwattr $C$DW$44, DW_AT_TI_begin_file("C:/work/grepos/bootrom/Boot_ROM/F2837x_bootROM-REVB/F2837x_boo
     846                      .dwattr $C$DW$44, DW_AT_TI_begin_line(0x102)
     847                      .dwattr $C$DW$44, DW_AT_TI_end_line(0x102)
     848              $C$DW$45        .dwtag  DW_TAG_TI_loop_range
     849                      .dwattr $C$DW$45, DW_AT_low_pc($C$DW$L$_c1brom_handle_nmi_at_start$29$B)
     850                      .dwattr $C$DW$45, DW_AT_high_pc($C$DW$L$_c1brom_handle_nmi_at_start$29$E)
     851                      .dwendtag $C$DW$44
     852              
     853              
     854              $C$DW$46        .dwtag  DW_TAG_TI_loop
     855                      .dwattr $C$DW$46, DW_AT_name("C:\\Users\\a0272466\\AppData\\Local\\Temp\\0274010:$C$L17:1:1391099172"
     856                      .dwattr $C$DW$46, DW_AT_TI_begin_file("C:/work/grepos/bootrom/Boot_ROM/F2837x_bootROM-REVB/F2837x_boo
     857                      .dwattr $C$DW$46, DW_AT_TI_begin_line(0xf3)
     858                      .dwattr $C$DW$46, DW_AT_TI_end_line(0xf3)
     859              $C$DW$47        .dwtag  DW_TAG_TI_loop_range
     860                      .dwattr $C$DW$47, DW_AT_low_pc($C$DW$L$_c1brom_handle_nmi_at_start$26$B)
     861                      .dwattr $C$DW$47, DW_AT_high_pc($C$DW$L$_c1brom_handle_nmi_at_start$26$E)
     862                      .dwendtag $C$DW$46
     863              
     864              
     865              $C$DW$48        .dwtag  DW_TAG_TI_loop
     866                      .dwattr $C$DW$48, DW_AT_name("C:\\Users\\a0272466\\AppData\\Local\\Temp\\0274010:$C$L7:1:1391099172")
     867                      .dwattr $C$DW$48, DW_AT_TI_begin_file("C:/work/grepos/bootrom/Boot_ROM/F2837x_bootROM-REVB/F2837x_boo
     868                      .dwattr $C$DW$48, DW_AT_TI_begin_line(0x82)
     869                      .dwattr $C$DW$48, DW_AT_TI_end_line(0x111)
     870              $C$DW$49        .dwtag  DW_TAG_TI_loop_range
     871                      .dwattr $C$DW$49, DW_AT_low_pc($C$DW$L$_c1brom_handle_nmi_at_start$5$B)
     872                      .dwattr $C$DW$49, DW_AT_high_pc($C$DW$L$_c1brom_handle_nmi_at_start$5$E)
     873              $C$DW$50        .dwtag  DW_TAG_TI_loop_range
     874                      .dwattr $C$DW$50, DW_AT_low_pc($C$DW$L$_c1brom_handle_nmi_at_start$6$B)
     875                      .dwattr $C$DW$50, DW_AT_high_pc($C$DW$L$_c1brom_handle_nmi_at_start$6$E)
     876              $C$DW$51        .dwtag  DW_TAG_TI_loop_range
     877                      .dwattr $C$DW$51, DW_AT_low_pc($C$DW$L$_c1brom_handle_nmi_at_start$8$B)
     878                      .dwattr $C$DW$51, DW_AT_high_pc($C$DW$L$_c1brom_handle_nmi_at_start$8$E)
     879              $C$DW$52        .dwtag  DW_TAG_TI_loop_range
     880                      .dwattr $C$DW$52, DW_AT_low_pc($C$DW$L$_c1brom_handle_nmi_at_start$9$B)
     881                      .dwattr $C$DW$52, DW_AT_high_pc($C$DW$L$_c1brom_handle_nmi_at_start$9$E)
     882              $C$DW$53        .dwtag  DW_TAG_TI_loop_range
     883                      .dwattr $C$DW$53, DW_AT_low_pc($C$DW$L$_c1brom_handle_nmi_at_start$10$B)
     884                      .dwattr $C$DW$53, DW_AT_high_pc($C$DW$L$_c1brom_handle_nmi_at_start$10$E)
     885              $C$DW$54        .dwtag  DW_TAG_TI_loop_range
     886                      .dwattr $C$DW$54, DW_AT_low_pc($C$DW$L$_c1brom_handle_nmi_at_start$11$B)
     887                      .dwattr $C$DW$54, DW_AT_high_pc($C$DW$L$_c1brom_handle_nmi_at_start$11$E)
     888              $C$DW$55        .dwtag  DW_TAG_TI_loop_range
     889                      .dwattr $C$DW$55, DW_AT_low_pc($C$DW$L$_c1brom_handle_nmi_at_start$12$B)
     890                      .dwattr $C$DW$55, DW_AT_high_pc($C$DW$L$_c1brom_handle_nmi_at_start$12$E)
TMS320C2000 Assembler PC v6.1.3 Thu Jan 30 10:26:14 2014

Tools Copyright (c) 1996-2012 Texas Instruments Incorporated
C:\Users\a0272466\AppData\Local\Temp\0274010                         PAGE   19

     891              $C$DW$56        .dwtag  DW_TAG_TI_loop_range
     892                      .dwattr $C$DW$56, DW_AT_low_pc($C$DW$L$_c1brom_handle_nmi_at_start$13$B)
     893                      .dwattr $C$DW$56, DW_AT_high_pc($C$DW$L$_c1brom_handle_nmi_at_start$13$E)
     894              $C$DW$57        .dwtag  DW_TAG_TI_loop_range
     895                      .dwattr $C$DW$57, DW_AT_low_pc($C$DW$L$_c1brom_handle_nmi_at_start$14$B)
     896                      .dwattr $C$DW$57, DW_AT_high_pc($C$DW$L$_c1brom_handle_nmi_at_start$14$E)
     897              $C$DW$58        .dwtag  DW_TAG_TI_loop_range
     898                      .dwattr $C$DW$58, DW_AT_low_pc($C$DW$L$_c1brom_handle_nmi_at_start$15$B)
     899                      .dwattr $C$DW$58, DW_AT_high_pc($C$DW$L$_c1brom_handle_nmi_at_start$15$E)
     900              $C$DW$59        .dwtag  DW_TAG_TI_loop_range
     901                      .dwattr $C$DW$59, DW_AT_low_pc($C$DW$L$_c1brom_handle_nmi_at_start$16$B)
     902                      .dwattr $C$DW$59, DW_AT_high_pc($C$DW$L$_c1brom_handle_nmi_at_start$16$E)
     903              $C$DW$60        .dwtag  DW_TAG_TI_loop_range
     904                      .dwattr $C$DW$60, DW_AT_low_pc($C$DW$L$_c1brom_handle_nmi_at_start$17$B)
     905                      .dwattr $C$DW$60, DW_AT_high_pc($C$DW$L$_c1brom_handle_nmi_at_start$17$E)
     906              $C$DW$61        .dwtag  DW_TAG_TI_loop_range
     907                      .dwattr $C$DW$61, DW_AT_low_pc($C$DW$L$_c1brom_handle_nmi_at_start$18$B)
     908                      .dwattr $C$DW$61, DW_AT_high_pc($C$DW$L$_c1brom_handle_nmi_at_start$18$E)
     909              $C$DW$62        .dwtag  DW_TAG_TI_loop_range
     910                      .dwattr $C$DW$62, DW_AT_low_pc($C$DW$L$_c1brom_handle_nmi_at_start$19$B)
     911                      .dwattr $C$DW$62, DW_AT_high_pc($C$DW$L$_c1brom_handle_nmi_at_start$19$E)
     912              $C$DW$63        .dwtag  DW_TAG_TI_loop_range
     913                      .dwattr $C$DW$63, DW_AT_low_pc($C$DW$L$_c1brom_handle_nmi_at_start$20$B)
     914                      .dwattr $C$DW$63, DW_AT_high_pc($C$DW$L$_c1brom_handle_nmi_at_start$20$E)
     915              $C$DW$64        .dwtag  DW_TAG_TI_loop_range
     916                      .dwattr $C$DW$64, DW_AT_low_pc($C$DW$L$_c1brom_handle_nmi_at_start$21$B)
     917                      .dwattr $C$DW$64, DW_AT_high_pc($C$DW$L$_c1brom_handle_nmi_at_start$21$E)
     918              $C$DW$65        .dwtag  DW_TAG_TI_loop_range
     919                      .dwattr $C$DW$65, DW_AT_low_pc($C$DW$L$_c1brom_handle_nmi_at_start$22$B)
     920                      .dwattr $C$DW$65, DW_AT_high_pc($C$DW$L$_c1brom_handle_nmi_at_start$22$E)
     921              $C$DW$66        .dwtag  DW_TAG_TI_loop_range
     922                      .dwattr $C$DW$66, DW_AT_low_pc($C$DW$L$_c1brom_handle_nmi_at_start$23$B)
     923                      .dwattr $C$DW$66, DW_AT_high_pc($C$DW$L$_c1brom_handle_nmi_at_start$23$E)
     924              $C$DW$67        .dwtag  DW_TAG_TI_loop_range
     925                      .dwattr $C$DW$67, DW_AT_low_pc($C$DW$L$_c1brom_handle_nmi_at_start$24$B)
     926                      .dwattr $C$DW$67, DW_AT_high_pc($C$DW$L$_c1brom_handle_nmi_at_start$24$E)
     927              $C$DW$68        .dwtag  DW_TAG_TI_loop_range
     928                      .dwattr $C$DW$68, DW_AT_low_pc($C$DW$L$_c1brom_handle_nmi_at_start$27$B)
     929                      .dwattr $C$DW$68, DW_AT_high_pc($C$DW$L$_c1brom_handle_nmi_at_start$27$E)
     930              $C$DW$69        .dwtag  DW_TAG_TI_loop_range
     931                      .dwattr $C$DW$69, DW_AT_low_pc($C$DW$L$_c1brom_handle_nmi_at_start$30$B)
     932                      .dwattr $C$DW$69, DW_AT_high_pc($C$DW$L$_c1brom_handle_nmi_at_start$30$E)
     933                      .dwendtag $C$DW$48
     934              
     935                      .dwattr $C$DW$40, DW_AT_TI_end_file("C:/work/grepos/bootrom/Boot_ROM/F2837x_bootROM-REVB/F2837x_bootR
     936                      .dwattr $C$DW$40, DW_AT_TI_end_line(0x114)
     937                      .dwattr $C$DW$40, DW_AT_TI_end_column(0x01)
     938                      .dwendentry
     939                      .dwendtag $C$DW$40
     940              
     941 0000006b               .sect   ".text:retain"
     942                      .global _c1brom_handle_nmi
     943              
     944              $C$DW$70        .dwtag  DW_TAG_subprogram, DW_AT_name("c1brom_handle_nmi")
     945                      .dwattr $C$DW$70, DW_AT_low_pc(_c1brom_handle_nmi)
TMS320C2000 Assembler PC v6.1.3 Thu Jan 30 10:26:14 2014

Tools Copyright (c) 1996-2012 Texas Instruments Incorporated
C:\Users\a0272466\AppData\Local\Temp\0274010                         PAGE   20

     946                      .dwattr $C$DW$70, DW_AT_high_pc(0x00)
     947                      .dwattr $C$DW$70, DW_AT_TI_symbol_name("_c1brom_handle_nmi")
     948                      .dwattr $C$DW$70, DW_AT_external
     949                      .dwattr $C$DW$70, DW_AT_TI_begin_file("C:/work/grepos/bootrom/Boot_ROM/F2837x_bootROM-REVB/F2837x_boo
     950                      .dwattr $C$DW$70, DW_AT_TI_begin_line(0x119)
     951                      .dwattr $C$DW$70, DW_AT_TI_begin_column(0x10)
     952                      .dwattr $C$DW$70, DW_AT_TI_interrupt
     953                      .dwattr $C$DW$70, DW_AT_TI_max_frame_size(-28)
     954                      .dwpsn  file "C:/work/grepos/bootrom/Boot_ROM/F2837x_bootROM-REVB/F2837x_bootROM_dev/F2837x_bootROM/c
     955              
     956                      .dwfde $C$DW$CIE, _c1brom_handle_nmi
     957              
     958              ;***************************************************************
     959              ;* FNAME: _c1brom_handle_nmi            FR SIZE:  26           *
     960              ;*                                                             *
     961              ;* FUNCTION ENVIRONMENT                                        *
     962              ;*                                                             *
     963              ;* FUNCTION PROPERTIES                                         *
     964              ;*                            0 Parameter,  2 Auto, 24 SOE     *
     965              ;***************************************************************
     966              
     967 0000006b       _c1brom_handle_nmi:
     968 0000006b 761B          ASP       ; [CPU_] 
     969                      .dwcfi  cfa_offset, -2
     970                      .dwcfi  save_reg_to_mem, 26, 0
     971                      .dwcfi  save_reg_to_reg, 78, 26
     972 0000006c FFF0          PUSH      RB                    ; [CPU_] 
     973                      .dwcfi  save_reg_to_mem, 73, 2
     974                      .dwcfi  save_reg_to_mem, 74, 3
     975                      .dwcfi  cfa_offset, -4
     976 0000006d 0005          PUSH      AR1H:AR0H             ; [CPU_] 
     977                      .dwcfi  save_reg_to_mem, 5, 4
     978                      .dwcfi  save_reg_to_mem, 7, 5
     979                      .dwcfi  cfa_offset, -6
     980 0000006e ABBD          MOVL      *SP++,XT              ; [CPU_] 
     981                      .dwcfi  save_reg_to_mem, 21, 6
     982                      .dwcfi  save_reg_to_mem, 22, 7
     983                      .dwcfi  cfa_offset, -8
     984 0000006f A8BD          MOVL      *SP++,XAR4            ; [CPU_] 
     985                      .dwcfi  save_reg_to_mem, 12, 8
     986                      .dwcfi  save_reg_to_mem, 13, 9
     987                      .dwcfi  cfa_offset, -10
     988 00000070 A0BD          MOVL      *SP++,XAR5            ; [CPU_] 
     989                      .dwcfi  save_reg_to_mem, 14, 10
     990                      .dwcfi  save_reg_to_mem, 15, 11
     991                      .dwcfi  cfa_offset, -12
     992 00000071 C2BD          MOVL      *SP++,XAR6            ; [CPU_] 
     993                      .dwcfi  save_reg_to_mem, 16, 12
     994                      .dwcfi  save_reg_to_mem, 17, 13
     995                      .dwcfi  cfa_offset, -14
     996 00000072 C3BD          MOVL      *SP++,XAR7            ; [CPU_] 
     997                      .dwcfi  save_reg_to_mem, 18, 14
     998                      .dwcfi  save_reg_to_mem, 19, 15
     999                      .dwcfi  cfa_offset, -16
    1000 00000073 E200          MOV32     *SP++,STF             ; [CPU_] 
TMS320C2000 Assembler PC v6.1.3 Thu Jan 30 10:26:14 2014

Tools Copyright (c) 1996-2012 Texas Instruments Incorporated
C:\Users\a0272466\AppData\Local\Temp\0274010                         PAGE   21

         00000074 00BD 
    1001                      .dwcfi  save_reg_to_mem, 39, 16
    1002                      .dwcfi  save_reg_to_mem, 40, 17
    1003                      .dwcfi  cfa_offset, -18
    1004 00000075 E203          MOV32     *SP++,R0H             ; [CPU_] 
         00000076 00BD 
    1005                      .dwcfi  save_reg_to_mem, 43, 18
    1006                      .dwcfi  save_reg_to_mem, 44, 19
    1007                      .dwcfi  cfa_offset, -20
    1008 00000077 E203          MOV32     *SP++,R1H             ; [CPU_] 
         00000078 01BD 
    1009                      .dwcfi  save_reg_to_mem, 47, 20
    1010                      .dwcfi  save_reg_to_mem, 48, 21
    1011                      .dwcfi  cfa_offset, -22
    1012 00000079 E203          MOV32     *SP++,R2H             ; [CPU_] 
         0000007a 02BD 
    1013                      .dwcfi  save_reg_to_mem, 51, 22
    1014                      .dwcfi  save_reg_to_mem, 52, 23
    1015                      .dwcfi  cfa_offset, -24
    1016 0000007b E203          MOV32     *SP++,R3H             ; [CPU_] 
         0000007c 03BD 
    1017                      .dwcfi  save_reg_to_mem, 55, 24
    1018                      .dwcfi  save_reg_to_mem, 56, 25
    1019                      .dwcfi  cfa_offset, -26
    1020 0000007d E630          SETFLG    RNDF32=1, RNDF64=1    ; [CPU_] 
         0000007e 0600 
    1021 0000007f FE02          ADDB      SP,#2                 ; [CPU_U] 
    1022                      .dwcfi  cfa_offset, -28
    1023 00000080 FF69          SPM       0                     ; [CPU_] 
    1024 00000081 2942          CLRC      PAGE0,OVM             ; [CPU_] 
    1025 00000082 5616          CLRC      AMODE                 ; [CPU_] 
    1026              $C$DW$71        .dwtag  DW_TAG_variable, DW_AT_name("EntryAddr")
    1027                      .dwattr $C$DW$71, DW_AT_TI_symbol_name("_EntryAddr")
    1028                      .dwattr $C$DW$71, DW_AT_type(*$C$DW$T$161)
    1029                      .dwattr $C$DW$71, DW_AT_location[DW_OP_breg20 -2]
    1030                      .dwpsn  file "C:/work/grepos/bootrom/Boot_ROM/F2837x_bootROM-REVB/F2837x_bootROM_dev/F2837x_bootROM/c
    1031 00000083 8F07          MOVL      XAR4,#459738          ; [CPU_U] |285| 
         00000084 03DA 
    1032 00000085 06C4          MOVL      ACC,*+XAR4[0]         ; [CPU_] |285| 
    1033 00000086 1E42          MOVL      *-SP[2],ACC           ; [CPU_] |285| 
    1034                      .dwpsn  file "C:/work/grepos/bootrom/Boot_ROM/F2837x_bootROM-REVB/F2837x_bootROM_dev/F2837x_bootROM/c
    1035 00000087 0200          MOVB      ACC,#0                ; [CPU_] |287| 
    1036 00000088 1901          SUBB      ACC,#1                ; [CPU_] |287| 
    1037 00000089 0F42          CMPL      ACC,*-SP[2]           ; [CPU_] |287| 
    1038 0000008a EC05          BF        $C$L22,EQ             ; [CPU_] |287| 
    1039                      ; branchcc occurs ; [] |287| 
    1040 0000008b 0642          MOVL      ACC,*-SP[2]           ; [CPU_] |287| 
    1041 0000008c EC03          BF        $C$L22,EQ             ; [CPU_] |287| 
    1042                      ; branchcc occurs ; [] |287| 
    1043                      .dwpsn  file "C:/work/grepos/bootrom/Boot_ROM/F2837x_bootROM-REVB/F2837x_bootROM_dev/F2837x_bootROM/c
    1044 0000008d C542          MOVL      XAR7,*-SP[2]          ; [CPU_] |292| 
    1045              $C$DW$72        .dwtag  DW_TAG_TI_branch
    1046                      .dwattr $C$DW$72, DW_AT_low_pc(0x00)
    1047                      .dwattr $C$DW$72, DW_AT_TI_call
    1048                      .dwattr $C$DW$72, DW_AT_TI_indirect
TMS320C2000 Assembler PC v6.1.3 Thu Jan 30 10:26:14 2014

Tools Copyright (c) 1996-2012 Texas Instruments Incorporated
C:\Users\a0272466\AppData\Local\Temp\0274010                         PAGE   22

    1049 0000008e 3E67          LCR       *XAR7                 ; [CPU_] |292| 
    1050                      ; call occurs [XAR7] ; [] |292| 
    1051 0000008f       $C$L22:    
    1052                      .dwpsn  file "C:/work/grepos/bootrom/Boot_ROM/F2837x_bootROM-REVB/F2837x_bootROM_dev/F2837x_bootROM/c
    1053 0000008f 761F!         MOVW      DP,#_NmiIntruptRegs+1 ; [CPU_U] 
         00000090 0000 
    1054 00000091 9201!         MOV       AL,@_NmiIntruptRegs+1 ; [CPU_] |295| 
    1055 00000092 761F-         MOVW      DP,#_c1brom_nmi_status ; [CPU_U] 
         00000093 0000 
    1056 00000094 9600-         MOV       @_c1brom_nmi_status,AL ; [CPU_] |295| 
    1057 00000095       $C$L23:    
    1058 00000095       $C$DW$L$_c1brom_handle_nmi$5$B:
    1059                      .dwpsn  file "C:/work/grepos/bootrom/Boot_ROM/F2837x_bootROM-REVB/F2837x_bootROM_dev/F2837x_bootROM/c
    1060 00000095 4100-         TBIT      @_c1brom_nmi_status,#1 ; [CPU_] |298| 
    1061 00000096 EF20          BF        $C$L24,NTC            ; [CPU_] |298| 
    1062                      ; branchcc occurs ; [] |298| 
    1063 00000097       $C$DW$L$_c1brom_handle_nmi$5$E:
    1064 00000097       $C$DW$L$_c1brom_handle_nmi$6$B:
    1065                      .dwpsn  file "C:/work/grepos/bootrom/Boot_ROM/F2837x_bootROM-REVB/F2837x_bootROM_dev/F2837x_bootROM/c
    1066 00000097 761F!         MOVW      DP,#_c1brom_status+1  ; [CPU_U] 
         00000098 0000 
    1067 00000099 1A01!         OR        @_c1brom_status+1,#16384 ; [CPU_] |300| 
         0000009a 4000 
    1068                      .dwpsn  file "C:/work/grepos/bootrom/Boot_ROM/F2837x_bootROM-REVB/F2837x_bootROM_dev/F2837x_bootROM/c
    1069 0000009b 761F-         MOVW      DP,#_c1brom_nmi_status ; [CPU_U] 
         0000009c 0000 
    1070 0000009d 1800-         AND       @_c1brom_nmi_status,#0xfffd ; [CPU_] |301| 
         0000009e FFFD 
    1071                      .dwpsn  file "C:/work/grepos/bootrom/Boot_ROM/F2837x_bootROM-REVB/F2837x_bootROM_dev/F2837x_bootROM/c
    1072 0000009f 7622   EALLOW
    1073                      .dwpsn  file "C:/work/grepos/bootrom/Boot_ROM/F2837x_bootROM-REVB/F2837x_bootROM_dev/F2837x_bootROM/c
    1074 000000a0 761F!         MOVW      DP,#_NmiIntruptRegs+2 ; [CPU_U] 
         000000a1 0000 
    1075 000000a2 1A02!         OR        @_NmiIntruptRegs+2,#0x0002 ; [CPU_] |304| 
         000000a3 0002 
    1076                      .dwpsn  file "C:/work/grepos/bootrom/Boot_ROM/F2837x_bootROM-REVB/F2837x_bootROM_dev/F2837x_bootROM/c
    1077 000000a4 761A   EDIS
    1078                      .dwpsn  file "C:/work/grepos/bootrom/Boot_ROM/F2837x_bootROM-REVB/F2837x_bootROM_dev/F2837x_bootROM/c
    1079 000000a5 9201!         MOV       AL,@_NmiIntruptRegs+1 ; [CPU_] |307| 
    1080 000000a6 761F-         MOVW      DP,#_c1brom_nmi_status ; [CPU_U] 
         000000a7 0000 
    1081 000000a8 9600-         MOV       @_c1brom_nmi_status,AL ; [CPU_] |307| 
    1082                      .dwpsn  file "C:/work/grepos/bootrom/Boot_ROM/F2837x_bootROM-REVB/F2837x_bootROM_dev/F2837x_bootROM/c
    1083 000000a9 9200-         MOV       AL,@_c1brom_nmi_status ; [CPU_] |310| 
    1084 000000aa 5201          CMPB      AL,#1                 ; [CPU_] |310| 
    1085 000000ab ED0B          BF        $C$L24,NEQ            ; [CPU_] |310| 
    1086                      ; branchcc occurs ; [] |310| 
    1087 000000ac       $C$DW$L$_c1brom_handle_nmi$6$E:
    1088                      .dwpsn  file "C:/work/grepos/bootrom/Boot_ROM/F2837x_bootROM-REVB/F2837x_bootROM_dev/F2837x_bootROM/c
    1089 000000ac 1800-         AND       @_c1brom_nmi_status,#0xfffe ; [CPU_] |312| 
         000000ad FFFE 
    1090                      .dwpsn  file "C:/work/grepos/bootrom/Boot_ROM/F2837x_bootROM-REVB/F2837x_bootROM_dev/F2837x_bootROM/c
    1091 000000ae 7622   EALLOW
    1092                      .dwpsn  file "C:/work/grepos/bootrom/Boot_ROM/F2837x_bootROM-REVB/F2837x_bootROM_dev/F2837x_bootROM/c
    1093 000000af 761F!         MOVW      DP,#_NmiIntruptRegs+2 ; [CPU_U] 
TMS320C2000 Assembler PC v6.1.3 Thu Jan 30 10:26:14 2014

Tools Copyright (c) 1996-2012 Texas Instruments Incorporated
C:\Users\a0272466\AppData\Local\Temp\0274010                         PAGE   23

         000000b0 0000 
    1094 000000b1 1A02!         OR        @_NmiIntruptRegs+2,#0x0001 ; [CPU_] |315| 
         000000b2 0001 
    1095                      .dwpsn  file "C:/work/grepos/bootrom/Boot_ROM/F2837x_bootROM-REVB/F2837x_bootROM_dev/F2837x_bootROM/c
    1096 000000b3 761A   EDIS
    1097                      .dwpsn  file "C:/work/grepos/bootrom/Boot_ROM/F2837x_bootROM-REVB/F2837x_bootROM_dev/F2837x_bootROM/c
    1098 000000b4 FFEF          B         $C$L37,UNC            ; [CPU_] |318| 
         000000b5 00B1 
    1099                      ; branch occurs ; [] |318| 
    1100 000000b6       $C$L24:    
    1101 000000b6       $C$DW$L$_c1brom_handle_nmi$8$B:
    1102                      .dwpsn  file "C:/work/grepos/bootrom/Boot_ROM/F2837x_bootROM-REVB/F2837x_bootROM_dev/F2837x_bootROM/c
    1103 000000b6 4400-         TBIT      @_c1brom_nmi_status,#4 ; [CPU_] |322| 
    1104 000000b7 EF0F          BF        $C$L25,NTC            ; [CPU_] |322| 
    1105                      ; branchcc occurs ; [] |322| 
    1106 000000b8       $C$DW$L$_c1brom_handle_nmi$8$E:
    1107 000000b8       $C$DW$L$_c1brom_handle_nmi$9$B:
    1108                      .dwpsn  file "C:/work/grepos/bootrom/Boot_ROM/F2837x_bootROM-REVB/F2837x_bootROM_dev/F2837x_bootROM/c
    1109 000000b8 761F!         MOVW      DP,#_c1brom_status+1  ; [CPU_U] 
         000000b9 0000 
    1110 000000ba 1A01!         OR        @_c1brom_status+1,#2048 ; [CPU_] |324| 
         000000bb 0800 
    1111                      .dwpsn  file "C:/work/grepos/bootrom/Boot_ROM/F2837x_bootROM-REVB/F2837x_bootROM_dev/F2837x_bootROM/c
    1112 000000bc 761F-         MOVW      DP,#_c1brom_nmi_status ; [CPU_U] 
         000000bd 0000 
    1113 000000be 1800-         AND       @_c1brom_nmi_status,#0xffef ; [CPU_] |326| 
         000000bf FFEF 
    1114                      .dwpsn  file "C:/work/grepos/bootrom/Boot_ROM/F2837x_bootROM-REVB/F2837x_bootROM_dev/F2837x_bootROM/c
    1115 000000c0 7622   EALLOW
    1116                      .dwpsn  file "C:/work/grepos/bootrom/Boot_ROM/F2837x_bootROM-REVB/F2837x_bootROM_dev/F2837x_bootROM/c
    1117 000000c1 761F!         MOVW      DP,#_NmiIntruptRegs+2 ; [CPU_U] 
         000000c2 0000 
    1118 000000c3 1A02!         OR        @_NmiIntruptRegs+2,#0x0010 ; [CPU_] |328| 
         000000c4 0010 
    1119                      .dwpsn  file "C:/work/grepos/bootrom/Boot_ROM/F2837x_bootROM-REVB/F2837x_bootROM_dev/F2837x_bootROM/c
    1120 000000c5 761A   EDIS
    1121 000000c6       $C$DW$L$_c1brom_handle_nmi$9$E:
    1122 000000c6       $C$L25:    
    1123 000000c6       $C$DW$L$_c1brom_handle_nmi$10$B:
    1124                      .dwpsn  file "C:/work/grepos/bootrom/Boot_ROM/F2837x_bootROM-REVB/F2837x_bootROM_dev/F2837x_bootROM/c
    1125 000000c6 761F-         MOVW      DP,#_c1brom_nmi_status ; [CPU_U] 
         000000c7 0000 
    1126 000000c8 4500-         TBIT      @_c1brom_nmi_status,#5 ; [CPU_] |332| 
    1127 000000c9 EF0F          BF        $C$L26,NTC            ; [CPU_] |332| 
    1128                      ; branchcc occurs ; [] |332| 
    1129 000000ca       $C$DW$L$_c1brom_handle_nmi$10$E:
    1130 000000ca       $C$DW$L$_c1brom_handle_nmi$11$B:
    1131                      .dwpsn  file "C:/work/grepos/bootrom/Boot_ROM/F2837x_bootROM-REVB/F2837x_bootROM_dev/F2837x_bootROM/c
    1132 000000ca 761F!         MOVW      DP,#_c1brom_status+1  ; [CPU_U] 
         000000cb 0000 
    1133 000000cc 1A01!         OR        @_c1brom_status+1,#1024 ; [CPU_] |334| 
         000000cd 0400 
    1134                      .dwpsn  file "C:/work/grepos/bootrom/Boot_ROM/F2837x_bootROM-REVB/F2837x_bootROM_dev/F2837x_bootROM/c
    1135 000000ce 761F-         MOVW      DP,#_c1brom_nmi_status ; [CPU_U] 
         000000cf 0000 
TMS320C2000 Assembler PC v6.1.3 Thu Jan 30 10:26:14 2014

Tools Copyright (c) 1996-2012 Texas Instruments Incorporated
C:\Users\a0272466\AppData\Local\Temp\0274010                         PAGE   24

    1136 000000d0 1800-         AND       @_c1brom_nmi_status,#0xffdf ; [CPU_] |336| 
         000000d1 FFDF 
    1137                      .dwpsn  file "C:/work/grepos/bootrom/Boot_ROM/F2837x_bootROM-REVB/F2837x_bootROM_dev/F2837x_bootROM/c
    1138 000000d2 7622   EALLOW
    1139                      .dwpsn  file "C:/work/grepos/bootrom/Boot_ROM/F2837x_bootROM-REVB/F2837x_bootROM_dev/F2837x_bootROM/c
    1140 000000d3 761F!         MOVW      DP,#_NmiIntruptRegs+2 ; [CPU_U] 
         000000d4 0000 
    1141 000000d5 1A02!         OR        @_NmiIntruptRegs+2,#0x0020 ; [CPU_] |339| 
         000000d6 0020 
    1142                      .dwpsn  file "C:/work/grepos/bootrom/Boot_ROM/F2837x_bootROM-REVB/F2837x_bootROM_dev/F2837x_bootROM/c
    1143 000000d7 761A   EDIS
    1144 000000d8       $C$DW$L$_c1brom_handle_nmi$11$E:
    1145 000000d8       $C$L26:    
    1146 000000d8       $C$DW$L$_c1brom_handle_nmi$12$B:
    1147                      .dwpsn  file "C:/work/grepos/bootrom/Boot_ROM/F2837x_bootROM-REVB/F2837x_bootROM_dev/F2837x_bootROM/c
    1148 000000d8 761F-         MOVW      DP,#_c1brom_nmi_status ; [CPU_U] 
         000000d9 0000 
    1149 000000da 4600-         TBIT      @_c1brom_nmi_status,#6 ; [CPU_] |343| 
    1150 000000db EF0F          BF        $C$L27,NTC            ; [CPU_] |343| 
    1151                      ; branchcc occurs ; [] |343| 
    1152 000000dc       $C$DW$L$_c1brom_handle_nmi$12$E:
    1153 000000dc       $C$DW$L$_c1brom_handle_nmi$13$B:
    1154                      .dwpsn  file "C:/work/grepos/bootrom/Boot_ROM/F2837x_bootROM-REVB/F2837x_bootROM_dev/F2837x_bootROM/c
    1155 000000dc 761F!         MOVW      DP,#_c1brom_status+1  ; [CPU_U] 
         000000dd 0000 
    1156 000000de 1A01!         OR        @_c1brom_status+1,#512 ; [CPU_] |345| 
         000000df 0200 
    1157                      .dwpsn  file "C:/work/grepos/bootrom/Boot_ROM/F2837x_bootROM-REVB/F2837x_bootROM_dev/F2837x_bootROM/c
    1158 000000e0 761F-         MOVW      DP,#_c1brom_nmi_status ; [CPU_U] 
         000000e1 0000 
    1159 000000e2 1800-         AND       @_c1brom_nmi_status,#0xffbf ; [CPU_] |347| 
         000000e3 FFBF 
    1160                      .dwpsn  file "C:/work/grepos/bootrom/Boot_ROM/F2837x_bootROM-REVB/F2837x_bootROM_dev/F2837x_bootROM/c
    1161 000000e4 7622   EALLOW
    1162                      .dwpsn  file "C:/work/grepos/bootrom/Boot_ROM/F2837x_bootROM-REVB/F2837x_bootROM_dev/F2837x_bootROM/c
    1163 000000e5 761F!         MOVW      DP,#_NmiIntruptRegs+2 ; [CPU_U] 
         000000e6 0000 
    1164 000000e7 1A02!         OR        @_NmiIntruptRegs+2,#0x0040 ; [CPU_] |349| 
         000000e8 0040 
    1165                      .dwpsn  file "C:/work/grepos/bootrom/Boot_ROM/F2837x_bootROM-REVB/F2837x_bootROM_dev/F2837x_bootROM/c
    1166 000000e9 761A   EDIS
    1167 000000ea       $C$DW$L$_c1brom_handle_nmi$13$E:
    1168 000000ea       $C$L27:    
    1169 000000ea       $C$DW$L$_c1brom_handle_nmi$14$B:
    1170                      .dwpsn  file "C:/work/grepos/bootrom/Boot_ROM/F2837x_bootROM-REVB/F2837x_bootROM_dev/F2837x_bootROM/c
    1171 000000ea 761F-         MOVW      DP,#_c1brom_nmi_status ; [CPU_U] 
         000000eb 0000 
    1172 000000ec 4700-         TBIT      @_c1brom_nmi_status,#7 ; [CPU_] |352| 
    1173 000000ed EF0F          BF        $C$L28,NTC            ; [CPU_] |352| 
    1174                      ; branchcc occurs ; [] |352| 
    1175 000000ee       $C$DW$L$_c1brom_handle_nmi$14$E:
    1176 000000ee       $C$DW$L$_c1brom_handle_nmi$15$B:
    1177                      .dwpsn  file "C:/work/grepos/bootrom/Boot_ROM/F2837x_bootROM-REVB/F2837x_bootROM_dev/F2837x_bootROM/c
    1178 000000ee 761F!         MOVW      DP,#_c1brom_status+1  ; [CPU_U] 
         000000ef 0000 
TMS320C2000 Assembler PC v6.1.3 Thu Jan 30 10:26:14 2014

Tools Copyright (c) 1996-2012 Texas Instruments Incorporated
C:\Users\a0272466\AppData\Local\Temp\0274010                         PAGE   25

    1179 000000f0 1A01!         OR        @_c1brom_status+1,#256 ; [CPU_] |354| 
         000000f1 0100 
    1180                      .dwpsn  file "C:/work/grepos/bootrom/Boot_ROM/F2837x_bootROM-REVB/F2837x_bootROM_dev/F2837x_bootROM/c
    1181 000000f2 761F-         MOVW      DP,#_c1brom_nmi_status ; [CPU_U] 
         000000f3 0000 
    1182 000000f4 1800-         AND       @_c1brom_nmi_status,#0xff7f ; [CPU_] |356| 
         000000f5 FF7F 
    1183                      .dwpsn  file "C:/work/grepos/bootrom/Boot_ROM/F2837x_bootROM-REVB/F2837x_bootROM_dev/F2837x_bootROM/c
    1184 000000f6 7622   EALLOW
    1185                      .dwpsn  file "C:/work/grepos/bootrom/Boot_ROM/F2837x_bootROM-REVB/F2837x_bootROM_dev/F2837x_bootROM/c
    1186 000000f7 761F!         MOVW      DP,#_NmiIntruptRegs+2 ; [CPU_U] 
         000000f8 0000 
    1187 000000f9 1A02!         OR        @_NmiIntruptRegs+2,#0x0080 ; [CPU_] |358| 
         000000fa 0080 
    1188                      .dwpsn  file "C:/work/grepos/bootrom/Boot_ROM/F2837x_bootROM-REVB/F2837x_bootROM_dev/F2837x_bootROM/c
    1189 000000fb 761A   EDIS
    1190 000000fc       $C$DW$L$_c1brom_handle_nmi$15$E:
    1191 000000fc       $C$L28:    
    1192 000000fc       $C$DW$L$_c1brom_handle_nmi$16$B:
    1193                      .dwpsn  file "C:/work/grepos/bootrom/Boot_ROM/F2837x_bootROM-REVB/F2837x_bootROM_dev/F2837x_bootROM/c
    1194 000000fc 761F-         MOVW      DP,#_c1brom_nmi_status ; [CPU_U] 
         000000fd 0000 
    1195 000000fe 4800-         TBIT      @_c1brom_nmi_status,#8 ; [CPU_] |361| 
    1196 000000ff EF0F          BF        $C$L29,NTC            ; [CPU_] |361| 
    1197                      ; branchcc occurs ; [] |361| 
    1198 00000100       $C$DW$L$_c1brom_handle_nmi$16$E:
    1199 00000100       $C$DW$L$_c1brom_handle_nmi$17$B:
    1200                      .dwpsn  file "C:/work/grepos/bootrom/Boot_ROM/F2837x_bootROM-REVB/F2837x_bootROM_dev/F2837x_bootROM/c
    1201 00000100 761F!         MOVW      DP,#_c1brom_status+1  ; [CPU_U] 
         00000101 0000 
    1202 00000102 1A01!         OR        @_c1brom_status+1,#128 ; [CPU_] |363| 
         00000103 0080 
    1203                      .dwpsn  file "C:/work/grepos/bootrom/Boot_ROM/F2837x_bootROM-REVB/F2837x_bootROM_dev/F2837x_bootROM/c
    1204 00000104 761F-         MOVW      DP,#_c1brom_nmi_status ; [CPU_U] 
         00000105 0000 
    1205 00000106 1800-         AND       @_c1brom_nmi_status,#0xfeff ; [CPU_] |365| 
         00000107 FEFF 
    1206                      .dwpsn  file "C:/work/grepos/bootrom/Boot_ROM/F2837x_bootROM-REVB/F2837x_bootROM_dev/F2837x_bootROM/c
    1207 00000108 7622   EALLOW
    1208                      .dwpsn  file "C:/work/grepos/bootrom/Boot_ROM/F2837x_bootROM-REVB/F2837x_bootROM_dev/F2837x_bootROM/c
    1209 00000109 761F!         MOVW      DP,#_NmiIntruptRegs+2 ; [CPU_U] 
         0000010a 0000 
    1210 0000010b 1A02!         OR        @_NmiIntruptRegs+2,#0x0100 ; [CPU_] |367| 
         0000010c 0100 
    1211                      .dwpsn  file "C:/work/grepos/bootrom/Boot_ROM/F2837x_bootROM-REVB/F2837x_bootROM_dev/F2837x_bootROM/c
    1212 0000010d 761A   EDIS
    1213 0000010e       $C$DW$L$_c1brom_handle_nmi$17$E:
    1214 0000010e       $C$L29:    
    1215 0000010e       $C$DW$L$_c1brom_handle_nmi$18$B:
    1216                      .dwpsn  file "C:/work/grepos/bootrom/Boot_ROM/F2837x_bootROM-REVB/F2837x_bootROM_dev/F2837x_bootROM/c
    1217 0000010e 761F-         MOVW      DP,#_c1brom_nmi_status ; [CPU_U] 
         0000010f 0000 
    1218 00000110 4900-         TBIT      @_c1brom_nmi_status,#9 ; [CPU_] |370| 
    1219 00000111 EF0F          BF        $C$L30,NTC            ; [CPU_] |370| 
    1220                      ; branchcc occurs ; [] |370| 
TMS320C2000 Assembler PC v6.1.3 Thu Jan 30 10:26:14 2014

Tools Copyright (c) 1996-2012 Texas Instruments Incorporated
C:\Users\a0272466\AppData\Local\Temp\0274010                         PAGE   26

    1221 00000112       $C$DW$L$_c1brom_handle_nmi$18$E:
    1222 00000112       $C$DW$L$_c1brom_handle_nmi$19$B:
    1223                      .dwpsn  file "C:/work/grepos/bootrom/Boot_ROM/F2837x_bootROM-REVB/F2837x_bootROM_dev/F2837x_bootROM/c
    1224 00000112 761F!         MOVW      DP,#_c1brom_status+1  ; [CPU_U] 
         00000113 0000 
    1225 00000114 1A01!         OR        @_c1brom_status+1,#64 ; [CPU_] |372| 
         00000115 0040 
    1226                      .dwpsn  file "C:/work/grepos/bootrom/Boot_ROM/F2837x_bootROM-REVB/F2837x_bootROM_dev/F2837x_bootROM/c
    1227 00000116 761F-         MOVW      DP,#_c1brom_nmi_status ; [CPU_U] 
         00000117 0000 
    1228 00000118 1800-         AND       @_c1brom_nmi_status,#0xfdff ; [CPU_] |374| 
         00000119 FDFF 
    1229                      .dwpsn  file "C:/work/grepos/bootrom/Boot_ROM/F2837x_bootROM-REVB/F2837x_bootROM_dev/F2837x_bootROM/c
    1230 0000011a 7622   EALLOW
    1231                      .dwpsn  file "C:/work/grepos/bootrom/Boot_ROM/F2837x_bootROM-REVB/F2837x_bootROM_dev/F2837x_bootROM/c
    1232 0000011b 761F!         MOVW      DP,#_NmiIntruptRegs+2 ; [CPU_U] 
         0000011c 0000 
    1233 0000011d 1A02!         OR        @_NmiIntruptRegs+2,#0x0200 ; [CPU_] |376| 
         0000011e 0200 
    1234                      .dwpsn  file "C:/work/grepos/bootrom/Boot_ROM/F2837x_bootROM-REVB/F2837x_bootROM_dev/F2837x_bootROM/c
    1235 0000011f 761A   EDIS
    1236 00000120       $C$DW$L$_c1brom_handle_nmi$19$E:
    1237 00000120       $C$L30:    
    1238 00000120       $C$DW$L$_c1brom_handle_nmi$20$B:
    1239                      .dwpsn  file "C:/work/grepos/bootrom/Boot_ROM/F2837x_bootROM-REVB/F2837x_bootROM_dev/F2837x_bootROM/c
    1240 00000120 761F-         MOVW      DP,#_c1brom_nmi_status ; [CPU_U] 
         00000121 0000 
    1241 00000122 4A00-         TBIT      @_c1brom_nmi_status,#10 ; [CPU_] |380| 
    1242 00000123 EF0F          BF        $C$L31,NTC            ; [CPU_] |380| 
    1243                      ; branchcc occurs ; [] |380| 
    1244 00000124       $C$DW$L$_c1brom_handle_nmi$20$E:
    1245 00000124       $C$DW$L$_c1brom_handle_nmi$21$B:
    1246                      .dwpsn  file "C:/work/grepos/bootrom/Boot_ROM/F2837x_bootROM-REVB/F2837x_bootROM_dev/F2837x_bootROM/c
    1247 00000124 761F!         MOVW      DP,#_c1brom_status+1  ; [CPU_U] 
         00000125 0000 
    1248 00000126 1A01!         OR        @_c1brom_status+1,#64 ; [CPU_] |382| 
         00000127 0040 
    1249                      .dwpsn  file "C:/work/grepos/bootrom/Boot_ROM/F2837x_bootROM-REVB/F2837x_bootROM_dev/F2837x_bootROM/c
    1250 00000128 761F-         MOVW      DP,#_c1brom_nmi_status ; [CPU_U] 
         00000129 0000 
    1251 0000012a 1800-         AND       @_c1brom_nmi_status,#0xfbff ; [CPU_] |384| 
         0000012b FBFF 
    1252                      .dwpsn  file "C:/work/grepos/bootrom/Boot_ROM/F2837x_bootROM-REVB/F2837x_bootROM_dev/F2837x_bootROM/c
    1253 0000012c 7622   EALLOW
    1254                      .dwpsn  file "C:/work/grepos/bootrom/Boot_ROM/F2837x_bootROM-REVB/F2837x_bootROM_dev/F2837x_bootROM/c
    1255 0000012d 761F!         MOVW      DP,#_NmiIntruptRegs+2 ; [CPU_U] 
         0000012e 0000 
    1256 0000012f 1A02!         OR        @_NmiIntruptRegs+2,#0x0400 ; [CPU_] |386| 
         00000130 0400 
    1257                      .dwpsn  file "C:/work/grepos/bootrom/Boot_ROM/F2837x_bootROM-REVB/F2837x_bootROM_dev/F2837x_bootROM/c
    1258 00000131 761A   EDIS
    1259 00000132       $C$DW$L$_c1brom_handle_nmi$21$E:
    1260 00000132       $C$L31:    
    1261 00000132       $C$DW$L$_c1brom_handle_nmi$22$B:
    1262                      .dwpsn  file "C:/work/grepos/bootrom/Boot_ROM/F2837x_bootROM-REVB/F2837x_bootROM_dev/F2837x_bootROM/c
TMS320C2000 Assembler PC v6.1.3 Thu Jan 30 10:26:14 2014

Tools Copyright (c) 1996-2012 Texas Instruments Incorporated
C:\Users\a0272466\AppData\Local\Temp\0274010                         PAGE   27

    1263 00000132 761F-         MOVW      DP,#_c1brom_nmi_status ; [CPU_U] 
         00000133 0000 
    1264 00000134 4B00-         TBIT      @_c1brom_nmi_status,#11 ; [CPU_] |390| 
    1265 00000135 EF0F          BF        $C$L32,NTC            ; [CPU_] |390| 
    1266                      ; branchcc occurs ; [] |390| 
    1267 00000136       $C$DW$L$_c1brom_handle_nmi$22$E:
    1268 00000136       $C$DW$L$_c1brom_handle_nmi$23$B:
    1269                      .dwpsn  file "C:/work/grepos/bootrom/Boot_ROM/F2837x_bootROM-REVB/F2837x_bootROM_dev/F2837x_bootROM/c
    1270 00000136 761F!         MOVW      DP,#_c1brom_status+1  ; [CPU_U] 
         00000137 0000 
    1271 00000138 1A01!         OR        @_c1brom_status+1,#16 ; [CPU_] |392| 
         00000139 0010 
    1272                      .dwpsn  file "C:/work/grepos/bootrom/Boot_ROM/F2837x_bootROM-REVB/F2837x_bootROM_dev/F2837x_bootROM/c
    1273 0000013a 761F-         MOVW      DP,#_c1brom_nmi_status ; [CPU_U] 
         0000013b 0000 
    1274 0000013c 1800-         AND       @_c1brom_nmi_status,#0xf7ff ; [CPU_] |394| 
         0000013d F7FF 
    1275                      .dwpsn  file "C:/work/grepos/bootrom/Boot_ROM/F2837x_bootROM-REVB/F2837x_bootROM_dev/F2837x_bootROM/c
    1276 0000013e 7622   EALLOW
    1277                      .dwpsn  file "C:/work/grepos/bootrom/Boot_ROM/F2837x_bootROM-REVB/F2837x_bootROM_dev/F2837x_bootROM/c
    1278 0000013f 761F!         MOVW      DP,#_NmiIntruptRegs+2 ; [CPU_U] 
         00000140 0000 
    1279 00000141 1A02!         OR        @_NmiIntruptRegs+2,#0x0800 ; [CPU_] |396| 
         00000142 0800 
    1280                      .dwpsn  file "C:/work/grepos/bootrom/Boot_ROM/F2837x_bootROM-REVB/F2837x_bootROM_dev/F2837x_bootROM/c
    1281 00000143 761A   EDIS
    1282 00000144       $C$DW$L$_c1brom_handle_nmi$23$E:
    1283 00000144       $C$L32:    
    1284 00000144       $C$DW$L$_c1brom_handle_nmi$24$B:
    1285                      .dwpsn  file "C:/work/grepos/bootrom/Boot_ROM/F2837x_bootROM-REVB/F2837x_bootROM_dev/F2837x_bootROM/c
    1286 00000144 761F-         MOVW      DP,#_c1brom_nmi_status ; [CPU_U] 
         00000145 0000 
    1287 00000146 4200-         TBIT      @_c1brom_nmi_status,#2 ; [CPU_] |402| 
    1288 00000147 EF07          BF        $C$L34,NTC            ; [CPU_] |402| 
    1289                      ; branchcc occurs ; [] |402| 
    1290 00000148       $C$DW$L$_c1brom_handle_nmi$24$E:
    1291                      .dwpsn  file "C:/work/grepos/bootrom/Boot_ROM/F2837x_bootROM-REVB/F2837x_bootROM_dev/F2837x_bootROM/c
    1292 00000148 761F!         MOVW      DP,#_c1brom_status+1  ; [CPU_U] 
         00000149 0000 
    1293 0000014a 1A01!         OR        @_c1brom_status+1,#8192 ; [CPU_] |404| 
         0000014b 2000 
    1294                      .dwpsn  file "C:/work/grepos/bootrom/Boot_ROM/F2837x_bootROM-REVB/F2837x_bootROM_dev/F2837x_bootROM/c
    1295 0000014c 7625     ESTOP0
    1296                      .dwpsn  file "C:/work/grepos/bootrom/Boot_ROM/F2837x_bootROM-REVB/F2837x_bootROM_dev/F2837x_bootROM/c
    1297 0000014d       $C$L33:    
    1298 0000014d       $C$DW$L$_c1brom_handle_nmi$26$B:
    1299 0000014d 6F00          B         $C$L33,UNC            ; [CPU_] |410| 
    1300                      ; branch occurs ; [] |410| 
    1301 0000014e       $C$DW$L$_c1brom_handle_nmi$26$E:
    1302 0000014e       $C$L34:    
    1303 0000014e       $C$DW$L$_c1brom_handle_nmi$27$B:
    1304                      .dwpsn  file "C:/work/grepos/bootrom/Boot_ROM/F2837x_bootROM-REVB/F2837x_bootROM_dev/F2837x_bootROM/c
    1305 0000014e 4300-         TBIT      @_c1brom_nmi_status,#3 ; [CPU_] |417| 
    1306 0000014f EF07          BF        $C$L36,NTC            ; [CPU_] |417| 
    1307                      ; branchcc occurs ; [] |417| 
TMS320C2000 Assembler PC v6.1.3 Thu Jan 30 10:26:14 2014

Tools Copyright (c) 1996-2012 Texas Instruments Incorporated
C:\Users\a0272466\AppData\Local\Temp\0274010                         PAGE   28

    1308 00000150       $C$DW$L$_c1brom_handle_nmi$27$E:
    1309                      .dwpsn  file "C:/work/grepos/bootrom/Boot_ROM/F2837x_bootROM-REVB/F2837x_bootROM_dev/F2837x_bootROM/c
    1310 00000150 761F!         MOVW      DP,#_c1brom_status+1  ; [CPU_U] 
         00000151 0000 
    1311 00000152 1A01!         OR        @_c1brom_status+1,#4096 ; [CPU_] |419| 
         00000153 1000 
    1312                      .dwpsn  file "C:/work/grepos/bootrom/Boot_ROM/F2837x_bootROM-REVB/F2837x_bootROM_dev/F2837x_bootROM/c
    1313 00000154 7625     ESTOP0
    1314                      .dwpsn  file "C:/work/grepos/bootrom/Boot_ROM/F2837x_bootROM-REVB/F2837x_bootROM_dev/F2837x_bootROM/c
    1315 00000155       $C$L35:    
    1316 00000155       $C$DW$L$_c1brom_handle_nmi$29$B:
    1317 00000155 6F00          B         $C$L35,UNC            ; [CPU_] |425| 
    1318                      ; branch occurs ; [] |425| 
    1319 00000156       $C$DW$L$_c1brom_handle_nmi$29$E:
    1320 00000156       $C$L36:    
    1321 00000156       $C$DW$L$_c1brom_handle_nmi$30$B:
    1322                      .dwpsn  file "C:/work/grepos/bootrom/Boot_ROM/F2837x_bootROM-REVB/F2837x_bootROM_dev/F2837x_bootROM/c
    1323 00000156 1800-         AND       @_c1brom_nmi_status,#0xfffe ; [CPU_] |433| 
         00000157 FFFE 
    1324                      .dwpsn  file "C:/work/grepos/bootrom/Boot_ROM/F2837x_bootROM-REVB/F2837x_bootROM_dev/F2837x_bootROM/c
    1325 00000158 7622   EALLOW
    1326                      .dwpsn  file "C:/work/grepos/bootrom/Boot_ROM/F2837x_bootROM-REVB/F2837x_bootROM_dev/F2837x_bootROM/c
    1327 00000159 761F!         MOVW      DP,#_NmiIntruptRegs+2 ; [CPU_U] 
         0000015a 0000 
    1328 0000015b 1A02!         OR        @_NmiIntruptRegs+2,#0x0001 ; [CPU_] |435| 
         0000015c 0001 
    1329                      .dwpsn  file "C:/work/grepos/bootrom/Boot_ROM/F2837x_bootROM-REVB/F2837x_bootROM_dev/F2837x_bootROM/c
    1330 0000015d 761A   EDIS
    1331                      .dwpsn  file "C:/work/grepos/bootrom/Boot_ROM/F2837x_bootROM-REVB/F2837x_bootROM_dev/F2837x_bootROM/c
    1332 0000015e 9201!         MOV       AL,@_NmiIntruptRegs+1 ; [CPU_] |438| 
    1333 0000015f 761F-         MOVW      DP,#_c1brom_nmi_status ; [CPU_U] 
         00000160 0000 
    1334 00000161 9600-         MOV       @_c1brom_nmi_status,AL ; [CPU_] |438| 
    1335                      .dwpsn  file "C:/work/grepos/bootrom/Boot_ROM/F2837x_bootROM-REVB/F2837x_bootROM_dev/F2837x_bootROM/c
    1336 00000162 4000-         TBIT      @_c1brom_nmi_status,#0 ; [CPU_] |296| 
    1337 00000163 56CD          BF        $C$L23,TC             ; [CPU_] |296| 
         00000164 FF32 
    1338                      ; branchcc occurs ; [] |296| 
    1339 00000165       $C$DW$L$_c1brom_handle_nmi$30$E:
    1340                      .dwpsn  file "C:/work/grepos/bootrom/Boot_ROM/F2837x_bootROM-REVB/F2837x_bootROM_dev/F2837x_bootROM/c
    1341 00000165       $C$L37:    
    1342 00000165 FE82          SUBB      SP,#2                 ; [CPU_U] 
    1343                      .dwcfi  cfa_offset, -26
    1344 00000166 E2AF          MOV32     R3H,*--SP             ; [CPU_] 
         00000167 03BE 
    1345                      .dwcfi  cfa_offset, -24
    1346                      .dwcfi  restore_reg, 55
    1347                      .dwcfi  restore_reg, 56
    1348 00000168 E2AF          MOV32     R2H,*--SP             ; [CPU_] 
         00000169 02BE 
    1349                      .dwcfi  cfa_offset, -22
    1350                      .dwcfi  restore_reg, 51
    1351                      .dwcfi  restore_reg, 52
    1352 0000016a E2AF          MOV32     R1H,*--SP             ; [CPU_] 
         0000016b 01BE 
TMS320C2000 Assembler PC v6.1.3 Thu Jan 30 10:26:14 2014

Tools Copyright (c) 1996-2012 Texas Instruments Incorporated
C:\Users\a0272466\AppData\Local\Temp\0274010                         PAGE   29

    1353                      .dwcfi  cfa_offset, -20
    1354                      .dwcfi  restore_reg, 47
    1355                      .dwcfi  restore_reg, 48
    1356 0000016c E2AF          MOV32     R0H,*--SP             ; [CPU_] 
         0000016d 00BE 
    1357                      .dwcfi  cfa_offset, -18
    1358                      .dwcfi  restore_reg, 43
    1359                      .dwcfi  restore_reg, 44
    1360 0000016e E280          MOV32     STF,*--SP             ; [CPU_] 
         0000016f 00BE 
    1361                      .dwcfi  cfa_offset, -16
    1362                      .dwcfi  restore_reg, 39
    1363                      .dwcfi  restore_reg, 40
    1364 00000170 C5BE          MOVL      XAR7,*--SP            ; [CPU_] 
    1365                      .dwcfi  cfa_offset, -14
    1366                      .dwcfi  restore_reg, 18
    1367 00000171 C4BE          MOVL      XAR6,*--SP            ; [CPU_] 
    1368                      .dwcfi  cfa_offset, -12
    1369                      .dwcfi  restore_reg, 16
    1370 00000172 83BE          MOVL      XAR5,*--SP            ; [CPU_] 
    1371                      .dwcfi  cfa_offset, -10
    1372                      .dwcfi  restore_reg, 14
    1373 00000173 8ABE          MOVL      XAR4,*--SP            ; [CPU_] 
    1374                      .dwcfi  cfa_offset, -8
    1375                      .dwcfi  restore_reg, 12
    1376 00000174 87BE          MOVL      XT,*--SP              ; [CPU_] 
    1377                      .dwcfi  cfa_offset, -6
    1378                      .dwcfi  restore_reg, 22
    1379                      .dwcfi  restore_reg, 21
    1380 00000175 0003          POP       AR1H:AR0H             ; [CPU_] 
    1381                      .dwcfi  cfa_offset, -4
    1382                      .dwcfi  restore_reg, 5
    1383                      .dwcfi  restore_reg, 7
    1384 00000176 FFF1          POP       RB                    ; [CPU_] 
    1385                      .dwcfi  cfa_offset, -2
    1386                      .dwcfi  restore_reg, 73
    1387                      .dwcfi  restore_reg, 74
    1388 00000177 7617          NASP      ; [CPU_] 
    1389              $C$DW$73        .dwtag  DW_TAG_TI_branch
    1390                      .dwattr $C$DW$73, DW_AT_low_pc(0x00)
    1391                      .dwattr $C$DW$73, DW_AT_TI_return
    1392 00000178 7602          IRET      ; [CPU_] 
    1393                      ; return occurs ; [] 
    1394              
    1395              $C$DW$74        .dwtag  DW_TAG_TI_loop
    1396                      .dwattr $C$DW$74, DW_AT_name("C:\\Users\\a0272466\\AppData\\Local\\Temp\\0274010:$C$L35:1:1391099172"
    1397                      .dwattr $C$DW$74, DW_AT_TI_begin_file("C:/work/grepos/bootrom/Boot_ROM/F2837x_bootROM-REVB/F2837x_boo
    1398                      .dwattr $C$DW$74, DW_AT_TI_begin_line(0x1a9)
    1399                      .dwattr $C$DW$74, DW_AT_TI_end_line(0x1a9)
    1400              $C$DW$75        .dwtag  DW_TAG_TI_loop_range
    1401                      .dwattr $C$DW$75, DW_AT_low_pc($C$DW$L$_c1brom_handle_nmi$29$B)
    1402                      .dwattr $C$DW$75, DW_AT_high_pc($C$DW$L$_c1brom_handle_nmi$29$E)
    1403                      .dwendtag $C$DW$74
    1404              
    1405              
TMS320C2000 Assembler PC v6.1.3 Thu Jan 30 10:26:14 2014

Tools Copyright (c) 1996-2012 Texas Instruments Incorporated
C:\Users\a0272466\AppData\Local\Temp\0274010                         PAGE   30

    1406              $C$DW$76        .dwtag  DW_TAG_TI_loop
    1407                      .dwattr $C$DW$76, DW_AT_name("C:\\Users\\a0272466\\AppData\\Local\\Temp\\0274010:$C$L33:1:1391099172"
    1408                      .dwattr $C$DW$76, DW_AT_TI_begin_file("C:/work/grepos/bootrom/Boot_ROM/F2837x_bootROM-REVB/F2837x_boo
    1409                      .dwattr $C$DW$76, DW_AT_TI_begin_line(0x19a)
    1410                      .dwattr $C$DW$76, DW_AT_TI_end_line(0x19a)
    1411              $C$DW$77        .dwtag  DW_TAG_TI_loop_range
    1412                      .dwattr $C$DW$77, DW_AT_low_pc($C$DW$L$_c1brom_handle_nmi$26$B)
    1413                      .dwattr $C$DW$77, DW_AT_high_pc($C$DW$L$_c1brom_handle_nmi$26$E)
    1414                      .dwendtag $C$DW$76
    1415              
    1416              
    1417              $C$DW$78        .dwtag  DW_TAG_TI_loop
    1418                      .dwattr $C$DW$78, DW_AT_name("C:\\Users\\a0272466\\AppData\\Local\\Temp\\0274010:$C$L23:1:1391099172"
    1419                      .dwattr $C$DW$78, DW_AT_TI_begin_file("C:/work/grepos/bootrom/Boot_ROM/F2837x_bootROM-REVB/F2837x_boo
    1420                      .dwattr $C$DW$78, DW_AT_TI_begin_line(0x128)
    1421                      .dwattr $C$DW$78, DW_AT_TI_end_line(0x1b8)
    1422              $C$DW$79        .dwtag  DW_TAG_TI_loop_range
    1423                      .dwattr $C$DW$79, DW_AT_low_pc($C$DW$L$_c1brom_handle_nmi$5$B)
    1424                      .dwattr $C$DW$79, DW_AT_high_pc($C$DW$L$_c1brom_handle_nmi$5$E)
    1425              $C$DW$80        .dwtag  DW_TAG_TI_loop_range
    1426                      .dwattr $C$DW$80, DW_AT_low_pc($C$DW$L$_c1brom_handle_nmi$6$B)
    1427                      .dwattr $C$DW$80, DW_AT_high_pc($C$DW$L$_c1brom_handle_nmi$6$E)
    1428              $C$DW$81        .dwtag  DW_TAG_TI_loop_range
    1429                      .dwattr $C$DW$81, DW_AT_low_pc($C$DW$L$_c1brom_handle_nmi$8$B)
    1430                      .dwattr $C$DW$81, DW_AT_high_pc($C$DW$L$_c1brom_handle_nmi$8$E)
    1431              $C$DW$82        .dwtag  DW_TAG_TI_loop_range
    1432                      .dwattr $C$DW$82, DW_AT_low_pc($C$DW$L$_c1brom_handle_nmi$9$B)
    1433                      .dwattr $C$DW$82, DW_AT_high_pc($C$DW$L$_c1brom_handle_nmi$9$E)
    1434              $C$DW$83        .dwtag  DW_TAG_TI_loop_range
    1435                      .dwattr $C$DW$83, DW_AT_low_pc($C$DW$L$_c1brom_handle_nmi$10$B)
    1436                      .dwattr $C$DW$83, DW_AT_high_pc($C$DW$L$_c1brom_handle_nmi$10$E)
    1437              $C$DW$84        .dwtag  DW_TAG_TI_loop_range
    1438                      .dwattr $C$DW$84, DW_AT_low_pc($C$DW$L$_c1brom_handle_nmi$11$B)
    1439                      .dwattr $C$DW$84, DW_AT_high_pc($C$DW$L$_c1brom_handle_nmi$11$E)
    1440              $C$DW$85        .dwtag  DW_TAG_TI_loop_range
    1441                      .dwattr $C$DW$85, DW_AT_low_pc($C$DW$L$_c1brom_handle_nmi$12$B)
    1442                      .dwattr $C$DW$85, DW_AT_high_pc($C$DW$L$_c1brom_handle_nmi$12$E)
    1443              $C$DW$86        .dwtag  DW_TAG_TI_loop_range
    1444                      .dwattr $C$DW$86, DW_AT_low_pc($C$DW$L$_c1brom_handle_nmi$13$B)
    1445                      .dwattr $C$DW$86, DW_AT_high_pc($C$DW$L$_c1brom_handle_nmi$13$E)
    1446              $C$DW$87        .dwtag  DW_TAG_TI_loop_range
    1447                      .dwattr $C$DW$87, DW_AT_low_pc($C$DW$L$_c1brom_handle_nmi$14$B)
    1448                      .dwattr $C$DW$87, DW_AT_high_pc($C$DW$L$_c1brom_handle_nmi$14$E)
    1449              $C$DW$88        .dwtag  DW_TAG_TI_loop_range
    1450                      .dwattr $C$DW$88, DW_AT_low_pc($C$DW$L$_c1brom_handle_nmi$15$B)
    1451                      .dwattr $C$DW$88, DW_AT_high_pc($C$DW$L$_c1brom_handle_nmi$15$E)
    1452              $C$DW$89        .dwtag  DW_TAG_TI_loop_range
    1453                      .dwattr $C$DW$89, DW_AT_low_pc($C$DW$L$_c1brom_handle_nmi$16$B)
    1454                      .dwattr $C$DW$89, DW_AT_high_pc($C$DW$L$_c1brom_handle_nmi$16$E)
    1455              $C$DW$90        .dwtag  DW_TAG_TI_loop_range
    1456                      .dwattr $C$DW$90, DW_AT_low_pc($C$DW$L$_c1brom_handle_nmi$17$B)
    1457                      .dwattr $C$DW$90, DW_AT_high_pc($C$DW$L$_c1brom_handle_nmi$17$E)
    1458              $C$DW$91        .dwtag  DW_TAG_TI_loop_range
    1459                      .dwattr $C$DW$91, DW_AT_low_pc($C$DW$L$_c1brom_handle_nmi$18$B)
    1460                      .dwattr $C$DW$91, DW_AT_high_pc($C$DW$L$_c1brom_handle_nmi$18$E)
TMS320C2000 Assembler PC v6.1.3 Thu Jan 30 10:26:14 2014

Tools Copyright (c) 1996-2012 Texas Instruments Incorporated
C:\Users\a0272466\AppData\Local\Temp\0274010                         PAGE   31

    1461              $C$DW$92        .dwtag  DW_TAG_TI_loop_range
    1462                      .dwattr $C$DW$92, DW_AT_low_pc($C$DW$L$_c1brom_handle_nmi$19$B)
    1463                      .dwattr $C$DW$92, DW_AT_high_pc($C$DW$L$_c1brom_handle_nmi$19$E)
    1464              $C$DW$93        .dwtag  DW_TAG_TI_loop_range
    1465                      .dwattr $C$DW$93, DW_AT_low_pc($C$DW$L$_c1brom_handle_nmi$20$B)
    1466                      .dwattr $C$DW$93, DW_AT_high_pc($C$DW$L$_c1brom_handle_nmi$20$E)
    1467              $C$DW$94        .dwtag  DW_TAG_TI_loop_range
    1468                      .dwattr $C$DW$94, DW_AT_low_pc($C$DW$L$_c1brom_handle_nmi$21$B)
    1469                      .dwattr $C$DW$94, DW_AT_high_pc($C$DW$L$_c1brom_handle_nmi$21$E)
    1470              $C$DW$95        .dwtag  DW_TAG_TI_loop_range
    1471                      .dwattr $C$DW$95, DW_AT_low_pc($C$DW$L$_c1brom_handle_nmi$22$B)
    1472                      .dwattr $C$DW$95, DW_AT_high_pc($C$DW$L$_c1brom_handle_nmi$22$E)
    1473              $C$DW$96        .dwtag  DW_TAG_TI_loop_range
    1474                      .dwattr $C$DW$96, DW_AT_low_pc($C$DW$L$_c1brom_handle_nmi$23$B)
    1475                      .dwattr $C$DW$96, DW_AT_high_pc($C$DW$L$_c1brom_handle_nmi$23$E)
    1476              $C$DW$97        .dwtag  DW_TAG_TI_loop_range
    1477                      .dwattr $C$DW$97, DW_AT_low_pc($C$DW$L$_c1brom_handle_nmi$24$B)
    1478                      .dwattr $C$DW$97, DW_AT_high_pc($C$DW$L$_c1brom_handle_nmi$24$E)
    1479              $C$DW$98        .dwtag  DW_TAG_TI_loop_range
    1480                      .dwattr $C$DW$98, DW_AT_low_pc($C$DW$L$_c1brom_handle_nmi$27$B)
    1481                      .dwattr $C$DW$98, DW_AT_high_pc($C$DW$L$_c1brom_handle_nmi$27$E)
    1482              $C$DW$99        .dwtag  DW_TAG_TI_loop_range
    1483                      .dwattr $C$DW$99, DW_AT_low_pc($C$DW$L$_c1brom_handle_nmi$30$B)
    1484                      .dwattr $C$DW$99, DW_AT_high_pc($C$DW$L$_c1brom_handle_nmi$30$E)
    1485                      .dwendtag $C$DW$78
    1486              
    1487                      .dwattr $C$DW$70, DW_AT_TI_end_file("C:/work/grepos/bootrom/Boot_ROM/F2837x_bootROM-REVB/F2837x_bootR
    1488                      .dwattr $C$DW$70, DW_AT_TI_end_line(0x1bb)
    1489                      .dwattr $C$DW$70, DW_AT_TI_end_column(0x01)
    1490                      .dwendentry
    1491                      .dwendtag $C$DW$70
    1492              
    1493 00000179               .sect   ".text:retain"
    1494                      .global _c1brom_itrap_isr
    1495              
    1496              $C$DW$100       .dwtag  DW_TAG_subprogram, DW_AT_name("c1brom_itrap_isr")
    1497                      .dwattr $C$DW$100, DW_AT_low_pc(_c1brom_itrap_isr)
    1498                      .dwattr $C$DW$100, DW_AT_high_pc(0x00)
    1499                      .dwattr $C$DW$100, DW_AT_TI_symbol_name("_c1brom_itrap_isr")
    1500                      .dwattr $C$DW$100, DW_AT_external
    1501                      .dwattr $C$DW$100, DW_AT_TI_begin_file("C:/work/grepos/bootrom/Boot_ROM/F2837x_bootROM-REVB/F2837x_bo
    1502                      .dwattr $C$DW$100, DW_AT_TI_begin_line(0x1bf)
    1503                      .dwattr $C$DW$100, DW_AT_TI_begin_column(0x10)
    1504                      .dwattr $C$DW$100, DW_AT_TI_interrupt
    1505                      .dwattr $C$DW$100, DW_AT_TI_max_frame_size(-26)
    1506                      .dwpsn  file "C:/work/grepos/bootrom/Boot_ROM/F2837x_bootROM-REVB/F2837x_bootROM_dev/F2837x_bootROM/c
    1507              
    1508                      .dwfde $C$DW$CIE, _c1brom_itrap_isr
    1509              
    1510              ;***************************************************************
    1511              ;* FNAME: _c1brom_itrap_isr             FR SIZE:  24           *
    1512              ;*                                                             *
    1513              ;* FUNCTION ENVIRONMENT                                        *
    1514              ;*                                                             *
    1515              ;* FUNCTION PROPERTIES                                         *
TMS320C2000 Assembler PC v6.1.3 Thu Jan 30 10:26:14 2014

Tools Copyright (c) 1996-2012 Texas Instruments Incorporated
C:\Users\a0272466\AppData\Local\Temp\0274010                         PAGE   32

    1516              ;*                            0 Parameter,  0 Auto, 24 SOE     *
    1517              ;***************************************************************
    1518              
    1519 00000179       _c1brom_itrap_isr:
    1520 00000179 761B          ASP       ; [CPU_] 
    1521                      .dwcfi  cfa_offset, -2
    1522                      .dwcfi  save_reg_to_mem, 26, 0
    1523                      .dwcfi  save_reg_to_reg, 78, 26
    1524 0000017a FFF0          PUSH      RB                    ; [CPU_] 
    1525                      .dwcfi  save_reg_to_mem, 73, 2
    1526                      .dwcfi  save_reg_to_mem, 74, 3
    1527                      .dwcfi  cfa_offset, -4
    1528 0000017b 0005          PUSH      AR1H:AR0H             ; [CPU_] 
    1529                      .dwcfi  save_reg_to_mem, 5, 4
    1530                      .dwcfi  save_reg_to_mem, 7, 5
    1531                      .dwcfi  cfa_offset, -6
    1532 0000017c ABBD          MOVL      *SP++,XT              ; [CPU_] 
    1533                      .dwcfi  save_reg_to_mem, 21, 6
    1534                      .dwcfi  save_reg_to_mem, 22, 7
    1535                      .dwcfi  cfa_offset, -8
    1536 0000017d A8BD          MOVL      *SP++,XAR4            ; [CPU_] 
    1537                      .dwcfi  save_reg_to_mem, 12, 8
    1538                      .dwcfi  save_reg_to_mem, 13, 9
    1539                      .dwcfi  cfa_offset, -10
    1540 0000017e A0BD          MOVL      *SP++,XAR5            ; [CPU_] 
    1541                      .dwcfi  save_reg_to_mem, 14, 10
    1542                      .dwcfi  save_reg_to_mem, 15, 11
    1543                      .dwcfi  cfa_offset, -12
    1544 0000017f C2BD          MOVL      *SP++,XAR6            ; [CPU_] 
    1545                      .dwcfi  save_reg_to_mem, 16, 12
    1546                      .dwcfi  save_reg_to_mem, 17, 13
    1547                      .dwcfi  cfa_offset, -14
    1548 00000180 C3BD          MOVL      *SP++,XAR7            ; [CPU_] 
    1549                      .dwcfi  save_reg_to_mem, 18, 14
    1550                      .dwcfi  save_reg_to_mem, 19, 15
    1551                      .dwcfi  cfa_offset, -16
    1552 00000181 E200          MOV32     *SP++,STF             ; [CPU_] 
         00000182 00BD 
    1553                      .dwcfi  save_reg_to_mem, 39, 16
    1554                      .dwcfi  save_reg_to_mem, 40, 17
    1555                      .dwcfi  cfa_offset, -18
    1556 00000183 E203          MOV32     *SP++,R0H             ; [CPU_] 
         00000184 00BD 
    1557                      .dwcfi  save_reg_to_mem, 43, 18
    1558                      .dwcfi  save_reg_to_mem, 44, 19
    1559                      .dwcfi  cfa_offset, -20
    1560 00000185 E203          MOV32     *SP++,R1H             ; [CPU_] 
         00000186 01BD 
    1561                      .dwcfi  save_reg_to_mem, 47, 20
    1562                      .dwcfi  save_reg_to_mem, 48, 21
    1563                      .dwcfi  cfa_offset, -22
    1564 00000187 E203          MOV32     *SP++,R2H             ; [CPU_] 
         00000188 02BD 
    1565                      .dwcfi  save_reg_to_mem, 51, 22
    1566                      .dwcfi  save_reg_to_mem, 52, 23
TMS320C2000 Assembler PC v6.1.3 Thu Jan 30 10:26:14 2014

Tools Copyright (c) 1996-2012 Texas Instruments Incorporated
C:\Users\a0272466\AppData\Local\Temp\0274010                         PAGE   33

    1567                      .dwcfi  cfa_offset, -24
    1568 00000189 E203          MOV32     *SP++,R3H             ; [CPU_] 
         0000018a 03BD 
    1569                      .dwcfi  save_reg_to_mem, 55, 24
    1570                      .dwcfi  save_reg_to_mem, 56, 25
    1571                      .dwcfi  cfa_offset, -26
    1572 0000018b E630          SETFLG    RNDF32=1, RNDF64=1    ; [CPU_] 
         0000018c 0600 
    1573 0000018d FF69          SPM       0                     ; [CPU_] 
    1574 0000018e 2942          CLRC      PAGE0,OVM             ; [CPU_] 
    1575 0000018f 5616          CLRC      AMODE                 ; [CPU_] 
    1576                      .dwpsn  file "C:/work/grepos/bootrom/Boot_ROM/F2837x_bootROM-REVB/F2837x_bootROM_dev/F2837x_bootROM/c
    1577 00000190 761F!         MOVW      DP,#_c1brom_status+1  ; [CPU_U] 
         00000191 0000 
    1578 00000192 1A01!         OR        @_c1brom_status+1,#2  ; [CPU_] |451| 
         00000193 0002 
    1579                      .dwpsn  file "C:/work/grepos/bootrom/Boot_ROM/F2837x_bootROM-REVB/F2837x_bootROM_dev/F2837x_bootROM/c
    1580 00000194 0200          MOVB      ACC,#0                ; [CPU_] |456| 
    1581 00000195 761F-         MOVW      DP,#_iTrap_addr       ; [CPU_U] 
         00000196 0000 
    1582 00000197 1901          SUBB      ACC,#1                ; [CPU_] |456| 
    1583 00000198 1E02-         MOVL      @_iTrap_addr,ACC      ; [CPU_] |456| 
    1584                      .dwpsn  file "C:/work/grepos/bootrom/Boot_ROM/F2837x_bootROM-REVB/F2837x_bootROM_dev/F2837x_bootROM/c
    1585 00000199 8F00-         MOVL      XAR4,#_iTrap_addr     ; [CPU_U] |462| 
         0000019a 0002 
    1586              $C$DW$101       .dwtag  DW_TAG_TI_branch
    1587                      .dwattr $C$DW$101, DW_AT_low_pc(0x00)
    1588                      .dwattr $C$DW$101, DW_AT_name("_load_itrap_address")
    1589                      .dwattr $C$DW$101, DW_AT_TI_call
    1590 0000019b 7640!         LCR       #_load_itrap_address  ; [CPU_] |462| 
         0000019c 0000 
    1591                      ; call occurs [#_load_itrap_address] ; [] |462| 
    1592                      .dwpsn  file "C:/work/grepos/bootrom/Boot_ROM/F2837x_bootROM-REVB/F2837x_bootROM_dev/F2837x_bootROM/c
    1593 0000019d 761F-         MOVW      DP,#_iTrap_addr       ; [CPU_U] 
         0000019e 0000 
    1594 0000019f 0201          MOVB      ACC,#1                ; [CPU_] |465| 
    1595 000001a0 5641-         SUBL      @_iTrap_addr,ACC      ; [CPU_] |465| 
         000001a1 0002 
    1596                      .dwpsn  file "C:/work/grepos/bootrom/Boot_ROM/F2837x_bootROM-REVB/F2837x_bootROM_dev/F2837x_bootROM/c
    1597              $C$DW$102       .dwtag  DW_TAG_TI_branch
    1598                      .dwattr $C$DW$102, DW_AT_low_pc(0x00)
    1599                      .dwattr $C$DW$102, DW_AT_name("_sysctl_wdog_enable")
    1600                      .dwattr $C$DW$102, DW_AT_TI_call
    1601 000001a2 7640!         LCR       #_sysctl_wdog_enable  ; [CPU_] |470| 
         000001a3 0000 
    1602                      ; call occurs [#_sysctl_wdog_enable] ; [] |470| 
    1603                      .dwpsn  file "C:/work/grepos/bootrom/Boot_ROM/F2837x_bootROM-REVB/F2837x_bootROM_dev/F2837x_bootROM/c
    1604 000001a4 7625     ESTOP0
    1605                      .dwpsn  file "C:/work/grepos/bootrom/Boot_ROM/F2837x_bootROM-REVB/F2837x_bootROM_dev/F2837x_bootROM/c
    1606 000001a5       $C$L38:    
    1607 000001a5       $C$DW$L$_c1brom_itrap_isr$2$B:
    1608 000001a5 6F00          B         $C$L38,UNC            ; [CPU_] |474| 
    1609                      ; branch occurs ; [] |474| 
    1610 000001a6       $C$DW$L$_c1brom_itrap_isr$2$E:
    1611                      .dwcfi  cfa_offset, -26
TMS320C2000 Assembler PC v6.1.3 Thu Jan 30 10:26:14 2014

Tools Copyright (c) 1996-2012 Texas Instruments Incorporated
C:\Users\a0272466\AppData\Local\Temp\0274010                         PAGE   34

    1612                      .dwcfi  cfa_offset, -24
    1613                      .dwcfi  restore_reg, 55
    1614                      .dwcfi  restore_reg, 56
    1615                      .dwcfi  cfa_offset, -22
    1616                      .dwcfi  restore_reg, 51
    1617                      .dwcfi  restore_reg, 52
    1618                      .dwcfi  cfa_offset, -20
    1619                      .dwcfi  restore_reg, 47
    1620                      .dwcfi  restore_reg, 48
    1621                      .dwcfi  cfa_offset, -18
    1622                      .dwcfi  restore_reg, 43
    1623                      .dwcfi  restore_reg, 44
    1624                      .dwcfi  cfa_offset, -16
    1625                      .dwcfi  restore_reg, 39
    1626                      .dwcfi  restore_reg, 40
    1627                      .dwcfi  cfa_offset, -14
    1628                      .dwcfi  restore_reg, 18
    1629                      .dwcfi  cfa_offset, -12
    1630                      .dwcfi  restore_reg, 16
    1631                      .dwcfi  cfa_offset, -10
    1632                      .dwcfi  restore_reg, 14
    1633                      .dwcfi  cfa_offset, -8
    1634                      .dwcfi  restore_reg, 12
    1635                      .dwcfi  cfa_offset, -6
    1636                      .dwcfi  restore_reg, 22
    1637                      .dwcfi  restore_reg, 21
    1638                      .dwcfi  cfa_offset, -4
    1639                      .dwcfi  restore_reg, 5
    1640                      .dwcfi  restore_reg, 7
    1641                      .dwcfi  cfa_offset, -2
    1642                      .dwcfi  restore_reg, 73
    1643                      .dwcfi  restore_reg, 74
    1644              
    1645              $C$DW$103       .dwtag  DW_TAG_TI_loop
    1646                      .dwattr $C$DW$103, DW_AT_name("C:\\Users\\a0272466\\AppData\\Local\\Temp\\0274010:$C$L38:1:1391099172
    1647                      .dwattr $C$DW$103, DW_AT_TI_begin_file("C:/work/grepos/bootrom/Boot_ROM/F2837x_bootROM-REVB/F2837x_bo
    1648                      .dwattr $C$DW$103, DW_AT_TI_begin_line(0x1da)
    1649                      .dwattr $C$DW$103, DW_AT_TI_end_line(0x1da)
    1650              $C$DW$104       .dwtag  DW_TAG_TI_loop_range
    1651                      .dwattr $C$DW$104, DW_AT_low_pc($C$DW$L$_c1brom_itrap_isr$2$B)
    1652                      .dwattr $C$DW$104, DW_AT_high_pc($C$DW$L$_c1brom_itrap_isr$2$E)
    1653                      .dwendtag $C$DW$103
    1654              
    1655                      .dwattr $C$DW$100, DW_AT_TI_end_file("C:/work/grepos/bootrom/Boot_ROM/F2837x_bootROM-REVB/F2837x_boot
    1656                      .dwattr $C$DW$100, DW_AT_TI_end_line(0x1db)
    1657                      .dwattr $C$DW$100, DW_AT_TI_end_column(0x01)
    1658                      .dwendentry
    1659                      .dwendtag $C$DW$100
    1660              
    1661 000001a6               .sect   ".text:retain"
    1662                      .global _c1brom_c2c1_ipc_int1_isr
    1663              
    1664              $C$DW$105       .dwtag  DW_TAG_subprogram, DW_AT_name("c1brom_c2c1_ipc_int1_isr")
    1665                      .dwattr $C$DW$105, DW_AT_low_pc(_c1brom_c2c1_ipc_int1_isr)
    1666                      .dwattr $C$DW$105, DW_AT_high_pc(0x00)
TMS320C2000 Assembler PC v6.1.3 Thu Jan 30 10:26:14 2014

Tools Copyright (c) 1996-2012 Texas Instruments Incorporated
C:\Users\a0272466\AppData\Local\Temp\0274010                         PAGE   35

    1667                      .dwattr $C$DW$105, DW_AT_TI_symbol_name("_c1brom_c2c1_ipc_int1_isr")
    1668                      .dwattr $C$DW$105, DW_AT_external
    1669                      .dwattr $C$DW$105, DW_AT_TI_begin_file("C:/work/grepos/bootrom/Boot_ROM/F2837x_bootROM-REVB/F2837x_bo
    1670                      .dwattr $C$DW$105, DW_AT_TI_begin_line(0x1e3)
    1671                      .dwattr $C$DW$105, DW_AT_TI_begin_column(0x10)
    1672                      .dwattr $C$DW$105, DW_AT_TI_interrupt
    1673                      .dwattr $C$DW$105, DW_AT_TI_max_frame_size(-26)
    1674                      .dwpsn  file "C:/work/grepos/bootrom/Boot_ROM/F2837x_bootROM-REVB/F2837x_bootROM_dev/F2837x_bootROM/c
    1675              
    1676                      .dwfde $C$DW$CIE, _c1brom_c2c1_ipc_int1_isr
    1677              
    1678              ;***************************************************************
    1679              ;* FNAME: _c1brom_c2c1_ipc_int1_isr     FR SIZE:  24           *
    1680              ;*                                                             *
    1681              ;* FUNCTION ENVIRONMENT                                        *
    1682              ;*                                                             *
    1683              ;* FUNCTION PROPERTIES                                         *
    1684              ;*                            0 Parameter,  0 Auto, 24 SOE     *
    1685              ;***************************************************************
    1686              
    1687 000001a6       _c1brom_c2c1_ipc_int1_isr:
    1688 000001a6 761B          ASP       ; [CPU_] 
    1689                      .dwcfi  cfa_offset, -2
    1690                      .dwcfi  save_reg_to_mem, 26, 0
    1691                      .dwcfi  save_reg_to_reg, 78, 26
    1692 000001a7 FFF0          PUSH      RB                    ; [CPU_] 
    1693                      .dwcfi  save_reg_to_mem, 73, 2
    1694                      .dwcfi  save_reg_to_mem, 74, 3
    1695                      .dwcfi  cfa_offset, -4
    1696 000001a8 0005          PUSH      AR1H:AR0H             ; [CPU_] 
    1697                      .dwcfi  save_reg_to_mem, 5, 4
    1698                      .dwcfi  save_reg_to_mem, 7, 5
    1699                      .dwcfi  cfa_offset, -6
    1700 000001a9 ABBD          MOVL      *SP++,XT              ; [CPU_] 
    1701                      .dwcfi  save_reg_to_mem, 21, 6
    1702                      .dwcfi  save_reg_to_mem, 22, 7
    1703                      .dwcfi  cfa_offset, -8
    1704 000001aa A8BD          MOVL      *SP++,XAR4            ; [CPU_] 
    1705                      .dwcfi  save_reg_to_mem, 12, 8
    1706                      .dwcfi  save_reg_to_mem, 13, 9
    1707                      .dwcfi  cfa_offset, -10
    1708 000001ab A0BD          MOVL      *SP++,XAR5            ; [CPU_] 
    1709                      .dwcfi  save_reg_to_mem, 14, 10
    1710                      .dwcfi  save_reg_to_mem, 15, 11
    1711                      .dwcfi  cfa_offset, -12
    1712 000001ac C2BD          MOVL      *SP++,XAR6            ; [CPU_] 
    1713                      .dwcfi  save_reg_to_mem, 16, 12
    1714                      .dwcfi  save_reg_to_mem, 17, 13
    1715                      .dwcfi  cfa_offset, -14
    1716 000001ad C3BD          MOVL      *SP++,XAR7            ; [CPU_] 
    1717                      .dwcfi  save_reg_to_mem, 18, 14
    1718                      .dwcfi  save_reg_to_mem, 19, 15
    1719                      .dwcfi  cfa_offset, -16
    1720 000001ae E200          MOV32     *SP++,STF             ; [CPU_] 
         000001af 00BD 
TMS320C2000 Assembler PC v6.1.3 Thu Jan 30 10:26:14 2014

Tools Copyright (c) 1996-2012 Texas Instruments Incorporated
C:\Users\a0272466\AppData\Local\Temp\0274010                         PAGE   36

    1721                      .dwcfi  save_reg_to_mem, 39, 16
    1722                      .dwcfi  save_reg_to_mem, 40, 17
    1723                      .dwcfi  cfa_offset, -18
    1724 000001b0 E203          MOV32     *SP++,R0H             ; [CPU_] 
         000001b1 00BD 
    1725                      .dwcfi  save_reg_to_mem, 43, 18
    1726                      .dwcfi  save_reg_to_mem, 44, 19
    1727                      .dwcfi  cfa_offset, -20
    1728 000001b2 E203          MOV32     *SP++,R1H             ; [CPU_] 
         000001b3 01BD 
    1729                      .dwcfi  save_reg_to_mem, 47, 20
    1730                      .dwcfi  save_reg_to_mem, 48, 21
    1731                      .dwcfi  cfa_offset, -22
    1732 000001b4 E203          MOV32     *SP++,R2H             ; [CPU_] 
         000001b5 02BD 
    1733                      .dwcfi  save_reg_to_mem, 51, 22
    1734                      .dwcfi  save_reg_to_mem, 52, 23
    1735                      .dwcfi  cfa_offset, -24
    1736 000001b6 E203          MOV32     *SP++,R3H             ; [CPU_] 
         000001b7 03BD 
    1737                      .dwcfi  save_reg_to_mem, 55, 24
    1738                      .dwcfi  save_reg_to_mem, 56, 25
    1739                      .dwcfi  cfa_offset, -26
    1740 000001b8 E630          SETFLG    RNDF32=1, RNDF64=1    ; [CPU_] 
         000001b9 0600 
    1741 000001ba FF69          SPM       0                     ; [CPU_] 
    1742 000001bb 2942          CLRC      PAGE0,OVM             ; [CPU_] 
    1743 000001bc 5616          CLRC      AMODE                 ; [CPU_] 
    1744                      .dwpsn  file "C:/work/grepos/bootrom/Boot_ROM/F2837x_bootROM-REVB/F2837x_bootROM_dev/F2837x_bootROM/c
    1745 000001bd 9A00          MOVB      AL,#0                 ; [CPU_] |487| 
    1746 000001be 761F!         MOVW      DP,#_IpcRegs+2        ; [CPU_U] 
         000001bf 0000 
    1747 000001c0 4002!         TBIT      @_IpcRegs+2,#0        ; [CPU_] |487| 
    1748 000001c1 EF04          BF        $C$L39,NTC            ; [CPU_] |487| 
    1749                      ; branchcc occurs ; [] |487| 
    1750 000001c2 4F03!         TBIT      @_IpcRegs+3,#15       ; [CPU_] |487| 
    1751 000001c3 56BD          MOVB      AL,#1,TC              ; [CPU_] |487| 
         000001c4 01A9 
    1752 000001c5       $C$L39:    
    1753 000001c5 5200          CMPB      AL,#0                 ; [CPU_] |487| 
    1754 000001c6 ED10          BF        $C$L40,NEQ            ; [CPU_] |487| 
    1755                      ; branchcc occurs ; [] |487| 
    1756                      .dwpsn  file "C:/work/grepos/bootrom/Boot_ROM/F2837x_bootROM-REVB/F2837x_bootROM_dev/F2837x_bootROM/c
    1757 000001c7 761F!         MOVW      DP,#_c1brom_status    ; [CPU_U] 
         000001c8 0000 
    1758 000001c9 0600!         MOVL      ACC,@_c1brom_status   ; [CPU_] |490| 
    1759 000001ca 761F!         MOVW      DP,#_IpcRegs          ; [CPU_U] 
         000001cb 0000 
    1760 000001cc 5002          ORB       AL,#0x02              ; [CPU_] |490| 
    1761 000001cd 1A00!         OR        @_IpcRegs,#0x0001     ; [CPU_] |490| 
         000001ce 0001 
    1762 000001cf 1E1E!         MOVL      @_IpcRegs+30,ACC      ; [CPU_] |490| 
    1763                      .dwpsn  file "C:/work/grepos/bootrom/Boot_ROM/F2837x_bootROM-REVB/F2837x_bootROM_dev/F2837x_bootROM/c
    1764 000001d0 761F!         MOVW      DP,#_PieCtrlRegs+1    ; [CPU_U] 
         000001d1 0000 
TMS320C2000 Assembler PC v6.1.3 Thu Jan 30 10:26:14 2014

Tools Copyright (c) 1996-2012 Texas Instruments Incorporated
C:\Users\a0272466\AppData\Local\Temp\0274010                         PAGE   37

    1765 000001d2 56BF!         MOVB      @_PieCtrlRegs+1,#1,UNC ; [CPU_] |493| 
         000001d3 0101 
    1766                      .dwpsn  file "C:/work/grepos/bootrom/Boot_ROM/F2837x_bootROM-REVB/F2837x_bootROM_dev/F2837x_bootROM/c
    1767 000001d4 FFEF          B         $C$L63,UNC            ; [CPU_] |494| 
         000001d5 00EB 
    1768                      ; branch occurs ; [] |494| 
    1769 000001d6       $C$L40:    
    1770                      .dwpsn  file "C:/work/grepos/bootrom/Boot_ROM/F2837x_bootROM-REVB/F2837x_bootROM_dev/F2837x_bootROM/c
    1771 000001d6 761F!         MOVW      DP,#_c1brom_current_c2c1_ipc ; [CPU_U] 
         000001d7 0000 
    1772 000001d8 9200!         MOV       AL,@_c1brom_current_c2c1_ipc ; [CPU_] |498| 
    1773 000001d9 ED03          BF        $C$L41,NEQ            ; [CPU_] |498| 
    1774                      ; branchcc occurs ; [] |498| 
    1775 000001da 0602!         MOVL      ACC,@_c1brom_current_c2c1_ipc+2 ; [CPU_] |498| 
    1776 000001db EC10          BF        $C$L42,EQ             ; [CPU_] |498| 
    1777                      ; branchcc occurs ; [] |498| 
    1778 000001dc       $C$L41:    
    1779                      .dwpsn  file "C:/work/grepos/bootrom/Boot_ROM/F2837x_bootROM-REVB/F2837x_bootROM_dev/F2837x_bootROM/c
    1780 000001dc 761F!         MOVW      DP,#_c1brom_status    ; [CPU_U] 
         000001dd 0000 
    1781 000001de 0600!         MOVL      ACC,@_c1brom_status   ; [CPU_] |502| 
    1782 000001df 761F!         MOVW      DP,#_IpcRegs          ; [CPU_U] 
         000001e0 0000 
    1783 000001e1 5003          ORB       AL,#0x03              ; [CPU_] |502| 
    1784 000001e2 1A00!         OR        @_IpcRegs,#0x0001     ; [CPU_] |502| 
         000001e3 0001 
    1785 000001e4 1E1E!         MOVL      @_IpcRegs+30,ACC      ; [CPU_] |502| 
    1786                      .dwpsn  file "C:/work/grepos/bootrom/Boot_ROM/F2837x_bootROM-REVB/F2837x_bootROM_dev/F2837x_bootROM/c
    1787 000001e5 761F!         MOVW      DP,#_PieCtrlRegs+1    ; [CPU_U] 
         000001e6 0000 
    1788 000001e7 56BF!         MOVB      @_PieCtrlRegs+1,#1,UNC ; [CPU_] |503| 
         000001e8 0101 
    1789                      .dwpsn  file "C:/work/grepos/bootrom/Boot_ROM/F2837x_bootROM-REVB/F2837x_bootROM_dev/F2837x_bootROM/c
    1790 000001e9 FFEF          B         $C$L63,UNC            ; [CPU_] |504| 
         000001ea 00D6 
    1791                      ; branch occurs ; [] |504| 
    1792 000001eb       $C$L42:    
    1793                      .dwpsn  file "C:/work/grepos/bootrom/Boot_ROM/F2837x_bootROM-REVB/F2837x_bootROM_dev/F2837x_bootROM/c
    1794 000001eb 761F!         MOVW      DP,#_IpcRegs+24       ; [CPU_U] 
         000001ec 0000 
    1795 000001ed 0618!         MOVL      ACC,@_IpcRegs+24      ; [CPU_] |508| 
    1796 000001ee 761F!         MOVW      DP,#_c1brom_current_c2c1_ipc+2 ; [CPU_U] 
         000001ef 0000 
    1797 000001f0 1E02!         MOVL      @_c1brom_current_c2c1_ipc+2,ACC ; [CPU_] |508| 
    1798                      .dwpsn  file "C:/work/grepos/bootrom/Boot_ROM/F2837x_bootROM-REVB/F2837x_bootROM_dev/F2837x_bootROM/c
    1799 000001f1 56BF!         MOVB      @_c1brom_current_c2c1_ipc,#1,UNC ; [CPU_] |509| 
         000001f2 0100 
    1800                      .dwpsn  file "C:/work/grepos/bootrom/Boot_ROM/F2837x_bootROM-REVB/F2837x_bootROM_dev/F2837x_bootROM/c
    1801 000001f3 0602!         MOVL      ACC,@_c1brom_current_c2c1_ipc+2 ; [CPU_] |513| 
    1802 000001f4 EC04          BF        $C$L43,EQ             ; [CPU_] |513| 
    1803                      ; branchcc occurs ; [] |513| 
    1804 000001f5 0214          MOVB      ACC,#20               ; [CPU_] |513| 
    1805 000001f6 0F02!         CMPL      ACC,@_c1brom_current_c2c1_ipc+2 ; [CPU_] |513| 
    1806 000001f7 6613          B         $C$L44,HI             ; [CPU_] |513| 
    1807                      ; branchcc occurs ; [] |513| 
TMS320C2000 Assembler PC v6.1.3 Thu Jan 30 10:26:14 2014

Tools Copyright (c) 1996-2012 Texas Instruments Incorporated
C:\Users\a0272466\AppData\Local\Temp\0274010                         PAGE   38

    1808 000001f8       $C$L43:    
    1809                      .dwpsn  file "C:/work/grepos/bootrom/Boot_ROM/F2837x_bootROM-REVB/F2837x_bootROM_dev/F2837x_bootROM/c
    1810 000001f8 0200          MOVB      ACC,#0                ; [CPU_] |516| 
    1811 000001f9 1E02!         MOVL      @_c1brom_current_c2c1_ipc+2,ACC ; [CPU_] |516| 
    1812                      .dwpsn  file "C:/work/grepos/bootrom/Boot_ROM/F2837x_bootROM-REVB/F2837x_bootROM_dev/F2837x_bootROM/c
    1813 000001fa 2B00!         MOV       @_c1brom_current_c2c1_ipc,#0 ; [CPU_] |517| 
    1814                      .dwpsn  file "C:/work/grepos/bootrom/Boot_ROM/F2837x_bootROM-REVB/F2837x_bootROM_dev/F2837x_bootROM/c
    1815 000001fb 761F!         MOVW      DP,#_c1brom_status    ; [CPU_U] 
         000001fc 0000 
    1816 000001fd 0600!         MOVL      ACC,@_c1brom_status   ; [CPU_] |518| 
    1817 000001fe 761F!         MOVW      DP,#_IpcRegs          ; [CPU_U] 
         000001ff 0000 
    1818 00000200 5001          ORB       AL,#0x01              ; [CPU_] |518| 
    1819 00000201 1A00!         OR        @_IpcRegs,#0x0001     ; [CPU_] |518| 
         00000202 0001 
    1820 00000203 1E1E!         MOVL      @_IpcRegs+30,ACC      ; [CPU_] |518| 
    1821                      .dwpsn  file "C:/work/grepos/bootrom/Boot_ROM/F2837x_bootROM-REVB/F2837x_bootROM_dev/F2837x_bootROM/c
    1822 00000204 761F!         MOVW      DP,#_PieCtrlRegs+1    ; [CPU_U] 
         00000205 0000 
    1823 00000206 56BF!         MOVB      @_PieCtrlRegs+1,#1,UNC ; [CPU_] |519| 
         00000207 0101 
    1824                      .dwpsn  file "C:/work/grepos/bootrom/Boot_ROM/F2837x_bootROM-REVB/F2837x_bootROM_dev/F2837x_bootROM/c
    1825 00000208 FFEF          B         $C$L63,UNC            ; [CPU_] |520| 
         00000209 00B7 
    1826                      ; branch occurs ; [] |520| 
    1827 0000020a       $C$L44:    
    1828                      .dwpsn  file "C:/work/grepos/bootrom/Boot_ROM/F2837x_bootROM-REVB/F2837x_bootROM_dev/F2837x_bootROM/c
    1829 0000020a 0201          MOVB      ACC,#1                ; [CPU_] |524| 
    1830 0000020b 0F02!         CMPL      ACC,@_c1brom_current_c2c1_ipc+2 ; [CPU_] |524| 
    1831 0000020c ED08          BF        $C$L45,NEQ            ; [CPU_] |524| 
    1832                      ; branchcc occurs ; [] |524| 
    1833                      .dwpsn  file "C:/work/grepos/bootrom/Boot_ROM/F2837x_bootROM-REVB/F2837x_bootROM_dev/F2837x_bootROM/c
    1834              $C$DW$106       .dwtag  DW_TAG_TI_branch
    1835                      .dwattr $C$DW$106, DW_AT_low_pc(0x00)
    1836                      .dwattr $C$DW$106, DW_AT_name("_c1brom_c2c1_ipc_set_bits_16")
    1837                      .dwattr $C$DW$106, DW_AT_TI_call
    1838 0000020d 7640!         LCR       #_c1brom_c2c1_ipc_set_bits_16 ; [CPU_] |526| 
         0000020e 0000 
    1839                      ; call occurs [#_c1brom_c2c1_ipc_set_bits_16] ; [] |526| 
    1840 0000020f 761F!         MOVW      DP,#_c1brom_current_c2c1_ipc ; [CPU_U] 
         00000210 0000 
    1841 00000211 9600!         MOV       @_c1brom_current_c2c1_ipc,AL ; [CPU_] |526| 
    1842                      .dwpsn  file "C:/work/grepos/bootrom/Boot_ROM/F2837x_bootROM-REVB/F2837x_bootROM_dev/F2837x_bootROM/c
    1843 00000212 FFEF          B         $C$L61,UNC            ; [CPU_] |527| 
         00000213 008C 
    1844                      ; branch occurs ; [] |527| 
    1845 00000214       $C$L45:    
    1846                      .dwpsn  file "C:/work/grepos/bootrom/Boot_ROM/F2837x_bootROM-REVB/F2837x_bootROM_dev/F2837x_bootROM/c
    1847 00000214 0202          MOVB      ACC,#2                ; [CPU_] |528| 
    1848 00000215 0F02!         CMPL      ACC,@_c1brom_current_c2c1_ipc+2 ; [CPU_] |528| 
    1849 00000216 ED08          BF        $C$L46,NEQ            ; [CPU_] |528| 
    1850                      ; branchcc occurs ; [] |528| 
    1851                      .dwpsn  file "C:/work/grepos/bootrom/Boot_ROM/F2837x_bootROM-REVB/F2837x_bootROM_dev/F2837x_bootROM/c
    1852              $C$DW$107       .dwtag  DW_TAG_TI_branch
    1853                      .dwattr $C$DW$107, DW_AT_low_pc(0x00)
TMS320C2000 Assembler PC v6.1.3 Thu Jan 30 10:26:14 2014

Tools Copyright (c) 1996-2012 Texas Instruments Incorporated
C:\Users\a0272466\AppData\Local\Temp\0274010                         PAGE   39

    1854                      .dwattr $C$DW$107, DW_AT_name("_c1brom_c2c1_ipc_set_bits_32")
    1855                      .dwattr $C$DW$107, DW_AT_TI_call
    1856 00000217 7640!         LCR       #_c1brom_c2c1_ipc_set_bits_32 ; [CPU_] |530| 
         00000218 0000 
    1857                      ; call occurs [#_c1brom_c2c1_ipc_set_bits_32] ; [] |530| 
    1858 00000219 761F!         MOVW      DP,#_c1brom_current_c2c1_ipc ; [CPU_U] 
         0000021a 0000 
    1859 0000021b 9600!         MOV       @_c1brom_current_c2c1_ipc,AL ; [CPU_] |530| 
    1860                      .dwpsn  file "C:/work/grepos/bootrom/Boot_ROM/F2837x_bootROM-REVB/F2837x_bootROM_dev/F2837x_bootROM/c
    1861 0000021c FFEF          B         $C$L61,UNC            ; [CPU_] |531| 
         0000021d 0082 
    1862                      ; branch occurs ; [] |531| 
    1863 0000021e       $C$L46:    
    1864                      .dwpsn  file "C:/work/grepos/bootrom/Boot_ROM/F2837x_bootROM-REVB/F2837x_bootROM_dev/F2837x_bootROM/c
    1865 0000021e 0203          MOVB      ACC,#3                ; [CPU_] |532| 
    1866 0000021f 0F02!         CMPL      ACC,@_c1brom_current_c2c1_ipc+2 ; [CPU_] |532| 
    1867 00000220 ED07          BF        $C$L47,NEQ            ; [CPU_] |532| 
    1868                      ; branchcc occurs ; [] |532| 
    1869                      .dwpsn  file "C:/work/grepos/bootrom/Boot_ROM/F2837x_bootROM-REVB/F2837x_bootROM_dev/F2837x_bootROM/c
    1870              $C$DW$108       .dwtag  DW_TAG_TI_branch
    1871                      .dwattr $C$DW$108, DW_AT_low_pc(0x00)
    1872                      .dwattr $C$DW$108, DW_AT_name("_c1brom_c2c1_ipc_clear_bits_16")
    1873                      .dwattr $C$DW$108, DW_AT_TI_call
    1874 00000221 7640!         LCR       #_c1brom_c2c1_ipc_clear_bits_16 ; [CPU_] |534| 
         00000222 0000 
    1875                      ; call occurs [#_c1brom_c2c1_ipc_clear_bits_16] ; [] |534| 
    1876 00000223 761F!         MOVW      DP,#_c1brom_current_c2c1_ipc ; [CPU_U] 
         00000224 0000 
    1877 00000225 9600!         MOV       @_c1brom_current_c2c1_ipc,AL ; [CPU_] |534| 
    1878                      .dwpsn  file "C:/work/grepos/bootrom/Boot_ROM/F2837x_bootROM-REVB/F2837x_bootROM_dev/F2837x_bootROM/c
    1879 00000226 6F78          B         $C$L61,UNC            ; [CPU_] |535| 
    1880                      ; branch occurs ; [] |535| 
    1881 00000227       $C$L47:    
    1882                      .dwpsn  file "C:/work/grepos/bootrom/Boot_ROM/F2837x_bootROM-REVB/F2837x_bootROM_dev/F2837x_bootROM/c
    1883 00000227 0204          MOVB      ACC,#4                ; [CPU_] |536| 
    1884 00000228 0F02!         CMPL      ACC,@_c1brom_current_c2c1_ipc+2 ; [CPU_] |536| 
    1885 00000229 ED07          BF        $C$L48,NEQ            ; [CPU_] |536| 
    1886                      ; branchcc occurs ; [] |536| 
    1887                      .dwpsn  file "C:/work/grepos/bootrom/Boot_ROM/F2837x_bootROM-REVB/F2837x_bootROM_dev/F2837x_bootROM/c
    1888              $C$DW$109       .dwtag  DW_TAG_TI_branch
    1889                      .dwattr $C$DW$109, DW_AT_low_pc(0x00)
    1890                      .dwattr $C$DW$109, DW_AT_name("_c1brom_c2c1_ipc_clear_bits_32")
    1891                      .dwattr $C$DW$109, DW_AT_TI_call
    1892 0000022a 7640!         LCR       #_c1brom_c2c1_ipc_clear_bits_32 ; [CPU_] |538| 
         0000022b 0000 
    1893                      ; call occurs [#_c1brom_c2c1_ipc_clear_bits_32] ; [] |538| 
    1894 0000022c 761F!         MOVW      DP,#_c1brom_current_c2c1_ipc ; [CPU_U] 
         0000022d 0000 
    1895 0000022e 9600!         MOV       @_c1brom_current_c2c1_ipc,AL ; [CPU_] |538| 
    1896                      .dwpsn  file "C:/work/grepos/bootrom/Boot_ROM/F2837x_bootROM-REVB/F2837x_bootROM_dev/F2837x_bootROM/c
    1897 0000022f 6F6F          B         $C$L61,UNC            ; [CPU_] |539| 
    1898                      ; branch occurs ; [] |539| 
    1899 00000230       $C$L48:    
    1900                      .dwpsn  file "C:/work/grepos/bootrom/Boot_ROM/F2837x_bootROM-REVB/F2837x_bootROM_dev/F2837x_bootROM/c
    1901 00000230 0205          MOVB      ACC,#5                ; [CPU_] |540| 
TMS320C2000 Assembler PC v6.1.3 Thu Jan 30 10:26:14 2014

Tools Copyright (c) 1996-2012 Texas Instruments Incorporated
C:\Users\a0272466\AppData\Local\Temp\0274010                         PAGE   40

    1902 00000231 0F02!         CMPL      ACC,@_c1brom_current_c2c1_ipc+2 ; [CPU_] |540| 
    1903 00000232 ED07          BF        $C$L49,NEQ            ; [CPU_] |540| 
    1904                      ; branchcc occurs ; [] |540| 
    1905                      .dwpsn  file "C:/work/grepos/bootrom/Boot_ROM/F2837x_bootROM-REVB/F2837x_bootROM_dev/F2837x_bootROM/c
    1906              $C$DW$110       .dwtag  DW_TAG_TI_branch
    1907                      .dwattr $C$DW$110, DW_AT_low_pc(0x00)
    1908                      .dwattr $C$DW$110, DW_AT_name("_c1brom_c2c1_ipc_write_data_16")
    1909                      .dwattr $C$DW$110, DW_AT_TI_call
    1910 00000233 7640!         LCR       #_c1brom_c2c1_ipc_write_data_16 ; [CPU_] |542| 
         00000234 0000 
    1911                      ; call occurs [#_c1brom_c2c1_ipc_write_data_16] ; [] |542| 
    1912 00000235 761F!         MOVW      DP,#_c1brom_current_c2c1_ipc ; [CPU_U] 
         00000236 0000 
    1913 00000237 9600!         MOV       @_c1brom_current_c2c1_ipc,AL ; [CPU_] |542| 
    1914                      .dwpsn  file "C:/work/grepos/bootrom/Boot_ROM/F2837x_bootROM-REVB/F2837x_bootROM_dev/F2837x_bootROM/c
    1915 00000238 6F66          B         $C$L61,UNC            ; [CPU_] |543| 
    1916                      ; branch occurs ; [] |543| 
    1917 00000239       $C$L49:    
    1918                      .dwpsn  file "C:/work/grepos/bootrom/Boot_ROM/F2837x_bootROM-REVB/F2837x_bootROM_dev/F2837x_bootROM/c
    1919 00000239 0206          MOVB      ACC,#6                ; [CPU_] |544| 
    1920 0000023a 0F02!         CMPL      ACC,@_c1brom_current_c2c1_ipc+2 ; [CPU_] |544| 
    1921 0000023b ED07          BF        $C$L50,NEQ            ; [CPU_] |544| 
    1922                      ; branchcc occurs ; [] |544| 
    1923                      .dwpsn  file "C:/work/grepos/bootrom/Boot_ROM/F2837x_bootROM-REVB/F2837x_bootROM_dev/F2837x_bootROM/c
    1924              $C$DW$111       .dwtag  DW_TAG_TI_branch
    1925                      .dwattr $C$DW$111, DW_AT_low_pc(0x00)
    1926                      .dwattr $C$DW$111, DW_AT_name("_c1brom_c2c1_ipc_write_data_32")
    1927                      .dwattr $C$DW$111, DW_AT_TI_call
    1928 0000023c 7640!         LCR       #_c1brom_c2c1_ipc_write_data_32 ; [CPU_] |546| 
         0000023d 0000 
    1929                      ; call occurs [#_c1brom_c2c1_ipc_write_data_32] ; [] |546| 
    1930 0000023e 761F!         MOVW      DP,#_c1brom_current_c2c1_ipc ; [CPU_U] 
         0000023f 0000 
    1931 00000240 9600!         MOV       @_c1brom_current_c2c1_ipc,AL ; [CPU_] |546| 
    1932                      .dwpsn  file "C:/work/grepos/bootrom/Boot_ROM/F2837x_bootROM-REVB/F2837x_bootROM_dev/F2837x_bootROM/c
    1933 00000241 6F5D          B         $C$L61,UNC            ; [CPU_] |547| 
    1934                      ; branch occurs ; [] |547| 
    1935 00000242       $C$L50:    
    1936                      .dwpsn  file "C:/work/grepos/bootrom/Boot_ROM/F2837x_bootROM-REVB/F2837x_bootROM_dev/F2837x_bootROM/c
    1937 00000242 0207          MOVB      ACC,#7                ; [CPU_] |548| 
    1938 00000243 0F02!         CMPL      ACC,@_c1brom_current_c2c1_ipc+2 ; [CPU_] |548| 
    1939 00000244 ED07          BF        $C$L51,NEQ            ; [CPU_] |548| 
    1940                      ; branchcc occurs ; [] |548| 
    1941                      .dwpsn  file "C:/work/grepos/bootrom/Boot_ROM/F2837x_bootROM-REVB/F2837x_bootROM_dev/F2837x_bootROM/c
    1942              $C$DW$112       .dwtag  DW_TAG_TI_branch
    1943                      .dwattr $C$DW$112, DW_AT_low_pc(0x00)
    1944                      .dwattr $C$DW$112, DW_AT_name("_c1brom_c2c1_ipc_read_data_16")
    1945                      .dwattr $C$DW$112, DW_AT_TI_call
    1946 00000245 7640!         LCR       #_c1brom_c2c1_ipc_read_data_16 ; [CPU_] |550| 
         00000246 0000 
    1947                      ; call occurs [#_c1brom_c2c1_ipc_read_data_16] ; [] |550| 
    1948 00000247 761F!         MOVW      DP,#_c1brom_current_c2c1_ipc ; [CPU_U] 
         00000248 0000 
    1949 00000249 9600!         MOV       @_c1brom_current_c2c1_ipc,AL ; [CPU_] |550| 
    1950                      .dwpsn  file "C:/work/grepos/bootrom/Boot_ROM/F2837x_bootROM-REVB/F2837x_bootROM_dev/F2837x_bootROM/c
TMS320C2000 Assembler PC v6.1.3 Thu Jan 30 10:26:14 2014

Tools Copyright (c) 1996-2012 Texas Instruments Incorporated
C:\Users\a0272466\AppData\Local\Temp\0274010                         PAGE   41

    1951 0000024a 6F54          B         $C$L61,UNC            ; [CPU_] |551| 
    1952                      ; branch occurs ; [] |551| 
    1953 0000024b       $C$L51:    
    1954                      .dwpsn  file "C:/work/grepos/bootrom/Boot_ROM/F2837x_bootROM-REVB/F2837x_bootROM_dev/F2837x_bootROM/c
    1955 0000024b 0208          MOVB      ACC,#8                ; [CPU_] |552| 
    1956 0000024c 0F02!         CMPL      ACC,@_c1brom_current_c2c1_ipc+2 ; [CPU_] |552| 
    1957 0000024d ED07          BF        $C$L52,NEQ            ; [CPU_] |552| 
    1958                      ; branchcc occurs ; [] |552| 
    1959                      .dwpsn  file "C:/work/grepos/bootrom/Boot_ROM/F2837x_bootROM-REVB/F2837x_bootROM_dev/F2837x_bootROM/c
    1960              $C$DW$113       .dwtag  DW_TAG_TI_branch
    1961                      .dwattr $C$DW$113, DW_AT_low_pc(0x00)
    1962                      .dwattr $C$DW$113, DW_AT_name("_c1brom_c2c1_ipc_read_data_32")
    1963                      .dwattr $C$DW$113, DW_AT_TI_call
    1964 0000024e 7640!         LCR       #_c1brom_c2c1_ipc_read_data_32 ; [CPU_] |554| 
         0000024f 0000 
    1965                      ; call occurs [#_c1brom_c2c1_ipc_read_data_32] ; [] |554| 
    1966 00000250 761F!         MOVW      DP,#_c1brom_current_c2c1_ipc ; [CPU_U] 
         00000251 0000 
    1967 00000252 9600!         MOV       @_c1brom_current_c2c1_ipc,AL ; [CPU_] |554| 
    1968                      .dwpsn  file "C:/work/grepos/bootrom/Boot_ROM/F2837x_bootROM-REVB/F2837x_bootROM_dev/F2837x_bootROM/c
    1969 00000253 6F4B          B         $C$L61,UNC            ; [CPU_] |555| 
    1970                      ; branch occurs ; [] |555| 
    1971 00000254       $C$L52:    
    1972                      .dwpsn  file "C:/work/grepos/bootrom/Boot_ROM/F2837x_bootROM-REVB/F2837x_bootROM_dev/F2837x_bootROM/c
    1973 00000254 0209          MOVB      ACC,#9                ; [CPU_] |556| 
    1974 00000255 0F02!         CMPL      ACC,@_c1brom_current_c2c1_ipc+2 ; [CPU_] |556| 
    1975 00000256 ED07          BF        $C$L53,NEQ            ; [CPU_] |556| 
    1976                      ; branchcc occurs ; [] |556| 
    1977                      .dwpsn  file "C:/work/grepos/bootrom/Boot_ROM/F2837x_bootROM-REVB/F2837x_bootROM_dev/F2837x_bootROM/c
    1978              $C$DW$114       .dwtag  DW_TAG_TI_branch
    1979                      .dwattr $C$DW$114, DW_AT_low_pc(0x00)
    1980                      .dwattr $C$DW$114, DW_AT_name("_c1brom_c2c1_ipc_set_bits_protected_16")
    1981                      .dwattr $C$DW$114, DW_AT_TI_call
    1982 00000257 7640!         LCR       #_c1brom_c2c1_ipc_set_bits_protected_16 ; [CPU_] |558| 
         00000258 0000 
    1983                      ; call occurs [#_c1brom_c2c1_ipc_set_bits_protected_16] ; [] |558| 
    1984 00000259 761F!         MOVW      DP,#_c1brom_current_c2c1_ipc ; [CPU_U] 
         0000025a 0000 
    1985 0000025b 9600!         MOV       @_c1brom_current_c2c1_ipc,AL ; [CPU_] |558| 
    1986                      .dwpsn  file "C:/work/grepos/bootrom/Boot_ROM/F2837x_bootROM-REVB/F2837x_bootROM_dev/F2837x_bootROM/c
    1987 0000025c 6F42          B         $C$L61,UNC            ; [CPU_] |559| 
    1988                      ; branch occurs ; [] |559| 
    1989 0000025d       $C$L53:    
    1990                      .dwpsn  file "C:/work/grepos/bootrom/Boot_ROM/F2837x_bootROM-REVB/F2837x_bootROM_dev/F2837x_bootROM/c
    1991 0000025d 020A          MOVB      ACC,#10               ; [CPU_] |560| 
    1992 0000025e 0F02!         CMPL      ACC,@_c1brom_current_c2c1_ipc+2 ; [CPU_] |560| 
    1993 0000025f ED07          BF        $C$L54,NEQ            ; [CPU_] |560| 
    1994                      ; branchcc occurs ; [] |560| 
    1995                      .dwpsn  file "C:/work/grepos/bootrom/Boot_ROM/F2837x_bootROM-REVB/F2837x_bootROM_dev/F2837x_bootROM/c
    1996              $C$DW$115       .dwtag  DW_TAG_TI_branch
    1997                      .dwattr $C$DW$115, DW_AT_low_pc(0x00)
    1998                      .dwattr $C$DW$115, DW_AT_name("_c1brom_c2c1_ipc_set_bits_protected_32")
    1999                      .dwattr $C$DW$115, DW_AT_TI_call
    2000 00000260 7640!         LCR       #_c1brom_c2c1_ipc_set_bits_protected_32 ; [CPU_] |562| 
         00000261 0000 
TMS320C2000 Assembler PC v6.1.3 Thu Jan 30 10:26:14 2014

Tools Copyright (c) 1996-2012 Texas Instruments Incorporated
C:\Users\a0272466\AppData\Local\Temp\0274010                         PAGE   42

    2001                      ; call occurs [#_c1brom_c2c1_ipc_set_bits_protected_32] ; [] |562| 
    2002 00000262 761F!         MOVW      DP,#_c1brom_current_c2c1_ipc ; [CPU_U] 
         00000263 0000 
    2003 00000264 9600!         MOV       @_c1brom_current_c2c1_ipc,AL ; [CPU_] |562| 
    2004                      .dwpsn  file "C:/work/grepos/bootrom/Boot_ROM/F2837x_bootROM-REVB/F2837x_bootROM_dev/F2837x_bootROM/c
    2005 00000265 6F39          B         $C$L61,UNC            ; [CPU_] |563| 
    2006                      ; branch occurs ; [] |563| 
    2007 00000266       $C$L54:    
    2008                      .dwpsn  file "C:/work/grepos/bootrom/Boot_ROM/F2837x_bootROM-REVB/F2837x_bootROM_dev/F2837x_bootROM/c
    2009 00000266 020B          MOVB      ACC,#11               ; [CPU_] |564| 
    2010 00000267 0F02!         CMPL      ACC,@_c1brom_current_c2c1_ipc+2 ; [CPU_] |564| 
    2011 00000268 ED07          BF        $C$L55,NEQ            ; [CPU_] |564| 
    2012                      ; branchcc occurs ; [] |564| 
    2013                      .dwpsn  file "C:/work/grepos/bootrom/Boot_ROM/F2837x_bootROM-REVB/F2837x_bootROM_dev/F2837x_bootROM/c
    2014              $C$DW$116       .dwtag  DW_TAG_TI_branch
    2015                      .dwattr $C$DW$116, DW_AT_low_pc(0x00)
    2016                      .dwattr $C$DW$116, DW_AT_name("_c1brom_c2c1_ipc_clear_bits_protected_16")
    2017                      .dwattr $C$DW$116, DW_AT_TI_call
    2018 00000269 7640!         LCR       #_c1brom_c2c1_ipc_clear_bits_protected_16 ; [CPU_] |566| 
         0000026a 0000 
    2019                      ; call occurs [#_c1brom_c2c1_ipc_clear_bits_protected_16] ; [] |566| 
    2020 0000026b 761F!         MOVW      DP,#_c1brom_current_c2c1_ipc ; [CPU_U] 
         0000026c 0000 
    2021 0000026d 9600!         MOV       @_c1brom_current_c2c1_ipc,AL ; [CPU_] |566| 
    2022                      .dwpsn  file "C:/work/grepos/bootrom/Boot_ROM/F2837x_bootROM-REVB/F2837x_bootROM_dev/F2837x_bootROM/c
    2023 0000026e 6F30          B         $C$L61,UNC            ; [CPU_] |567| 
    2024                      ; branch occurs ; [] |567| 
    2025 0000026f       $C$L55:    
    2026                      .dwpsn  file "C:/work/grepos/bootrom/Boot_ROM/F2837x_bootROM-REVB/F2837x_bootROM_dev/F2837x_bootROM/c
    2027 0000026f 020C          MOVB      ACC,#12               ; [CPU_] |568| 
    2028 00000270 0F02!         CMPL      ACC,@_c1brom_current_c2c1_ipc+2 ; [CPU_] |568| 
    2029 00000271 ED07          BF        $C$L56,NEQ            ; [CPU_] |568| 
    2030                      ; branchcc occurs ; [] |568| 
    2031                      .dwpsn  file "C:/work/grepos/bootrom/Boot_ROM/F2837x_bootROM-REVB/F2837x_bootROM_dev/F2837x_bootROM/c
    2032              $C$DW$117       .dwtag  DW_TAG_TI_branch
    2033                      .dwattr $C$DW$117, DW_AT_low_pc(0x00)
    2034                      .dwattr $C$DW$117, DW_AT_name("_c1brom_c2c1_ipc_clear_bits_protected_32")
    2035                      .dwattr $C$DW$117, DW_AT_TI_call
    2036 00000272 7640!         LCR       #_c1brom_c2c1_ipc_clear_bits_protected_32 ; [CPU_] |570| 
         00000273 0000 
    2037                      ; call occurs [#_c1brom_c2c1_ipc_clear_bits_protected_32] ; [] |570| 
    2038 00000274 761F!         MOVW      DP,#_c1brom_current_c2c1_ipc ; [CPU_U] 
         00000275 0000 
    2039 00000276 9600!         MOV       @_c1brom_current_c2c1_ipc,AL ; [CPU_] |570| 
    2040                      .dwpsn  file "C:/work/grepos/bootrom/Boot_ROM/F2837x_bootROM-REVB/F2837x_bootROM_dev/F2837x_bootROM/c
    2041 00000277 6F27          B         $C$L61,UNC            ; [CPU_] |571| 
    2042                      ; branch occurs ; [] |571| 
    2043 00000278       $C$L56:    
    2044                      .dwpsn  file "C:/work/grepos/bootrom/Boot_ROM/F2837x_bootROM-REVB/F2837x_bootROM_dev/F2837x_bootROM/c
    2045 00000278 020D          MOVB      ACC,#13               ; [CPU_] |572| 
    2046 00000279 0F02!         CMPL      ACC,@_c1brom_current_c2c1_ipc+2 ; [CPU_] |572| 
    2047 0000027a ED07          BF        $C$L57,NEQ            ; [CPU_] |572| 
    2048                      ; branchcc occurs ; [] |572| 
    2049                      .dwpsn  file "C:/work/grepos/bootrom/Boot_ROM/F2837x_bootROM-REVB/F2837x_bootROM_dev/F2837x_bootROM/c
    2050              $C$DW$118       .dwtag  DW_TAG_TI_branch
TMS320C2000 Assembler PC v6.1.3 Thu Jan 30 10:26:14 2014

Tools Copyright (c) 1996-2012 Texas Instruments Incorporated
C:\Users\a0272466\AppData\Local\Temp\0274010                         PAGE   43

    2051                      .dwattr $C$DW$118, DW_AT_low_pc(0x00)
    2052                      .dwattr $C$DW$118, DW_AT_name("_c1brom_c2c1_ipc_write_data_protected_16")
    2053                      .dwattr $C$DW$118, DW_AT_TI_call
    2054 0000027b 7640!         LCR       #_c1brom_c2c1_ipc_write_data_protected_16 ; [CPU_] |574| 
         0000027c 0000 
    2055                      ; call occurs [#_c1brom_c2c1_ipc_write_data_protected_16] ; [] |574| 
    2056 0000027d 761F!         MOVW      DP,#_c1brom_current_c2c1_ipc ; [CPU_U] 
         0000027e 0000 
    2057 0000027f 9600!         MOV       @_c1brom_current_c2c1_ipc,AL ; [CPU_] |574| 
    2058                      .dwpsn  file "C:/work/grepos/bootrom/Boot_ROM/F2837x_bootROM-REVB/F2837x_bootROM_dev/F2837x_bootROM/c
    2059 00000280 6F1E          B         $C$L61,UNC            ; [CPU_] |575| 
    2060                      ; branch occurs ; [] |575| 
    2061 00000281       $C$L57:    
    2062                      .dwpsn  file "C:/work/grepos/bootrom/Boot_ROM/F2837x_bootROM-REVB/F2837x_bootROM_dev/F2837x_bootROM/c
    2063 00000281 020E          MOVB      ACC,#14               ; [CPU_] |576| 
    2064 00000282 0F02!         CMPL      ACC,@_c1brom_current_c2c1_ipc+2 ; [CPU_] |576| 
    2065 00000283 ED07          BF        $C$L58,NEQ            ; [CPU_] |576| 
    2066                      ; branchcc occurs ; [] |576| 
    2067                      .dwpsn  file "C:/work/grepos/bootrom/Boot_ROM/F2837x_bootROM-REVB/F2837x_bootROM_dev/F2837x_bootROM/c
    2068              $C$DW$119       .dwtag  DW_TAG_TI_branch
    2069                      .dwattr $C$DW$119, DW_AT_low_pc(0x00)
    2070                      .dwattr $C$DW$119, DW_AT_name("_c1brom_c2c1_ipc_write_data_protected_32")
    2071                      .dwattr $C$DW$119, DW_AT_TI_call
    2072 00000284 7640!         LCR       #_c1brom_c2c1_ipc_write_data_protected_32 ; [CPU_] |578| 
         00000285 0000 
    2073                      ; call occurs [#_c1brom_c2c1_ipc_write_data_protected_32] ; [] |578| 
    2074 00000286 761F!         MOVW      DP,#_c1brom_current_c2c1_ipc ; [CPU_U] 
         00000287 0000 
    2075 00000288 9600!         MOV       @_c1brom_current_c2c1_ipc,AL ; [CPU_] |578| 
    2076                      .dwpsn  file "C:/work/grepos/bootrom/Boot_ROM/F2837x_bootROM-REVB/F2837x_bootROM_dev/F2837x_bootROM/c
    2077 00000289 6F15          B         $C$L61,UNC            ; [CPU_] |579| 
    2078                      ; branch occurs ; [] |579| 
    2079 0000028a       $C$L58:    
    2080                      .dwpsn  file "C:/work/grepos/bootrom/Boot_ROM/F2837x_bootROM-REVB/F2837x_bootROM_dev/F2837x_bootROM/c
    2081 0000028a 020F          MOVB      ACC,#15               ; [CPU_] |580| 
    2082 0000028b 0F02!         CMPL      ACC,@_c1brom_current_c2c1_ipc+2 ; [CPU_] |580| 
    2083 0000028c ED07          BF        $C$L59,NEQ            ; [CPU_] |580| 
    2084                      ; branchcc occurs ; [] |580| 
    2085                      .dwpsn  file "C:/work/grepos/bootrom/Boot_ROM/F2837x_bootROM-REVB/F2837x_bootROM_dev/F2837x_bootROM/c
    2086              $C$DW$120       .dwtag  DW_TAG_TI_branch
    2087                      .dwattr $C$DW$120, DW_AT_low_pc(0x00)
    2088                      .dwattr $C$DW$120, DW_AT_name("_c1brom_c2c1_ipc_read_data_protected_16")
    2089                      .dwattr $C$DW$120, DW_AT_TI_call
    2090 0000028d 7640!         LCR       #_c1brom_c2c1_ipc_read_data_protected_16 ; [CPU_] |582| 
         0000028e 0000 
    2091                      ; call occurs [#_c1brom_c2c1_ipc_read_data_protected_16] ; [] |582| 
    2092 0000028f 761F!         MOVW      DP,#_c1brom_current_c2c1_ipc ; [CPU_U] 
         00000290 0000 
    2093 00000291 9600!         MOV       @_c1brom_current_c2c1_ipc,AL ; [CPU_] |582| 
    2094                      .dwpsn  file "C:/work/grepos/bootrom/Boot_ROM/F2837x_bootROM-REVB/F2837x_bootROM_dev/F2837x_bootROM/c
    2095 00000292 6F0C          B         $C$L61,UNC            ; [CPU_] |583| 
    2096                      ; branch occurs ; [] |583| 
    2097 00000293       $C$L59:    
    2098                      .dwpsn  file "C:/work/grepos/bootrom/Boot_ROM/F2837x_bootROM-REVB/F2837x_bootROM_dev/F2837x_bootROM/c
    2099 00000293 0210          MOVB      ACC,#16               ; [CPU_] |584| 
TMS320C2000 Assembler PC v6.1.3 Thu Jan 30 10:26:14 2014

Tools Copyright (c) 1996-2012 Texas Instruments Incorporated
C:\Users\a0272466\AppData\Local\Temp\0274010                         PAGE   44

    2100 00000294 0F02!         CMPL      ACC,@_c1brom_current_c2c1_ipc+2 ; [CPU_] |584| 
    2101 00000295 ED07          BF        $C$L60,NEQ            ; [CPU_] |584| 
    2102                      ; branchcc occurs ; [] |584| 
    2103                      .dwpsn  file "C:/work/grepos/bootrom/Boot_ROM/F2837x_bootROM-REVB/F2837x_bootROM_dev/F2837x_bootROM/c
    2104              $C$DW$121       .dwtag  DW_TAG_TI_branch
    2105                      .dwattr $C$DW$121, DW_AT_low_pc(0x00)
    2106                      .dwattr $C$DW$121, DW_AT_name("_c1brom_c2c1_ipc_read_data_protected_32")
    2107                      .dwattr $C$DW$121, DW_AT_TI_call
    2108 00000296 7640!         LCR       #_c1brom_c2c1_ipc_read_data_protected_32 ; [CPU_] |586| 
         00000297 0000 
    2109                      ; call occurs [#_c1brom_c2c1_ipc_read_data_protected_32] ; [] |586| 
    2110 00000298 761F!         MOVW      DP,#_c1brom_current_c2c1_ipc ; [CPU_U] 
         00000299 0000 
    2111 0000029a 9600!         MOV       @_c1brom_current_c2c1_ipc,AL ; [CPU_] |586| 
    2112                      .dwpsn  file "C:/work/grepos/bootrom/Boot_ROM/F2837x_bootROM-REVB/F2837x_bootROM_dev/F2837x_bootROM/c
    2113 0000029b 6F03          B         $C$L61,UNC            ; [CPU_] |587| 
    2114                      ; branch occurs ; [] |587| 
    2115 0000029c       $C$L60:    
    2116                      .dwpsn  file "C:/work/grepos/bootrom/Boot_ROM/F2837x_bootROM-REVB/F2837x_bootROM_dev/F2837x_bootROM/c
    2117 0000029c 56BF!         MOVB      @_c1brom_current_c2c1_ipc,#3,UNC ; [CPU_] |590| 
         0000029d 0300 
    2118 0000029e       $C$L61:    
    2119                      .dwpsn  file "C:/work/grepos/bootrom/Boot_ROM/F2837x_bootROM-REVB/F2837x_bootROM_dev/F2837x_bootROM/c
    2120 0000029e 9200!         MOV       AL,@_c1brom_current_c2c1_ipc ; [CPU_] |594| 
    2121 0000029f 5202          CMPB      AL,#2                 ; [CPU_] |594| 
    2122 000002a0 ED0F          BF        $C$L62,NEQ            ; [CPU_] |594| 
    2123                      ; branchcc occurs ; [] |594| 
    2124                      .dwpsn  file "C:/work/grepos/bootrom/Boot_ROM/F2837x_bootROM-REVB/F2837x_bootROM_dev/F2837x_bootROM/c
    2125 000002a1 0200          MOVB      ACC,#0                ; [CPU_] |596| 
    2126 000002a2 1E02!         MOVL      @_c1brom_current_c2c1_ipc+2,ACC ; [CPU_] |596| 
    2127                      .dwpsn  file "C:/work/grepos/bootrom/Boot_ROM/F2837x_bootROM-REVB/F2837x_bootROM_dev/F2837x_bootROM/c
    2128 000002a3 2B00!         MOV       @_c1brom_current_c2c1_ipc,#0 ; [CPU_] |597| 
    2129                      .dwpsn  file "C:/work/grepos/bootrom/Boot_ROM/F2837x_bootROM-REVB/F2837x_bootROM_dev/F2837x_bootROM/c
    2130 000002a4 761F!         MOVW      DP,#_IpcRegs          ; [CPU_U] 
         000002a5 0000 
    2131 000002a6 9A01          MOV       AL,#1                 ; [CPU_] |598| 
    2132 000002a7 28A8          MOV       AH,#32768             ; [CPU_] |598| 
         000002a8 8000 
    2133 000002a9 1E00!         MOVL      @_IpcRegs,ACC         ; [CPU_] |598| 
    2134                      .dwpsn  file "C:/work/grepos/bootrom/Boot_ROM/F2837x_bootROM-REVB/F2837x_bootROM_dev/F2837x_bootROM/c
    2135 000002aa 761F!         MOVW      DP,#_PieCtrlRegs+1    ; [CPU_U] 
         000002ab 0000 
    2136 000002ac 56BF!         MOVB      @_PieCtrlRegs+1,#1,UNC ; [CPU_] |599| 
         000002ad 0101 
    2137                      .dwpsn  file "C:/work/grepos/bootrom/Boot_ROM/F2837x_bootROM-REVB/F2837x_bootROM_dev/F2837x_bootROM/c
    2138 000002ae 6F11          B         $C$L63,UNC            ; [CPU_] |600| 
    2139                      ; branch occurs ; [] |600| 
    2140 000002af       $C$L62:    
    2141                      .dwpsn  file "C:/work/grepos/bootrom/Boot_ROM/F2837x_bootROM-REVB/F2837x_bootROM_dev/F2837x_bootROM/c
    2142 000002af 0200          MOVB      ACC,#0                ; [CPU_] |603| 
    2143 000002b0 1E02!         MOVL      @_c1brom_current_c2c1_ipc+2,ACC ; [CPU_] |603| 
    2144                      .dwpsn  file "C:/work/grepos/bootrom/Boot_ROM/F2837x_bootROM-REVB/F2837x_bootROM_dev/F2837x_bootROM/c
    2145 000002b1 2B00!         MOV       @_c1brom_current_c2c1_ipc,#0 ; [CPU_] |604| 
    2146                      .dwpsn  file "C:/work/grepos/bootrom/Boot_ROM/F2837x_bootROM-REVB/F2837x_bootROM_dev/F2837x_bootROM/c
    2147 000002b2 761F!         MOVW      DP,#_c1brom_status    ; [CPU_U] 
TMS320C2000 Assembler PC v6.1.3 Thu Jan 30 10:26:14 2014

Tools Copyright (c) 1996-2012 Texas Instruments Incorporated
C:\Users\a0272466\AppData\Local\Temp\0274010                         PAGE   45

         000002b3 0000 
    2148 000002b4 0600!         MOVL      ACC,@_c1brom_status   ; [CPU_] |605| 
    2149 000002b5 761F!         MOVW      DP,#_IpcRegs          ; [CPU_U] 
         000002b6 0000 
    2150 000002b7 5001          ORB       AL,#0x01              ; [CPU_] |605| 
    2151 000002b8 1A00!         OR        @_IpcRegs,#0x0001     ; [CPU_] |605| 
         000002b9 0001 
    2152 000002ba 1E1E!         MOVL      @_IpcRegs+30,ACC      ; [CPU_] |605| 
    2153                      .dwpsn  file "C:/work/grepos/bootrom/Boot_ROM/F2837x_bootROM-REVB/F2837x_bootROM_dev/F2837x_bootROM/c
    2154 000002bb 761F!         MOVW      DP,#_PieCtrlRegs+1    ; [CPU_U] 
         000002bc 0000 
    2155 000002bd 56BF!         MOVB      @_PieCtrlRegs+1,#1,UNC ; [CPU_] |606| 
         000002be 0101 
    2156                      .dwpsn  file "C:/work/grepos/bootrom/Boot_ROM/F2837x_bootROM-REVB/F2837x_bootROM_dev/F2837x_bootROM/c
    2157 000002bf       $C$L63:    
    2158                      .dwcfi  cfa_offset, -26
    2159 000002bf E2AF          MOV32     R3H,*--SP             ; [CPU_] 
         000002c0 03BE 
    2160                      .dwcfi  cfa_offset, -24
    2161                      .dwcfi  restore_reg, 55
    2162                      .dwcfi  restore_reg, 56
    2163 000002c1 E2AF          MOV32     R2H,*--SP             ; [CPU_] 
         000002c2 02BE 
    2164                      .dwcfi  cfa_offset, -22
    2165                      .dwcfi  restore_reg, 51
    2166                      .dwcfi  restore_reg, 52
    2167 000002c3 E2AF          MOV32     R1H,*--SP             ; [CPU_] 
         000002c4 01BE 
    2168                      .dwcfi  cfa_offset, -20
    2169                      .dwcfi  restore_reg, 47
    2170                      .dwcfi  restore_reg, 48
    2171 000002c5 E2AF          MOV32     R0H,*--SP             ; [CPU_] 
         000002c6 00BE 
    2172                      .dwcfi  cfa_offset, -18
    2173                      .dwcfi  restore_reg, 43
    2174                      .dwcfi  restore_reg, 44
    2175 000002c7 E280          MOV32     STF,*--SP             ; [CPU_] 
         000002c8 00BE 
    2176                      .dwcfi  cfa_offset, -16
    2177                      .dwcfi  restore_reg, 39
    2178                      .dwcfi  restore_reg, 40
    2179 000002c9 C5BE          MOVL      XAR7,*--SP            ; [CPU_] 
    2180                      .dwcfi  cfa_offset, -14
    2181                      .dwcfi  restore_reg, 18
    2182 000002ca C4BE          MOVL      XAR6,*--SP            ; [CPU_] 
    2183                      .dwcfi  cfa_offset, -12
    2184                      .dwcfi  restore_reg, 16
    2185 000002cb 83BE          MOVL      XAR5,*--SP            ; [CPU_] 
    2186                      .dwcfi  cfa_offset, -10
    2187                      .dwcfi  restore_reg, 14
    2188 000002cc 8ABE          MOVL      XAR4,*--SP            ; [CPU_] 
    2189                      .dwcfi  cfa_offset, -8
    2190                      .dwcfi  restore_reg, 12
    2191 000002cd 87BE          MOVL      XT,*--SP              ; [CPU_] 
    2192                      .dwcfi  cfa_offset, -6
TMS320C2000 Assembler PC v6.1.3 Thu Jan 30 10:26:14 2014

Tools Copyright (c) 1996-2012 Texas Instruments Incorporated
C:\Users\a0272466\AppData\Local\Temp\0274010                         PAGE   46

    2193                      .dwcfi  restore_reg, 22
    2194                      .dwcfi  restore_reg, 21
    2195 000002ce 0003          POP       AR1H:AR0H             ; [CPU_] 
    2196                      .dwcfi  cfa_offset, -4
    2197                      .dwcfi  restore_reg, 5
    2198                      .dwcfi  restore_reg, 7
    2199 000002cf FFF1          POP       RB                    ; [CPU_] 
    2200                      .dwcfi  cfa_offset, -2
    2201                      .dwcfi  restore_reg, 73
    2202                      .dwcfi  restore_reg, 74
    2203 000002d0 7617          NASP      ; [CPU_] 
    2204              $C$DW$122       .dwtag  DW_TAG_TI_branch
    2205                      .dwattr $C$DW$122, DW_AT_low_pc(0x00)
    2206                      .dwattr $C$DW$122, DW_AT_TI_return
    2207 000002d1 7602          IRET      ; [CPU_] 
    2208                      ; return occurs ; [] 
    2209                      .dwattr $C$DW$105, DW_AT_TI_end_file("C:/work/grepos/bootrom/Boot_ROM/F2837x_bootROM-REVB/F2837x_boot
    2210                      .dwattr $C$DW$105, DW_AT_TI_end_line(0x260)
    2211                      .dwattr $C$DW$105, DW_AT_TI_end_column(0x01)
    2212                      .dwendentry
    2213                      .dwendtag $C$DW$105
    2214              
    2215 000000e6               .sect   ".text"
    2216                      .global _c1brom_init_pie_vect_table
    2217              
    2218              $C$DW$123       .dwtag  DW_TAG_subprogram, DW_AT_name("c1brom_init_pie_vect_table")
    2219                      .dwattr $C$DW$123, DW_AT_low_pc(_c1brom_init_pie_vect_table)
    2220                      .dwattr $C$DW$123, DW_AT_high_pc(0x00)
    2221                      .dwattr $C$DW$123, DW_AT_TI_symbol_name("_c1brom_init_pie_vect_table")
    2222                      .dwattr $C$DW$123, DW_AT_external
    2223                      .dwattr $C$DW$123, DW_AT_TI_begin_file("C:/work/grepos/bootrom/Boot_ROM/F2837x_bootROM-REVB/F2837x_bo
    2224                      .dwattr $C$DW$123, DW_AT_TI_begin_line(0x26b)
    2225                      .dwattr $C$DW$123, DW_AT_TI_begin_column(0x06)
    2226                      .dwattr $C$DW$123, DW_AT_TI_max_frame_size(-6)
    2227                      .dwpsn  file "C:/work/grepos/bootrom/Boot_ROM/F2837x_bootROM-REVB/F2837x_bootROM_dev/F2837x_bootROM/c
    2228              
    2229                      .dwfde $C$DW$CIE, _c1brom_init_pie_vect_table
    2230              
    2231              ;***************************************************************
    2232              ;* FNAME: _c1brom_init_pie_vect_table   FR SIZE:   4           *
    2233              ;*                                                             *
    2234              ;* FUNCTION ENVIRONMENT                                        *
    2235              ;*                                                             *
    2236              ;* FUNCTION PROPERTIES                                         *
    2237              ;*                            0 Parameter,  4 Auto,  0 SOE     *
    2238              ;***************************************************************
    2239              
    2240 000000e6       _c1brom_init_pie_vect_table:
    2241                      .dwcfi  cfa_offset, -2
    2242                      .dwcfi  save_reg_to_mem, 26, 0
    2243                      .dwcfi  save_reg_to_reg, 78, 26
    2244 000000e6 FE04          ADDB      SP,#4                 ; [CPU_U] 
    2245                      .dwcfi  cfa_offset, -6
    2246              $C$DW$124       .dwtag  DW_TAG_variable, DW_AT_name("i")
    2247                      .dwattr $C$DW$124, DW_AT_TI_symbol_name("_i")
TMS320C2000 Assembler PC v6.1.3 Thu Jan 30 10:26:14 2014

Tools Copyright (c) 1996-2012 Texas Instruments Incorporated
C:\Users\a0272466\AppData\Local\Temp\0274010                         PAGE   47

    2248                      .dwattr $C$DW$124, DW_AT_type(*$C$DW$T$210)
    2249                      .dwattr $C$DW$124, DW_AT_location[DW_OP_breg20 -1]
    2250              $C$DW$125       .dwtag  DW_TAG_variable, DW_AT_name("Dest")
    2251                      .dwattr $C$DW$125, DW_AT_TI_symbol_name("_Dest")
    2252                      .dwattr $C$DW$125, DW_AT_type(*$C$DW$T$205)
    2253                      .dwattr $C$DW$125, DW_AT_location[DW_OP_breg20 -4]
    2254                      .dwpsn  file "C:/work/grepos/bootrom/Boot_ROM/F2837x_bootROM-REVB/F2837x_bootROM_dev/F2837x_bootROM/c
    2255 000000e7 8F00!         MOVL      XAR4,#_PieVectTable   ; [CPU_U] |622| 
         000000e8 0000 
    2256 000000e9 A844          MOVL      *-SP[4],XAR4          ; [CPU_] |622| 
    2257                      .dwpsn  file "C:/work/grepos/bootrom/Boot_ROM/F2837x_bootROM-REVB/F2837x_bootROM_dev/F2837x_bootROM/c
    2258 000000ea 2841          MOV       *-SP[1],#448          ; [CPU_] |624| 
         000000eb 01C0 
    2259                      .dwpsn  file "C:/work/grepos/bootrom/Boot_ROM/F2837x_bootROM-REVB/F2837x_bootROM_dev/F2837x_bootROM/c
    2260 000000ec 9A03          MOVB      AL,#3                 ; [CPU_] |625| 
    2261 000000ed 7441          SUB       *-SP[1],AL            ; [CPU_] |625| 
    2262                      .dwpsn  file "C:/work/grepos/bootrom/Boot_ROM/F2837x_bootROM-REVB/F2837x_bootROM_dev/F2837x_bootROM/c
    2263 000000ee 0206          MOVB      ACC,#6                ; [CPU_] |626| 
    2264 000000ef 5601          ADDL      *-SP[4],ACC           ; [CPU_] |626| 
         000000f0 0044 
    2265                      .dwpsn  file "C:/work/grepos/bootrom/Boot_ROM/F2837x_bootROM-REVB/F2837x_bootROM_dev/F2837x_bootROM/c
    2266 000000f1 7622   EALLOW
    2267                      .dwpsn  file "C:/work/grepos/bootrom/Boot_ROM/F2837x_bootROM-REVB/F2837x_bootROM_dev/F2837x_bootROM/c
    2268 000000f2 9241          MOV       AL,*-SP[1]            ; [CPU_] |629| 
    2269 000000f3 650B          B         $C$L65,LEQ            ; [CPU_] |629| 
    2270                      ; branchcc occurs ; [] |629| 
    2271 000000f4       $C$L64:    
    2272 000000f4       $C$DW$L$_c1brom_init_pie_vect_table$2$B:
    2273                      .dwpsn  file "C:/work/grepos/bootrom/Boot_ROM/F2837x_bootROM-REVB/F2837x_bootROM_dev/F2837x_bootROM/c
    2274 000000f4 8A44          MOVL      XAR4,*-SP[4]          ; [CPU_] |631| 
    2275 000000f5 A8A9          MOVL      ACC,XAR4              ; [CPU_] |631| 
    2276 000000f6 8F40+         MOVL      XAR5,#_c1brom_pie_isr_not_supported ; [CPU_U] |631| 
         000000f7 0000 
    2277 000000f8 0902          ADDB      ACC,#2                ; [CPU_U] |631| 
    2278 000000f9 1E44          MOVL      *-SP[4],ACC           ; [CPU_] |631| 
    2279 000000fa A0C4          MOVL      *+XAR4[0],XAR5        ; [CPU_] |631| 
    2280                      .dwpsn  file "C:/work/grepos/bootrom/Boot_ROM/F2837x_bootROM-REVB/F2837x_bootROM_dev/F2837x_bootROM/c
    2281 000000fb 0B41          DEC       *-SP[1]               ; [CPU_] |629| 
    2282                      .dwpsn  file "C:/work/grepos/bootrom/Boot_ROM/F2837x_bootROM-REVB/F2837x_bootROM_dev/F2837x_bootROM/c
    2283 000000fc 9241          MOV       AL,*-SP[1]            ; [CPU_] |629| 
    2284 000000fd 62F7          B         $C$L64,GT             ; [CPU_] |629| 
    2285                      ; branchcc occurs ; [] |629| 
    2286 000000fe       $C$DW$L$_c1brom_init_pie_vect_table$2$E:
    2287 000000fe       $C$L65:    
    2288                      .dwpsn  file "C:/work/grepos/bootrom/Boot_ROM/F2837x_bootROM-REVB/F2837x_bootROM_dev/F2837x_bootROM/c
    2289 000000fe 761A   EDIS
    2290                      .dwpsn  file "C:/work/grepos/bootrom/Boot_ROM/F2837x_bootROM-REVB/F2837x_bootROM_dev/F2837x_bootROM/c
    2291 000000ff 761F!         MOVW      DP,#_PieCtrlRegs      ; [CPU_U] 
         00000100 0000 
    2292 00000101 1A00!         OR        @_PieCtrlRegs,#0x0001 ; [CPU_] |636| 
         00000102 0001 
    2293                      .dwpsn  file "C:/work/grepos/bootrom/Boot_ROM/F2837x_bootROM-REVB/F2837x_bootROM_dev/F2837x_bootROM/c
    2294 00000103 FE84          SUBB      SP,#4                 ; [CPU_U] 
    2295                      .dwcfi  cfa_offset, -2
    2296 00000104 FF69          SPM       #0                    ; [CPU_] 
TMS320C2000 Assembler PC v6.1.3 Thu Jan 30 10:26:14 2014

Tools Copyright (c) 1996-2012 Texas Instruments Incorporated
C:\Users\a0272466\AppData\Local\Temp\0274010                         PAGE   48

    2297              $C$DW$126       .dwtag  DW_TAG_TI_branch
    2298                      .dwattr $C$DW$126, DW_AT_low_pc(0x00)
    2299                      .dwattr $C$DW$126, DW_AT_TI_return
    2300 00000105 0006          LRETR     ; [CPU_] 
    2301                      ; return occurs ; [] 
    2302              
    2303              $C$DW$127       .dwtag  DW_TAG_TI_loop
    2304                      .dwattr $C$DW$127, DW_AT_name("C:\\Users\\a0272466\\AppData\\Local\\Temp\\0274010:$C$L64:1:1391099172
    2305                      .dwattr $C$DW$127, DW_AT_TI_begin_file("C:/work/grepos/bootrom/Boot_ROM/F2837x_bootROM-REVB/F2837x_bo
    2306                      .dwattr $C$DW$127, DW_AT_TI_begin_line(0x275)
    2307                      .dwattr $C$DW$127, DW_AT_TI_end_line(0x278)
    2308              $C$DW$128       .dwtag  DW_TAG_TI_loop_range
    2309                      .dwattr $C$DW$128, DW_AT_low_pc($C$DW$L$_c1brom_init_pie_vect_table$2$B)
    2310                      .dwattr $C$DW$128, DW_AT_high_pc($C$DW$L$_c1brom_init_pie_vect_table$2$E)
    2311                      .dwendtag $C$DW$127
    2312              
    2313                      .dwattr $C$DW$123, DW_AT_TI_end_file("C:/work/grepos/bootrom/Boot_ROM/F2837x_bootROM-REVB/F2837x_boot
    2314                      .dwattr $C$DW$123, DW_AT_TI_end_line(0x27e)
    2315                      .dwattr $C$DW$123, DW_AT_TI_end_column(0x01)
    2316                      .dwendentry
    2317                      .dwendtag $C$DW$123
    2318              
    2319 00000106               .sect   ".text"
    2320                      .global _c1brom_init_pie_control
    2321              
    2322              $C$DW$129       .dwtag  DW_TAG_subprogram, DW_AT_name("c1brom_init_pie_control")
    2323                      .dwattr $C$DW$129, DW_AT_low_pc(_c1brom_init_pie_control)
    2324                      .dwattr $C$DW$129, DW_AT_high_pc(0x00)
    2325                      .dwattr $C$DW$129, DW_AT_TI_symbol_name("_c1brom_init_pie_control")
    2326                      .dwattr $C$DW$129, DW_AT_external
    2327                      .dwattr $C$DW$129, DW_AT_TI_begin_file("C:/work/grepos/bootrom/Boot_ROM/F2837x_bootROM-REVB/F2837x_bo
    2328                      .dwattr $C$DW$129, DW_AT_TI_begin_line(0x286)
    2329                      .dwattr $C$DW$129, DW_AT_TI_begin_column(0x06)
    2330                      .dwattr $C$DW$129, DW_AT_TI_max_frame_size(-2)
    2331                      .dwpsn  file "C:/work/grepos/bootrom/Boot_ROM/F2837x_bootROM-REVB/F2837x_bootROM_dev/F2837x_bootROM/c
    2332              
    2333                      .dwfde $C$DW$CIE, _c1brom_init_pie_control
    2334              
    2335              ;***************************************************************
    2336              ;* FNAME: _c1brom_init_pie_control      FR SIZE:   0           *
    2337              ;*                                                             *
    2338              ;* FUNCTION ENVIRONMENT                                        *
    2339              ;*                                                             *
    2340              ;* FUNCTION PROPERTIES                                         *
    2341              ;*                            0 Parameter,  0 Auto,  0 SOE     *
    2342              ;***************************************************************
    2343              
    2344 00000106       _c1brom_init_pie_control:
    2345                      .dwcfi  cfa_offset, -2
    2346                      .dwcfi  save_reg_to_mem, 26, 0
    2347                      .dwcfi  save_reg_to_reg, 78, 26
    2348                      .dwpsn  file "C:/work/grepos/bootrom/Boot_ROM/F2837x_bootROM-REVB/F2837x_bootROM_dev/F2837x_bootROM/c
    2349 00000106 3B10   setc INTM
    2350                      .dwpsn  file "C:/work/grepos/bootrom/Boot_ROM/F2837x_bootROM-REVB/F2837x_bootROM_dev/F2837x_bootROM/c
    2351 00000107 761F!         MOVW      DP,#_PieCtrlRegs      ; [CPU_U] 
TMS320C2000 Assembler PC v6.1.3 Thu Jan 30 10:26:14 2014

Tools Copyright (c) 1996-2012 Texas Instruments Incorporated
C:\Users\a0272466\AppData\Local\Temp\0274010                         PAGE   49

         00000108 0000 
    2352 00000109 1800!         AND       @_PieCtrlRegs,#0xfffe ; [CPU_] |652| 
         0000010a FFFE 
    2353                      .dwpsn  file "C:/work/grepos/bootrom/Boot_ROM/F2837x_bootROM-REVB/F2837x_bootROM_dev/F2837x_bootROM/c
    2354 0000010b 2B02!         MOV       @_PieCtrlRegs+2,#0    ; [CPU_] |655| 
    2355                      .dwpsn  file "C:/work/grepos/bootrom/Boot_ROM/F2837x_bootROM-REVB/F2837x_bootROM_dev/F2837x_bootROM/c
    2356 0000010c 2B04!         MOV       @_PieCtrlRegs+4,#0    ; [CPU_] |656| 
    2357                      .dwpsn  file "C:/work/grepos/bootrom/Boot_ROM/F2837x_bootROM-REVB/F2837x_bootROM_dev/F2837x_bootROM/c
    2358 0000010d 2B06!         MOV       @_PieCtrlRegs+6,#0    ; [CPU_] |657| 
    2359                      .dwpsn  file "C:/work/grepos/bootrom/Boot_ROM/F2837x_bootROM-REVB/F2837x_bootROM_dev/F2837x_bootROM/c
    2360 0000010e 2B08!         MOV       @_PieCtrlRegs+8,#0    ; [CPU_] |658| 
    2361                      .dwpsn  file "C:/work/grepos/bootrom/Boot_ROM/F2837x_bootROM-REVB/F2837x_bootROM_dev/F2837x_bootROM/c
    2362 0000010f 2B0A!         MOV       @_PieCtrlRegs+10,#0   ; [CPU_] |659| 
    2363                      .dwpsn  file "C:/work/grepos/bootrom/Boot_ROM/F2837x_bootROM-REVB/F2837x_bootROM_dev/F2837x_bootROM/c
    2364 00000110 2B0C!         MOV       @_PieCtrlRegs+12,#0   ; [CPU_] |660| 
    2365                      .dwpsn  file "C:/work/grepos/bootrom/Boot_ROM/F2837x_bootROM-REVB/F2837x_bootROM_dev/F2837x_bootROM/c
    2366 00000111 2B0E!         MOV       @_PieCtrlRegs+14,#0   ; [CPU_] |661| 
    2367                      .dwpsn  file "C:/work/grepos/bootrom/Boot_ROM/F2837x_bootROM-REVB/F2837x_bootROM_dev/F2837x_bootROM/c
    2368 00000112 2B10!         MOV       @_PieCtrlRegs+16,#0   ; [CPU_] |662| 
    2369                      .dwpsn  file "C:/work/grepos/bootrom/Boot_ROM/F2837x_bootROM-REVB/F2837x_bootROM_dev/F2837x_bootROM/c
    2370 00000113 2B12!         MOV       @_PieCtrlRegs+18,#0   ; [CPU_] |663| 
    2371                      .dwpsn  file "C:/work/grepos/bootrom/Boot_ROM/F2837x_bootROM-REVB/F2837x_bootROM_dev/F2837x_bootROM/c
    2372 00000114 2B14!         MOV       @_PieCtrlRegs+20,#0   ; [CPU_] |664| 
    2373                      .dwpsn  file "C:/work/grepos/bootrom/Boot_ROM/F2837x_bootROM-REVB/F2837x_bootROM_dev/F2837x_bootROM/c
    2374 00000115 2B16!         MOV       @_PieCtrlRegs+22,#0   ; [CPU_] |665| 
    2375                      .dwpsn  file "C:/work/grepos/bootrom/Boot_ROM/F2837x_bootROM-REVB/F2837x_bootROM_dev/F2837x_bootROM/c
    2376 00000116 2B18!         MOV       @_PieCtrlRegs+24,#0   ; [CPU_] |666| 
    2377                      .dwpsn  file "C:/work/grepos/bootrom/Boot_ROM/F2837x_bootROM-REVB/F2837x_bootROM_dev/F2837x_bootROM/c
    2378 00000117 2B03!         MOV       @_PieCtrlRegs+3,#0    ; [CPU_] |669| 
    2379                      .dwpsn  file "C:/work/grepos/bootrom/Boot_ROM/F2837x_bootROM-REVB/F2837x_bootROM_dev/F2837x_bootROM/c
    2380 00000118 2B05!         MOV       @_PieCtrlRegs+5,#0    ; [CPU_] |670| 
    2381                      .dwpsn  file "C:/work/grepos/bootrom/Boot_ROM/F2837x_bootROM-REVB/F2837x_bootROM_dev/F2837x_bootROM/c
    2382 00000119 2B07!         MOV       @_PieCtrlRegs+7,#0    ; [CPU_] |671| 
    2383                      .dwpsn  file "C:/work/grepos/bootrom/Boot_ROM/F2837x_bootROM-REVB/F2837x_bootROM_dev/F2837x_bootROM/c
    2384 0000011a 2B09!         MOV       @_PieCtrlRegs+9,#0    ; [CPU_] |672| 
    2385                      .dwpsn  file "C:/work/grepos/bootrom/Boot_ROM/F2837x_bootROM-REVB/F2837x_bootROM_dev/F2837x_bootROM/c
    2386 0000011b 2B0B!         MOV       @_PieCtrlRegs+11,#0   ; [CPU_] |673| 
    2387                      .dwpsn  file "C:/work/grepos/bootrom/Boot_ROM/F2837x_bootROM-REVB/F2837x_bootROM_dev/F2837x_bootROM/c
    2388 0000011c 2B0D!         MOV       @_PieCtrlRegs+13,#0   ; [CPU_] |674| 
    2389                      .dwpsn  file "C:/work/grepos/bootrom/Boot_ROM/F2837x_bootROM-REVB/F2837x_bootROM_dev/F2837x_bootROM/c
    2390 0000011d 2B0F!         MOV       @_PieCtrlRegs+15,#0   ; [CPU_] |675| 
    2391                      .dwpsn  file "C:/work/grepos/bootrom/Boot_ROM/F2837x_bootROM-REVB/F2837x_bootROM_dev/F2837x_bootROM/c
    2392 0000011e 2B11!         MOV       @_PieCtrlRegs+17,#0   ; [CPU_] |676| 
    2393                      .dwpsn  file "C:/work/grepos/bootrom/Boot_ROM/F2837x_bootROM-REVB/F2837x_bootROM_dev/F2837x_bootROM/c
    2394 0000011f 2B13!         MOV       @_PieCtrlRegs+19,#0   ; [CPU_] |677| 
    2395                      .dwpsn  file "C:/work/grepos/bootrom/Boot_ROM/F2837x_bootROM-REVB/F2837x_bootROM_dev/F2837x_bootROM/c
    2396 00000120 2B15!         MOV       @_PieCtrlRegs+21,#0   ; [CPU_] |678| 
    2397                      .dwpsn  file "C:/work/grepos/bootrom/Boot_ROM/F2837x_bootROM-REVB/F2837x_bootROM_dev/F2837x_bootROM/c
    2398 00000121 2B17!         MOV       @_PieCtrlRegs+23,#0   ; [CPU_] |679| 
    2399                      .dwpsn  file "C:/work/grepos/bootrom/Boot_ROM/F2837x_bootROM-REVB/F2837x_bootROM_dev/F2837x_bootROM/c
    2400 00000122 2B19!         MOV       @_PieCtrlRegs+25,#0   ; [CPU_] |680| 
    2401                      .dwpsn  file "C:/work/grepos/bootrom/Boot_ROM/F2837x_bootROM-REVB/F2837x_bootROM_dev/F2837x_bootROM/c
    2402 00000123 1A00!         OR        @_PieCtrlRegs,#0x0001 ; [CPU_] |683| 
         00000124 0001 
    2403                      .dwpsn  file "C:/work/grepos/bootrom/Boot_ROM/F2837x_bootROM-REVB/F2837x_bootROM_dev/F2837x_bootROM/c
TMS320C2000 Assembler PC v6.1.3 Thu Jan 30 10:26:14 2014

Tools Copyright (c) 1996-2012 Texas Instruments Incorporated
C:\Users\a0272466\AppData\Local\Temp\0274010                         PAGE   50

    2404 00000125 2801!         MOV       @_PieCtrlRegs+1,#65535 ; [CPU_] |686| 
         00000126 FFFF 
    2405                      .dwpsn  file "C:/work/grepos/bootrom/Boot_ROM/F2837x_bootROM-REVB/F2837x_bootROM_dev/F2837x_bootROM/c
    2406 00000127 2910   clrc INTM
    2407                      .dwpsn  file "C:/work/grepos/bootrom/Boot_ROM/F2837x_bootROM-REVB/F2837x_bootROM_dev/F2837x_bootROM/c
    2408 00000128 FF69          SPM       #0                    ; [CPU_] 
    2409              $C$DW$130       .dwtag  DW_TAG_TI_branch
    2410                      .dwattr $C$DW$130, DW_AT_low_pc(0x00)
    2411                      .dwattr $C$DW$130, DW_AT_TI_return
    2412 00000129 0006          LRETR     ; [CPU_] 
    2413                      ; return occurs ; [] 
    2414                      .dwattr $C$DW$129, DW_AT_TI_end_file("C:/work/grepos/bootrom/Boot_ROM/F2837x_bootROM-REVB/F2837x_boot
    2415                      .dwattr $C$DW$129, DW_AT_TI_end_line(0x2b3)
    2416                      .dwattr $C$DW$129, DW_AT_TI_end_column(0x01)
    2417                      .dwendentry
    2418                      .dwendtag $C$DW$129
    2419              
    2420              ;**************************************************************
    2421              ;* UNDEFINED EXTERNAL REFERENCES                              *
    2422              ;**************************************************************
    2423                      .global _load_itrap_address
    2424                      .global _c1brom_c2c1_ipc_clear_bits_32
    2425                      .global _c1brom_c2c1_ipc_clear_bits_16
    2426                      .global _c1brom_c2c1_ipc_write_data_32
    2427                      .global _c1brom_c2c1_ipc_write_data_16
    2428                      .global _sysctl_wdog_enable
    2429                      .global _c1brom_c2c1_ipc_set_bits_32
    2430                      .global _c1brom_c2c1_ipc_set_bits_16
    2431                      .global _c1brom_c2c1_ipc_read_data_16
    2432                      .global _c1brom_c2c1_ipc_clear_bits_protected_32
    2433                      .global _c1brom_c2c1_ipc_write_data_protected_16
    2434                      .global _c1brom_c2c1_ipc_set_bits_protected_32
    2435                      .global _c1brom_c2c1_ipc_clear_bits_protected_16
    2436                      .global _c1brom_c2c1_ipc_read_data_protected_32
    2437                      .global _c1brom_c2c1_ipc_read_data_32
    2438                      .global _c1brom_c2c1_ipc_write_data_protected_32
    2439                      .global _c1brom_c2c1_ipc_read_data_protected_16
    2440                      .global _c1brom_c2c1_ipc_set_bits_protected_16
    2441                      .global _c1brom_status
    2442                      .global _c1brom_current_c2c1_ipc
    2443                      .global _NmiIntruptRegs
    2444                      .global _PieCtrlRegs
    2445                      .global _IpcRegs
    2446                      .global _CpuSysRegs
    2447                      .global _PieVectTable
    2448              
    2449              ;***************************************************************
    2450              ;* TYPE INFORMATION                                            *
    2451              ;***************************************************************
    2452              
    2453              $C$DW$T$159     .dwtag  DW_TAG_enumeration_type
    2454                      .dwattr $C$DW$T$159, DW_AT_byte_size(0x01)
    2455              $C$DW$131       .dwtag  DW_TAG_enumerator, DW_AT_name("COMMAND_STATUS_INVALID"), DW_AT_const_value(0x00)
    2456              $C$DW$132       .dwtag  DW_TAG_enumerator, DW_AT_name("COMMAND_PENDING"), DW_AT_const_value(0x01)
    2457              $C$DW$133       .dwtag  DW_TAG_enumerator, DW_AT_name("COMMAND_COMPLETE_SUCCESS"), DW_AT_const_value(0x02)
TMS320C2000 Assembler PC v6.1.3 Thu Jan 30 10:26:14 2014

Tools Copyright (c) 1996-2012 Texas Instruments Incorporated
C:\Users\a0272466\AppData\Local\Temp\0274010                         PAGE   51

    2458              $C$DW$134       .dwtag  DW_TAG_enumerator, DW_AT_name("COMMAND_COMPLETE_FAILURE"), DW_AT_const_value(0x03)
    2459                      .dwendtag $C$DW$T$159
    2460              
    2461              $C$DW$T$160     .dwtag  DW_TAG_typedef, DW_AT_name("command_status_t")
    2462                      .dwattr $C$DW$T$160, DW_AT_type(*$C$DW$T$159)
    2463                      .dwattr $C$DW$T$160, DW_AT_language(DW_LANG_C)
    2464              
    2465              $C$DW$T$20      .dwtag  DW_TAG_structure_type
    2466                      .dwattr $C$DW$T$20, DW_AT_name("CCR_BITS")
    2467                      .dwattr $C$DW$T$20, DW_AT_byte_size(0x02)
    2468              $C$DW$135       .dwtag  DW_TAG_member
    2469                      .dwattr $C$DW$135, DW_AT_type(*$C$DW$T$19)
    2470                      .dwattr $C$DW$135, DW_AT_name("VMAPS")
    2471                      .dwattr $C$DW$135, DW_AT_TI_symbol_name("_VMAPS")
    2472                      .dwattr $C$DW$135, DW_AT_bit_offset(0x0f), DW_AT_bit_size(0x01)
    2473                      .dwattr $C$DW$135, DW_AT_data_member_location[DW_OP_plus_uconst 0x0]
    2474                      .dwattr $C$DW$135, DW_AT_accessibility(DW_ACCESS_public)
    2475              $C$DW$136       .dwtag  DW_TAG_member
    2476                      .dwattr $C$DW$136, DW_AT_type(*$C$DW$T$19)
    2477                      .dwattr $C$DW$136, DW_AT_name("MONPRIV")
    2478                      .dwattr $C$DW$136, DW_AT_TI_symbol_name("_MONPRIV")
    2479                      .dwattr $C$DW$136, DW_AT_bit_offset(0x0e), DW_AT_bit_size(0x01)
    2480                      .dwattr $C$DW$136, DW_AT_data_member_location[DW_OP_plus_uconst 0x0]
    2481                      .dwattr $C$DW$136, DW_AT_accessibility(DW_ACCESS_public)
    2482              $C$DW$137       .dwtag  DW_TAG_member
    2483                      .dwattr $C$DW$137, DW_AT_type(*$C$DW$T$19)
    2484                      .dwattr $C$DW$137, DW_AT_name("ENPROT")
    2485                      .dwattr $C$DW$137, DW_AT_TI_symbol_name("_ENPROT")
    2486                      .dwattr $C$DW$137, DW_AT_bit_offset(0x0d), DW_AT_bit_size(0x01)
    2487                      .dwattr $C$DW$137, DW_AT_data_member_location[DW_OP_plus_uconst 0x0]
    2488                      .dwattr $C$DW$137, DW_AT_accessibility(DW_ACCESS_public)
    2489              $C$DW$138       .dwtag  DW_TAG_member
    2490                      .dwattr $C$DW$138, DW_AT_type(*$C$DW$T$19)
    2491                      .dwattr $C$DW$138, DW_AT_name("rsvd1")
    2492                      .dwattr $C$DW$138, DW_AT_TI_symbol_name("_rsvd1")
    2493                      .dwattr $C$DW$138, DW_AT_bit_offset(0x00), DW_AT_bit_size(0x0d)
    2494                      .dwattr $C$DW$138, DW_AT_data_member_location[DW_OP_plus_uconst 0x0]
    2495                      .dwattr $C$DW$138, DW_AT_accessibility(DW_ACCESS_public)
    2496              $C$DW$139       .dwtag  DW_TAG_member
    2497                      .dwattr $C$DW$139, DW_AT_type(*$C$DW$T$19)
    2498                      .dwattr $C$DW$139, DW_AT_name("rsvd2")
    2499                      .dwattr $C$DW$139, DW_AT_TI_symbol_name("_rsvd2")
    2500                      .dwattr $C$DW$139, DW_AT_bit_offset(0x00), DW_AT_bit_size(0x10)
    2501                      .dwattr $C$DW$139, DW_AT_data_member_location[DW_OP_plus_uconst 0x1]
    2502                      .dwattr $C$DW$139, DW_AT_accessibility(DW_ACCESS_public)
    2503                      .dwendtag $C$DW$T$20
    2504              
    2505              
    2506              $C$DW$T$22      .dwtag  DW_TAG_union_type
    2507                      .dwattr $C$DW$T$22, DW_AT_name("CCR_REG")
    2508                      .dwattr $C$DW$T$22, DW_AT_byte_size(0x02)
    2509              $C$DW$140       .dwtag  DW_TAG_member
    2510                      .dwattr $C$DW$140, DW_AT_type(*$C$DW$T$21)
    2511                      .dwattr $C$DW$140, DW_AT_name("all")
    2512                      .dwattr $C$DW$140, DW_AT_TI_symbol_name("_all")
TMS320C2000 Assembler PC v6.1.3 Thu Jan 30 10:26:14 2014

Tools Copyright (c) 1996-2012 Texas Instruments Incorporated
C:\Users\a0272466\AppData\Local\Temp\0274010                         PAGE   52

    2513                      .dwattr $C$DW$140, DW_AT_data_member_location[DW_OP_plus_uconst 0x0]
    2514                      .dwattr $C$DW$140, DW_AT_accessibility(DW_ACCESS_public)
    2515              $C$DW$141       .dwtag  DW_TAG_member
    2516                      .dwattr $C$DW$141, DW_AT_type(*$C$DW$T$20)
    2517                      .dwattr $C$DW$141, DW_AT_name("bit")
    2518                      .dwattr $C$DW$141, DW_AT_TI_symbol_name("_bit")
    2519                      .dwattr $C$DW$141, DW_AT_data_member_location[DW_OP_plus_uconst 0x0]
    2520                      .dwattr $C$DW$141, DW_AT_accessibility(DW_ACCESS_public)
    2521                      .dwendtag $C$DW$T$22
    2522              
    2523              
    2524              $C$DW$T$23      .dwtag  DW_TAG_structure_type
    2525                      .dwattr $C$DW$T$23, DW_AT_name("CPUSYSLOCK1_BITS")
    2526                      .dwattr $C$DW$T$23, DW_AT_byte_size(0x02)
    2527              $C$DW$142       .dwtag  DW_TAG_member
    2528                      .dwattr $C$DW$142, DW_AT_type(*$C$DW$T$19)
    2529                      .dwattr $C$DW$142, DW_AT_name("HIBBOOTMODE")
    2530                      .dwattr $C$DW$142, DW_AT_TI_symbol_name("_HIBBOOTMODE")
    2531                      .dwattr $C$DW$142, DW_AT_bit_offset(0x0f), DW_AT_bit_size(0x01)
    2532                      .dwattr $C$DW$142, DW_AT_data_member_location[DW_OP_plus_uconst 0x0]
    2533                      .dwattr $C$DW$142, DW_AT_accessibility(DW_ACCESS_public)
    2534              $C$DW$143       .dwtag  DW_TAG_member
    2535                      .dwattr $C$DW$143, DW_AT_type(*$C$DW$T$19)
    2536                      .dwattr $C$DW$143, DW_AT_name("IORESTOREADDR")
    2537                      .dwattr $C$DW$143, DW_AT_TI_symbol_name("_IORESTOREADDR")
    2538                      .dwattr $C$DW$143, DW_AT_bit_offset(0x0e), DW_AT_bit_size(0x01)
    2539                      .dwattr $C$DW$143, DW_AT_data_member_location[DW_OP_plus_uconst 0x0]
    2540                      .dwattr $C$DW$143, DW_AT_accessibility(DW_ACCESS_public)
    2541              $C$DW$144       .dwtag  DW_TAG_member
    2542                      .dwattr $C$DW$144, DW_AT_type(*$C$DW$T$19)
    2543                      .dwattr $C$DW$144, DW_AT_name("PIEVERRADDR")
    2544                      .dwattr $C$DW$144, DW_AT_TI_symbol_name("_PIEVERRADDR")
    2545                      .dwattr $C$DW$144, DW_AT_bit_offset(0x0d), DW_AT_bit_size(0x01)
    2546                      .dwattr $C$DW$144, DW_AT_data_member_location[DW_OP_plus_uconst 0x0]
    2547                      .dwattr $C$DW$144, DW_AT_accessibility(DW_ACCESS_public)
    2548              $C$DW$145       .dwtag  DW_TAG_member
    2549                      .dwattr $C$DW$145, DW_AT_type(*$C$DW$T$19)
    2550                      .dwattr $C$DW$145, DW_AT_name("PCLKCR0")
    2551                      .dwattr $C$DW$145, DW_AT_TI_symbol_name("_PCLKCR0")
    2552                      .dwattr $C$DW$145, DW_AT_bit_offset(0x0c), DW_AT_bit_size(0x01)
    2553                      .dwattr $C$DW$145, DW_AT_data_member_location[DW_OP_plus_uconst 0x0]
    2554                      .dwattr $C$DW$145, DW_AT_accessibility(DW_ACCESS_public)
    2555              $C$DW$146       .dwtag  DW_TAG_member
    2556                      .dwattr $C$DW$146, DW_AT_type(*$C$DW$T$19)
    2557                      .dwattr $C$DW$146, DW_AT_name("PCLKCR1")
    2558                      .dwattr $C$DW$146, DW_AT_TI_symbol_name("_PCLKCR1")
    2559                      .dwattr $C$DW$146, DW_AT_bit_offset(0x0b), DW_AT_bit_size(0x01)
    2560                      .dwattr $C$DW$146, DW_AT_data_member_location[DW_OP_plus_uconst 0x0]
    2561                      .dwattr $C$DW$146, DW_AT_accessibility(DW_ACCESS_public)
    2562              $C$DW$147       .dwtag  DW_TAG_member
    2563                      .dwattr $C$DW$147, DW_AT_type(*$C$DW$T$19)
    2564                      .dwattr $C$DW$147, DW_AT_name("PCLKCR2")
    2565                      .dwattr $C$DW$147, DW_AT_TI_symbol_name("_PCLKCR2")
    2566                      .dwattr $C$DW$147, DW_AT_bit_offset(0x0a), DW_AT_bit_size(0x01)
    2567                      .dwattr $C$DW$147, DW_AT_data_member_location[DW_OP_plus_uconst 0x0]
TMS320C2000 Assembler PC v6.1.3 Thu Jan 30 10:26:14 2014

Tools Copyright (c) 1996-2012 Texas Instruments Incorporated
C:\Users\a0272466\AppData\Local\Temp\0274010                         PAGE   53

    2568                      .dwattr $C$DW$147, DW_AT_accessibility(DW_ACCESS_public)
    2569              $C$DW$148       .dwtag  DW_TAG_member
    2570                      .dwattr $C$DW$148, DW_AT_type(*$C$DW$T$19)
    2571                      .dwattr $C$DW$148, DW_AT_name("PCLKCR3")
    2572                      .dwattr $C$DW$148, DW_AT_TI_symbol_name("_PCLKCR3")
    2573                      .dwattr $C$DW$148, DW_AT_bit_offset(0x09), DW_AT_bit_size(0x01)
    2574                      .dwattr $C$DW$148, DW_AT_data_member_location[DW_OP_plus_uconst 0x0]
    2575                      .dwattr $C$DW$148, DW_AT_accessibility(DW_ACCESS_public)
    2576              $C$DW$149       .dwtag  DW_TAG_member
    2577                      .dwattr $C$DW$149, DW_AT_type(*$C$DW$T$19)
    2578                      .dwattr $C$DW$149, DW_AT_name("PCLKCR4")
    2579                      .dwattr $C$DW$149, DW_AT_TI_symbol_name("_PCLKCR4")
    2580                      .dwattr $C$DW$149, DW_AT_bit_offset(0x08), DW_AT_bit_size(0x01)
    2581                      .dwattr $C$DW$149, DW_AT_data_member_location[DW_OP_plus_uconst 0x0]
    2582                      .dwattr $C$DW$149, DW_AT_accessibility(DW_ACCESS_public)
    2583              $C$DW$150       .dwtag  DW_TAG_member
    2584                      .dwattr $C$DW$150, DW_AT_type(*$C$DW$T$19)
    2585                      .dwattr $C$DW$150, DW_AT_name("PCLKCR5")
    2586                      .dwattr $C$DW$150, DW_AT_TI_symbol_name("_PCLKCR5")
    2587                      .dwattr $C$DW$150, DW_AT_bit_offset(0x07), DW_AT_bit_size(0x01)
    2588                      .dwattr $C$DW$150, DW_AT_data_member_location[DW_OP_plus_uconst 0x0]
    2589                      .dwattr $C$DW$150, DW_AT_accessibility(DW_ACCESS_public)
    2590              $C$DW$151       .dwtag  DW_TAG_member
    2591                      .dwattr $C$DW$151, DW_AT_type(*$C$DW$T$19)
    2592                      .dwattr $C$DW$151, DW_AT_name("PCLKCR6")
    2593                      .dwattr $C$DW$151, DW_AT_TI_symbol_name("_PCLKCR6")
    2594                      .dwattr $C$DW$151, DW_AT_bit_offset(0x06), DW_AT_bit_size(0x01)
    2595                      .dwattr $C$DW$151, DW_AT_data_member_location[DW_OP_plus_uconst 0x0]
    2596                      .dwattr $C$DW$151, DW_AT_accessibility(DW_ACCESS_public)
    2597              $C$DW$152       .dwtag  DW_TAG_member
    2598                      .dwattr $C$DW$152, DW_AT_type(*$C$DW$T$19)
    2599                      .dwattr $C$DW$152, DW_AT_name("PCLKCR7")
    2600                      .dwattr $C$DW$152, DW_AT_TI_symbol_name("_PCLKCR7")
    2601                      .dwattr $C$DW$152, DW_AT_bit_offset(0x05), DW_AT_bit_size(0x01)
    2602                      .dwattr $C$DW$152, DW_AT_data_member_location[DW_OP_plus_uconst 0x0]
    2603                      .dwattr $C$DW$152, DW_AT_accessibility(DW_ACCESS_public)
    2604              $C$DW$153       .dwtag  DW_TAG_member
    2605                      .dwattr $C$DW$153, DW_AT_type(*$C$DW$T$19)
    2606                      .dwattr $C$DW$153, DW_AT_name("PCLKCR8")
    2607                      .dwattr $C$DW$153, DW_AT_TI_symbol_name("_PCLKCR8")
    2608                      .dwattr $C$DW$153, DW_AT_bit_offset(0x04), DW_AT_bit_size(0x01)
    2609                      .dwattr $C$DW$153, DW_AT_data_member_location[DW_OP_plus_uconst 0x0]
    2610                      .dwattr $C$DW$153, DW_AT_accessibility(DW_ACCESS_public)
    2611              $C$DW$154       .dwtag  DW_TAG_member
    2612                      .dwattr $C$DW$154, DW_AT_type(*$C$DW$T$19)
    2613                      .dwattr $C$DW$154, DW_AT_name("PCLKCR9")
    2614                      .dwattr $C$DW$154, DW_AT_TI_symbol_name("_PCLKCR9")
    2615                      .dwattr $C$DW$154, DW_AT_bit_offset(0x03), DW_AT_bit_size(0x01)
    2616                      .dwattr $C$DW$154, DW_AT_data_member_location[DW_OP_plus_uconst 0x0]
    2617                      .dwattr $C$DW$154, DW_AT_accessibility(DW_ACCESS_public)
    2618              $C$DW$155       .dwtag  DW_TAG_member
    2619                      .dwattr $C$DW$155, DW_AT_type(*$C$DW$T$19)
    2620                      .dwattr $C$DW$155, DW_AT_name("PCLKCR10")
    2621                      .dwattr $C$DW$155, DW_AT_TI_symbol_name("_PCLKCR10")
    2622                      .dwattr $C$DW$155, DW_AT_bit_offset(0x02), DW_AT_bit_size(0x01)
TMS320C2000 Assembler PC v6.1.3 Thu Jan 30 10:26:14 2014

Tools Copyright (c) 1996-2012 Texas Instruments Incorporated
C:\Users\a0272466\AppData\Local\Temp\0274010                         PAGE   54

    2623                      .dwattr $C$DW$155, DW_AT_data_member_location[DW_OP_plus_uconst 0x0]
    2624                      .dwattr $C$DW$155, DW_AT_accessibility(DW_ACCESS_public)
    2625              $C$DW$156       .dwtag  DW_TAG_member
    2626                      .dwattr $C$DW$156, DW_AT_type(*$C$DW$T$19)
    2627                      .dwattr $C$DW$156, DW_AT_name("PCLKCR11")
    2628                      .dwattr $C$DW$156, DW_AT_TI_symbol_name("_PCLKCR11")
    2629                      .dwattr $C$DW$156, DW_AT_bit_offset(0x01), DW_AT_bit_size(0x01)
    2630                      .dwattr $C$DW$156, DW_AT_data_member_location[DW_OP_plus_uconst 0x0]
    2631                      .dwattr $C$DW$156, DW_AT_accessibility(DW_ACCESS_public)
    2632              $C$DW$157       .dwtag  DW_TAG_member
    2633                      .dwattr $C$DW$157, DW_AT_type(*$C$DW$T$19)
    2634                      .dwattr $C$DW$157, DW_AT_name("PCLKCR12")
    2635                      .dwattr $C$DW$157, DW_AT_TI_symbol_name("_PCLKCR12")
    2636                      .dwattr $C$DW$157, DW_AT_bit_offset(0x00), DW_AT_bit_size(0x01)
    2637                      .dwattr $C$DW$157, DW_AT_data_member_location[DW_OP_plus_uconst 0x0]
    2638                      .dwattr $C$DW$157, DW_AT_accessibility(DW_ACCESS_public)
    2639              $C$DW$158       .dwtag  DW_TAG_member
    2640                      .dwattr $C$DW$158, DW_AT_type(*$C$DW$T$19)
    2641                      .dwattr $C$DW$158, DW_AT_name("PCLKCR13")
    2642                      .dwattr $C$DW$158, DW_AT_TI_symbol_name("_PCLKCR13")
    2643                      .dwattr $C$DW$158, DW_AT_bit_offset(0x0f), DW_AT_bit_size(0x01)
    2644                      .dwattr $C$DW$158, DW_AT_data_member_location[DW_OP_plus_uconst 0x1]
    2645                      .dwattr $C$DW$158, DW_AT_accessibility(DW_ACCESS_public)
    2646              $C$DW$159       .dwtag  DW_TAG_member
    2647                      .dwattr $C$DW$159, DW_AT_type(*$C$DW$T$19)
    2648                      .dwattr $C$DW$159, DW_AT_name("PCLKCR14")
    2649                      .dwattr $C$DW$159, DW_AT_TI_symbol_name("_PCLKCR14")
    2650                      .dwattr $C$DW$159, DW_AT_bit_offset(0x0e), DW_AT_bit_size(0x01)
    2651                      .dwattr $C$DW$159, DW_AT_data_member_location[DW_OP_plus_uconst 0x1]
    2652                      .dwattr $C$DW$159, DW_AT_accessibility(DW_ACCESS_public)
    2653              $C$DW$160       .dwtag  DW_TAG_member
    2654                      .dwattr $C$DW$160, DW_AT_type(*$C$DW$T$19)
    2655                      .dwattr $C$DW$160, DW_AT_name("PCLKCR15")
    2656                      .dwattr $C$DW$160, DW_AT_TI_symbol_name("_PCLKCR15")
    2657                      .dwattr $C$DW$160, DW_AT_bit_offset(0x0d), DW_AT_bit_size(0x01)
    2658                      .dwattr $C$DW$160, DW_AT_data_member_location[DW_OP_plus_uconst 0x1]
    2659                      .dwattr $C$DW$160, DW_AT_accessibility(DW_ACCESS_public)
    2660              $C$DW$161       .dwtag  DW_TAG_member
    2661                      .dwattr $C$DW$161, DW_AT_type(*$C$DW$T$19)
    2662                      .dwattr $C$DW$161, DW_AT_name("PCLKCR16")
    2663                      .dwattr $C$DW$161, DW_AT_TI_symbol_name("_PCLKCR16")
    2664                      .dwattr $C$DW$161, DW_AT_bit_offset(0x0c), DW_AT_bit_size(0x01)
    2665                      .dwattr $C$DW$161, DW_AT_data_member_location[DW_OP_plus_uconst 0x1]
    2666                      .dwattr $C$DW$161, DW_AT_accessibility(DW_ACCESS_public)
    2667              $C$DW$162       .dwtag  DW_TAG_member
    2668                      .dwattr $C$DW$162, DW_AT_type(*$C$DW$T$19)
    2669                      .dwattr $C$DW$162, DW_AT_name("SECMSEL")
    2670                      .dwattr $C$DW$162, DW_AT_TI_symbol_name("_SECMSEL")
    2671                      .dwattr $C$DW$162, DW_AT_bit_offset(0x0b), DW_AT_bit_size(0x01)
    2672                      .dwattr $C$DW$162, DW_AT_data_member_location[DW_OP_plus_uconst 0x1]
    2673                      .dwattr $C$DW$162, DW_AT_accessibility(DW_ACCESS_public)
    2674              $C$DW$163       .dwtag  DW_TAG_member
    2675                      .dwattr $C$DW$163, DW_AT_type(*$C$DW$T$19)
    2676                      .dwattr $C$DW$163, DW_AT_name("LPMCR")
    2677                      .dwattr $C$DW$163, DW_AT_TI_symbol_name("_LPMCR")
TMS320C2000 Assembler PC v6.1.3 Thu Jan 30 10:26:14 2014

Tools Copyright (c) 1996-2012 Texas Instruments Incorporated
C:\Users\a0272466\AppData\Local\Temp\0274010                         PAGE   55

    2678                      .dwattr $C$DW$163, DW_AT_bit_offset(0x0a), DW_AT_bit_size(0x01)
    2679                      .dwattr $C$DW$163, DW_AT_data_member_location[DW_OP_plus_uconst 0x1]
    2680                      .dwattr $C$DW$163, DW_AT_accessibility(DW_ACCESS_public)
    2681              $C$DW$164       .dwtag  DW_TAG_member
    2682                      .dwattr $C$DW$164, DW_AT_type(*$C$DW$T$19)
    2683                      .dwattr $C$DW$164, DW_AT_name("GPIOLPMSEL0")
    2684                      .dwattr $C$DW$164, DW_AT_TI_symbol_name("_GPIOLPMSEL0")
    2685                      .dwattr $C$DW$164, DW_AT_bit_offset(0x09), DW_AT_bit_size(0x01)
    2686                      .dwattr $C$DW$164, DW_AT_data_member_location[DW_OP_plus_uconst 0x1]
    2687                      .dwattr $C$DW$164, DW_AT_accessibility(DW_ACCESS_public)
    2688              $C$DW$165       .dwtag  DW_TAG_member
    2689                      .dwattr $C$DW$165, DW_AT_type(*$C$DW$T$19)
    2690                      .dwattr $C$DW$165, DW_AT_name("GPIOLPMSEL1")
    2691                      .dwattr $C$DW$165, DW_AT_TI_symbol_name("_GPIOLPMSEL1")
    2692                      .dwattr $C$DW$165, DW_AT_bit_offset(0x08), DW_AT_bit_size(0x01)
    2693                      .dwattr $C$DW$165, DW_AT_data_member_location[DW_OP_plus_uconst 0x1]
    2694                      .dwattr $C$DW$165, DW_AT_accessibility(DW_ACCESS_public)
    2695              $C$DW$166       .dwtag  DW_TAG_member
    2696                      .dwattr $C$DW$166, DW_AT_type(*$C$DW$T$19)
    2697                      .dwattr $C$DW$166, DW_AT_name("rsvd1")
    2698                      .dwattr $C$DW$166, DW_AT_TI_symbol_name("_rsvd1")
    2699                      .dwattr $C$DW$166, DW_AT_bit_offset(0x00), DW_AT_bit_size(0x08)
    2700                      .dwattr $C$DW$166, DW_AT_data_member_location[DW_OP_plus_uconst 0x1]
    2701                      .dwattr $C$DW$166, DW_AT_accessibility(DW_ACCESS_public)
    2702                      .dwendtag $C$DW$T$23
    2703              
    2704              
    2705              $C$DW$T$24      .dwtag  DW_TAG_union_type
    2706                      .dwattr $C$DW$T$24, DW_AT_name("CPUSYSLOCK1_REG")
    2707                      .dwattr $C$DW$T$24, DW_AT_byte_size(0x02)
    2708              $C$DW$167       .dwtag  DW_TAG_member
    2709                      .dwattr $C$DW$167, DW_AT_type(*$C$DW$T$21)
    2710                      .dwattr $C$DW$167, DW_AT_name("all")
    2711                      .dwattr $C$DW$167, DW_AT_TI_symbol_name("_all")
    2712                      .dwattr $C$DW$167, DW_AT_data_member_location[DW_OP_plus_uconst 0x0]
    2713                      .dwattr $C$DW$167, DW_AT_accessibility(DW_ACCESS_public)
    2714              $C$DW$168       .dwtag  DW_TAG_member
    2715                      .dwattr $C$DW$168, DW_AT_type(*$C$DW$T$23)
    2716                      .dwattr $C$DW$168, DW_AT_name("bit")
    2717                      .dwattr $C$DW$168, DW_AT_TI_symbol_name("_bit")
    2718                      .dwattr $C$DW$168, DW_AT_data_member_location[DW_OP_plus_uconst 0x0]
    2719                      .dwattr $C$DW$168, DW_AT_accessibility(DW_ACCESS_public)
    2720                      .dwendtag $C$DW$T$24
    2721              
    2722              
    2723              $C$DW$T$29      .dwtag  DW_TAG_structure_type
    2724                      .dwattr $C$DW$T$29, DW_AT_name("CPU_SYS_REGS")
    2725                      .dwattr $C$DW$T$29, DW_AT_byte_size(0x82)
    2726              $C$DW$169       .dwtag  DW_TAG_member
    2727                      .dwattr $C$DW$169, DW_AT_type(*$C$DW$T$24)
    2728                      .dwattr $C$DW$169, DW_AT_name("CPUSYSLOCK1")
    2729                      .dwattr $C$DW$169, DW_AT_TI_symbol_name("_CPUSYSLOCK1")
    2730                      .dwattr $C$DW$169, DW_AT_data_member_location[DW_OP_plus_uconst 0x0]
    2731                      .dwattr $C$DW$169, DW_AT_accessibility(DW_ACCESS_public)
    2732              $C$DW$170       .dwtag  DW_TAG_member
TMS320C2000 Assembler PC v6.1.3 Thu Jan 30 10:26:14 2014

Tools Copyright (c) 1996-2012 Texas Instruments Incorporated
C:\Users\a0272466\AppData\Local\Temp\0274010                         PAGE   56

    2733                      .dwattr $C$DW$170, DW_AT_type(*$C$DW$T$25)
    2734                      .dwattr $C$DW$170, DW_AT_name("rsvd1")
    2735                      .dwattr $C$DW$170, DW_AT_TI_symbol_name("_rsvd1")
    2736                      .dwattr $C$DW$170, DW_AT_data_member_location[DW_OP_plus_uconst 0x2]
    2737                      .dwattr $C$DW$170, DW_AT_accessibility(DW_ACCESS_public)
    2738              $C$DW$171       .dwtag  DW_TAG_member
    2739                      .dwattr $C$DW$171, DW_AT_type(*$C$DW$T$21)
    2740                      .dwattr $C$DW$171, DW_AT_name("HIBBOOTMODE")
    2741                      .dwattr $C$DW$171, DW_AT_TI_symbol_name("_HIBBOOTMODE")
    2742                      .dwattr $C$DW$171, DW_AT_data_member_location[DW_OP_plus_uconst 0x6]
    2743                      .dwattr $C$DW$171, DW_AT_accessibility(DW_ACCESS_public)
    2744              $C$DW$172       .dwtag  DW_TAG_member
    2745                      .dwattr $C$DW$172, DW_AT_type(*$C$DW$T$35)
    2746                      .dwattr $C$DW$172, DW_AT_name("IORESTOREADDR")
    2747                      .dwattr $C$DW$172, DW_AT_TI_symbol_name("_IORESTOREADDR")
    2748                      .dwattr $C$DW$172, DW_AT_data_member_location[DW_OP_plus_uconst 0x8]
    2749                      .dwattr $C$DW$172, DW_AT_accessibility(DW_ACCESS_public)
    2750              $C$DW$173       .dwtag  DW_TAG_member
    2751                      .dwattr $C$DW$173, DW_AT_type(*$C$DW$T$145)
    2752                      .dwattr $C$DW$173, DW_AT_name("PIEVERRADDR")
    2753                      .dwattr $C$DW$173, DW_AT_TI_symbol_name("_PIEVERRADDR")
    2754                      .dwattr $C$DW$173, DW_AT_data_member_location[DW_OP_plus_uconst 0xa]
    2755                      .dwattr $C$DW$173, DW_AT_accessibility(DW_ACCESS_public)
    2756              $C$DW$174       .dwtag  DW_TAG_member
    2757                      .dwattr $C$DW$174, DW_AT_type(*$C$DW$T$26)
    2758                      .dwattr $C$DW$174, DW_AT_name("rsvd2")
    2759                      .dwattr $C$DW$174, DW_AT_TI_symbol_name("_rsvd2")
    2760                      .dwattr $C$DW$174, DW_AT_data_member_location[DW_OP_plus_uconst 0xc]
    2761                      .dwattr $C$DW$174, DW_AT_accessibility(DW_ACCESS_public)
    2762              $C$DW$175       .dwtag  DW_TAG_member
    2763                      .dwattr $C$DW$175, DW_AT_type(*$C$DW$T$61)
    2764                      .dwattr $C$DW$175, DW_AT_name("PCLKCR0")
    2765                      .dwattr $C$DW$175, DW_AT_TI_symbol_name("_PCLKCR0")
    2766                      .dwattr $C$DW$175, DW_AT_data_member_location[DW_OP_plus_uconst 0x22]
    2767                      .dwattr $C$DW$175, DW_AT_accessibility(DW_ACCESS_public)
    2768              $C$DW$176       .dwtag  DW_TAG_member
    2769                      .dwattr $C$DW$176, DW_AT_type(*$C$DW$T$75)
    2770                      .dwattr $C$DW$176, DW_AT_name("PCLKCR1")
    2771                      .dwattr $C$DW$176, DW_AT_TI_symbol_name("_PCLKCR1")
    2772                      .dwattr $C$DW$176, DW_AT_data_member_location[DW_OP_plus_uconst 0x24]
    2773                      .dwattr $C$DW$176, DW_AT_accessibility(DW_ACCESS_public)
    2774              $C$DW$177       .dwtag  DW_TAG_member
    2775                      .dwattr $C$DW$177, DW_AT_type(*$C$DW$T$77)
    2776                      .dwattr $C$DW$177, DW_AT_name("PCLKCR2")
    2777                      .dwattr $C$DW$177, DW_AT_TI_symbol_name("_PCLKCR2")
    2778                      .dwattr $C$DW$177, DW_AT_data_member_location[DW_OP_plus_uconst 0x26]
    2779                      .dwattr $C$DW$177, DW_AT_accessibility(DW_ACCESS_public)
    2780              $C$DW$178       .dwtag  DW_TAG_member
    2781                      .dwattr $C$DW$178, DW_AT_type(*$C$DW$T$79)
    2782                      .dwattr $C$DW$178, DW_AT_name("PCLKCR3")
    2783                      .dwattr $C$DW$178, DW_AT_TI_symbol_name("_PCLKCR3")
    2784                      .dwattr $C$DW$178, DW_AT_data_member_location[DW_OP_plus_uconst 0x28]
    2785                      .dwattr $C$DW$178, DW_AT_accessibility(DW_ACCESS_public)
    2786              $C$DW$179       .dwtag  DW_TAG_member
    2787                      .dwattr $C$DW$179, DW_AT_type(*$C$DW$T$81)
TMS320C2000 Assembler PC v6.1.3 Thu Jan 30 10:26:14 2014

Tools Copyright (c) 1996-2012 Texas Instruments Incorporated
C:\Users\a0272466\AppData\Local\Temp\0274010                         PAGE   57

    2788                      .dwattr $C$DW$179, DW_AT_name("PCLKCR4")
    2789                      .dwattr $C$DW$179, DW_AT_TI_symbol_name("_PCLKCR4")
    2790                      .dwattr $C$DW$179, DW_AT_data_member_location[DW_OP_plus_uconst 0x2a]
    2791                      .dwattr $C$DW$179, DW_AT_accessibility(DW_ACCESS_public)
    2792              $C$DW$180       .dwtag  DW_TAG_member
    2793                      .dwattr $C$DW$180, DW_AT_type(*$C$DW$T$83)
    2794                      .dwattr $C$DW$180, DW_AT_name("PCLKCR5")
    2795                      .dwattr $C$DW$180, DW_AT_TI_symbol_name("_PCLKCR5")
    2796                      .dwattr $C$DW$180, DW_AT_data_member_location[DW_OP_plus_uconst 0x2c]
    2797                      .dwattr $C$DW$180, DW_AT_accessibility(DW_ACCESS_public)
    2798              $C$DW$181       .dwtag  DW_TAG_member
    2799                      .dwattr $C$DW$181, DW_AT_type(*$C$DW$T$85)
    2800                      .dwattr $C$DW$181, DW_AT_name("PCLKCR6")
    2801                      .dwattr $C$DW$181, DW_AT_TI_symbol_name("_PCLKCR6")
    2802                      .dwattr $C$DW$181, DW_AT_data_member_location[DW_OP_plus_uconst 0x2e]
    2803                      .dwattr $C$DW$181, DW_AT_accessibility(DW_ACCESS_public)
    2804              $C$DW$182       .dwtag  DW_TAG_member
    2805                      .dwattr $C$DW$182, DW_AT_type(*$C$DW$T$87)
    2806                      .dwattr $C$DW$182, DW_AT_name("PCLKCR7")
    2807                      .dwattr $C$DW$182, DW_AT_TI_symbol_name("_PCLKCR7")
    2808                      .dwattr $C$DW$182, DW_AT_data_member_location[DW_OP_plus_uconst 0x30]
    2809                      .dwattr $C$DW$182, DW_AT_accessibility(DW_ACCESS_public)
    2810              $C$DW$183       .dwtag  DW_TAG_member
    2811                      .dwattr $C$DW$183, DW_AT_type(*$C$DW$T$89)
    2812                      .dwattr $C$DW$183, DW_AT_name("PCLKCR8")
    2813                      .dwattr $C$DW$183, DW_AT_TI_symbol_name("_PCLKCR8")
    2814                      .dwattr $C$DW$183, DW_AT_data_member_location[DW_OP_plus_uconst 0x32]
    2815                      .dwattr $C$DW$183, DW_AT_accessibility(DW_ACCESS_public)
    2816              $C$DW$184       .dwtag  DW_TAG_member
    2817                      .dwattr $C$DW$184, DW_AT_type(*$C$DW$T$91)
    2818                      .dwattr $C$DW$184, DW_AT_name("PCLKCR9")
    2819                      .dwattr $C$DW$184, DW_AT_TI_symbol_name("_PCLKCR9")
    2820                      .dwattr $C$DW$184, DW_AT_data_member_location[DW_OP_plus_uconst 0x34]
    2821                      .dwattr $C$DW$184, DW_AT_accessibility(DW_ACCESS_public)
    2822              $C$DW$185       .dwtag  DW_TAG_member
    2823                      .dwattr $C$DW$185, DW_AT_type(*$C$DW$T$63)
    2824                      .dwattr $C$DW$185, DW_AT_name("PCLKCR10")
    2825                      .dwattr $C$DW$185, DW_AT_TI_symbol_name("_PCLKCR10")
    2826                      .dwattr $C$DW$185, DW_AT_data_member_location[DW_OP_plus_uconst 0x36]
    2827                      .dwattr $C$DW$185, DW_AT_accessibility(DW_ACCESS_public)
    2828              $C$DW$186       .dwtag  DW_TAG_member
    2829                      .dwattr $C$DW$186, DW_AT_type(*$C$DW$T$65)
    2830                      .dwattr $C$DW$186, DW_AT_name("PCLKCR11")
    2831                      .dwattr $C$DW$186, DW_AT_TI_symbol_name("_PCLKCR11")
    2832                      .dwattr $C$DW$186, DW_AT_data_member_location[DW_OP_plus_uconst 0x38]
    2833                      .dwattr $C$DW$186, DW_AT_accessibility(DW_ACCESS_public)
    2834              $C$DW$187       .dwtag  DW_TAG_member
    2835                      .dwattr $C$DW$187, DW_AT_type(*$C$DW$T$67)
    2836                      .dwattr $C$DW$187, DW_AT_name("PCLKCR12")
    2837                      .dwattr $C$DW$187, DW_AT_TI_symbol_name("_PCLKCR12")
    2838                      .dwattr $C$DW$187, DW_AT_data_member_location[DW_OP_plus_uconst 0x3a]
    2839                      .dwattr $C$DW$187, DW_AT_accessibility(DW_ACCESS_public)
    2840              $C$DW$188       .dwtag  DW_TAG_member
    2841                      .dwattr $C$DW$188, DW_AT_type(*$C$DW$T$69)
    2842                      .dwattr $C$DW$188, DW_AT_name("PCLKCR13")
TMS320C2000 Assembler PC v6.1.3 Thu Jan 30 10:26:14 2014

Tools Copyright (c) 1996-2012 Texas Instruments Incorporated
C:\Users\a0272466\AppData\Local\Temp\0274010                         PAGE   58

    2843                      .dwattr $C$DW$188, DW_AT_TI_symbol_name("_PCLKCR13")
    2844                      .dwattr $C$DW$188, DW_AT_data_member_location[DW_OP_plus_uconst 0x3c]
    2845                      .dwattr $C$DW$188, DW_AT_accessibility(DW_ACCESS_public)
    2846              $C$DW$189       .dwtag  DW_TAG_member
    2847                      .dwattr $C$DW$189, DW_AT_type(*$C$DW$T$71)
    2848                      .dwattr $C$DW$189, DW_AT_name("PCLKCR14")
    2849                      .dwattr $C$DW$189, DW_AT_TI_symbol_name("_PCLKCR14")
    2850                      .dwattr $C$DW$189, DW_AT_data_member_location[DW_OP_plus_uconst 0x3e]
    2851                      .dwattr $C$DW$189, DW_AT_accessibility(DW_ACCESS_public)
    2852              $C$DW$190       .dwtag  DW_TAG_member
    2853                      .dwattr $C$DW$190, DW_AT_type(*$C$DW$T$27)
    2854                      .dwattr $C$DW$190, DW_AT_name("rsvd3")
    2855                      .dwattr $C$DW$190, DW_AT_TI_symbol_name("_rsvd3")
    2856                      .dwattr $C$DW$190, DW_AT_data_member_location[DW_OP_plus_uconst 0x40]
    2857                      .dwattr $C$DW$190, DW_AT_accessibility(DW_ACCESS_public)
    2858              $C$DW$191       .dwtag  DW_TAG_member
    2859                      .dwattr $C$DW$191, DW_AT_type(*$C$DW$T$73)
    2860                      .dwattr $C$DW$191, DW_AT_name("PCLKCR16")
    2861                      .dwattr $C$DW$191, DW_AT_TI_symbol_name("_PCLKCR16")
    2862                      .dwattr $C$DW$191, DW_AT_data_member_location[DW_OP_plus_uconst 0x42]
    2863                      .dwattr $C$DW$191, DW_AT_accessibility(DW_ACCESS_public)
    2864              $C$DW$192       .dwtag  DW_TAG_member
    2865                      .dwattr $C$DW$192, DW_AT_type(*$C$DW$T$28)
    2866                      .dwattr $C$DW$192, DW_AT_name("rsvd4")
    2867                      .dwattr $C$DW$192, DW_AT_TI_symbol_name("_rsvd4")
    2868                      .dwattr $C$DW$192, DW_AT_data_member_location[DW_OP_plus_uconst 0x44]
    2869                      .dwattr $C$DW$192, DW_AT_accessibility(DW_ACCESS_public)
    2870              $C$DW$193       .dwtag  DW_TAG_member
    2871                      .dwattr $C$DW$193, DW_AT_type(*$C$DW$T$22)
    2872                      .dwattr $C$DW$193, DW_AT_name("CCR")
    2873                      .dwattr $C$DW$193, DW_AT_TI_symbol_name("_CCR")
    2874                      .dwattr $C$DW$193, DW_AT_data_member_location[DW_OP_plus_uconst 0x72]
    2875                      .dwattr $C$DW$193, DW_AT_accessibility(DW_ACCESS_public)
    2876              $C$DW$194       .dwtag  DW_TAG_member
    2877                      .dwattr $C$DW$194, DW_AT_type(*$C$DW$T$156)
    2878                      .dwattr $C$DW$194, DW_AT_name("SECMSEL")
    2879                      .dwattr $C$DW$194, DW_AT_TI_symbol_name("_SECMSEL")
    2880                      .dwattr $C$DW$194, DW_AT_data_member_location[DW_OP_plus_uconst 0x74]
    2881                      .dwattr $C$DW$194, DW_AT_accessibility(DW_ACCESS_public)
    2882              $C$DW$195       .dwtag  DW_TAG_member
    2883                      .dwattr $C$DW$195, DW_AT_type(*$C$DW$T$48)
    2884                      .dwattr $C$DW$195, DW_AT_name("LPMCR")
    2885                      .dwattr $C$DW$195, DW_AT_TI_symbol_name("_LPMCR")
    2886                      .dwattr $C$DW$195, DW_AT_data_member_location[DW_OP_plus_uconst 0x76]
    2887                      .dwattr $C$DW$195, DW_AT_accessibility(DW_ACCESS_public)
    2888              $C$DW$196       .dwtag  DW_TAG_member
    2889                      .dwattr $C$DW$196, DW_AT_type(*$C$DW$T$31)
    2890                      .dwattr $C$DW$196, DW_AT_name("GPIOLPMSEL0")
    2891                      .dwattr $C$DW$196, DW_AT_TI_symbol_name("_GPIOLPMSEL0")
    2892                      .dwattr $C$DW$196, DW_AT_data_member_location[DW_OP_plus_uconst 0x78]
    2893                      .dwattr $C$DW$196, DW_AT_accessibility(DW_ACCESS_public)
    2894              $C$DW$197       .dwtag  DW_TAG_member
    2895                      .dwattr $C$DW$197, DW_AT_type(*$C$DW$T$33)
    2896                      .dwattr $C$DW$197, DW_AT_name("GPIOLPMSEL1")
    2897                      .dwattr $C$DW$197, DW_AT_TI_symbol_name("_GPIOLPMSEL1")
TMS320C2000 Assembler PC v6.1.3 Thu Jan 30 10:26:14 2014

Tools Copyright (c) 1996-2012 Texas Instruments Incorporated
C:\Users\a0272466\AppData\Local\Temp\0274010                         PAGE   59

    2898                      .dwattr $C$DW$197, DW_AT_data_member_location[DW_OP_plus_uconst 0x7a]
    2899                      .dwattr $C$DW$197, DW_AT_accessibility(DW_ACCESS_public)
    2900              $C$DW$198       .dwtag  DW_TAG_member
    2901                      .dwattr $C$DW$198, DW_AT_type(*$C$DW$T$158)
    2902                      .dwattr $C$DW$198, DW_AT_name("TMR2CLKCTL")
    2903                      .dwattr $C$DW$198, DW_AT_TI_symbol_name("_TMR2CLKCTL")
    2904                      .dwattr $C$DW$198, DW_AT_data_member_location[DW_OP_plus_uconst 0x7c]
    2905                      .dwattr $C$DW$198, DW_AT_accessibility(DW_ACCESS_public)
    2906              $C$DW$199       .dwtag  DW_TAG_member
    2907                      .dwattr $C$DW$199, DW_AT_type(*$C$DW$T$27)
    2908                      .dwattr $C$DW$199, DW_AT_name("rsvd5")
    2909                      .dwattr $C$DW$199, DW_AT_TI_symbol_name("_rsvd5")
    2910                      .dwattr $C$DW$199, DW_AT_data_member_location[DW_OP_plus_uconst 0x7e]
    2911                      .dwattr $C$DW$199, DW_AT_accessibility(DW_ACCESS_public)
    2912              $C$DW$200       .dwtag  DW_TAG_member
    2913                      .dwattr $C$DW$200, DW_AT_type(*$C$DW$T$154)
    2914                      .dwattr $C$DW$200, DW_AT_name("RESC")
    2915                      .dwattr $C$DW$200, DW_AT_TI_symbol_name("_RESC")
    2916                      .dwattr $C$DW$200, DW_AT_data_member_location[DW_OP_plus_uconst 0x80]
    2917                      .dwattr $C$DW$200, DW_AT_accessibility(DW_ACCESS_public)
    2918                      .dwendtag $C$DW$T$29
    2919              
    2920              $C$DW$201       .dwtag  DW_TAG_TI_far_type
    2921                      .dwattr $C$DW$201, DW_AT_type(*$C$DW$T$29)
    2922              $C$DW$T$165     .dwtag  DW_TAG_volatile_type
    2923                      .dwattr $C$DW$T$165, DW_AT_type(*$C$DW$201)
    2924              
    2925              $C$DW$T$30      .dwtag  DW_TAG_structure_type
    2926                      .dwattr $C$DW$T$30, DW_AT_name("GPIOLPMSEL0_BITS")
    2927                      .dwattr $C$DW$T$30, DW_AT_byte_size(0x02)
    2928              $C$DW$202       .dwtag  DW_TAG_member
    2929                      .dwattr $C$DW$202, DW_AT_type(*$C$DW$T$19)
    2930                      .dwattr $C$DW$202, DW_AT_name("GPIO0")
    2931                      .dwattr $C$DW$202, DW_AT_TI_symbol_name("_GPIO0")
    2932                      .dwattr $C$DW$202, DW_AT_bit_offset(0x0f), DW_AT_bit_size(0x01)
    2933                      .dwattr $C$DW$202, DW_AT_data_member_location[DW_OP_plus_uconst 0x0]
    2934                      .dwattr $C$DW$202, DW_AT_accessibility(DW_ACCESS_public)
    2935              $C$DW$203       .dwtag  DW_TAG_member
    2936                      .dwattr $C$DW$203, DW_AT_type(*$C$DW$T$19)
    2937                      .dwattr $C$DW$203, DW_AT_name("GPIO1")
    2938                      .dwattr $C$DW$203, DW_AT_TI_symbol_name("_GPIO1")
    2939                      .dwattr $C$DW$203, DW_AT_bit_offset(0x0e), DW_AT_bit_size(0x01)
    2940                      .dwattr $C$DW$203, DW_AT_data_member_location[DW_OP_plus_uconst 0x0]
    2941                      .dwattr $C$DW$203, DW_AT_accessibility(DW_ACCESS_public)
    2942              $C$DW$204       .dwtag  DW_TAG_member
    2943                      .dwattr $C$DW$204, DW_AT_type(*$C$DW$T$19)
    2944                      .dwattr $C$DW$204, DW_AT_name("GPIO2")
    2945                      .dwattr $C$DW$204, DW_AT_TI_symbol_name("_GPIO2")
    2946                      .dwattr $C$DW$204, DW_AT_bit_offset(0x0d), DW_AT_bit_size(0x01)
    2947                      .dwattr $C$DW$204, DW_AT_data_member_location[DW_OP_plus_uconst 0x0]
    2948                      .dwattr $C$DW$204, DW_AT_accessibility(DW_ACCESS_public)
    2949              $C$DW$205       .dwtag  DW_TAG_member
    2950                      .dwattr $C$DW$205, DW_AT_type(*$C$DW$T$19)
    2951                      .dwattr $C$DW$205, DW_AT_name("GPIO3")
    2952                      .dwattr $C$DW$205, DW_AT_TI_symbol_name("_GPIO3")
TMS320C2000 Assembler PC v6.1.3 Thu Jan 30 10:26:14 2014

Tools Copyright (c) 1996-2012 Texas Instruments Incorporated
C:\Users\a0272466\AppData\Local\Temp\0274010                         PAGE   60

    2953                      .dwattr $C$DW$205, DW_AT_bit_offset(0x0c), DW_AT_bit_size(0x01)
    2954                      .dwattr $C$DW$205, DW_AT_data_member_location[DW_OP_plus_uconst 0x0]
    2955                      .dwattr $C$DW$205, DW_AT_accessibility(DW_ACCESS_public)
    2956              $C$DW$206       .dwtag  DW_TAG_member
    2957                      .dwattr $C$DW$206, DW_AT_type(*$C$DW$T$19)
    2958                      .dwattr $C$DW$206, DW_AT_name("GPIO4")
    2959                      .dwattr $C$DW$206, DW_AT_TI_symbol_name("_GPIO4")
    2960                      .dwattr $C$DW$206, DW_AT_bit_offset(0x0b), DW_AT_bit_size(0x01)
    2961                      .dwattr $C$DW$206, DW_AT_data_member_location[DW_OP_plus_uconst 0x0]
    2962                      .dwattr $C$DW$206, DW_AT_accessibility(DW_ACCESS_public)
    2963              $C$DW$207       .dwtag  DW_TAG_member
    2964                      .dwattr $C$DW$207, DW_AT_type(*$C$DW$T$19)
