TMS320C2000 Assembler PC v6.1.3 Thu Jan 30 10:25:22 2014

Tools Copyright (c) 1996-2012 Texas Instruments Incorporated
C:\Users\a0272466\AppData\Local\Temp\0699610                         PAGE    1

       1              ;***************************************************************
       2              ;* TMS320C2000 C/C++ Codegen                         PC v6.1.3 *
       3              ;* Date/Time created: Thu Jan 30 10:25:22 2014                 *
       4              ;***************************************************************
       5                      .compiler_opts --float_support=fpu32 --hll_source=on --mem_model:code=flat --mem_model:data=large --o
       6        0002  FP      .set    XAR2
       7              
       8              $C$DW$CU        .dwtag  DW_TAG_compile_unit
       9                      .dwattr $C$DW$CU, DW_AT_name("C:/work/grepos/bootrom/Boot_ROM/F2837x_bootROM-REVB/F2837x_bootROM_dev/
      10                      .dwattr $C$DW$CU, DW_AT_producer("TMS320C2000 C/C++ Codegen PC v6.1.3 Copyright (c) 1996-2012 Texas I
      11                      .dwattr $C$DW$CU, DW_AT_TI_version(0x01)
      12                      .dwattr $C$DW$CU, DW_AT_comp_dir("C:\work\grepos\bootrom\Boot_ROM\F2837x_bootROM-REVB\F2837x_bootROM_
      13              $C$DW$1 .dwtag  DW_TAG_variable, DW_AT_name("EmuBMode")
      14                      .dwattr $C$DW$1, DW_AT_TI_symbol_name("_EmuBMode")
      15                      .dwattr $C$DW$1, DW_AT_type(*$C$DW$T$19)
      16                      .dwattr $C$DW$1, DW_AT_declaration
      17                      .dwattr $C$DW$1, DW_AT_external
      18              
      19              $C$DW$2 .dwtag  DW_TAG_subprogram, DW_AT_name("c1brom_read_otp_bootmode")
      20                      .dwattr $C$DW$2, DW_AT_TI_symbol_name("_c1brom_read_otp_bootmode")
      21                      .dwattr $C$DW$2, DW_AT_type(*$C$DW$T$201)
      22                      .dwattr $C$DW$2, DW_AT_declaration
      23                      .dwattr $C$DW$2, DW_AT_external
      24              
      25              $C$DW$3 .dwtag  DW_TAG_subprogram, DW_AT_name("c1brom_read_otp_bootpinconfig")
      26                      .dwattr $C$DW$3, DW_AT_TI_symbol_name("_c1brom_read_otp_bootpinconfig")
      27                      .dwattr $C$DW$3, DW_AT_type(*$C$DW$T$201)
      28                      .dwattr $C$DW$3, DW_AT_declaration
      29                      .dwattr $C$DW$3, DW_AT_external
      30              $C$DW$4 .dwtag  DW_TAG_variable, DW_AT_name("EmuKey")
      31                      .dwattr $C$DW$4, DW_AT_TI_symbol_name("_EmuKey")
      32                      .dwattr $C$DW$4, DW_AT_type(*$C$DW$T$19)
      33                      .dwattr $C$DW$4, DW_AT_declaration
      34                      .dwattr $C$DW$4, DW_AT_external
      35              
      36              $C$DW$5 .dwtag  DW_TAG_subprogram, DW_AT_name("c1brom_decode_bootpins")
      37                      .dwattr $C$DW$5, DW_AT_TI_symbol_name("_c1brom_decode_bootpins")
      38                      .dwattr $C$DW$5, DW_AT_type(*$C$DW$T$201)
      39                      .dwattr $C$DW$5, DW_AT_declaration
      40                      .dwattr $C$DW$5, DW_AT_external
      41              $C$DW$6 .dwtag  DW_TAG_formal_parameter
      42                      .dwattr $C$DW$6, DW_AT_type(*$C$DW$T$201)
      43                      .dwendtag $C$DW$5
      44              
      45              $C$DW$7 .dwtag  DW_TAG_variable, DW_AT_name("CpuSysRegs")
      46                      .dwattr $C$DW$7, DW_AT_TI_symbol_name("_CpuSysRegs")
      47                      .dwattr $C$DW$7, DW_AT_type(*$C$DW$T$195)
      48                      .dwattr $C$DW$7, DW_AT_declaration
      49                      .dwattr $C$DW$7, DW_AT_external
      50              $C$DW$8 .dwtag  DW_TAG_variable, DW_AT_name("DevCfgRegs")
      51                      .dwattr $C$DW$8, DW_AT_TI_symbol_name("_DevCfgRegs")
      52                      .dwattr $C$DW$8, DW_AT_type(*$C$DW$T$196)
      53                      .dwattr $C$DW$8, DW_AT_declaration
      54                      .dwattr $C$DW$8, DW_AT_external
      55              ;       C:\ti\ccsv5\tools\compiler\c2000_6.1.3\bin\ac2000.exe -@C:\\Users\\a0272466\\AppData\\Local\\Temp\\06
TMS320C2000 Assembler PC v6.1.3 Thu Jan 30 10:25:22 2014

Tools Copyright (c) 1996-2012 Texas Instruments Incorporated
C:\Users\a0272466\AppData\Local\Temp\0699610                         PAGE    2

      56 00000000               .sect   ".text"
      57                      .global _OverlaySciBootWithUsbBoot
      58              
      59              $C$DW$9 .dwtag  DW_TAG_subprogram, DW_AT_name("OverlaySciBootWithUsbBoot")
      60                      .dwattr $C$DW$9, DW_AT_low_pc(_OverlaySciBootWithUsbBoot)
      61                      .dwattr $C$DW$9, DW_AT_high_pc(0x00)
      62                      .dwattr $C$DW$9, DW_AT_TI_symbol_name("_OverlaySciBootWithUsbBoot")
      63                      .dwattr $C$DW$9, DW_AT_external
      64                      .dwattr $C$DW$9, DW_AT_type(*$C$DW$T$19)
      65                      .dwattr $C$DW$9, DW_AT_TI_begin_file("C:/work/grepos/bootrom/Boot_ROM/F2837x_bootROM-REVB/F2837x_boot
      66                      .dwattr $C$DW$9, DW_AT_TI_begin_line(0x18)
      67                      .dwattr $C$DW$9, DW_AT_TI_begin_column(0x08)
      68                      .dwattr $C$DW$9, DW_AT_TI_max_frame_size(-6)
      69                      .dwpsn  file "C:/work/grepos/bootrom/Boot_ROM/F2837x_bootROM-REVB/F2837x_bootROM_dev/F2837x_bootROM/c
      70              
      71                      .dwfde $C$DW$CIE, _OverlaySciBootWithUsbBoot
      72              $C$DW$10        .dwtag  DW_TAG_formal_parameter, DW_AT_name("mode")
      73                      .dwattr $C$DW$10, DW_AT_TI_symbol_name("_mode")
      74                      .dwattr $C$DW$10, DW_AT_type(*$C$DW$T$19)
      75                      .dwattr $C$DW$10, DW_AT_location[DW_OP_reg0]
      76              
      77              ;***************************************************************
      78              ;* FNAME: _OverlaySciBootWithUsbBoot    FR SIZE:   4           *
      79              ;*                                                             *
      80              ;* FUNCTION ENVIRONMENT                                        *
      81              ;*                                                             *
      82              ;* FUNCTION PROPERTIES                                         *
      83              ;*                            0 Parameter,  4 Auto,  0 SOE     *
      84              ;***************************************************************
      85              
      86 00000000       _OverlaySciBootWithUsbBoot:
      87                      .dwcfi  cfa_offset, -2
      88                      .dwcfi  save_reg_to_mem, 26, 0
      89                      .dwcfi  save_reg_to_reg, 78, 26
      90 00000000 FE04          ADDB      SP,#4                 ; [CPU_U] 
      91                      .dwcfi  cfa_offset, -6
      92              $C$DW$11        .dwtag  DW_TAG_variable, DW_AT_name("mode")
      93                      .dwattr $C$DW$11, DW_AT_TI_symbol_name("_mode")
      94                      .dwattr $C$DW$11, DW_AT_type(*$C$DW$T$19)
      95                      .dwattr $C$DW$11, DW_AT_location[DW_OP_breg20 -1]
      96              $C$DW$12        .dwtag  DW_TAG_variable, DW_AT_name("EntryAddr")
      97                      .dwattr $C$DW$12, DW_AT_TI_symbol_name("_EntryAddr")
      98                      .dwattr $C$DW$12, DW_AT_type(*$C$DW$T$21)
      99                      .dwattr $C$DW$12, DW_AT_location[DW_OP_breg20 -4]
     100 00000001 9641          MOV       *-SP[1],AL            ; [CPU_] |25| 
     101                      .dwpsn  file "C:/work/grepos/bootrom/Boot_ROM/F2837x_bootROM-REVB/F2837x_bootROM_dev/F2837x_bootROM/c
     102 00000002 8F07          MOVL      XAR4,#459730          ; [CPU_U] |28| 
         00000003 03D2 
     103 00000004 06C4          MOVL      ACC,*+XAR4[0]         ; [CPU_] |28| 
     104 00000005 1E44          MOVL      *-SP[4],ACC           ; [CPU_] |28| 
     105                      .dwpsn  file "C:/work/grepos/bootrom/Boot_ROM/F2837x_bootROM-REVB/F2837x_bootROM_dev/F2837x_bootROM/c
     106 00000006 0200          MOVB      ACC,#0                ; [CPU_] |29| 
     107 00000007 1901          SUBB      ACC,#1                ; [CPU_] |29| 
     108 00000008 0F44          CMPL      ACC,*-SP[4]           ; [CPU_] |29| 
     109 00000009 EC05          BF        $C$L1,EQ              ; [CPU_] |29| 
TMS320C2000 Assembler PC v6.1.3 Thu Jan 30 10:25:22 2014

Tools Copyright (c) 1996-2012 Texas Instruments Incorporated
C:\Users\a0272466\AppData\Local\Temp\0699610                         PAGE    3

     110                      ; branchcc occurs ; [] |29| 
     111 0000000a 0644          MOVL      ACC,*-SP[4]           ; [CPU_] |29| 
     112 0000000b EC03          BF        $C$L1,EQ              ; [CPU_] |29| 
     113                      ; branchcc occurs ; [] |29| 
     114                      .dwpsn  file "C:/work/grepos/bootrom/Boot_ROM/F2837x_bootROM-REVB/F2837x_bootROM_dev/F2837x_bootROM/c
     115 0000000c C544          MOVL      XAR7,*-SP[4]          ; [CPU_] |33| 
     116              $C$DW$13        .dwtag  DW_TAG_TI_branch
     117                      .dwattr $C$DW$13, DW_AT_low_pc(0x00)
     118                      .dwattr $C$DW$13, DW_AT_TI_call
     119                      .dwattr $C$DW$13, DW_AT_TI_indirect
     120 0000000d 3E67          LCR       *XAR7                 ; [CPU_] |33| 
     121                      ; call occurs [XAR7] ; [] |33| 
     122 0000000e       $C$L1:    
     123                      .dwpsn  file "C:/work/grepos/bootrom/Boot_ROM/F2837x_bootROM-REVB/F2837x_bootROM_dev/F2837x_bootROM/c
     124 0000000e 761F!         MOVW      DP,#_DevCfgRegs+8     ; [CPU_U] 
         0000000f 0000 
     125 00000010 4C08!         TBIT      @_DevCfgRegs+8,#12    ; [CPU_] |38| 
     126 00000011 EF03          BF        $C$L2,NTC             ; [CPU_] |38| 
     127                      ; branchcc occurs ; [] |38| 
     128                      .dwpsn  file "C:/work/grepos/bootrom/Boot_ROM/F2837x_bootROM-REVB/F2837x_bootROM_dev/F2837x_bootROM/c
     129 00000012 9241          MOV       AL,*-SP[1]            ; [CPU_] |41| 
     130 00000013 6F05          B         $C$L3,UNC             ; [CPU_] |41| 
     131                      ; branch occurs ; [] |41| 
     132 00000014       $C$L2:    
     133                      .dwpsn  file "C:/work/grepos/bootrom/Boot_ROM/F2837x_bootROM-REVB/F2837x_bootROM_dev/F2837x_bootROM/c
     134 00000014 9241          MOV       AL,*-SP[1]            ; [CPU_] |45| 
     135 00000015 5201          CMPB      AL,#1                 ; [CPU_] |45| 
     136                      .dwpsn  file "C:/work/grepos/bootrom/Boot_ROM/F2837x_bootROM-REVB/F2837x_bootROM_dev/F2837x_bootROM/c
     137                      .dwpsn  file "C:/work/grepos/bootrom/Boot_ROM/F2837x_bootROM-REVB/F2837x_bootROM_dev/F2837x_bootROM/c
     138 00000016 56B1          MOVB      AL,#12,EQ             ; [CPU_] |52| 
         00000017 0CA9 
     139 00000018       $C$L3:    
     140                      .dwpsn  file "C:/work/grepos/bootrom/Boot_ROM/F2837x_bootROM-REVB/F2837x_bootROM_dev/F2837x_bootROM/c
     141 00000018 FE84          SUBB      SP,#4                 ; [CPU_U] 
     142                      .dwcfi  cfa_offset, -2
     143              $C$DW$14        .dwtag  DW_TAG_TI_branch
     144                      .dwattr $C$DW$14, DW_AT_low_pc(0x00)
     145                      .dwattr $C$DW$14, DW_AT_TI_return
     146 00000019 0006          LRETR     ; [CPU_] 
     147                      ; return occurs ; [] 
     148                      .dwattr $C$DW$9, DW_AT_TI_end_file("C:/work/grepos/bootrom/Boot_ROM/F2837x_bootROM-REVB/F2837x_bootRO
     149                      .dwattr $C$DW$9, DW_AT_TI_end_line(0x35)
     150                      .dwattr $C$DW$9, DW_AT_TI_end_column(0x01)
     151                      .dwendentry
     152                      .dwendtag $C$DW$9
     153              
     154 0000001a               .sect   ".text"
     155                      .global _SelectBootMode
     156              
     157              $C$DW$15        .dwtag  DW_TAG_subprogram, DW_AT_name("SelectBootMode")
     158                      .dwattr $C$DW$15, DW_AT_low_pc(_SelectBootMode)
     159                      .dwattr $C$DW$15, DW_AT_high_pc(0x00)
     160                      .dwattr $C$DW$15, DW_AT_TI_symbol_name("_SelectBootMode")
     161                      .dwattr $C$DW$15, DW_AT_external
     162                      .dwattr $C$DW$15, DW_AT_type(*$C$DW$T$19)
TMS320C2000 Assembler PC v6.1.3 Thu Jan 30 10:25:22 2014

Tools Copyright (c) 1996-2012 Texas Instruments Incorporated
C:\Users\a0272466\AppData\Local\Temp\0699610                         PAGE    4

     163                      .dwattr $C$DW$15, DW_AT_TI_begin_file("C:/work/grepos/bootrom/Boot_ROM/F2837x_bootROM-REVB/F2837x_boo
     164                      .dwattr $C$DW$15, DW_AT_TI_begin_line(0x38)
     165                      .dwattr $C$DW$15, DW_AT_TI_begin_column(0x08)
     166                      .dwattr $C$DW$15, DW_AT_TI_max_frame_size(-4)
     167                      .dwpsn  file "C:/work/grepos/bootrom/Boot_ROM/F2837x_bootROM-REVB/F2837x_bootROM_dev/F2837x_bootROM/c
     168              
     169                      .dwfde $C$DW$CIE, _SelectBootMode
     170              
     171              ;***************************************************************
     172              ;* FNAME: _SelectBootMode               FR SIZE:   2           *
     173              ;*                                                             *
     174              ;* FUNCTION ENVIRONMENT                                        *
     175              ;*                                                             *
     176              ;* FUNCTION PROPERTIES                                         *
     177              ;*                            0 Parameter,  1 Auto,  0 SOE     *
     178              ;***************************************************************
     179              
     180 0000001a       _SelectBootMode:
     181                      .dwcfi  cfa_offset, -2
     182                      .dwcfi  save_reg_to_mem, 26, 0
     183                      .dwcfi  save_reg_to_reg, 78, 26
     184 0000001a FE02          ADDB      SP,#2                 ; [CPU_U] 
     185                      .dwcfi  cfa_offset, -4
     186              $C$DW$16        .dwtag  DW_TAG_variable, DW_AT_name("BootModeLocal")
     187                      .dwattr $C$DW$16, DW_AT_TI_symbol_name("_BootModeLocal")
     188                      .dwattr $C$DW$16, DW_AT_type(*$C$DW$T$19)
     189                      .dwattr $C$DW$16, DW_AT_location[DW_OP_breg20 -1]
     190                      .dwpsn  file "C:/work/grepos/bootrom/Boot_ROM/F2837x_bootROM-REVB/F2837x_bootROM_dev/F2837x_bootROM/c
     191 0000001b 7622   EALLOW
     192                      .dwpsn  file "C:/work/grepos/bootrom/Boot_ROM/F2837x_bootROM-REVB/F2837x_bootROM_dev/F2837x_bootROM/c
     193 0000001c 761F!         MOVW      DP,#_CpuSysRegs+129   ; [CPU_U] 
         0000001d 0002 
     194 0000001e CC01!         AND       AL,@_CpuSysRegs+129,#0x8000 ; [CPU_] |74| 
         0000001f 8000 
     195 00000020 FFCE          LSR       AL,15                 ; [CPU_] |74| 
     196 00000021 5201          CMPB      AL,#1                 ; [CPU_] |74| 
     197 00000022 ED2D          BF        $C$L6,NEQ             ; [CPU_] |74| 
     198                      ; branchcc occurs ; [] |74| 
     199                      .dwpsn  file "C:/work/grepos/bootrom/Boot_ROM/F2837x_bootROM-REVB/F2837x_bootROM_dev/F2837x_bootROM/c
     200 00000023 761F!         MOVW      DP,#_EmuKey           ; [CPU_U] 
         00000024 0000 
     201 00000025 9200!         MOV       AL,@_EmuKey           ; [CPU_] |80| 
     202 00000026 90FF          ANDB      AL,#0xff              ; [CPU_] |80| 
     203 00000027 525A          CMPB      AL,#90                ; [CPU_] |80| 
     204                      .dwpsn  file "C:/work/grepos/bootrom/Boot_ROM/F2837x_bootROM-REVB/F2837x_bootROM_dev/F2837x_bootROM/c
     205 00000028 56B0          MOVB      *-SP[1],#2,NEQ        ; [CPU_] |83| 
         00000029 0241 
     206                      .dwpsn  file "C:/work/grepos/bootrom/Boot_ROM/F2837x_bootROM-REVB/F2837x_bootROM_dev/F2837x_bootROM/c
     207 0000002a ED34          BF        $C$L7,NEQ             ; [CPU_] |84| 
     208                      ; branchcc occurs ; [] |84| 
     209                      .dwpsn  file "C:/work/grepos/bootrom/Boot_ROM/F2837x_bootROM-REVB/F2837x_bootROM_dev/F2837x_bootROM/c
     210 0000002b CC00!         AND       AL,@_EmuKey,#0xff00   ; [CPU_] |90| 
         0000002c FF00 
     211 0000002d FFC7          LSR       AL,8                  ; [CPU_] |90| 
     212 0000002e 52FE          CMPB      AL,#254               ; [CPU_] |90| 
TMS320C2000 Assembler PC v6.1.3 Thu Jan 30 10:25:22 2014

Tools Copyright (c) 1996-2012 Texas Instruments Incorporated
C:\Users\a0272466\AppData\Local\Temp\0699610                         PAGE    5

     213 0000002f ED0C          BF        $C$L4,NEQ             ; [CPU_] |90| 
     214                      ; branchcc occurs ; [] |90| 
     215                      .dwpsn  file "C:/work/grepos/bootrom/Boot_ROM/F2837x_bootROM-REVB/F2837x_bootROM_dev/F2837x_bootROM/c
     216 00000030 761F!         MOVW      DP,#_EmuBMode         ; [CPU_U] 
         00000031 0000 
     217 00000032 FF69          SPM       #0                    ; [CPU_] 
     218 00000033 9200!         MOV       AL,@_EmuBMode         ; [CPU_] |92| 
     219              $C$DW$17        .dwtag  DW_TAG_TI_branch
     220                      .dwattr $C$DW$17, DW_AT_low_pc(0x00)
     221                      .dwattr $C$DW$17, DW_AT_name("_c1brom_decode_bootpins")
     222                      .dwattr $C$DW$17, DW_AT_TI_call
     223 00000034 7640!         LCR       #_c1brom_decode_bootpins ; [CPU_] |92| 
         00000035 0000 
     224                      ; call occurs [#_c1brom_decode_bootpins] ; [] |92| 
     225 00000036 9641          MOV       *-SP[1],AL            ; [CPU_] |92| 
     226                      .dwpsn  file "C:/work/grepos/bootrom/Boot_ROM/F2837x_bootROM-REVB/F2837x_bootROM_dev/F2837x_bootROM/c
     227              $C$DW$18        .dwtag  DW_TAG_TI_branch
     228                      .dwattr $C$DW$18, DW_AT_low_pc(0x00)
     229                      .dwattr $C$DW$18, DW_AT_name("_OverlaySciBootWithUsbBoot")
     230                      .dwattr $C$DW$18, DW_AT_TI_call
     231 00000037 7640'         LCR       #_OverlaySciBootWithUsbBoot ; [CPU_] |93| 
         00000038 0000 
     232                      ; call occurs [#_OverlaySciBootWithUsbBoot] ; [] |93| 
     233 00000039 9641          MOV       *-SP[1],AL            ; [CPU_] |93| 
     234                      .dwpsn  file "C:/work/grepos/bootrom/Boot_ROM/F2837x_bootROM-REVB/F2837x_bootROM_dev/F2837x_bootROM/c
     235 0000003a 6F24          B         $C$L7,UNC             ; [CPU_] |94| 
     236                      ; branch occurs ; [] |94| 
     237 0000003b       $C$L4:    
     238                      .dwpsn  file "C:/work/grepos/bootrom/Boot_ROM/F2837x_bootROM-REVB/F2837x_bootROM_dev/F2837x_bootROM/c
     239 0000003b CC00!         AND       AL,@_EmuKey,#0xff00   ; [CPU_] |95| 
         0000003c FF00 
     240 0000003d FFC7          LSR       AL,8                  ; [CPU_] |95| 
     241 0000003e 52FF          CMPB      AL,#255               ; [CPU_] |95| 
     242 0000003f ED0B          BF        $C$L5,NEQ             ; [CPU_] |95| 
     243                      ; branchcc occurs ; [] |95| 
     244                      .dwpsn  file "C:/work/grepos/bootrom/Boot_ROM/F2837x_bootROM-REVB/F2837x_bootROM_dev/F2837x_bootROM/c
     245 00000040 FF69          SPM       #0                    ; [CPU_] 
     246              $C$DW$19        .dwtag  DW_TAG_TI_branch
     247                      .dwattr $C$DW$19, DW_AT_low_pc(0x00)
     248                      .dwattr $C$DW$19, DW_AT_name("_c1brom_read_otp_bootpinconfig")
     249                      .dwattr $C$DW$19, DW_AT_TI_call
     250 00000041 7640!         LCR       #_c1brom_read_otp_bootpinconfig ; [CPU_] |97| 
         00000042 0000 
     251                      ; call occurs [#_c1brom_read_otp_bootpinconfig] ; [] |97| 
     252              $C$DW$20        .dwtag  DW_TAG_TI_branch
     253                      .dwattr $C$DW$20, DW_AT_low_pc(0x00)
     254                      .dwattr $C$DW$20, DW_AT_name("_c1brom_decode_bootpins")
     255                      .dwattr $C$DW$20, DW_AT_TI_call
     256 00000043 7640!         LCR       #_c1brom_decode_bootpins ; [CPU_] |97| 
         00000044 0000 
     257                      ; call occurs [#_c1brom_decode_bootpins] ; [] |97| 
     258 00000045 9641          MOV       *-SP[1],AL            ; [CPU_] |97| 
     259                      .dwpsn  file "C:/work/grepos/bootrom/Boot_ROM/F2837x_bootROM-REVB/F2837x_bootROM_dev/F2837x_bootROM/c
     260              $C$DW$21        .dwtag  DW_TAG_TI_branch
     261                      .dwattr $C$DW$21, DW_AT_low_pc(0x00)
TMS320C2000 Assembler PC v6.1.3 Thu Jan 30 10:25:22 2014

Tools Copyright (c) 1996-2012 Texas Instruments Incorporated
C:\Users\a0272466\AppData\Local\Temp\0699610                         PAGE    6

     262                      .dwattr $C$DW$21, DW_AT_name("_OverlaySciBootWithUsbBoot")
     263                      .dwattr $C$DW$21, DW_AT_TI_call
     264 00000046 7640'         LCR       #_OverlaySciBootWithUsbBoot ; [CPU_] |98| 
         00000047 0000 
     265                      ; call occurs [#_OverlaySciBootWithUsbBoot] ; [] |98| 
     266 00000048 9641          MOV       *-SP[1],AL            ; [CPU_] |98| 
     267                      .dwpsn  file "C:/work/grepos/bootrom/Boot_ROM/F2837x_bootROM-REVB/F2837x_bootROM_dev/F2837x_bootROM/c
     268 00000049 6F15          B         $C$L7,UNC             ; [CPU_] |99| 
     269                      ; branch occurs ; [] |99| 
     270 0000004a       $C$L5:    
     271                      .dwpsn  file "C:/work/grepos/bootrom/Boot_ROM/F2837x_bootROM-REVB/F2837x_bootROM_dev/F2837x_bootROM/c
     272 0000004a CC00!         AND       AL,@_EmuKey,#0xff00   ; [CPU_] |102| 
         0000004b FF00 
     273 0000004c FFC7          LSR       AL,8                  ; [CPU_] |102| 
     274 0000004d 9641          MOV       *-SP[1],AL            ; [CPU_] |102| 
     275                      .dwpsn  file "C:/work/grepos/bootrom/Boot_ROM/F2837x_bootROM-REVB/F2837x_bootROM_dev/F2837x_bootROM/c
     276 0000004e 6F10          B         $C$L7,UNC             ; [CPU_] |105| 
     277                      ; branch occurs ; [] |105| 
     278 0000004f       $C$L6:    
     279                      .dwpsn  file "C:/work/grepos/bootrom/Boot_ROM/F2837x_bootROM-REVB/F2837x_bootROM_dev/F2837x_bootROM/c
     280 0000004f FF69          SPM       #0                    ; [CPU_] 
     281              $C$DW$22        .dwtag  DW_TAG_TI_branch
     282                      .dwattr $C$DW$22, DW_AT_low_pc(0x00)
     283                      .dwattr $C$DW$22, DW_AT_name("_c1brom_read_otp_bootpinconfig")
     284                      .dwattr $C$DW$22, DW_AT_TI_call
     285 00000050 7640!         LCR       #_c1brom_read_otp_bootpinconfig ; [CPU_] |109| 
         00000051 0000 
     286                      ; call occurs [#_c1brom_read_otp_bootpinconfig] ; [] |109| 
     287              $C$DW$23        .dwtag  DW_TAG_TI_branch
     288                      .dwattr $C$DW$23, DW_AT_low_pc(0x00)
     289                      .dwattr $C$DW$23, DW_AT_name("_c1brom_decode_bootpins")
     290                      .dwattr $C$DW$23, DW_AT_TI_call
     291 00000052 7640!         LCR       #_c1brom_decode_bootpins ; [CPU_] |109| 
         00000053 0000 
     292                      ; call occurs [#_c1brom_decode_bootpins] ; [] |109| 
     293 00000054 9641          MOV       *-SP[1],AL            ; [CPU_] |109| 
     294                      .dwpsn  file "C:/work/grepos/bootrom/Boot_ROM/F2837x_bootROM-REVB/F2837x_bootROM_dev/F2837x_bootROM/c
     295              $C$DW$24        .dwtag  DW_TAG_TI_branch
     296                      .dwattr $C$DW$24, DW_AT_low_pc(0x00)
     297                      .dwattr $C$DW$24, DW_AT_name("_OverlaySciBootWithUsbBoot")
     298                      .dwattr $C$DW$24, DW_AT_TI_call
     299 00000055 7640'         LCR       #_OverlaySciBootWithUsbBoot ; [CPU_] |110| 
         00000056 0000 
     300                      ; call occurs [#_OverlaySciBootWithUsbBoot] ; [] |110| 
     301 00000057 9641          MOV       *-SP[1],AL            ; [CPU_] |110| 
     302                      .dwpsn  file "C:/work/grepos/bootrom/Boot_ROM/F2837x_bootROM-REVB/F2837x_bootROM_dev/F2837x_bootROM/c
     303 00000058 761F!         MOVW      DP,#_EmuKey           ; [CPU_U] 
         00000059 0000 
     304 0000005a 5603          MOV       ACC,*-SP[1] << #8     ; [CPU_] |111| 
         0000005b 0841 
     305 0000005c 505A          ORB       AL,#0x5a              ; [CPU_] |111| 
     306 0000005d 9600!         MOV       @_EmuKey,AL           ; [CPU_] |111| 
     307 0000005e       $C$L7:    
     308                      .dwpsn  file "C:/work/grepos/bootrom/Boot_ROM/F2837x_bootROM-REVB/F2837x_bootROM_dev/F2837x_bootROM/c
     309 0000005e 761A   EDIS
TMS320C2000 Assembler PC v6.1.3 Thu Jan 30 10:25:22 2014

Tools Copyright (c) 1996-2012 Texas Instruments Incorporated
C:\Users\a0272466\AppData\Local\Temp\0699610                         PAGE    7

     310                      .dwpsn  file "C:/work/grepos/bootrom/Boot_ROM/F2837x_bootROM-REVB/F2837x_bootROM_dev/F2837x_bootROM/c
     311 0000005f 9241          MOV       AL,*-SP[1]            ; [CPU_] |117| 
     312 00000060 5203          CMPB      AL,#3                 ; [CPU_] |117| 
     313 00000061 ED05          BF        $C$L8,NEQ             ; [CPU_] |117| 
     314                      ; branchcc occurs ; [] |117| 
     315                      .dwpsn  file "C:/work/grepos/bootrom/Boot_ROM/F2837x_bootROM-REVB/F2837x_bootROM_dev/F2837x_bootROM/c
     316 00000062 FF69          SPM       #0                    ; [CPU_] 
     317              $C$DW$25        .dwtag  DW_TAG_TI_branch
     318                      .dwattr $C$DW$25, DW_AT_low_pc(0x00)
     319                      .dwattr $C$DW$25, DW_AT_name("_c1brom_read_otp_bootmode")
     320                      .dwattr $C$DW$25, DW_AT_TI_call
     321 00000063 7640!         LCR       #_c1brom_read_otp_bootmode ; [CPU_] |119| 
         00000064 0000 
     322                      ; call occurs [#_c1brom_read_otp_bootmode] ; [] |119| 
     323 00000065 9641          MOV       *-SP[1],AL            ; [CPU_] |119| 
     324 00000066       $C$L8:    
     325                      .dwpsn  file "C:/work/grepos/bootrom/Boot_ROM/F2837x_bootROM-REVB/F2837x_bootROM_dev/F2837x_bootROM/c
     326                      .dwpsn  file "C:/work/grepos/bootrom/Boot_ROM/F2837x_bootROM-REVB/F2837x_bootROM_dev/F2837x_bootROM/c
     327 00000066 FE82          SUBB      SP,#2                 ; [CPU_U] 
     328                      .dwcfi  cfa_offset, -2
     329 00000067 FF69          SPM       #0                    ; [CPU_] 
     330              $C$DW$26        .dwtag  DW_TAG_TI_branch
     331                      .dwattr $C$DW$26, DW_AT_low_pc(0x00)
     332                      .dwattr $C$DW$26, DW_AT_TI_return
     333 00000068 0006          LRETR     ; [CPU_] 
     334                      ; return occurs ; [] 
     335                      .dwattr $C$DW$15, DW_AT_TI_end_file("C:/work/grepos/bootrom/Boot_ROM/F2837x_bootROM-REVB/F2837x_bootR
     336                      .dwattr $C$DW$15, DW_AT_TI_end_line(0x7c)
     337                      .dwattr $C$DW$15, DW_AT_TI_end_column(0x01)
     338                      .dwendentry
     339                      .dwendtag $C$DW$15
     340              
     341              ;**************************************************************
     342              ;* UNDEFINED EXTERNAL REFERENCES                              *
     343              ;**************************************************************
     344                      .global _EmuBMode
     345                      .global _c1brom_read_otp_bootmode
     346                      .global _c1brom_read_otp_bootpinconfig
     347                      .global _EmuKey
     348                      .global _c1brom_decode_bootpins
     349                      .global _CpuSysRegs
     350                      .global _DevCfgRegs
     351              
     352              ;***************************************************************
     353              ;* TYPE INFORMATION                                            *
     354              ;***************************************************************
     355              
     356              $C$DW$T$20      .dwtag  DW_TAG_structure_type
     357                      .dwattr $C$DW$T$20, DW_AT_name("CCR_BITS")
     358                      .dwattr $C$DW$T$20, DW_AT_byte_size(0x02)
     359              $C$DW$27        .dwtag  DW_TAG_member
     360                      .dwattr $C$DW$27, DW_AT_type(*$C$DW$T$19)
     361                      .dwattr $C$DW$27, DW_AT_name("VMAPS")
     362                      .dwattr $C$DW$27, DW_AT_TI_symbol_name("_VMAPS")
     363                      .dwattr $C$DW$27, DW_AT_bit_offset(0x0f), DW_AT_bit_size(0x01)
TMS320C2000 Assembler PC v6.1.3 Thu Jan 30 10:25:22 2014

Tools Copyright (c) 1996-2012 Texas Instruments Incorporated
C:\Users\a0272466\AppData\Local\Temp\0699610                         PAGE    8

     364                      .dwattr $C$DW$27, DW_AT_data_member_location[DW_OP_plus_uconst 0x0]
     365                      .dwattr $C$DW$27, DW_AT_accessibility(DW_ACCESS_public)
     366              $C$DW$28        .dwtag  DW_TAG_member
     367                      .dwattr $C$DW$28, DW_AT_type(*$C$DW$T$19)
     368                      .dwattr $C$DW$28, DW_AT_name("MONPRIV")
     369                      .dwattr $C$DW$28, DW_AT_TI_symbol_name("_MONPRIV")
     370                      .dwattr $C$DW$28, DW_AT_bit_offset(0x0e), DW_AT_bit_size(0x01)
     371                      .dwattr $C$DW$28, DW_AT_data_member_location[DW_OP_plus_uconst 0x0]
     372                      .dwattr $C$DW$28, DW_AT_accessibility(DW_ACCESS_public)
     373              $C$DW$29        .dwtag  DW_TAG_member
     374                      .dwattr $C$DW$29, DW_AT_type(*$C$DW$T$19)
     375                      .dwattr $C$DW$29, DW_AT_name("ENPROT")
     376                      .dwattr $C$DW$29, DW_AT_TI_symbol_name("_ENPROT")
     377                      .dwattr $C$DW$29, DW_AT_bit_offset(0x0d), DW_AT_bit_size(0x01)
     378                      .dwattr $C$DW$29, DW_AT_data_member_location[DW_OP_plus_uconst 0x0]
     379                      .dwattr $C$DW$29, DW_AT_accessibility(DW_ACCESS_public)
     380              $C$DW$30        .dwtag  DW_TAG_member
     381                      .dwattr $C$DW$30, DW_AT_type(*$C$DW$T$19)
     382                      .dwattr $C$DW$30, DW_AT_name("rsvd1")
     383                      .dwattr $C$DW$30, DW_AT_TI_symbol_name("_rsvd1")
     384                      .dwattr $C$DW$30, DW_AT_bit_offset(0x00), DW_AT_bit_size(0x0d)
     385                      .dwattr $C$DW$30, DW_AT_data_member_location[DW_OP_plus_uconst 0x0]
     386                      .dwattr $C$DW$30, DW_AT_accessibility(DW_ACCESS_public)
     387              $C$DW$31        .dwtag  DW_TAG_member
     388                      .dwattr $C$DW$31, DW_AT_type(*$C$DW$T$19)
     389                      .dwattr $C$DW$31, DW_AT_name("rsvd2")
     390                      .dwattr $C$DW$31, DW_AT_TI_symbol_name("_rsvd2")
     391                      .dwattr $C$DW$31, DW_AT_bit_offset(0x00), DW_AT_bit_size(0x10)
     392                      .dwattr $C$DW$31, DW_AT_data_member_location[DW_OP_plus_uconst 0x1]
     393                      .dwattr $C$DW$31, DW_AT_accessibility(DW_ACCESS_public)
     394                      .dwendtag $C$DW$T$20
     395              
     396              
     397              $C$DW$T$22      .dwtag  DW_TAG_union_type
     398                      .dwattr $C$DW$T$22, DW_AT_name("CCR_REG")
     399                      .dwattr $C$DW$T$22, DW_AT_byte_size(0x02)
     400              $C$DW$32        .dwtag  DW_TAG_member
     401                      .dwattr $C$DW$32, DW_AT_type(*$C$DW$T$21)
     402                      .dwattr $C$DW$32, DW_AT_name("all")
     403                      .dwattr $C$DW$32, DW_AT_TI_symbol_name("_all")
     404                      .dwattr $C$DW$32, DW_AT_data_member_location[DW_OP_plus_uconst 0x0]
     405                      .dwattr $C$DW$32, DW_AT_accessibility(DW_ACCESS_public)
     406              $C$DW$33        .dwtag  DW_TAG_member
     407                      .dwattr $C$DW$33, DW_AT_type(*$C$DW$T$20)
     408                      .dwattr $C$DW$33, DW_AT_name("bit")
     409                      .dwattr $C$DW$33, DW_AT_TI_symbol_name("_bit")
     410                      .dwattr $C$DW$33, DW_AT_data_member_location[DW_OP_plus_uconst 0x0]
     411                      .dwattr $C$DW$33, DW_AT_accessibility(DW_ACCESS_public)
     412                      .dwendtag $C$DW$T$22
     413              
     414              
     415              $C$DW$T$23      .dwtag  DW_TAG_structure_type
     416                      .dwattr $C$DW$T$23, DW_AT_name("CPU2RESCTL_BITS")
     417                      .dwattr $C$DW$T$23, DW_AT_byte_size(0x02)
     418              $C$DW$34        .dwtag  DW_TAG_member
TMS320C2000 Assembler PC v6.1.3 Thu Jan 30 10:25:22 2014

Tools Copyright (c) 1996-2012 Texas Instruments Incorporated
C:\Users\a0272466\AppData\Local\Temp\0699610                         PAGE    9

     419                      .dwattr $C$DW$34, DW_AT_type(*$C$DW$T$19)
     420                      .dwattr $C$DW$34, DW_AT_name("RESET")
     421                      .dwattr $C$DW$34, DW_AT_TI_symbol_name("_RESET")
     422                      .dwattr $C$DW$34, DW_AT_bit_offset(0x0f), DW_AT_bit_size(0x01)
     423                      .dwattr $C$DW$34, DW_AT_data_member_location[DW_OP_plus_uconst 0x0]
     424                      .dwattr $C$DW$34, DW_AT_accessibility(DW_ACCESS_public)
     425              $C$DW$35        .dwtag  DW_TAG_member
     426                      .dwattr $C$DW$35, DW_AT_type(*$C$DW$T$19)
     427                      .dwattr $C$DW$35, DW_AT_name("rsvd1")
     428                      .dwattr $C$DW$35, DW_AT_TI_symbol_name("_rsvd1")
     429                      .dwattr $C$DW$35, DW_AT_bit_offset(0x00), DW_AT_bit_size(0x0f)
     430                      .dwattr $C$DW$35, DW_AT_data_member_location[DW_OP_plus_uconst 0x0]
     431                      .dwattr $C$DW$35, DW_AT_accessibility(DW_ACCESS_public)
     432              $C$DW$36        .dwtag  DW_TAG_member
     433                      .dwattr $C$DW$36, DW_AT_type(*$C$DW$T$19)
     434                      .dwattr $C$DW$36, DW_AT_name("KEY")
     435                      .dwattr $C$DW$36, DW_AT_TI_symbol_name("_KEY")
     436                      .dwattr $C$DW$36, DW_AT_bit_offset(0x00), DW_AT_bit_size(0x10)
     437                      .dwattr $C$DW$36, DW_AT_data_member_location[DW_OP_plus_uconst 0x1]
     438                      .dwattr $C$DW$36, DW_AT_accessibility(DW_ACCESS_public)
     439                      .dwendtag $C$DW$T$23
     440              
     441              
     442              $C$DW$T$24      .dwtag  DW_TAG_union_type
     443                      .dwattr $C$DW$T$24, DW_AT_name("CPU2RESCTL_REG")
     444                      .dwattr $C$DW$T$24, DW_AT_byte_size(0x02)
     445              $C$DW$37        .dwtag  DW_TAG_member
     446                      .dwattr $C$DW$37, DW_AT_type(*$C$DW$T$21)
     447                      .dwattr $C$DW$37, DW_AT_name("all")
     448                      .dwattr $C$DW$37, DW_AT_TI_symbol_name("_all")
     449                      .dwattr $C$DW$37, DW_AT_data_member_location[DW_OP_plus_uconst 0x0]
     450                      .dwattr $C$DW$37, DW_AT_accessibility(DW_ACCESS_public)
     451              $C$DW$38        .dwtag  DW_TAG_member
     452                      .dwattr $C$DW$38, DW_AT_type(*$C$DW$T$23)
     453                      .dwattr $C$DW$38, DW_AT_name("bit")
     454                      .dwattr $C$DW$38, DW_AT_TI_symbol_name("_bit")
     455                      .dwattr $C$DW$38, DW_AT_data_member_location[DW_OP_plus_uconst 0x0]
     456                      .dwattr $C$DW$38, DW_AT_accessibility(DW_ACCESS_public)
     457                      .dwendtag $C$DW$T$24
     458              
     459              
     460              $C$DW$T$25      .dwtag  DW_TAG_structure_type
     461                      .dwattr $C$DW$T$25, DW_AT_name("CPUSEL0_BITS")
     462                      .dwattr $C$DW$T$25, DW_AT_byte_size(0x02)
     463              $C$DW$39        .dwtag  DW_TAG_member
     464                      .dwattr $C$DW$39, DW_AT_type(*$C$DW$T$19)
     465                      .dwattr $C$DW$39, DW_AT_name("EPWM1")
     466                      .dwattr $C$DW$39, DW_AT_TI_symbol_name("_EPWM1")
     467                      .dwattr $C$DW$39, DW_AT_bit_offset(0x0f), DW_AT_bit_size(0x01)
     468                      .dwattr $C$DW$39, DW_AT_data_member_location[DW_OP_plus_uconst 0x0]
     469                      .dwattr $C$DW$39, DW_AT_accessibility(DW_ACCESS_public)
     470              $C$DW$40        .dwtag  DW_TAG_member
     471                      .dwattr $C$DW$40, DW_AT_type(*$C$DW$T$19)
     472                      .dwattr $C$DW$40, DW_AT_name("EPWM2")
     473                      .dwattr $C$DW$40, DW_AT_TI_symbol_name("_EPWM2")
TMS320C2000 Assembler PC v6.1.3 Thu Jan 30 10:25:22 2014

Tools Copyright (c) 1996-2012 Texas Instruments Incorporated
C:\Users\a0272466\AppData\Local\Temp\0699610                         PAGE   10

     474                      .dwattr $C$DW$40, DW_AT_bit_offset(0x0e), DW_AT_bit_size(0x01)
     475                      .dwattr $C$DW$40, DW_AT_data_member_location[DW_OP_plus_uconst 0x0]
     476                      .dwattr $C$DW$40, DW_AT_accessibility(DW_ACCESS_public)
     477              $C$DW$41        .dwtag  DW_TAG_member
     478                      .dwattr $C$DW$41, DW_AT_type(*$C$DW$T$19)
     479                      .dwattr $C$DW$41, DW_AT_name("EPWM3")
     480                      .dwattr $C$DW$41, DW_AT_TI_symbol_name("_EPWM3")
     481                      .dwattr $C$DW$41, DW_AT_bit_offset(0x0d), DW_AT_bit_size(0x01)
     482                      .dwattr $C$DW$41, DW_AT_data_member_location[DW_OP_plus_uconst 0x0]
     483                      .dwattr $C$DW$41, DW_AT_accessibility(DW_ACCESS_public)
     484              $C$DW$42        .dwtag  DW_TAG_member
     485                      .dwattr $C$DW$42, DW_AT_type(*$C$DW$T$19)
     486                      .dwattr $C$DW$42, DW_AT_name("EPWM4")
     487                      .dwattr $C$DW$42, DW_AT_TI_symbol_name("_EPWM4")
     488                      .dwattr $C$DW$42, DW_AT_bit_offset(0x0c), DW_AT_bit_size(0x01)
     489                      .dwattr $C$DW$42, DW_AT_data_member_location[DW_OP_plus_uconst 0x0]
     490                      .dwattr $C$DW$42, DW_AT_accessibility(DW_ACCESS_public)
     491              $C$DW$43        .dwtag  DW_TAG_member
     492                      .dwattr $C$DW$43, DW_AT_type(*$C$DW$T$19)
     493                      .dwattr $C$DW$43, DW_AT_name("EPWM5")
     494                      .dwattr $C$DW$43, DW_AT_TI_symbol_name("_EPWM5")
     495                      .dwattr $C$DW$43, DW_AT_bit_offset(0x0b), DW_AT_bit_size(0x01)
     496                      .dwattr $C$DW$43, DW_AT_data_member_location[DW_OP_plus_uconst 0x0]
     497                      .dwattr $C$DW$43, DW_AT_accessibility(DW_ACCESS_public)
     498              $C$DW$44        .dwtag  DW_TAG_member
     499                      .dwattr $C$DW$44, DW_AT_type(*$C$DW$T$19)
     500                      .dwattr $C$DW$44, DW_AT_name("EPWM6")
     501                      .dwattr $C$DW$44, DW_AT_TI_symbol_name("_EPWM6")
     502                      .dwattr $C$DW$44, DW_AT_bit_offset(0x0a), DW_AT_bit_size(0x01)
     503                      .dwattr $C$DW$44, DW_AT_data_member_location[DW_OP_plus_uconst 0x0]
     504                      .dwattr $C$DW$44, DW_AT_accessibility(DW_ACCESS_public)
     505              $C$DW$45        .dwtag  DW_TAG_member
     506                      .dwattr $C$DW$45, DW_AT_type(*$C$DW$T$19)
     507                      .dwattr $C$DW$45, DW_AT_name("EPWM7")
     508                      .dwattr $C$DW$45, DW_AT_TI_symbol_name("_EPWM7")
     509                      .dwattr $C$DW$45, DW_AT_bit_offset(0x09), DW_AT_bit_size(0x01)
     510                      .dwattr $C$DW$45, DW_AT_data_member_location[DW_OP_plus_uconst 0x0]
     511                      .dwattr $C$DW$45, DW_AT_accessibility(DW_ACCESS_public)
     512              $C$DW$46        .dwtag  DW_TAG_member
     513                      .dwattr $C$DW$46, DW_AT_type(*$C$DW$T$19)
     514                      .dwattr $C$DW$46, DW_AT_name("EPWM8")
     515                      .dwattr $C$DW$46, DW_AT_TI_symbol_name("_EPWM8")
     516                      .dwattr $C$DW$46, DW_AT_bit_offset(0x08), DW_AT_bit_size(0x01)
     517                      .dwattr $C$DW$46, DW_AT_data_member_location[DW_OP_plus_uconst 0x0]
     518                      .dwattr $C$DW$46, DW_AT_accessibility(DW_ACCESS_public)
     519              $C$DW$47        .dwtag  DW_TAG_member
     520                      .dwattr $C$DW$47, DW_AT_type(*$C$DW$T$19)
     521                      .dwattr $C$DW$47, DW_AT_name("EPWM9")
     522                      .dwattr $C$DW$47, DW_AT_TI_symbol_name("_EPWM9")
     523                      .dwattr $C$DW$47, DW_AT_bit_offset(0x07), DW_AT_bit_size(0x01)
     524                      .dwattr $C$DW$47, DW_AT_data_member_location[DW_OP_plus_uconst 0x0]
     525                      .dwattr $C$DW$47, DW_AT_accessibility(DW_ACCESS_public)
     526              $C$DW$48        .dwtag  DW_TAG_member
     527                      .dwattr $C$DW$48, DW_AT_type(*$C$DW$T$19)
     528                      .dwattr $C$DW$48, DW_AT_name("EPWM10")
TMS320C2000 Assembler PC v6.1.3 Thu Jan 30 10:25:22 2014

Tools Copyright (c) 1996-2012 Texas Instruments Incorporated
C:\Users\a0272466\AppData\Local\Temp\0699610                         PAGE   11

     529                      .dwattr $C$DW$48, DW_AT_TI_symbol_name("_EPWM10")
     530                      .dwattr $C$DW$48, DW_AT_bit_offset(0x06), DW_AT_bit_size(0x01)
     531                      .dwattr $C$DW$48, DW_AT_data_member_location[DW_OP_plus_uconst 0x0]
     532                      .dwattr $C$DW$48, DW_AT_accessibility(DW_ACCESS_public)
     533              $C$DW$49        .dwtag  DW_TAG_member
     534                      .dwattr $C$DW$49, DW_AT_type(*$C$DW$T$19)
     535                      .dwattr $C$DW$49, DW_AT_name("EPWM11")
     536                      .dwattr $C$DW$49, DW_AT_TI_symbol_name("_EPWM11")
     537                      .dwattr $C$DW$49, DW_AT_bit_offset(0x05), DW_AT_bit_size(0x01)
     538                      .dwattr $C$DW$49, DW_AT_data_member_location[DW_OP_plus_uconst 0x0]
     539                      .dwattr $C$DW$49, DW_AT_accessibility(DW_ACCESS_public)
     540              $C$DW$50        .dwtag  DW_TAG_member
     541                      .dwattr $C$DW$50, DW_AT_type(*$C$DW$T$19)
     542                      .dwattr $C$DW$50, DW_AT_name("EPWM12")
     543                      .dwattr $C$DW$50, DW_AT_TI_symbol_name("_EPWM12")
     544                      .dwattr $C$DW$50, DW_AT_bit_offset(0x04), DW_AT_bit_size(0x01)
     545                      .dwattr $C$DW$50, DW_AT_data_member_location[DW_OP_plus_uconst 0x0]
     546                      .dwattr $C$DW$50, DW_AT_accessibility(DW_ACCESS_public)
     547              $C$DW$51        .dwtag  DW_TAG_member
     548                      .dwattr $C$DW$51, DW_AT_type(*$C$DW$T$19)
     549                      .dwattr $C$DW$51, DW_AT_name("rsvd1")
     550                      .dwattr $C$DW$51, DW_AT_TI_symbol_name("_rsvd1")
     551                      .dwattr $C$DW$51, DW_AT_bit_offset(0x00), DW_AT_bit_size(0x04)
     552                      .dwattr $C$DW$51, DW_AT_data_member_location[DW_OP_plus_uconst 0x0]
     553                      .dwattr $C$DW$51, DW_AT_accessibility(DW_ACCESS_public)
     554              $C$DW$52        .dwtag  DW_TAG_member
     555                      .dwattr $C$DW$52, DW_AT_type(*$C$DW$T$19)
     556                      .dwattr $C$DW$52, DW_AT_name("rsvd2")
     557                      .dwattr $C$DW$52, DW_AT_TI_symbol_name("_rsvd2")
     558                      .dwattr $C$DW$52, DW_AT_bit_offset(0x00), DW_AT_bit_size(0x10)
     559                      .dwattr $C$DW$52, DW_AT_data_member_location[DW_OP_plus_uconst 0x1]
     560                      .dwattr $C$DW$52, DW_AT_accessibility(DW_ACCESS_public)
     561                      .dwendtag $C$DW$T$25
     562              
     563              
     564              $C$DW$T$26      .dwtag  DW_TAG_union_type
     565                      .dwattr $C$DW$T$26, DW_AT_name("CPUSEL0_REG")
     566                      .dwattr $C$DW$T$26, DW_AT_byte_size(0x02)
     567              $C$DW$53        .dwtag  DW_TAG_member
     568                      .dwattr $C$DW$53, DW_AT_type(*$C$DW$T$21)
     569                      .dwattr $C$DW$53, DW_AT_name("all")
     570                      .dwattr $C$DW$53, DW_AT_TI_symbol_name("_all")
     571                      .dwattr $C$DW$53, DW_AT_data_member_location[DW_OP_plus_uconst 0x0]
     572                      .dwattr $C$DW$53, DW_AT_accessibility(DW_ACCESS_public)
     573              $C$DW$54        .dwtag  DW_TAG_member
     574                      .dwattr $C$DW$54, DW_AT_type(*$C$DW$T$25)
     575                      .dwattr $C$DW$54, DW_AT_name("bit")
     576                      .dwattr $C$DW$54, DW_AT_TI_symbol_name("_bit")
     577                      .dwattr $C$DW$54, DW_AT_data_member_location[DW_OP_plus_uconst 0x0]
     578                      .dwattr $C$DW$54, DW_AT_accessibility(DW_ACCESS_public)
     579                      .dwendtag $C$DW$T$26
     580              
     581              
     582              $C$DW$T$27      .dwtag  DW_TAG_structure_type
     583                      .dwattr $C$DW$T$27, DW_AT_name("CPUSEL11_BITS")
TMS320C2000 Assembler PC v6.1.3 Thu Jan 30 10:25:22 2014

Tools Copyright (c) 1996-2012 Texas Instruments Incorporated
C:\Users\a0272466\AppData\Local\Temp\0699610                         PAGE   12

     584                      .dwattr $C$DW$T$27, DW_AT_byte_size(0x02)
     585              $C$DW$55        .dwtag  DW_TAG_member
     586                      .dwattr $C$DW$55, DW_AT_type(*$C$DW$T$19)
     587                      .dwattr $C$DW$55, DW_AT_name("ADC1")
     588                      .dwattr $C$DW$55, DW_AT_TI_symbol_name("_ADC1")
     589                      .dwattr $C$DW$55, DW_AT_bit_offset(0x0f), DW_AT_bit_size(0x01)
     590                      .dwattr $C$DW$55, DW_AT_data_member_location[DW_OP_plus_uconst 0x0]
     591                      .dwattr $C$DW$55, DW_AT_accessibility(DW_ACCESS_public)
     592              $C$DW$56        .dwtag  DW_TAG_member
     593                      .dwattr $C$DW$56, DW_AT_type(*$C$DW$T$19)
     594                      .dwattr $C$DW$56, DW_AT_name("ADC2")
     595                      .dwattr $C$DW$56, DW_AT_TI_symbol_name("_ADC2")
     596                      .dwattr $C$DW$56, DW_AT_bit_offset(0x0e), DW_AT_bit_size(0x01)
     597                      .dwattr $C$DW$56, DW_AT_data_member_location[DW_OP_plus_uconst 0x0]
     598                      .dwattr $C$DW$56, DW_AT_accessibility(DW_ACCESS_public)
     599              $C$DW$57        .dwtag  DW_TAG_member
     600                      .dwattr $C$DW$57, DW_AT_type(*$C$DW$T$19)
     601                      .dwattr $C$DW$57, DW_AT_name("ADC3")
     602                      .dwattr $C$DW$57, DW_AT_TI_symbol_name("_ADC3")
     603                      .dwattr $C$DW$57, DW_AT_bit_offset(0x0d), DW_AT_bit_size(0x01)
     604                      .dwattr $C$DW$57, DW_AT_data_member_location[DW_OP_plus_uconst 0x0]
     605                      .dwattr $C$DW$57, DW_AT_accessibility(DW_ACCESS_public)
     606              $C$DW$58        .dwtag  DW_TAG_member
     607                      .dwattr $C$DW$58, DW_AT_type(*$C$DW$T$19)
     608                      .dwattr $C$DW$58, DW_AT_name("ADC4")
     609                      .dwattr $C$DW$58, DW_AT_TI_symbol_name("_ADC4")
     610                      .dwattr $C$DW$58, DW_AT_bit_offset(0x0c), DW_AT_bit_size(0x01)
     611                      .dwattr $C$DW$58, DW_AT_data_member_location[DW_OP_plus_uconst 0x0]
     612                      .dwattr $C$DW$58, DW_AT_accessibility(DW_ACCESS_public)
     613              $C$DW$59        .dwtag  DW_TAG_member
     614                      .dwattr $C$DW$59, DW_AT_type(*$C$DW$T$19)
     615                      .dwattr $C$DW$59, DW_AT_name("rsvd1")
     616                      .dwattr $C$DW$59, DW_AT_TI_symbol_name("_rsvd1")
     617                      .dwattr $C$DW$59, DW_AT_bit_offset(0x00), DW_AT_bit_size(0x0c)
     618                      .dwattr $C$DW$59, DW_AT_data_member_location[DW_OP_plus_uconst 0x0]
     619                      .dwattr $C$DW$59, DW_AT_accessibility(DW_ACCESS_public)
     620              $C$DW$60        .dwtag  DW_TAG_member
     621                      .dwattr $C$DW$60, DW_AT_type(*$C$DW$T$19)
     622                      .dwattr $C$DW$60, DW_AT_name("rsvd2")
     623                      .dwattr $C$DW$60, DW_AT_TI_symbol_name("_rsvd2")
     624                      .dwattr $C$DW$60, DW_AT_bit_offset(0x00), DW_AT_bit_size(0x10)
     625                      .dwattr $C$DW$60, DW_AT_data_member_location[DW_OP_plus_uconst 0x1]
     626                      .dwattr $C$DW$60, DW_AT_accessibility(DW_ACCESS_public)
     627                      .dwendtag $C$DW$T$27
     628              
     629              
     630              $C$DW$T$28      .dwtag  DW_TAG_union_type
     631                      .dwattr $C$DW$T$28, DW_AT_name("CPUSEL11_REG")
     632                      .dwattr $C$DW$T$28, DW_AT_byte_size(0x02)
     633              $C$DW$61        .dwtag  DW_TAG_member
     634                      .dwattr $C$DW$61, DW_AT_type(*$C$DW$T$21)
     635                      .dwattr $C$DW$61, DW_AT_name("all")
     636                      .dwattr $C$DW$61, DW_AT_TI_symbol_name("_all")
     637                      .dwattr $C$DW$61, DW_AT_data_member_location[DW_OP_plus_uconst 0x0]
     638                      .dwattr $C$DW$61, DW_AT_accessibility(DW_ACCESS_public)
TMS320C2000 Assembler PC v6.1.3 Thu Jan 30 10:25:22 2014

Tools Copyright (c) 1996-2012 Texas Instruments Incorporated
C:\Users\a0272466\AppData\Local\Temp\0699610                         PAGE   13

     639              $C$DW$62        .dwtag  DW_TAG_member
     640                      .dwattr $C$DW$62, DW_AT_type(*$C$DW$T$27)
     641                      .dwattr $C$DW$62, DW_AT_name("bit")
     642                      .dwattr $C$DW$62, DW_AT_TI_symbol_name("_bit")
     643                      .dwattr $C$DW$62, DW_AT_data_member_location[DW_OP_plus_uconst 0x0]
     644                      .dwattr $C$DW$62, DW_AT_accessibility(DW_ACCESS_public)
     645                      .dwendtag $C$DW$T$28
     646              
     647              
     648              $C$DW$T$29      .dwtag  DW_TAG_structure_type
     649                      .dwattr $C$DW$T$29, DW_AT_name("CPUSEL12_BITS")
     650                      .dwattr $C$DW$T$29, DW_AT_byte_size(0x02)
     651              $C$DW$63        .dwtag  DW_TAG_member
     652                      .dwattr $C$DW$63, DW_AT_type(*$C$DW$T$19)
     653                      .dwattr $C$DW$63, DW_AT_name("CMPSS1")
     654                      .dwattr $C$DW$63, DW_AT_TI_symbol_name("_CMPSS1")
     655                      .dwattr $C$DW$63, DW_AT_bit_offset(0x0f), DW_AT_bit_size(0x01)
     656                      .dwattr $C$DW$63, DW_AT_data_member_location[DW_OP_plus_uconst 0x0]
     657                      .dwattr $C$DW$63, DW_AT_accessibility(DW_ACCESS_public)
     658              $C$DW$64        .dwtag  DW_TAG_member
     659                      .dwattr $C$DW$64, DW_AT_type(*$C$DW$T$19)
     660                      .dwattr $C$DW$64, DW_AT_name("CMPSS2")
     661                      .dwattr $C$DW$64, DW_AT_TI_symbol_name("_CMPSS2")
     662                      .dwattr $C$DW$64, DW_AT_bit_offset(0x0e), DW_AT_bit_size(0x01)
     663                      .dwattr $C$DW$64, DW_AT_data_member_location[DW_OP_plus_uconst 0x0]
     664                      .dwattr $C$DW$64, DW_AT_accessibility(DW_ACCESS_public)
     665              $C$DW$65        .dwtag  DW_TAG_member
     666                      .dwattr $C$DW$65, DW_AT_type(*$C$DW$T$19)
     667                      .dwattr $C$DW$65, DW_AT_name("CMPSS3")
     668                      .dwattr $C$DW$65, DW_AT_TI_symbol_name("_CMPSS3")
     669                      .dwattr $C$DW$65, DW_AT_bit_offset(0x0d), DW_AT_bit_size(0x01)
     670                      .dwattr $C$DW$65, DW_AT_data_member_location[DW_OP_plus_uconst 0x0]
     671                      .dwattr $C$DW$65, DW_AT_accessibility(DW_ACCESS_public)
     672              $C$DW$66        .dwtag  DW_TAG_member
     673                      .dwattr $C$DW$66, DW_AT_type(*$C$DW$T$19)
     674                      .dwattr $C$DW$66, DW_AT_name("CMPSS4")
     675                      .dwattr $C$DW$66, DW_AT_TI_symbol_name("_CMPSS4")
     676                      .dwattr $C$DW$66, DW_AT_bit_offset(0x0c), DW_AT_bit_size(0x01)
     677                      .dwattr $C$DW$66, DW_AT_data_member_location[DW_OP_plus_uconst 0x0]
     678                      .dwattr $C$DW$66, DW_AT_accessibility(DW_ACCESS_public)
     679              $C$DW$67        .dwtag  DW_TAG_member
     680                      .dwattr $C$DW$67, DW_AT_type(*$C$DW$T$19)
     681                      .dwattr $C$DW$67, DW_AT_name("CMPSS5")
     682                      .dwattr $C$DW$67, DW_AT_TI_symbol_name("_CMPSS5")
     683                      .dwattr $C$DW$67, DW_AT_bit_offset(0x0b), DW_AT_bit_size(0x01)
     684                      .dwattr $C$DW$67, DW_AT_data_member_location[DW_OP_plus_uconst 0x0]
     685                      .dwattr $C$DW$67, DW_AT_accessibility(DW_ACCESS_public)
     686              $C$DW$68        .dwtag  DW_TAG_member
     687                      .dwattr $C$DW$68, DW_AT_type(*$C$DW$T$19)
     688                      .dwattr $C$DW$68, DW_AT_name("CMPSS6")
     689                      .dwattr $C$DW$68, DW_AT_TI_symbol_name("_CMPSS6")
     690                      .dwattr $C$DW$68, DW_AT_bit_offset(0x0a), DW_AT_bit_size(0x01)
     691                      .dwattr $C$DW$68, DW_AT_data_member_location[DW_OP_plus_uconst 0x0]
     692                      .dwattr $C$DW$68, DW_AT_accessibility(DW_ACCESS_public)
     693              $C$DW$69        .dwtag  DW_TAG_member
TMS320C2000 Assembler PC v6.1.3 Thu Jan 30 10:25:22 2014

Tools Copyright (c) 1996-2012 Texas Instruments Incorporated
C:\Users\a0272466\AppData\Local\Temp\0699610                         PAGE   14

     694                      .dwattr $C$DW$69, DW_AT_type(*$C$DW$T$19)
     695                      .dwattr $C$DW$69, DW_AT_name("CMPSS7")
     696                      .dwattr $C$DW$69, DW_AT_TI_symbol_name("_CMPSS7")
     697                      .dwattr $C$DW$69, DW_AT_bit_offset(0x09), DW_AT_bit_size(0x01)
     698                      .dwattr $C$DW$69, DW_AT_data_member_location[DW_OP_plus_uconst 0x0]
     699                      .dwattr $C$DW$69, DW_AT_accessibility(DW_ACCESS_public)
     700              $C$DW$70        .dwtag  DW_TAG_member
     701                      .dwattr $C$DW$70, DW_AT_type(*$C$DW$T$19)
     702                      .dwattr $C$DW$70, DW_AT_name("CMPSS8")
     703                      .dwattr $C$DW$70, DW_AT_TI_symbol_name("_CMPSS8")
     704                      .dwattr $C$DW$70, DW_AT_bit_offset(0x08), DW_AT_bit_size(0x01)
     705                      .dwattr $C$DW$70, DW_AT_data_member_location[DW_OP_plus_uconst 0x0]
     706                      .dwattr $C$DW$70, DW_AT_accessibility(DW_ACCESS_public)
     707              $C$DW$71        .dwtag  DW_TAG_member
     708                      .dwattr $C$DW$71, DW_AT_type(*$C$DW$T$19)
     709                      .dwattr $C$DW$71, DW_AT_name("rsvd1")
     710                      .dwattr $C$DW$71, DW_AT_TI_symbol_name("_rsvd1")
     711                      .dwattr $C$DW$71, DW_AT_bit_offset(0x00), DW_AT_bit_size(0x08)
     712                      .dwattr $C$DW$71, DW_AT_data_member_location[DW_OP_plus_uconst 0x0]
     713                      .dwattr $C$DW$71, DW_AT_accessibility(DW_ACCESS_public)
     714              $C$DW$72        .dwtag  DW_TAG_member
     715                      .dwattr $C$DW$72, DW_AT_type(*$C$DW$T$19)
     716                      .dwattr $C$DW$72, DW_AT_name("rsvd2")
     717                      .dwattr $C$DW$72, DW_AT_TI_symbol_name("_rsvd2")
     718                      .dwattr $C$DW$72, DW_AT_bit_offset(0x00), DW_AT_bit_size(0x10)
     719                      .dwattr $C$DW$72, DW_AT_data_member_location[DW_OP_plus_uconst 0x1]
     720                      .dwattr $C$DW$72, DW_AT_accessibility(DW_ACCESS_public)
     721                      .dwendtag $C$DW$T$29
     722              
     723              
     724              $C$DW$T$30      .dwtag  DW_TAG_union_type
     725                      .dwattr $C$DW$T$30, DW_AT_name("CPUSEL12_REG")
     726                      .dwattr $C$DW$T$30, DW_AT_byte_size(0x02)
     727              $C$DW$73        .dwtag  DW_TAG_member
     728                      .dwattr $C$DW$73, DW_AT_type(*$C$DW$T$21)
     729                      .dwattr $C$DW$73, DW_AT_name("all")
     730                      .dwattr $C$DW$73, DW_AT_TI_symbol_name("_all")
     731                      .dwattr $C$DW$73, DW_AT_data_member_location[DW_OP_plus_uconst 0x0]
     732                      .dwattr $C$DW$73, DW_AT_accessibility(DW_ACCESS_public)
     733              $C$DW$74        .dwtag  DW_TAG_member
     734                      .dwattr $C$DW$74, DW_AT_type(*$C$DW$T$29)
     735                      .dwattr $C$DW$74, DW_AT_name("bit")
     736                      .dwattr $C$DW$74, DW_AT_TI_symbol_name("_bit")
     737                      .dwattr $C$DW$74, DW_AT_data_member_location[DW_OP_plus_uconst 0x0]
     738                      .dwattr $C$DW$74, DW_AT_accessibility(DW_ACCESS_public)
     739                      .dwendtag $C$DW$T$30
     740              
     741              
     742              $C$DW$T$31      .dwtag  DW_TAG_structure_type
     743                      .dwattr $C$DW$T$31, DW_AT_name("CPUSEL14_BITS")
     744                      .dwattr $C$DW$T$31, DW_AT_byte_size(0x02)
     745              $C$DW$75        .dwtag  DW_TAG_member
     746                      .dwattr $C$DW$75, DW_AT_type(*$C$DW$T$19)
     747                      .dwattr $C$DW$75, DW_AT_name("rsvd1")
     748                      .dwattr $C$DW$75, DW_AT_TI_symbol_name("_rsvd1")
TMS320C2000 Assembler PC v6.1.3 Thu Jan 30 10:25:22 2014

Tools Copyright (c) 1996-2012 Texas Instruments Incorporated
C:\Users\a0272466\AppData\Local\Temp\0699610                         PAGE   15

     749                      .dwattr $C$DW$75, DW_AT_bit_offset(0x00), DW_AT_bit_size(0x10)
     750                      .dwattr $C$DW$75, DW_AT_data_member_location[DW_OP_plus_uconst 0x0]
     751                      .dwattr $C$DW$75, DW_AT_accessibility(DW_ACCESS_public)
     752              $C$DW$76        .dwtag  DW_TAG_member
     753                      .dwattr $C$DW$76, DW_AT_type(*$C$DW$T$19)
     754                      .dwattr $C$DW$76, DW_AT_name("Buffered_DAC12_1")
     755                      .dwattr $C$DW$76, DW_AT_TI_symbol_name("_Buffered_DAC12_1")
     756                      .dwattr $C$DW$76, DW_AT_bit_offset(0x0f), DW_AT_bit_size(0x01)
     757                      .dwattr $C$DW$76, DW_AT_data_member_location[DW_OP_plus_uconst 0x1]
     758                      .dwattr $C$DW$76, DW_AT_accessibility(DW_ACCESS_public)
     759              $C$DW$77        .dwtag  DW_TAG_member
     760                      .dwattr $C$DW$77, DW_AT_type(*$C$DW$T$19)
     761                      .dwattr $C$DW$77, DW_AT_name("Buffered_DAC12_2")
     762                      .dwattr $C$DW$77, DW_AT_TI_symbol_name("_Buffered_DAC12_2")
     763                      .dwattr $C$DW$77, DW_AT_bit_offset(0x0e), DW_AT_bit_size(0x01)
     764                      .dwattr $C$DW$77, DW_AT_data_member_location[DW_OP_plus_uconst 0x1]
     765                      .dwattr $C$DW$77, DW_AT_accessibility(DW_ACCESS_public)
     766              $C$DW$78        .dwtag  DW_TAG_member
     767                      .dwattr $C$DW$78, DW_AT_type(*$C$DW$T$19)
     768                      .dwattr $C$DW$78, DW_AT_name("Buffered_DAC12_3")
     769                      .dwattr $C$DW$78, DW_AT_TI_symbol_name("_Buffered_DAC12_3")
     770                      .dwattr $C$DW$78, DW_AT_bit_offset(0x0d), DW_AT_bit_size(0x01)
     771                      .dwattr $C$DW$78, DW_AT_data_member_location[DW_OP_plus_uconst 0x1]
     772                      .dwattr $C$DW$78, DW_AT_accessibility(DW_ACCESS_public)
     773              $C$DW$79        .dwtag  DW_TAG_member
     774                      .dwattr $C$DW$79, DW_AT_type(*$C$DW$T$19)
     775                      .dwattr $C$DW$79, DW_AT_name("rsvd2")
     776                      .dwattr $C$DW$79, DW_AT_TI_symbol_name("_rsvd2")
     777                      .dwattr $C$DW$79, DW_AT_bit_offset(0x00), DW_AT_bit_size(0x0d)
     778                      .dwattr $C$DW$79, DW_AT_data_member_location[DW_OP_plus_uconst 0x1]
     779                      .dwattr $C$DW$79, DW_AT_accessibility(DW_ACCESS_public)
     780                      .dwendtag $C$DW$T$31
     781              
     782              
     783              $C$DW$T$32      .dwtag  DW_TAG_union_type
     784                      .dwattr $C$DW$T$32, DW_AT_name("CPUSEL14_REG")
     785                      .dwattr $C$DW$T$32, DW_AT_byte_size(0x02)
     786              $C$DW$80        .dwtag  DW_TAG_member
     787                      .dwattr $C$DW$80, DW_AT_type(*$C$DW$T$21)
     788                      .dwattr $C$DW$80, DW_AT_name("all")
     789                      .dwattr $C$DW$80, DW_AT_TI_symbol_name("_all")
     790                      .dwattr $C$DW$80, DW_AT_data_member_location[DW_OP_plus_uconst 0x0]
     791                      .dwattr $C$DW$80, DW_AT_accessibility(DW_ACCESS_public)
     792              $C$DW$81        .dwtag  DW_TAG_member
     793                      .dwattr $C$DW$81, DW_AT_type(*$C$DW$T$31)
     794                      .dwattr $C$DW$81, DW_AT_name("bit")
     795                      .dwattr $C$DW$81, DW_AT_TI_symbol_name("_bit")
     796                      .dwattr $C$DW$81, DW_AT_data_member_location[DW_OP_plus_uconst 0x0]
     797                      .dwattr $C$DW$81, DW_AT_accessibility(DW_ACCESS_public)
     798                      .dwendtag $C$DW$T$32
     799              
     800              
     801              $C$DW$T$33      .dwtag  DW_TAG_structure_type
     802                      .dwattr $C$DW$T$33, DW_AT_name("CPUSEL1_BITS")
     803                      .dwattr $C$DW$T$33, DW_AT_byte_size(0x02)
TMS320C2000 Assembler PC v6.1.3 Thu Jan 30 10:25:22 2014

Tools Copyright (c) 1996-2012 Texas Instruments Incorporated
C:\Users\a0272466\AppData\Local\Temp\0699610                         PAGE   16

     804              $C$DW$82        .dwtag  DW_TAG_member
     805                      .dwattr $C$DW$82, DW_AT_type(*$C$DW$T$19)
     806                      .dwattr $C$DW$82, DW_AT_name("ECAP1")
     807                      .dwattr $C$DW$82, DW_AT_TI_symbol_name("_ECAP1")
     808                      .dwattr $C$DW$82, DW_AT_bit_offset(0x0f), DW_AT_bit_size(0x01)
     809                      .dwattr $C$DW$82, DW_AT_data_member_location[DW_OP_plus_uconst 0x0]
     810                      .dwattr $C$DW$82, DW_AT_accessibility(DW_ACCESS_public)
     811              $C$DW$83        .dwtag  DW_TAG_member
     812                      .dwattr $C$DW$83, DW_AT_type(*$C$DW$T$19)
     813                      .dwattr $C$DW$83, DW_AT_name("ECAP2")
     814                      .dwattr $C$DW$83, DW_AT_TI_symbol_name("_ECAP2")
     815                      .dwattr $C$DW$83, DW_AT_bit_offset(0x0e), DW_AT_bit_size(0x01)
     816                      .dwattr $C$DW$83, DW_AT_data_member_location[DW_OP_plus_uconst 0x0]
     817                      .dwattr $C$DW$83, DW_AT_accessibility(DW_ACCESS_public)
     818              $C$DW$84        .dwtag  DW_TAG_member
     819                      .dwattr $C$DW$84, DW_AT_type(*$C$DW$T$19)
     820                      .dwattr $C$DW$84, DW_AT_name("ECAP3")
     821                      .dwattr $C$DW$84, DW_AT_TI_symbol_name("_ECAP3")
     822                      .dwattr $C$DW$84, DW_AT_bit_offset(0x0d), DW_AT_bit_size(0x01)
     823                      .dwattr $C$DW$84, DW_AT_data_member_location[DW_OP_plus_uconst 0x0]
     824                      .dwattr $C$DW$84, DW_AT_accessibility(DW_ACCESS_public)
     825              $C$DW$85        .dwtag  DW_TAG_member
     826                      .dwattr $C$DW$85, DW_AT_type(*$C$DW$T$19)
     827                      .dwattr $C$DW$85, DW_AT_name("ECAP4")
     828                      .dwattr $C$DW$85, DW_AT_TI_symbol_name("_ECAP4")
     829                      .dwattr $C$DW$85, DW_AT_bit_offset(0x0c), DW_AT_bit_size(0x01)
     830                      .dwattr $C$DW$85, DW_AT_data_member_location[DW_OP_plus_uconst 0x0]
     831                      .dwattr $C$DW$85, DW_AT_accessibility(DW_ACCESS_public)
     832              $C$DW$86        .dwtag  DW_TAG_member
     833                      .dwattr $C$DW$86, DW_AT_type(*$C$DW$T$19)
     834                      .dwattr $C$DW$86, DW_AT_name("ECAP5")
     835                      .dwattr $C$DW$86, DW_AT_TI_symbol_name("_ECAP5")
     836                      .dwattr $C$DW$86, DW_AT_bit_offset(0x0b), DW_AT_bit_size(0x01)
     837                      .dwattr $C$DW$86, DW_AT_data_member_location[DW_OP_plus_uconst 0x0]
     838                      .dwattr $C$DW$86, DW_AT_accessibility(DW_ACCESS_public)
     839              $C$DW$87        .dwtag  DW_TAG_member
     840                      .dwattr $C$DW$87, DW_AT_type(*$C$DW$T$19)
     841                      .dwattr $C$DW$87, DW_AT_name("ECAP6")
     842                      .dwattr $C$DW$87, DW_AT_TI_symbol_name("_ECAP6")
     843                      .dwattr $C$DW$87, DW_AT_bit_offset(0x0a), DW_AT_bit_size(0x01)
     844                      .dwattr $C$DW$87, DW_AT_data_member_location[DW_OP_plus_uconst 0x0]
     845                      .dwattr $C$DW$87, DW_AT_accessibility(DW_ACCESS_public)
     846              $C$DW$88        .dwtag  DW_TAG_member
     847                      .dwattr $C$DW$88, DW_AT_type(*$C$DW$T$19)
     848                      .dwattr $C$DW$88, DW_AT_name("rsvd1")
     849                      .dwattr $C$DW$88, DW_AT_TI_symbol_name("_rsvd1")
     850                      .dwattr $C$DW$88, DW_AT_bit_offset(0x00), DW_AT_bit_size(0x0a)
     851                      .dwattr $C$DW$88, DW_AT_data_member_location[DW_OP_plus_uconst 0x0]
     852                      .dwattr $C$DW$88, DW_AT_accessibility(DW_ACCESS_public)
     853              $C$DW$89        .dwtag  DW_TAG_member
     854                      .dwattr $C$DW$89, DW_AT_type(*$C$DW$T$19)
     855                      .dwattr $C$DW$89, DW_AT_name("rsvd2")
     856                      .dwattr $C$DW$89, DW_AT_TI_symbol_name("_rsvd2")
     857                      .dwattr $C$DW$89, DW_AT_bit_offset(0x00), DW_AT_bit_size(0x10)
     858                      .dwattr $C$DW$89, DW_AT_data_member_location[DW_OP_plus_uconst 0x1]
TMS320C2000 Assembler PC v6.1.3 Thu Jan 30 10:25:22 2014

Tools Copyright (c) 1996-2012 Texas Instruments Incorporated
C:\Users\a0272466\AppData\Local\Temp\0699610                         PAGE   17

     859                      .dwattr $C$DW$89, DW_AT_accessibility(DW_ACCESS_public)
     860                      .dwendtag $C$DW$T$33
     861              
     862              
     863              $C$DW$T$34      .dwtag  DW_TAG_union_type
     864                      .dwattr $C$DW$T$34, DW_AT_name("CPUSEL1_REG")
     865                      .dwattr $C$DW$T$34, DW_AT_byte_size(0x02)
     866              $C$DW$90        .dwtag  DW_TAG_member
     867                      .dwattr $C$DW$90, DW_AT_type(*$C$DW$T$21)
     868                      .dwattr $C$DW$90, DW_AT_name("all")
     869                      .dwattr $C$DW$90, DW_AT_TI_symbol_name("_all")
     870                      .dwattr $C$DW$90, DW_AT_data_member_location[DW_OP_plus_uconst 0x0]
     871                      .dwattr $C$DW$90, DW_AT_accessibility(DW_ACCESS_public)
     872              $C$DW$91        .dwtag  DW_TAG_member
     873                      .dwattr $C$DW$91, DW_AT_type(*$C$DW$T$33)
     874                      .dwattr $C$DW$91, DW_AT_name("bit")
     875                      .dwattr $C$DW$91, DW_AT_TI_symbol_name("_bit")
     876                      .dwattr $C$DW$91, DW_AT_data_member_location[DW_OP_plus_uconst 0x0]
     877                      .dwattr $C$DW$91, DW_AT_accessibility(DW_ACCESS_public)
     878                      .dwendtag $C$DW$T$34
     879              
     880              
     881              $C$DW$T$35      .dwtag  DW_TAG_structure_type
     882                      .dwattr $C$DW$T$35, DW_AT_name("CPUSEL2_BITS")
     883                      .dwattr $C$DW$T$35, DW_AT_byte_size(0x02)
     884              $C$DW$92        .dwtag  DW_TAG_member
     885                      .dwattr $C$DW$92, DW_AT_type(*$C$DW$T$19)
     886                      .dwattr $C$DW$92, DW_AT_name("EQEP1")
     887                      .dwattr $C$DW$92, DW_AT_TI_symbol_name("_EQEP1")
     888                      .dwattr $C$DW$92, DW_AT_bit_offset(0x0f), DW_AT_bit_size(0x01)
     889                      .dwattr $C$DW$92, DW_AT_data_member_location[DW_OP_plus_uconst 0x0]
     890                      .dwattr $C$DW$92, DW_AT_accessibility(DW_ACCESS_public)
     891              $C$DW$93        .dwtag  DW_TAG_member
     892                      .dwattr $C$DW$93, DW_AT_type(*$C$DW$T$19)
     893                      .dwattr $C$DW$93, DW_AT_name("EQEP2")
     894                      .dwattr $C$DW$93, DW_AT_TI_symbol_name("_EQEP2")
     895                      .dwattr $C$DW$93, DW_AT_bit_offset(0x0e), DW_AT_bit_size(0x01)
     896                      .dwattr $C$DW$93, DW_AT_data_member_location[DW_OP_plus_uconst 0x0]
     897                      .dwattr $C$DW$93, DW_AT_accessibility(DW_ACCESS_public)
     898              $C$DW$94        .dwtag  DW_TAG_member
     899                      .dwattr $C$DW$94, DW_AT_type(*$C$DW$T$19)
     900                      .dwattr $C$DW$94, DW_AT_name("EQEP3")
     901                      .dwattr $C$DW$94, DW_AT_TI_symbol_name("_EQEP3")
     902                      .dwattr $C$DW$94, DW_AT_bit_offset(0x0d), DW_AT_bit_size(0x01)
     903                      .dwattr $C$DW$94, DW_AT_data_member_location[DW_OP_plus_uconst 0x0]
     904                      .dwattr $C$DW$94, DW_AT_accessibility(DW_ACCESS_public)
     905              $C$DW$95        .dwtag  DW_TAG_member
     906                      .dwattr $C$DW$95, DW_AT_type(*$C$DW$T$19)
     907                      .dwattr $C$DW$95, DW_AT_name("rsvd1")
     908                      .dwattr $C$DW$95, DW_AT_TI_symbol_name("_rsvd1")
     909                      .dwattr $C$DW$95, DW_AT_bit_offset(0x00), DW_AT_bit_size(0x0d)
     910                      .dwattr $C$DW$95, DW_AT_data_member_location[DW_OP_plus_uconst 0x0]
     911                      .dwattr $C$DW$95, DW_AT_accessibility(DW_ACCESS_public)
     912              $C$DW$96        .dwtag  DW_TAG_member
     913                      .dwattr $C$DW$96, DW_AT_type(*$C$DW$T$19)
TMS320C2000 Assembler PC v6.1.3 Thu Jan 30 10:25:22 2014

Tools Copyright (c) 1996-2012 Texas Instruments Incorporated
C:\Users\a0272466\AppData\Local\Temp\0699610                         PAGE   18

     914                      .dwattr $C$DW$96, DW_AT_name("rsvd2")
     915                      .dwattr $C$DW$96, DW_AT_TI_symbol_name("_rsvd2")
     916                      .dwattr $C$DW$96, DW_AT_bit_offset(0x00), DW_AT_bit_size(0x10)
     917                      .dwattr $C$DW$96, DW_AT_data_member_location[DW_OP_plus_uconst 0x1]
     918                      .dwattr $C$DW$96, DW_AT_accessibility(DW_ACCESS_public)
     919                      .dwendtag $C$DW$T$35
     920              
     921              
     922              $C$DW$T$36      .dwtag  DW_TAG_union_type
     923                      .dwattr $C$DW$T$36, DW_AT_name("CPUSEL2_REG")
     924                      .dwattr $C$DW$T$36, DW_AT_byte_size(0x02)
     925              $C$DW$97        .dwtag  DW_TAG_member
     926                      .dwattr $C$DW$97, DW_AT_type(*$C$DW$T$21)
     927                      .dwattr $C$DW$97, DW_AT_name("all")
     928                      .dwattr $C$DW$97, DW_AT_TI_symbol_name("_all")
     929                      .dwattr $C$DW$97, DW_AT_data_member_location[DW_OP_plus_uconst 0x0]
     930                      .dwattr $C$DW$97, DW_AT_accessibility(DW_ACCESS_public)
     931              $C$DW$98        .dwtag  DW_TAG_member
     932                      .dwattr $C$DW$98, DW_AT_type(*$C$DW$T$35)
     933                      .dwattr $C$DW$98, DW_AT_name("bit")
     934                      .dwattr $C$DW$98, DW_AT_TI_symbol_name("_bit")
     935                      .dwattr $C$DW$98, DW_AT_data_member_location[DW_OP_plus_uconst 0x0]
     936                      .dwattr $C$DW$98, DW_AT_accessibility(DW_ACCESS_public)
     937                      .dwendtag $C$DW$T$36
     938              
     939              
     940              $C$DW$T$37      .dwtag  DW_TAG_structure_type
     941                      .dwattr $C$DW$T$37, DW_AT_name("CPUSEL3_BITS")
     942                      .dwattr $C$DW$T$37, DW_AT_byte_size(0x02)
     943              $C$DW$99        .dwtag  DW_TAG_member
     944                      .dwattr $C$DW$99, DW_AT_type(*$C$DW$T$19)
     945                      .dwattr $C$DW$99, DW_AT_name("rsvd1")
     946                      .dwattr $C$DW$99, DW_AT_TI_symbol_name("_rsvd1")
     947                      .dwattr $C$DW$99, DW_AT_bit_offset(0x00), DW_AT_bit_size(0x10)
     948                      .dwattr $C$DW$99, DW_AT_data_member_location[DW_OP_plus_uconst 0x0]
     949                      .dwattr $C$DW$99, DW_AT_accessibility(DW_ACCESS_public)
     950              $C$DW$100       .dwtag  DW_TAG_member
     951                      .dwattr $C$DW$100, DW_AT_type(*$C$DW$T$19)
     952                      .dwattr $C$DW$100, DW_AT_name("rsvd2")
     953                      .dwattr $C$DW$100, DW_AT_TI_symbol_name("_rsvd2")
     954                      .dwattr $C$DW$100, DW_AT_bit_offset(0x00), DW_AT_bit_size(0x10)
     955                      .dwattr $C$DW$100, DW_AT_data_member_location[DW_OP_plus_uconst 0x1]
     956                      .dwattr $C$DW$100, DW_AT_accessibility(DW_ACCESS_public)
     957                      .dwendtag $C$DW$T$37
     958              
     959              
     960              $C$DW$T$38      .dwtag  DW_TAG_union_type
     961                      .dwattr $C$DW$T$38, DW_AT_name("CPUSEL3_REG")
     962                      .dwattr $C$DW$T$38, DW_AT_byte_size(0x02)
     963              $C$DW$101       .dwtag  DW_TAG_member
     964                      .dwattr $C$DW$101, DW_AT_type(*$C$DW$T$21)
     965                      .dwattr $C$DW$101, DW_AT_name("all")
     966                      .dwattr $C$DW$101, DW_AT_TI_symbol_name("_all")
     967                      .dwattr $C$DW$101, DW_AT_data_member_location[DW_OP_plus_uconst 0x0]
     968                      .dwattr $C$DW$101, DW_AT_accessibility(DW_ACCESS_public)
TMS320C2000 Assembler PC v6.1.3 Thu Jan 30 10:25:22 2014

Tools Copyright (c) 1996-2012 Texas Instruments Incorporated
C:\Users\a0272466\AppData\Local\Temp\0699610                         PAGE   19

     969              $C$DW$102       .dwtag  DW_TAG_member
     970                      .dwattr $C$DW$102, DW_AT_type(*$C$DW$T$37)
     971                      .dwattr $C$DW$102, DW_AT_name("bit")
     972                      .dwattr $C$DW$102, DW_AT_TI_symbol_name("_bit")
     973                      .dwattr $C$DW$102, DW_AT_data_member_location[DW_OP_plus_uconst 0x0]
     974                      .dwattr $C$DW$102, DW_AT_accessibility(DW_ACCESS_public)
     975                      .dwendtag $C$DW$T$38
     976              
     977              
     978              $C$DW$T$39      .dwtag  DW_TAG_structure_type
     979                      .dwattr $C$DW$T$39, DW_AT_name("CPUSEL4_BITS")
     980                      .dwattr $C$DW$T$39, DW_AT_byte_size(0x02)
     981              $C$DW$103       .dwtag  DW_TAG_member
     982                      .dwattr $C$DW$103, DW_AT_type(*$C$DW$T$19)
     983                      .dwattr $C$DW$103, DW_AT_name("SD1")
     984                      .dwattr $C$DW$103, DW_AT_TI_symbol_name("_SD1")
     985                      .dwattr $C$DW$103, DW_AT_bit_offset(0x0f), DW_AT_bit_size(0x01)
     986                      .dwattr $C$DW$103, DW_AT_data_member_location[DW_OP_plus_uconst 0x0]
     987                      .dwattr $C$DW$103, DW_AT_accessibility(DW_ACCESS_public)
     988              $C$DW$104       .dwtag  DW_TAG_member
     989                      .dwattr $C$DW$104, DW_AT_type(*$C$DW$T$19)
     990                      .dwattr $C$DW$104, DW_AT_name("SD2")
     991                      .dwattr $C$DW$104, DW_AT_TI_symbol_name("_SD2")
     992                      .dwattr $C$DW$104, DW_AT_bit_offset(0x0e), DW_AT_bit_size(0x01)
     993                      .dwattr $C$DW$104, DW_AT_data_member_location[DW_OP_plus_uconst 0x0]
     994                      .dwattr $C$DW$104, DW_AT_accessibility(DW_ACCESS_public)
     995              $C$DW$105       .dwtag  DW_TAG_member
     996                      .dwattr $C$DW$105, DW_AT_type(*$C$DW$T$19)
     997                      .dwattr $C$DW$105, DW_AT_name("rsvd1")
     998                      .dwattr $C$DW$105, DW_AT_TI_symbol_name("_rsvd1")
     999                      .dwattr $C$DW$105, DW_AT_bit_offset(0x00), DW_AT_bit_size(0x0e)
    1000                      .dwattr $C$DW$105, DW_AT_data_member_location[DW_OP_plus_uconst 0x0]
    1001                      .dwattr $C$DW$105, DW_AT_accessibility(DW_ACCESS_public)
    1002              $C$DW$106       .dwtag  DW_TAG_member
    1003                      .dwattr $C$DW$106, DW_AT_type(*$C$DW$T$19)
    1004                      .dwattr $C$DW$106, DW_AT_name("rsvd2")
    1005                      .dwattr $C$DW$106, DW_AT_TI_symbol_name("_rsvd2")
    1006                      .dwattr $C$DW$106, DW_AT_bit_offset(0x00), DW_AT_bit_size(0x10)
    1007                      .dwattr $C$DW$106, DW_AT_data_member_location[DW_OP_plus_uconst 0x1]
    1008                      .dwattr $C$DW$106, DW_AT_accessibility(DW_ACCESS_public)
    1009                      .dwendtag $C$DW$T$39
    1010              
    1011              
    1012              $C$DW$T$40      .dwtag  DW_TAG_union_type
    1013                      .dwattr $C$DW$T$40, DW_AT_name("CPUSEL4_REG")
    1014                      .dwattr $C$DW$T$40, DW_AT_byte_size(0x02)
    1015              $C$DW$107       .dwtag  DW_TAG_member
    1016                      .dwattr $C$DW$107, DW_AT_type(*$C$DW$T$21)
    1017                      .dwattr $C$DW$107, DW_AT_name("all")
    1018                      .dwattr $C$DW$107, DW_AT_TI_symbol_name("_all")
    1019                      .dwattr $C$DW$107, DW_AT_data_member_location[DW_OP_plus_uconst 0x0]
    1020                      .dwattr $C$DW$107, DW_AT_accessibility(DW_ACCESS_public)
    1021              $C$DW$108       .dwtag  DW_TAG_member
    1022                      .dwattr $C$DW$108, DW_AT_type(*$C$DW$T$39)
    1023                      .dwattr $C$DW$108, DW_AT_name("bit")
TMS320C2000 Assembler PC v6.1.3 Thu Jan 30 10:25:22 2014

Tools Copyright (c) 1996-2012 Texas Instruments Incorporated
C:\Users\a0272466\AppData\Local\Temp\0699610                         PAGE   20

    1024                      .dwattr $C$DW$108, DW_AT_TI_symbol_name("_bit")
    1025                      .dwattr $C$DW$108, DW_AT_data_member_location[DW_OP_plus_uconst 0x0]
    1026                      .dwattr $C$DW$108, DW_AT_accessibility(DW_ACCESS_public)
    1027                      .dwendtag $C$DW$T$40
    1028              
    1029              
    1030              $C$DW$T$41      .dwtag  DW_TAG_structure_type
    1031                      .dwattr $C$DW$T$41, DW_AT_name("CPUSEL5_BITS")
    1032                      .dwattr $C$DW$T$41, DW_AT_byte_size(0x02)
    1033              $C$DW$109       .dwtag  DW_TAG_member
    1034                      .dwattr $C$DW$109, DW_AT_type(*$C$DW$T$19)
    1035                      .dwattr $C$DW$109, DW_AT_name("SCI_A")
    1036                      .dwattr $C$DW$109, DW_AT_TI_symbol_name("_SCI_A")
    1037                      .dwattr $C$DW$109, DW_AT_bit_offset(0x0f), DW_AT_bit_size(0x01)
    1038                      .dwattr $C$DW$109, DW_AT_data_member_location[DW_OP_plus_uconst 0x0]
    1039                      .dwattr $C$DW$109, DW_AT_accessibility(DW_ACCESS_public)
    1040              $C$DW$110       .dwtag  DW_TAG_member
    1041                      .dwattr $C$DW$110, DW_AT_type(*$C$DW$T$19)
    1042                      .dwattr $C$DW$110, DW_AT_name("SCI_B")
    1043                      .dwattr $C$DW$110, DW_AT_TI_symbol_name("_SCI_B")
    1044                      .dwattr $C$DW$110, DW_AT_bit_offset(0x0e), DW_AT_bit_size(0x01)
    1045                      .dwattr $C$DW$110, DW_AT_data_member_location[DW_OP_plus_uconst 0x0]
    1046                      .dwattr $C$DW$110, DW_AT_accessibility(DW_ACCESS_public)
    1047              $C$DW$111       .dwtag  DW_TAG_member
    1048                      .dwattr $C$DW$111, DW_AT_type(*$C$DW$T$19)
    1049                      .dwattr $C$DW$111, DW_AT_name("SCI_C")
    1050                      .dwattr $C$DW$111, DW_AT_TI_symbol_name("_SCI_C")
    1051                      .dwattr $C$DW$111, DW_AT_bit_offset(0x0d), DW_AT_bit_size(0x01)
    1052                      .dwattr $C$DW$111, DW_AT_data_member_location[DW_OP_plus_uconst 0x0]
    1053                      .dwattr $C$DW$111, DW_AT_accessibility(DW_ACCESS_public)
    1054              $C$DW$112       .dwtag  DW_TAG_member
    1055                      .dwattr $C$DW$112, DW_AT_type(*$C$DW$T$19)
    1056                      .dwattr $C$DW$112, DW_AT_name("SCI_D")
    1057                      .dwattr $C$DW$112, DW_AT_TI_symbol_name("_SCI_D")
    1058                      .dwattr $C$DW$112, DW_AT_bit_offset(0x0c), DW_AT_bit_size(0x01)
    1059                      .dwattr $C$DW$112, DW_AT_data_member_location[DW_OP_plus_uconst 0x0]
    1060                      .dwattr $C$DW$112, DW_AT_accessibility(DW_ACCESS_public)
    1061              $C$DW$113       .dwtag  DW_TAG_member
    1062                      .dwattr $C$DW$113, DW_AT_type(*$C$DW$T$19)
    1063                      .dwattr $C$DW$113, DW_AT_name("rsvd1")
    1064                      .dwattr $C$DW$113, DW_AT_TI_symbol_name("_rsvd1")
    1065                      .dwattr $C$DW$113, DW_AT_bit_offset(0x00), DW_AT_bit_size(0x0c)
    1066                      .dwattr $C$DW$113, DW_AT_data_member_location[DW_OP_plus_uconst 0x0]
    1067                      .dwattr $C$DW$113, DW_AT_accessibility(DW_ACCESS_public)
    1068              $C$DW$114       .dwtag  DW_TAG_member
    1069                      .dwattr $C$DW$114, DW_AT_type(*$C$DW$T$19)
    1070                      .dwattr $C$DW$114, DW_AT_name("rsvd2")
    1071                      .dwattr $C$DW$114, DW_AT_TI_symbol_name("_rsvd2")
    1072                      .dwattr $C$DW$114, DW_AT_bit_offset(0x00), DW_AT_bit_size(0x10)
    1073                      .dwattr $C$DW$114, DW_AT_data_member_location[DW_OP_plus_uconst 0x1]
    1074                      .dwattr $C$DW$114, DW_AT_accessibility(DW_ACCESS_public)
    1075                      .dwendtag $C$DW$T$41
    1076              
    1077              
    1078              $C$DW$T$42      .dwtag  DW_TAG_union_type
TMS320C2000 Assembler PC v6.1.3 Thu Jan 30 10:25:22 2014

Tools Copyright (c) 1996-2012 Texas Instruments Incorporated
C:\Users\a0272466\AppData\Local\Temp\0699610                         PAGE   21

    1079                      .dwattr $C$DW$T$42, DW_AT_name("CPUSEL5_REG")
    1080                      .dwattr $C$DW$T$42, DW_AT_byte_size(0x02)
    1081              $C$DW$115       .dwtag  DW_TAG_member
    1082                      .dwattr $C$DW$115, DW_AT_type(*$C$DW$T$21)
    1083                      .dwattr $C$DW$115, DW_AT_name("all")
    1084                      .dwattr $C$DW$115, DW_AT_TI_symbol_name("_all")
    1085                      .dwattr $C$DW$115, DW_AT_data_member_location[DW_OP_plus_uconst 0x0]
    1086                      .dwattr $C$DW$115, DW_AT_accessibility(DW_ACCESS_public)
    1087              $C$DW$116       .dwtag  DW_TAG_member
    1088                      .dwattr $C$DW$116, DW_AT_type(*$C$DW$T$41)
    1089                      .dwattr $C$DW$116, DW_AT_name("bit")
    1090                      .dwattr $C$DW$116, DW_AT_TI_symbol_name("_bit")
    1091                      .dwattr $C$DW$116, DW_AT_data_member_location[DW_OP_plus_uconst 0x0]
    1092                      .dwattr $C$DW$116, DW_AT_accessibility(DW_ACCESS_public)
    1093                      .dwendtag $C$DW$T$42
    1094              
    1095              
    1096              $C$DW$T$43      .dwtag  DW_TAG_structure_type
    1097                      .dwattr $C$DW$T$43, DW_AT_name("CPUSEL6_BITS")
    1098                      .dwattr $C$DW$T$43, DW_AT_byte_size(0x02)
    1099              $C$DW$117       .dwtag  DW_TAG_member
    1100                      .dwattr $C$DW$117, DW_AT_type(*$C$DW$T$19)
    1101                      .dwattr $C$DW$117, DW_AT_name("SPI_A")
    1102                      .dwattr $C$DW$117, DW_AT_TI_symbol_name("_SPI_A")
    1103                      .dwattr $C$DW$117, DW_AT_bit_offset(0x0f), DW_AT_bit_size(0x01)
    1104                      .dwattr $C$DW$117, DW_AT_data_member_location[DW_OP_plus_uconst 0x0]
    1105                      .dwattr $C$DW$117, DW_AT_accessibility(DW_ACCESS_public)
    1106              $C$DW$118       .dwtag  DW_TAG_member
    1107                      .dwattr $C$DW$118, DW_AT_type(*$C$DW$T$19)
    1108                      .dwattr $C$DW$118, DW_AT_name("SPI_B")
    1109                      .dwattr $C$DW$118, DW_AT_TI_symbol_name("_SPI_B")
    1110                      .dwattr $C$DW$118, DW_AT_bit_offset(0x0e), DW_AT_bit_size(0x01)
    1111                      .dwattr $C$DW$118, DW_AT_data_member_location[DW_OP_plus_uconst 0x0]
    1112                      .dwattr $C$DW$118, DW_AT_accessibility(DW_ACCESS_public)
    1113              $C$DW$119       .dwtag  DW_TAG_member
    1114                      .dwattr $C$DW$119, DW_AT_type(*$C$DW$T$19)
    1115                      .dwattr $C$DW$119, DW_AT_name("SPI_C")
    1116                      .dwattr $C$DW$119, DW_AT_TI_symbol_name("_SPI_C")
    1117                      .dwattr $C$DW$119, DW_AT_bit_offset(0x0d), DW_AT_bit_size(0x01)
    1118                      .dwattr $C$DW$119, DW_AT_data_member_location[DW_OP_plus_uconst 0x0]
    1119                      .dwattr $C$DW$119, DW_AT_accessibility(DW_ACCESS_public)
    1120              $C$DW$120       .dwtag  DW_TAG_member
    1121                      .dwattr $C$DW$120, DW_AT_type(*$C$DW$T$19)
    1122                      .dwattr $C$DW$120, DW_AT_name("rsvd1")
    1123                      .dwattr $C$DW$120, DW_AT_TI_symbol_name("_rsvd1")
    1124                      .dwattr $C$DW$120, DW_AT_bit_offset(0x00), DW_AT_bit_size(0x0d)
    1125                      .dwattr $C$DW$120, DW_AT_data_member_location[DW_OP_plus_uconst 0x0]
    1126                      .dwattr $C$DW$120, DW_AT_accessibility(DW_ACCESS_public)
    1127              $C$DW$121       .dwtag  DW_TAG_member
    1128                      .dwattr $C$DW$121, DW_AT_type(*$C$DW$T$19)
    1129                      .dwattr $C$DW$121, DW_AT_name("rsvd2")
    1130                      .dwattr $C$DW$121, DW_AT_TI_symbol_name("_rsvd2")
    1131                      .dwattr $C$DW$121, DW_AT_bit_offset(0x00), DW_AT_bit_size(0x10)
    1132                      .dwattr $C$DW$121, DW_AT_data_member_location[DW_OP_plus_uconst 0x1]
    1133                      .dwattr $C$DW$121, DW_AT_accessibility(DW_ACCESS_public)
TMS320C2000 Assembler PC v6.1.3 Thu Jan 30 10:25:22 2014

Tools Copyright (c) 1996-2012 Texas Instruments Incorporated
C:\Users\a0272466\AppData\Local\Temp\0699610                         PAGE   22

    1134                      .dwendtag $C$DW$T$43
    1135              
    1136              
    1137              $C$DW$T$44      .dwtag  DW_TAG_union_type
    1138                      .dwattr $C$DW$T$44, DW_AT_name("CPUSEL6_REG")
    1139                      .dwattr $C$DW$T$44, DW_AT_byte_size(0x02)
    1140              $C$DW$122       .dwtag  DW_TAG_member
    1141                      .dwattr $C$DW$122, DW_AT_type(*$C$DW$T$21)
    1142                      .dwattr $C$DW$122, DW_AT_name("all")
    1143                      .dwattr $C$DW$122, DW_AT_TI_symbol_name("_all")
    1144                      .dwattr $C$DW$122, DW_AT_data_member_location[DW_OP_plus_uconst 0x0]
    1145                      .dwattr $C$DW$122, DW_AT_accessibility(DW_ACCESS_public)
    1146              $C$DW$123       .dwtag  DW_TAG_member
    1147                      .dwattr $C$DW$123, DW_AT_type(*$C$DW$T$43)
    1148                      .dwattr $C$DW$123, DW_AT_name("bit")
    1149                      .dwattr $C$DW$123, DW_AT_TI_symbol_name("_bit")
    1150                      .dwattr $C$DW$123, DW_AT_data_member_location[DW_OP_plus_uconst 0x0]
    1151                      .dwattr $C$DW$123, DW_AT_accessibility(DW_ACCESS_public)
    1152                      .dwendtag $C$DW$T$44
    1153              
    1154              
    1155              $C$DW$T$45      .dwtag  DW_TAG_structure_type
    1156                      .dwattr $C$DW$T$45, DW_AT_name("CPUSEL7_BITS")
    1157                      .dwattr $C$DW$T$45, DW_AT_byte_size(0x02)
    1158              $C$DW$124       .dwtag  DW_TAG_member
    1159                      .dwattr $C$DW$124, DW_AT_type(*$C$DW$T$19)
    1160                      .dwattr $C$DW$124, DW_AT_name("I2C_A")
    1161                      .dwattr $C$DW$124, DW_AT_TI_symbol_name("_I2C_A")
    1162                      .dwattr $C$DW$124, DW_AT_bit_offset(0x0f), DW_AT_bit_size(0x01)
    1163                      .dwattr $C$DW$124, DW_AT_data_member_location[DW_OP_plus_uconst 0x0]
    1164                      .dwattr $C$DW$124, DW_AT_accessibility(DW_ACCESS_public)
    1165              $C$DW$125       .dwtag  DW_TAG_member
    1166                      .dwattr $C$DW$125, DW_AT_type(*$C$DW$T$19)
    1167                      .dwattr $C$DW$125, DW_AT_name("I2C_B")
    1168                      .dwattr $C$DW$125, DW_AT_TI_symbol_name("_I2C_B")
    1169                      .dwattr $C$DW$125, DW_AT_bit_offset(0x0e), DW_AT_bit_size(0x01)
    1170                      .dwattr $C$DW$125, DW_AT_data_member_location[DW_OP_plus_uconst 0x0]
    1171                      .dwattr $C$DW$125, DW_AT_accessibility(DW_ACCESS_public)
    1172              $C$DW$126       .dwtag  DW_TAG_member
    1173                      .dwattr $C$DW$126, DW_AT_type(*$C$DW$T$19)
    1174                      .dwattr $C$DW$126, DW_AT_name("rsvd1")
    1175                      .dwattr $C$DW$126, DW_AT_TI_symbol_name("_rsvd1")
    1176                      .dwattr $C$DW$126, DW_AT_bit_offset(0x00), DW_AT_bit_size(0x0e)
    1177                      .dwattr $C$DW$126, DW_AT_data_member_location[DW_OP_plus_uconst 0x0]
    1178                      .dwattr $C$DW$126, DW_AT_accessibility(DW_ACCESS_public)
    1179              $C$DW$127       .dwtag  DW_TAG_member
    1180                      .dwattr $C$DW$127, DW_AT_type(*$C$DW$T$19)
    1181                      .dwattr $C$DW$127, DW_AT_name("rsvd2")
    1182                      .dwattr $C$DW$127, DW_AT_TI_symbol_name("_rsvd2")
    1183                      .dwattr $C$DW$127, DW_AT_bit_offset(0x00), DW_AT_bit_size(0x10)
    1184                      .dwattr $C$DW$127, DW_AT_data_member_location[DW_OP_plus_uconst 0x1]
    1185                      .dwattr $C$DW$127, DW_AT_accessibility(DW_ACCESS_public)
    1186                      .dwendtag $C$DW$T$45
    1187              
    1188              
TMS320C2000 Assembler PC v6.1.3 Thu Jan 30 10:25:22 2014

Tools Copyright (c) 1996-2012 Texas Instruments Incorporated
C:\Users\a0272466\AppData\Local\Temp\0699610                         PAGE   23

    1189              $C$DW$T$46      .dwtag  DW_TAG_union_type
    1190                      .dwattr $C$DW$T$46, DW_AT_name("CPUSEL7_REG")
    1191                      .dwattr $C$DW$T$46, DW_AT_byte_size(0x02)
    1192              $C$DW$128       .dwtag  DW_TAG_member
    1193                      .dwattr $C$DW$128, DW_AT_type(*$C$DW$T$21)
    1194                      .dwattr $C$DW$128, DW_AT_name("all")
    1195                      .dwattr $C$DW$128, DW_AT_TI_symbol_name("_all")
    1196                      .dwattr $C$DW$128, DW_AT_data_member_location[DW_OP_plus_uconst 0x0]
    1197                      .dwattr $C$DW$128, DW_AT_accessibility(DW_ACCESS_public)
    1198              $C$DW$129       .dwtag  DW_TAG_member
    1199                      .dwattr $C$DW$129, DW_AT_type(*$C$DW$T$45)
    1200                      .dwattr $C$DW$129, DW_AT_name("bit")
    1201                      .dwattr $C$DW$129, DW_AT_TI_symbol_name("_bit")
    1202                      .dwattr $C$DW$129, DW_AT_data_member_location[DW_OP_plus_uconst 0x0]
    1203                      .dwattr $C$DW$129, DW_AT_accessibility(DW_ACCESS_public)
    1204                      .dwendtag $C$DW$T$46
    1205              
    1206              
    1207              $C$DW$T$47      .dwtag  DW_TAG_structure_type
    1208                      .dwattr $C$DW$T$47, DW_AT_name("CPUSEL8_BITS")
    1209                      .dwattr $C$DW$T$47, DW_AT_byte_size(0x02)
    1210              $C$DW$130       .dwtag  DW_TAG_member
    1211                      .dwattr $C$DW$130, DW_AT_type(*$C$DW$T$19)
    1212                      .dwattr $C$DW$130, DW_AT_name("CAN_A")
    1213                      .dwattr $C$DW$130, DW_AT_TI_symbol_name("_CAN_A")
    1214                      .dwattr $C$DW$130, DW_AT_bit_offset(0x0f), DW_AT_bit_size(0x01)
    1215                      .dwattr $C$DW$130, DW_AT_data_member_location[DW_OP_plus_uconst 0x0]
    1216                      .dwattr $C$DW$130, DW_AT_accessibility(DW_ACCESS_public)
    1217              $C$DW$131       .dwtag  DW_TAG_member
    1218                      .dwattr $C$DW$131, DW_AT_type(*$C$DW$T$19)
    1219                      .dwattr $C$DW$131, DW_AT_name("CAN_B")
    1220                      .dwattr $C$DW$131, DW_AT_TI_symbol_name("_CAN_B")
    1221                      .dwattr $C$DW$131, DW_AT_bit_offset(0x0e), DW_AT_bit_size(0x01)
    1222                      .dwattr $C$DW$131, DW_AT_data_member_location[DW_OP_plus_uconst 0x0]
    1223                      .dwattr $C$DW$131, DW_AT_accessibility(DW_ACCESS_public)
    1224              $C$DW$132       .dwtag  DW_TAG_member
    1225                      .dwattr $C$DW$132, DW_AT_type(*$C$DW$T$19)
    1226                      .dwattr $C$DW$132, DW_AT_name("rsvd1")
    1227                      .dwattr $C$DW$132, DW_AT_TI_symbol_name("_rsvd1")
    1228                      .dwattr $C$DW$132, DW_AT_bit_offset(0x00), DW_AT_bit_size(0x0e)
    1229                      .dwattr $C$DW$132, DW_AT_data_member_location[DW_OP_plus_uconst 0x0]
    1230                      .dwattr $C$DW$132, DW_AT_accessibility(DW_ACCESS_public)
    1231              $C$DW$133       .dwtag  DW_TAG_member
    1232                      .dwattr $C$DW$133, DW_AT_type(*$C$DW$T$19)
    1233                      .dwattr $C$DW$133, DW_AT_name("rsvd2")
    1234                      .dwattr $C$DW$133, DW_AT_TI_symbol_name("_rsvd2")
    1235                      .dwattr $C$DW$133, DW_AT_bit_offset(0x00), DW_AT_bit_size(0x10)
    1236                      .dwattr $C$DW$133, DW_AT_data_member_location[DW_OP_plus_uconst 0x1]
    1237                      .dwattr $C$DW$133, DW_AT_accessibility(DW_ACCESS_public)
    1238                      .dwendtag $C$DW$T$47
    1239              
    1240              
    1241              $C$DW$T$48      .dwtag  DW_TAG_union_type
    1242                      .dwattr $C$DW$T$48, DW_AT_name("CPUSEL8_REG")
    1243                      .dwattr $C$DW$T$48, DW_AT_byte_size(0x02)
TMS320C2000 Assembler PC v6.1.3 Thu Jan 30 10:25:22 2014

Tools Copyright (c) 1996-2012 Texas Instruments Incorporated
C:\Users\a0272466\AppData\Local\Temp\0699610                         PAGE   24

    1244              $C$DW$134       .dwtag  DW_TAG_member
    1245                      .dwattr $C$DW$134, DW_AT_type(*$C$DW$T$21)
    1246                      .dwattr $C$DW$134, DW_AT_name("all")
    1247                      .dwattr $C$DW$134, DW_AT_TI_symbol_name("_all")
    1248                      .dwattr $C$DW$134, DW_AT_data_member_location[DW_OP_plus_uconst 0x0]
    1249                      .dwattr $C$DW$134, DW_AT_accessibility(DW_ACCESS_public)
    1250              $C$DW$135       .dwtag  DW_TAG_member
    1251                      .dwattr $C$DW$135, DW_AT_type(*$C$DW$T$47)
    1252                      .dwattr $C$DW$135, DW_AT_name("bit")
    1253                      .dwattr $C$DW$135, DW_AT_TI_symbol_name("_bit")
    1254                      .dwattr $C$DW$135, DW_AT_data_member_location[DW_OP_plus_uconst 0x0]
    1255                      .dwattr $C$DW$135, DW_AT_accessibility(DW_ACCESS_public)
    1256                      .dwendtag $C$DW$T$48
    1257              
    1258              
    1259              $C$DW$T$49      .dwtag  DW_TAG_structure_type
    1260                      .dwattr $C$DW$T$49, DW_AT_name("CPUSEL9_BITS")
    1261                      .dwattr $C$DW$T$49, DW_AT_byte_size(0x02)
    1262              $C$DW$136       .dwtag  DW_TAG_member
    1263                      .dwattr $C$DW$136, DW_AT_type(*$C$DW$T$19)
    1264                      .dwattr $C$DW$136, DW_AT_name("McBSP_A")
    1265                      .dwattr $C$DW$136, DW_AT_TI_symbol_name("_McBSP_A")
    1266                      .dwattr $C$DW$136, DW_AT_bit_offset(0x0f), DW_AT_bit_size(0x01)
    1267                      .dwattr $C$DW$136, DW_AT_data_member_location[DW_OP_plus_uconst 0x0]
    1268                      .dwattr $C$DW$136, DW_AT_accessibility(DW_ACCESS_public)
    1269              $C$DW$137       .dwtag  DW_TAG_member
    1270                      .dwattr $C$DW$137, DW_AT_type(*$C$DW$T$19)
    1271                      .dwattr $C$DW$137, DW_AT_name("McBSP_B")
    1272                      .dwattr $C$DW$137, DW_AT_TI_symbol_name("_McBSP_B")
    1273                      .dwattr $C$DW$137, DW_AT_bit_offset(0x0e), DW_AT_bit_size(0x01)
    1274                      .dwattr $C$DW$137, DW_AT_data_member_location[DW_OP_plus_uconst 0x0]
    1275                      .dwattr $C$DW$137, DW_AT_accessibility(DW_ACCESS_public)
    1276              $C$DW$138       .dwtag  DW_TAG_member
    1277                      .dwattr $C$DW$138, DW_AT_type(*$C$DW$T$19)
    1278                      .dwattr $C$DW$138, DW_AT_name("rsvd1")
    1279                      .dwattr $C$DW$138, DW_AT_TI_symbol_name("_rsvd1")
    1280                      .dwattr $C$DW$138, DW_AT_bit_offset(0x00), DW_AT_bit_size(0x0e)
    1281                      .dwattr $C$DW$138, DW_AT_data_member_location[DW_OP_plus_uconst 0x0]
    1282                      .dwattr $C$DW$138, DW_AT_accessibility(DW_ACCESS_public)
    1283              $C$DW$139       .dwtag  DW_TAG_member
    1284                      .dwattr $C$DW$139, DW_AT_type(*$C$DW$T$19)
    1285                      .dwattr $C$DW$139, DW_AT_name("rsvd2")
    1286                      .dwattr $C$DW$139, DW_AT_TI_symbol_name("_rsvd2")
    1287                      .dwattr $C$DW$139, DW_AT_bit_offset(0x00), DW_AT_bit_size(0x10)
    1288                      .dwattr $C$DW$139, DW_AT_data_member_location[DW_OP_plus_uconst 0x1]
    1289                      .dwattr $C$DW$139, DW_AT_accessibility(DW_ACCESS_public)
    1290                      .dwendtag $C$DW$T$49
    1291              
    1292              
    1293              $C$DW$T$50      .dwtag  DW_TAG_union_type
    1294                      .dwattr $C$DW$T$50, DW_AT_name("CPUSEL9_REG")
    1295                      .dwattr $C$DW$T$50, DW_AT_byte_size(0x02)
    1296              $C$DW$140       .dwtag  DW_TAG_member
    1297                      .dwattr $C$DW$140, DW_AT_type(*$C$DW$T$21)
    1298                      .dwattr $C$DW$140, DW_AT_name("all")
TMS320C2000 Assembler PC v6.1.3 Thu Jan 30 10:25:22 2014

Tools Copyright (c) 1996-2012 Texas Instruments Incorporated
C:\Users\a0272466\AppData\Local\Temp\0699610                         PAGE   25

    1299                      .dwattr $C$DW$140, DW_AT_TI_symbol_name("_all")
    1300                      .dwattr $C$DW$140, DW_AT_data_member_location[DW_OP_plus_uconst 0x0]
    1301                      .dwattr $C$DW$140, DW_AT_accessibility(DW_ACCESS_public)
    1302              $C$DW$141       .dwtag  DW_TAG_member
    1303                      .dwattr $C$DW$141, DW_AT_type(*$C$DW$T$49)
    1304                      .dwattr $C$DW$141, DW_AT_name("bit")
    1305                      .dwattr $C$DW$141, DW_AT_TI_symbol_name("_bit")
    1306                      .dwattr $C$DW$141, DW_AT_data_member_location[DW_OP_plus_uconst 0x0]
    1307                      .dwattr $C$DW$141, DW_AT_accessibility(DW_ACCESS_public)
    1308                      .dwendtag $C$DW$T$50
    1309              
    1310              
    1311              $C$DW$T$51      .dwtag  DW_TAG_structure_type
    1312                      .dwattr $C$DW$T$51, DW_AT_name("CPUSYSLOCK1_BITS")
    1313                      .dwattr $C$DW$T$51, DW_AT_byte_size(0x02)
    1314              $C$DW$142       .dwtag  DW_TAG_member
    1315                      .dwattr $C$DW$142, DW_AT_type(*$C$DW$T$19)
    1316                      .dwattr $C$DW$142, DW_AT_name("HIBBOOTMODE")
    1317                      .dwattr $C$DW$142, DW_AT_TI_symbol_name("_HIBBOOTMODE")
    1318                      .dwattr $C$DW$142, DW_AT_bit_offset(0x0f), DW_AT_bit_size(0x01)
    1319                      .dwattr $C$DW$142, DW_AT_data_member_location[DW_OP_plus_uconst 0x0]
    1320                      .dwattr $C$DW$142, DW_AT_accessibility(DW_ACCESS_public)
    1321              $C$DW$143       .dwtag  DW_TAG_member
    1322                      .dwattr $C$DW$143, DW_AT_type(*$C$DW$T$19)
    1323                      .dwattr $C$DW$143, DW_AT_name("IORESTOREADDR")
    1324                      .dwattr $C$DW$143, DW_AT_TI_symbol_name("_IORESTOREADDR")
    1325                      .dwattr $C$DW$143, DW_AT_bit_offset(0x0e), DW_AT_bit_size(0x01)
    1326                      .dwattr $C$DW$143, DW_AT_data_member_location[DW_OP_plus_uconst 0x0]
    1327                      .dwattr $C$DW$143, DW_AT_accessibility(DW_ACCESS_public)
    1328              $C$DW$144       .dwtag  DW_TAG_member
    1329                      .dwattr $C$DW$144, DW_AT_type(*$C$DW$T$19)
    1330                      .dwattr $C$DW$144, DW_AT_name("PIEVERRADDR")
    1331                      .dwattr $C$DW$144, DW_AT_TI_symbol_name("_PIEVERRADDR")
    1332                      .dwattr $C$DW$144, DW_AT_bit_offset(0x0d), DW_AT_bit_size(0x01)
    1333                      .dwattr $C$DW$144, DW_AT_data_member_location[DW_OP_plus_uconst 0x0]
    1334                      .dwattr $C$DW$144, DW_AT_accessibility(DW_ACCESS_public)
    1335              $C$DW$145       .dwtag  DW_TAG_member
    1336                      .dwattr $C$DW$145, DW_AT_type(*$C$DW$T$19)
    1337                      .dwattr $C$DW$145, DW_AT_name("PCLKCR0")
    1338                      .dwattr $C$DW$145, DW_AT_TI_symbol_name("_PCLKCR0")
    1339                      .dwattr $C$DW$145, DW_AT_bit_offset(0x0c), DW_AT_bit_size(0x01)
    1340                      .dwattr $C$DW$145, DW_AT_data_member_location[DW_OP_plus_uconst 0x0]
    1341                      .dwattr $C$DW$145, DW_AT_accessibility(DW_ACCESS_public)
    1342              $C$DW$146       .dwtag  DW_TAG_member
    1343                      .dwattr $C$DW$146, DW_AT_type(*$C$DW$T$19)
    1344                      .dwattr $C$DW$146, DW_AT_name("PCLKCR1")
    1345                      .dwattr $C$DW$146, DW_AT_TI_symbol_name("_PCLKCR1")
    1346                      .dwattr $C$DW$146, DW_AT_bit_offset(0x0b), DW_AT_bit_size(0x01)
    1347                      .dwattr $C$DW$146, DW_AT_data_member_location[DW_OP_plus_uconst 0x0]
    1348                      .dwattr $C$DW$146, DW_AT_accessibility(DW_ACCESS_public)
    1349              $C$DW$147       .dwtag  DW_TAG_member
    1350                      .dwattr $C$DW$147, DW_AT_type(*$C$DW$T$19)
    1351                      .dwattr $C$DW$147, DW_AT_name("PCLKCR2")
    1352                      .dwattr $C$DW$147, DW_AT_TI_symbol_name("_PCLKCR2")
    1353                      .dwattr $C$DW$147, DW_AT_bit_offset(0x0a), DW_AT_bit_size(0x01)
TMS320C2000 Assembler PC v6.1.3 Thu Jan 30 10:25:22 2014

Tools Copyright (c) 1996-2012 Texas Instruments Incorporated
C:\Users\a0272466\AppData\Local\Temp\0699610                         PAGE   26

    1354                      .dwattr $C$DW$147, DW_AT_data_member_location[DW_OP_plus_uconst 0x0]
    1355                      .dwattr $C$DW$147, DW_AT_accessibility(DW_ACCESS_public)
    1356              $C$DW$148       .dwtag  DW_TAG_member
    1357                      .dwattr $C$DW$148, DW_AT_type(*$C$DW$T$19)
    1358                      .dwattr $C$DW$148, DW_AT_name("PCLKCR3")
    1359                      .dwattr $C$DW$148, DW_AT_TI_symbol_name("_PCLKCR3")
    1360                      .dwattr $C$DW$148, DW_AT_bit_offset(0x09), DW_AT_bit_size(0x01)
    1361                      .dwattr $C$DW$148, DW_AT_data_member_location[DW_OP_plus_uconst 0x0]
    1362                      .dwattr $C$DW$148, DW_AT_accessibility(DW_ACCESS_public)
    1363              $C$DW$149       .dwtag  DW_TAG_member
    1364                      .dwattr $C$DW$149, DW_AT_type(*$C$DW$T$19)
    1365                      .dwattr $C$DW$149, DW_AT_name("PCLKCR4")
    1366                      .dwattr $C$DW$149, DW_AT_TI_symbol_name("_PCLKCR4")
    1367                      .dwattr $C$DW$149, DW_AT_bit_offset(0x08), DW_AT_bit_size(0x01)
    1368                      .dwattr $C$DW$149, DW_AT_data_member_location[DW_OP_plus_uconst 0x0]
    1369                      .dwattr $C$DW$149, DW_AT_accessibility(DW_ACCESS_public)
    1370              $C$DW$150       .dwtag  DW_TAG_member
    1371                      .dwattr $C$DW$150, DW_AT_type(*$C$DW$T$19)
    1372                      .dwattr $C$DW$150, DW_AT_name("PCLKCR5")
    1373                      .dwattr $C$DW$150, DW_AT_TI_symbol_name("_PCLKCR5")
    1374                      .dwattr $C$DW$150, DW_AT_bit_offset(0x07), DW_AT_bit_size(0x01)
    1375                      .dwattr $C$DW$150, DW_AT_data_member_location[DW_OP_plus_uconst 0x0]
    1376                      .dwattr $C$DW$150, DW_AT_accessibility(DW_ACCESS_public)
    1377              $C$DW$151       .dwtag  DW_TAG_member
    1378                      .dwattr $C$DW$151, DW_AT_type(*$C$DW$T$19)
    1379                      .dwattr $C$DW$151, DW_AT_name("PCLKCR6")
    1380                      .dwattr $C$DW$151, DW_AT_TI_symbol_name("_PCLKCR6")
    1381                      .dwattr $C$DW$151, DW_AT_bit_offset(0x06), DW_AT_bit_size(0x01)
    1382                      .dwattr $C$DW$151, DW_AT_data_member_location[DW_OP_plus_uconst 0x0]
    1383                      .dwattr $C$DW$151, DW_AT_accessibility(DW_ACCESS_public)
    1384              $C$DW$152       .dwtag  DW_TAG_member
    1385                      .dwattr $C$DW$152, DW_AT_type(*$C$DW$T$19)
    1386                      .dwattr $C$DW$152, DW_AT_name("PCLKCR7")
    1387                      .dwattr $C$DW$152, DW_AT_TI_symbol_name("_PCLKCR7")
    1388                      .dwattr $C$DW$152, DW_AT_bit_offset(0x05), DW_AT_bit_size(0x01)
    1389                      .dwattr $C$DW$152, DW_AT_data_member_location[DW_OP_plus_uconst 0x0]
    1390                      .dwattr $C$DW$152, DW_AT_accessibility(DW_ACCESS_public)
    1391              $C$DW$153       .dwtag  DW_TAG_member
    1392                      .dwattr $C$DW$153, DW_AT_type(*$C$DW$T$19)
    1393                      .dwattr $C$DW$153, DW_AT_name("PCLKCR8")
    1394                      .dwattr $C$DW$153, DW_AT_TI_symbol_name("_PCLKCR8")
    1395                      .dwattr $C$DW$153, DW_AT_bit_offset(0x04), DW_AT_bit_size(0x01)
    1396                      .dwattr $C$DW$153, DW_AT_data_member_location[DW_OP_plus_uconst 0x0]
    1397                      .dwattr $C$DW$153, DW_AT_accessibility(DW_ACCESS_public)
    1398              $C$DW$154       .dwtag  DW_TAG_member
    1399                      .dwattr $C$DW$154, DW_AT_type(*$C$DW$T$19)
    1400                      .dwattr $C$DW$154, DW_AT_name("PCLKCR9")
    1401                      .dwattr $C$DW$154, DW_AT_TI_symbol_name("_PCLKCR9")
    1402                      .dwattr $C$DW$154, DW_AT_bit_offset(0x03), DW_AT_bit_size(0x01)
    1403                      .dwattr $C$DW$154, DW_AT_data_member_location[DW_OP_plus_uconst 0x0]
    1404                      .dwattr $C$DW$154, DW_AT_accessibility(DW_ACCESS_public)
    1405              $C$DW$155       .dwtag  DW_TAG_member
    1406                      .dwattr $C$DW$155, DW_AT_type(*$C$DW$T$19)
    1407                      .dwattr $C$DW$155, DW_AT_name("PCLKCR10")
    1408                      .dwattr $C$DW$155, DW_AT_TI_symbol_name("_PCLKCR10")
TMS320C2000 Assembler PC v6.1.3 Thu Jan 30 10:25:22 2014

Tools Copyright (c) 1996-2012 Texas Instruments Incorporated
C:\Users\a0272466\AppData\Local\Temp\0699610                         PAGE   27

    1409                      .dwattr $C$DW$155, DW_AT_bit_offset(0x02), DW_AT_bit_size(0x01)
    1410                      .dwattr $C$DW$155, DW_AT_data_member_location[DW_OP_plus_uconst 0x0]
    1411                      .dwattr $C$DW$155, DW_AT_accessibility(DW_ACCESS_public)
    1412              $C$DW$156       .dwtag  DW_TAG_member
    1413                      .dwattr $C$DW$156, DW_AT_type(*$C$DW$T$19)
    1414                      .dwattr $C$DW$156, DW_AT_name("PCLKCR11")
    1415                      .dwattr $C$DW$156, DW_AT_TI_symbol_name("_PCLKCR11")
    1416                      .dwattr $C$DW$156, DW_AT_bit_offset(0x01), DW_AT_bit_size(0x01)
    1417                      .dwattr $C$DW$156, DW_AT_data_member_location[DW_OP_plus_uconst 0x0]
    1418                      .dwattr $C$DW$156, DW_AT_accessibility(DW_ACCESS_public)
    1419              $C$DW$157       .dwtag  DW_TAG_member
    1420                      .dwattr $C$DW$157, DW_AT_type(*$C$DW$T$19)
    1421                      .dwattr $C$DW$157, DW_AT_name("PCLKCR12")
    1422                      .dwattr $C$DW$157, DW_AT_TI_symbol_name("_PCLKCR12")
    1423                      .dwattr $C$DW$157, DW_AT_bit_offset(0x00), DW_AT_bit_size(0x01)
    1424                      .dwattr $C$DW$157, DW_AT_data_member_location[DW_OP_plus_uconst 0x0]
    1425                      .dwattr $C$DW$157, DW_AT_accessibility(DW_ACCESS_public)
    1426              $C$DW$158       .dwtag  DW_TAG_member
    1427                      .dwattr $C$DW$158, DW_AT_type(*$C$DW$T$19)
    1428                      .dwattr $C$DW$158, DW_AT_name("PCLKCR13")
    1429                      .dwattr $C$DW$158, DW_AT_TI_symbol_name("_PCLKCR13")
    1430                      .dwattr $C$DW$158, DW_AT_bit_offset(0x0f), DW_AT_bit_size(0x01)
    1431                      .dwattr $C$DW$158, DW_AT_data_member_location[DW_OP_plus_uconst 0x1]
    1432                      .dwattr $C$DW$158, DW_AT_accessibility(DW_ACCESS_public)
    1433              $C$DW$159       .dwtag  DW_TAG_member
    1434                      .dwattr $C$DW$159, DW_AT_type(*$C$DW$T$19)
    1435                      .dwattr $C$DW$159, DW_AT_name("PCLKCR14")
    1436                      .dwattr $C$DW$159, DW_AT_TI_symbol_name("_PCLKCR14")
    1437                      .dwattr $C$DW$159, DW_AT_bit_offset(0x0e), DW_AT_bit_size(0x01)
    1438                      .dwattr $C$DW$159, DW_AT_data_member_location[DW_OP_plus_uconst 0x1]
    1439                      .dwattr $C$DW$159, DW_AT_accessibility(DW_ACCESS_public)
    1440              $C$DW$160       .dwtag  DW_TAG_member
    1441                      .dwattr $C$DW$160, DW_AT_type(*$C$DW$T$19)
    1442                      .dwattr $C$DW$160, DW_AT_name("PCLKCR15")
    1443                      .dwattr $C$DW$160, DW_AT_TI_symbol_name("_PCLKCR15")
    1444                      .dwattr $C$DW$160, DW_AT_bit_offset(0x0d), DW_AT_bit_size(0x01)
    1445                      .dwattr $C$DW$160, DW_AT_data_member_location[DW_OP_plus_uconst 0x1]
    1446                      .dwattr $C$DW$160, DW_AT_accessibility(DW_ACCESS_public)
    1447              $C$DW$161       .dwtag  DW_TAG_member
    1448                      .dwattr $C$DW$161, DW_AT_type(*$C$DW$T$19)
    1449                      .dwattr $C$DW$161, DW_AT_name("PCLKCR16")
    1450                      .dwattr $C$DW$161, DW_AT_TI_symbol_name("_PCLKCR16")
    1451                      .dwattr $C$DW$161, DW_AT_bit_offset(0x0c), DW_AT_bit_size(0x01)
    1452                      .dwattr $C$DW$161, DW_AT_data_member_location[DW_OP_plus_uconst 0x1]
    1453                      .dwattr $C$DW$161, DW_AT_accessibility(DW_ACCESS_public)
    1454              $C$DW$162       .dwtag  DW_TAG_member
    1455                      .dwattr $C$DW$162, DW_AT_type(*$C$DW$T$19)
    1456                      .dwattr $C$DW$162, DW_AT_name("SECMSEL")
    1457                      .dwattr $C$DW$162, DW_AT_TI_symbol_name("_SECMSEL")
    1458                      .dwattr $C$DW$162, DW_AT_bit_offset(0x0b), DW_AT_bit_size(0x01)
    1459                      .dwattr $C$DW$162, DW_AT_data_member_location[DW_OP_plus_uconst 0x1]
    1460                      .dwattr $C$DW$162, DW_AT_accessibility(DW_ACCESS_public)
    1461              $C$DW$163       .dwtag  DW_TAG_member
    1462                      .dwattr $C$DW$163, DW_AT_type(*$C$DW$T$19)
    1463                      .dwattr $C$DW$163, DW_AT_name("LPMCR")
TMS320C2000 Assembler PC v6.1.3 Thu Jan 30 10:25:22 2014

Tools Copyright (c) 1996-2012 Texas Instruments Incorporated
C:\Users\a0272466\AppData\Local\Temp\0699610                         PAGE   28

    1464                      .dwattr $C$DW$163, DW_AT_TI_symbol_name("_LPMCR")
    1465                      .dwattr $C$DW$163, DW_AT_bit_offset(0x0a), DW_AT_bit_size(0x01)
    1466                      .dwattr $C$DW$163, DW_AT_data_member_location[DW_OP_plus_uconst 0x1]
    1467                      .dwattr $C$DW$163, DW_AT_accessibility(DW_ACCESS_public)
    1468              $C$DW$164       .dwtag  DW_TAG_member
    1469                      .dwattr $C$DW$164, DW_AT_type(*$C$DW$T$19)
    1470                      .dwattr $C$DW$164, DW_AT_name("GPIOLPMSEL0")
    1471                      .dwattr $C$DW$164, DW_AT_TI_symbol_name("_GPIOLPMSEL0")
    1472                      .dwattr $C$DW$164, DW_AT_bit_offset(0x09), DW_AT_bit_size(0x01)
    1473                      .dwattr $C$DW$164, DW_AT_data_member_location[DW_OP_plus_uconst 0x1]
    1474                      .dwattr $C$DW$164, DW_AT_accessibility(DW_ACCESS_public)
    1475              $C$DW$165       .dwtag  DW_TAG_member
    1476                      .dwattr $C$DW$165, DW_AT_type(*$C$DW$T$19)
    1477                      .dwattr $C$DW$165, DW_AT_name("GPIOLPMSEL1")
    1478                      .dwattr $C$DW$165, DW_AT_TI_symbol_name("_GPIOLPMSEL1")
    1479                      .dwattr $C$DW$165, DW_AT_bit_offset(0x08), DW_AT_bit_size(0x01)
    1480                      .dwattr $C$DW$165, DW_AT_data_member_location[DW_OP_plus_uconst 0x1]
    1481                      .dwattr $C$DW$165, DW_AT_accessibility(DW_ACCESS_public)
    1482              $C$DW$166       .dwtag  DW_TAG_member
    1483                      .dwattr $C$DW$166, DW_AT_type(*$C$DW$T$19)
    1484                      .dwattr $C$DW$166, DW_AT_name("rsvd1")
    1485                      .dwattr $C$DW$166, DW_AT_TI_symbol_name("_rsvd1")
    1486                      .dwattr $C$DW$166, DW_AT_bit_offset(0x00), DW_AT_bit_size(0x08)
    1487                      .dwattr $C$DW$166, DW_AT_data_member_location[DW_OP_plus_uconst 0x1]
    1488                      .dwattr $C$DW$166, DW_AT_accessibility(DW_ACCESS_public)
    1489                      .dwendtag $C$DW$T$51
    1490              
    1491              
    1492              $C$DW$T$52      .dwtag  DW_TAG_union_type
    1493                      .dwattr $C$DW$T$52, DW_AT_name("CPUSYSLOCK1_REG")
    1494                      .dwattr $C$DW$T$52, DW_AT_byte_size(0x02)
    1495              $C$DW$167       .dwtag  DW_TAG_member
    1496                      .dwattr $C$DW$167, DW_AT_type(*$C$DW$T$21)
    1497                      .dwattr $C$DW$167, DW_AT_name("all")
    1498                      .dwattr $C$DW$167, DW_AT_TI_symbol_name("_all")
    1499                      .dwattr $C$DW$167, DW_AT_data_member_location[DW_OP_plus_uconst 0x0]
    1500                      .dwattr $C$DW$167, DW_AT_accessibility(DW_ACCESS_public)
    1501              $C$DW$168       .dwtag  DW_TAG_member
    1502                      .dwattr $C$DW$168, DW_AT_type(*$C$DW$T$51)
    1503                      .dwattr $C$DW$168, DW_AT_name("bit")
    1504                      .dwattr $C$DW$168, DW_AT_TI_symbol_name("_bit")
    1505                      .dwattr $C$DW$168, DW_AT_data_member_location[DW_OP_plus_uconst 0x0]
    1506                      .dwattr $C$DW$168, DW_AT_accessibility(DW_ACCESS_public)
    1507                      .dwendtag $C$DW$T$52
    1508              
    1509              
    1510              $C$DW$T$57      .dwtag  DW_TAG_structure_type
    1511                      .dwattr $C$DW$T$57, DW_AT_name("CPU_SYS_REGS")
    1512                      .dwattr $C$DW$T$57, DW_AT_byte_size(0x82)
    1513              $C$DW$169       .dwtag  DW_TAG_member
    1514                      .dwattr $C$DW$169, DW_AT_type(*$C$DW$T$52)
    1515                      .dwattr $C$DW$169, DW_AT_name("CPUSYSLOCK1")
    1516                      .dwattr $C$DW$169, DW_AT_TI_symbol_name("_CPUSYSLOCK1")
    1517                      .dwattr $C$DW$169, DW_AT_data_member_location[DW_OP_plus_uconst 0x0]
    1518                      .dwattr $C$DW$169, DW_AT_accessibility(DW_ACCESS_public)
TMS320C2000 Assembler PC v6.1.3 Thu Jan 30 10:25:22 2014

Tools Copyright (c) 1996-2012 Texas Instruments Incorporated
C:\Users\a0272466\AppData\Local\Temp\0699610                         PAGE   29

    1519              $C$DW$170       .dwtag  DW_TAG_member
    1520                      .dwattr $C$DW$170, DW_AT_type(*$C$DW$T$53)
    1521                      .dwattr $C$DW$170, DW_AT_name("rsvd1")
    1522                      .dwattr $C$DW$170, DW_AT_TI_symbol_name("_rsvd1")
    1523                      .dwattr $C$DW$170, DW_AT_data_member_location[DW_OP_plus_uconst 0x2]
    1524                      .dwattr $C$DW$170, DW_AT_accessibility(DW_ACCESS_public)
    1525              $C$DW$171       .dwtag  DW_TAG_member
    1526                      .dwattr $C$DW$171, DW_AT_type(*$C$DW$T$21)
    1527                      .dwattr $C$DW$171, DW_AT_name("HIBBOOTMODE")
    1528                      .dwattr $C$DW$171, DW_AT_TI_symbol_name("_HIBBOOTMODE")
    1529                      .dwattr $C$DW$171, DW_AT_data_member_location[DW_OP_plus_uconst 0x6]
    1530                      .dwattr $C$DW$171, DW_AT_accessibility(DW_ACCESS_public)
    1531              $C$DW$172       .dwtag  DW_TAG_member
    1532                      .dwattr $C$DW$172, DW_AT_type(*$C$DW$T$112)
    1533                      .dwattr $C$DW$172, DW_AT_name("IORESTOREADDR")
    1534                      .dwattr $C$DW$172, DW_AT_TI_symbol_name("_IORESTOREADDR")
    1535                      .dwattr $C$DW$172, DW_AT_data_member_location[DW_OP_plus_uconst 0x8]
    1536                      .dwattr $C$DW$172, DW_AT_accessibility(DW_ACCESS_public)
    1537              $C$DW$173       .dwtag  DW_TAG_member
    1538                      .dwattr $C$DW$173, DW_AT_type(*$C$DW$T$154)
    1539                      .dwattr $C$DW$173, DW_AT_name("PIEVERRADDR")
    1540                      .dwattr $C$DW$173, DW_AT_TI_symbol_name("_PIEVERRADDR")
    1541                      .dwattr $C$DW$173, DW_AT_data_member_location[DW_OP_plus_uconst 0xa]
    1542                      .dwattr $C$DW$173, DW_AT_accessibility(DW_ACCESS_public)
    1543              $C$DW$174       .dwtag  DW_TAG_member
    1544                      .dwattr $C$DW$174, DW_AT_type(*$C$DW$T$54)
    1545                      .dwattr $C$DW$174, DW_AT_name("rsvd2")
    1546                      .dwattr $C$DW$174, DW_AT_TI_symbol_name("_rsvd2")
    1547                      .dwattr $C$DW$174, DW_AT_data_member_location[DW_OP_plus_uconst 0xc]
    1548                      .dwattr $C$DW$174, DW_AT_accessibility(DW_ACCESS_public)
    1549              $C$DW$175       .dwtag  DW_TAG_member
    1550                      .dwattr $C$DW$175, DW_AT_type(*$C$DW$T$120)
    1551                      .dwattr $C$DW$175, DW_AT_name("PCLKCR0")
    1552                      .dwattr $C$DW$175, DW_AT_TI_symbol_name("_PCLKCR0")
    1553                      .dwattr $C$DW$175, DW_AT_data_member_location[DW_OP_plus_uconst 0x22]
    1554                      .dwattr $C$DW$175, DW_AT_accessibility(DW_ACCESS_public)
    1555              $C$DW$176       .dwtag  DW_TAG_member
    1556                      .dwattr $C$DW$176, DW_AT_type(*$C$DW$T$134)
    1557                      .dwattr $C$DW$176, DW_AT_name("PCLKCR1")
    1558                      .dwattr $C$DW$176, DW_AT_TI_symbol_name("_PCLKCR1")
    1559                      .dwattr $C$DW$176, DW_AT_data_member_location[DW_OP_plus_uconst 0x24]
    1560                      .dwattr $C$DW$176, DW_AT_accessibility(DW_ACCESS_public)
    1561              $C$DW$177       .dwtag  DW_TAG_member
    1562                      .dwattr $C$DW$177, DW_AT_type(*$C$DW$T$136)
    1563                      .dwattr $C$DW$177, DW_AT_name("PCLKCR2")
    1564                      .dwattr $C$DW$177, DW_AT_TI_symbol_name("_PCLKCR2")
    1565                      .dwattr $C$DW$177, DW_AT_data_member_location[DW_OP_plus_uconst 0x26]
    1566                      .dwattr $C$DW$177, DW_AT_accessibility(DW_ACCESS_public)
    1567              $C$DW$178       .dwtag  DW_TAG_member
    1568                      .dwattr $C$DW$178, DW_AT_type(*$C$DW$T$138)
    1569                      .dwattr $C$DW$178, DW_AT_name("PCLKCR3")
    1570                      .dwattr $C$DW$178, DW_AT_TI_symbol_name("_PCLKCR3")
    1571                      .dwattr $C$DW$178, DW_AT_data_member_location[DW_OP_plus_uconst 0x28]
    1572                      .dwattr $C$DW$178, DW_AT_accessibility(DW_ACCESS_public)
    1573              $C$DW$179       .dwtag  DW_TAG_member
TMS320C2000 Assembler PC v6.1.3 Thu Jan 30 10:25:22 2014

Tools Copyright (c) 1996-2012 Texas Instruments Incorporated
C:\Users\a0272466\AppData\Local\Temp\0699610                         PAGE   30

    1574                      .dwattr $C$DW$179, DW_AT_type(*$C$DW$T$140)
    1575                      .dwattr $C$DW$179, DW_AT_name("PCLKCR4")
    1576                      .dwattr $C$DW$179, DW_AT_TI_symbol_name("_PCLKCR4")
    1577                      .dwattr $C$DW$179, DW_AT_data_member_location[DW_OP_plus_uconst 0x2a]
    1578                      .dwattr $C$DW$179, DW_AT_accessibility(DW_ACCESS_public)
    1579              $C$DW$180       .dwtag  DW_TAG_member
    1580                      .dwattr $C$DW$180, DW_AT_type(*$C$DW$T$142)
    1581                      .dwattr $C$DW$180, DW_AT_name("PCLKCR5")
    1582                      .dwattr $C$DW$180, DW_AT_TI_symbol_name("_PCLKCR5")
    1583                      .dwattr $C$DW$180, DW_AT_data_member_location[DW_OP_plus_uconst 0x2c]
    1584                      .dwattr $C$DW$180, DW_AT_accessibility(DW_ACCESS_public)
    1585              $C$DW$181       .dwtag  DW_TAG_member
    1586                      .dwattr $C$DW$181, DW_AT_type(*$C$DW$T$144)
    1587                      .dwattr $C$DW$181, DW_AT_name("PCLKCR6")
    1588                      .dwattr $C$DW$181, DW_AT_TI_symbol_name("_PCLKCR6")
    1589                      .dwattr $C$DW$181, DW_AT_data_member_location[DW_OP_plus_uconst 0x2e]
    1590                      .dwattr $C$DW$181, DW_AT_accessibility(DW_ACCESS_public)
    1591              $C$DW$182       .dwtag  DW_TAG_member
    1592                      .dwattr $C$DW$182, DW_AT_type(*$C$DW$T$146)
    1593                      .dwattr $C$DW$182, DW_AT_name("PCLKCR7")
    1594                      .dwattr $C$DW$182, DW_AT_TI_symbol_name("_PCLKCR7")
    1595                      .dwattr $C$DW$182, DW_AT_data_member_location[DW_OP_plus_uconst 0x30]
    1596                      .dwattr $C$DW$182, DW_AT_accessibility(DW_ACCESS_public)
    1597              $C$DW$183       .dwtag  DW_TAG_member
    1598                      .dwattr $C$DW$183, DW_AT_type(*$C$DW$T$148)
    1599                      .dwattr $C$DW$183, DW_AT_name("PCLKCR8")
    1600                      .dwattr $C$DW$183, DW_AT_TI_symbol_name("_PCLKCR8")
    1601                      .dwattr $C$DW$183, DW_AT_data_member_location[DW_OP_plus_uconst 0x32]
    1602                      .dwattr $C$DW$183, DW_AT_accessibility(DW_ACCESS_public)
    1603              $C$DW$184       .dwtag  DW_TAG_member
    1604                      .dwattr $C$DW$184, DW_AT_type(*$C$DW$T$150)
    1605                      .dwattr $C$DW$184, DW_AT_name("PCLKCR9")
    1606                      .dwattr $C$DW$184, DW_AT_TI_symbol_name("_PCLKCR9")
    1607                      .dwattr $C$DW$184, DW_AT_data_member_location[DW_OP_plus_uconst 0x34]
    1608                      .dwattr $C$DW$184, DW_AT_accessibility(DW_ACCESS_public)
    1609              $C$DW$185       .dwtag  DW_TAG_member
    1610                      .dwattr $C$DW$185, DW_AT_type(*$C$DW$T$122)
    1611                      .dwattr $C$DW$185, DW_AT_name("PCLKCR10")
    1612                      .dwattr $C$DW$185, DW_AT_TI_symbol_name("_PCLKCR10")
    1613                      .dwattr $C$DW$185, DW_AT_data_member_location[DW_OP_plus_uconst 0x36]
    1614                      .dwattr $C$DW$185, DW_AT_accessibility(DW_ACCESS_public)
    1615              $C$DW$186       .dwtag  DW_TAG_member
    1616                      .dwattr $C$DW$186, DW_AT_type(*$C$DW$T$124)
    1617                      .dwattr $C$DW$186, DW_AT_name("PCLKCR11")
    1618                      .dwattr $C$DW$186, DW_AT_TI_symbol_name("_PCLKCR11")
    1619                      .dwattr $C$DW$186, DW_AT_data_member_location[DW_OP_plus_uconst 0x38]
    1620                      .dwattr $C$DW$186, DW_AT_accessibility(DW_ACCESS_public)
    1621              $C$DW$187       .dwtag  DW_TAG_member
    1622                      .dwattr $C$DW$187, DW_AT_type(*$C$DW$T$126)
    1623                      .dwattr $C$DW$187, DW_AT_name("PCLKCR12")
    1624                      .dwattr $C$DW$187, DW_AT_TI_symbol_name("_PCLKCR12")
    1625                      .dwattr $C$DW$187, DW_AT_data_member_location[DW_OP_plus_uconst 0x3a]
    1626                      .dwattr $C$DW$187, DW_AT_accessibility(DW_ACCESS_public)
    1627              $C$DW$188       .dwtag  DW_TAG_member
    1628                      .dwattr $C$DW$188, DW_AT_type(*$C$DW$T$128)
TMS320C2000 Assembler PC v6.1.3 Thu Jan 30 10:25:22 2014

Tools Copyright (c) 1996-2012 Texas Instruments Incorporated
C:\Users\a0272466\AppData\Local\Temp\0699610                         PAGE   31

    1629                      .dwattr $C$DW$188, DW_AT_name("PCLKCR13")
    1630                      .dwattr $C$DW$188, DW_AT_TI_symbol_name("_PCLKCR13")
    1631                      .dwattr $C$DW$188, DW_AT_data_member_location[DW_OP_plus_uconst 0x3c]
    1632                      .dwattr $C$DW$188, DW_AT_accessibility(DW_ACCESS_public)
    1633              $C$DW$189       .dwtag  DW_TAG_member
    1634                      .dwattr $C$DW$189, DW_AT_type(*$C$DW$T$130)
    1635                      .dwattr $C$DW$189, DW_AT_name("PCLKCR14")
    1636                      .dwattr $C$DW$189, DW_AT_TI_symbol_name("_PCLKCR14")
    1637                      .dwattr $C$DW$189, DW_AT_data_member_location[DW_OP_plus_uconst 0x3e]
    1638                      .dwattr $C$DW$189, DW_AT_accessibility(DW_ACCESS_public)
    1639              $C$DW$190       .dwtag  DW_TAG_member
    1640                      .dwattr $C$DW$190, DW_AT_type(*$C$DW$T$55)
    1641                      .dwattr $C$DW$190, DW_AT_name("rsvd3")
    1642                      .dwattr $C$DW$190, DW_AT_TI_symbol_name("_rsvd3")
    1643                      .dwattr $C$DW$190, DW_AT_data_member_location[DW_OP_plus_uconst 0x40]
    1644                      .dwattr $C$DW$190, DW_AT_accessibility(DW_ACCESS_public)
    1645              $C$DW$191       .dwtag  DW_TAG_member
    1646                      .dwattr $C$DW$191, DW_AT_type(*$C$DW$T$132)
    1647                      .dwattr $C$DW$191, DW_AT_name("PCLKCR16")
    1648                      .dwattr $C$DW$191, DW_AT_TI_symbol_name("_PCLKCR16")
    1649                      .dwattr $C$DW$191, DW_AT_data_member_location[DW_OP_plus_uconst 0x42]
    1650                      .dwattr $C$DW$191, DW_AT_accessibility(DW_ACCESS_public)
    1651              $C$DW$192       .dwtag  DW_TAG_member
    1652                      .dwattr $C$DW$192, DW_AT_type(*$C$DW$T$56)
    1653                      .dwattr $C$DW$192, DW_AT_name("rsvd4")
    1654                      .dwattr $C$DW$192, DW_AT_TI_symbol_name("_rsvd4")
    1655                      .dwattr $C$DW$192, DW_AT_data_member_location[DW_OP_plus_uconst 0x44]
    1656                      .dwattr $C$DW$192, DW_AT_accessibility(DW_ACCESS_public)
    1657              $C$DW$193       .dwtag  DW_TAG_member
    1658                      .dwattr $C$DW$193, DW_AT_type(*$C$DW$T$22)
    1659                      .dwattr $C$DW$193, DW_AT_name("CCR")
    1660                      .dwattr $C$DW$193, DW_AT_TI_symbol_name("_CCR")
    1661                      .dwattr $C$DW$193, DW_AT_data_member_location[DW_OP_plus_uconst 0x72]
    1662                      .dwattr $C$DW$193, DW_AT_accessibility(DW_ACCESS_public)
    1663              $C$DW$194       .dwtag  DW_TAG_member
    1664                      .dwattr $C$DW$194, DW_AT_type(*$C$DW$T$162)
    1665                      .dwattr $C$DW$194, DW_AT_name("SECMSEL")
    1666                      .dwattr $C$DW$194, DW_AT_TI_symbol_name("_SECMSEL")
    1667                      .dwattr $C$DW$194, DW_AT_data_member_location[DW_OP_plus_uconst 0x74]
    1668                      .dwattr $C$DW$194, DW_AT_accessibility(DW_ACCESS_public)
    1669              $C$DW$195       .dwtag  DW_TAG_member
    1670                      .dwattr $C$DW$195, DW_AT_type(*$C$DW$T$114)
    1671                      .dwattr $C$DW$195, DW_AT_name("LPMCR")
    1672                      .dwattr $C$DW$195, DW_AT_TI_symbol_name("_LPMCR")
    1673                      .dwattr $C$DW$195, DW_AT_data_member_location[DW_OP_plus_uconst 0x76]
    1674                      .dwattr $C$DW$195, DW_AT_accessibility(DW_ACCESS_public)
    1675              $C$DW$196       .dwtag  DW_TAG_member
    1676                      .dwattr $C$DW$196, DW_AT_type(*$C$DW$T$108)
    1677                      .dwattr $C$DW$196, DW_AT_name("GPIOLPMSEL0")
    1678                      .dwattr $C$DW$196, DW_AT_TI_symbol_name("_GPIOLPMSEL0")
    1679                      .dwattr $C$DW$196, DW_AT_data_member_location[DW_OP_plus_uconst 0x78]
    1680                      .dwattr $C$DW$196, DW_AT_accessibility(DW_ACCESS_public)
    1681              $C$DW$197       .dwtag  DW_TAG_member
    1682                      .dwattr $C$DW$197, DW_AT_type(*$C$DW$T$110)
    1683                      .dwattr $C$DW$197, DW_AT_name("GPIOLPMSEL1")
TMS320C2000 Assembler PC v6.1.3 Thu Jan 30 10:25:22 2014

Tools Copyright (c) 1996-2012 Texas Instruments Incorporated
C:\Users\a0272466\AppData\Local\Temp\0699610                         PAGE   32

    1684                      .dwattr $C$DW$197, DW_AT_TI_symbol_name("_GPIOLPMSEL1")
    1685                      .dwattr $C$DW$197, DW_AT_data_member_location[DW_OP_plus_uconst 0x7a]
    1686                      .dwattr $C$DW$197, DW_AT_accessibility(DW_ACCESS_public)
    1687              $C$DW$198       .dwtag  DW_TAG_member
    1688                      .dwattr $C$DW$198, DW_AT_type(*$C$DW$T$194)
    1689                      .dwattr $C$DW$198, DW_AT_name("TMR2CLKCTL")
    1690                      .dwattr $C$DW$198, DW_AT_TI_symbol_name("_TMR2CLKCTL")
    1691                      .dwattr $C$DW$198, DW_AT_data_member_location[DW_OP_plus_uconst 0x7c]
    1692                      .dwattr $C$DW$198, DW_AT_accessibility(DW_ACCESS_public)
    1693              $C$DW$199       .dwtag  DW_TAG_member
    1694                      .dwattr $C$DW$199, DW_AT_type(*$C$DW$T$55)
    1695                      .dwattr $C$DW$199, DW_AT_name("rsvd5")
    1696                      .dwattr $C$DW$199, DW_AT_TI_symbol_name("_rsvd5")
    1697                      .dwattr $C$DW$199, DW_AT_data_member_location[DW_OP_plus_uconst 0x7e]
    1698                      .dwattr $C$DW$199, DW_AT_accessibility(DW_ACCESS_public)
    1699              $C$DW$200       .dwtag  DW_TAG_member
    1700                      .dwattr $C$DW$200, DW_AT_type(*$C$DW$T$158)
    1701                      .dwattr $C$DW$200, DW_AT_name("RESC")
    1702                      .dwattr $C$DW$200, DW_AT_TI_symbol_name("_RESC")
    1703                      .dwattr $C$DW$200, DW_AT_data_member_location[DW_OP_plus_uconst 0x80]
    1704                      .dwattr $C$DW$200, DW_AT_accessibility(DW_ACCESS_public)
    1705                      .dwendtag $C$DW$T$57
    1706              
    1707              $C$DW$201       .dwtag  DW_TAG_TI_far_type
    1708                      .dwattr $C$DW$201, DW_AT_type(*$C$DW$T$57)
    1709              $C$DW$T$195     .dwtag  DW_TAG_volatile_type
    1710                      .dwattr $C$DW$T$195, DW_AT_type(*$C$DW$201)
    1711              
    1712              $C$DW$T$58      .dwtag  DW_TAG_structure_type
    1713                      .dwattr $C$DW$T$58, DW_AT_name("DC0_BITS")
    1714                      .dwattr $C$DW$T$58, DW_AT_byte_size(0x02)
    1715              $C$DW$202       .dwtag  DW_TAG_member
    1716                      .dwattr $C$DW$202, DW_AT_type(*$C$DW$T$19)
    1717                      .dwattr $C$DW$202, DW_AT_name("SINGLE_CORE")
    1718                      .dwattr $C$DW$202, DW_AT_TI_symbol_name("_SINGLE_CORE")
    1719                      .dwattr $C$DW$202, DW_AT_bit_offset(0x0f), DW_AT_bit_size(0x01)
    1720                      .dwattr $C$DW$202, DW_AT_data_member_location[DW_OP_plus_uconst 0x0]
    1721                      .dwattr $C$DW$202, DW_AT_accessibility(DW_ACCESS_public)
    1722              $C$DW$203       .dwtag  DW_TAG_member
    1723                      .dwattr $C$DW$203, DW_AT_type(*$C$DW$T$19)
    1724                      .dwattr $C$DW$203, DW_AT_name("rsvd1")
    1725                      .dwattr $C$DW$203, DW_AT_TI_symbol_name("_rsvd1")
    1726                      .dwattr $C$DW$203, DW_AT_bit_offset(0x00), DW_AT_bit_size(0x0f)
    1727                      .dwattr $C$DW$203, DW_AT_data_member_location[DW_OP_plus_uconst 0x0]
    1728                      .dwattr $C$DW$203, DW_AT_accessibility(DW_ACCESS_public)
    1729              $C$DW$204       .dwtag  DW_TAG_member
    1730                      .dwattr $C$DW$204, DW_AT_type(*$C$DW$T$19)
    1731                      .dwattr $C$DW$204, DW_AT_name("rsvd2")
    1732                      .dwattr $C$DW$204, DW_AT_TI_symbol_name("_rsvd2")
    1733                      .dwattr $C$DW$204, DW_AT_bit_offset(0x00), DW_AT_bit_size(0x10)
    1734                      .dwattr $C$DW$204, DW_AT_data_member_location[DW_OP_plus_uconst 0x1]
    1735                      .dwattr $C$DW$204, DW_AT_accessibility(DW_ACCESS_public)
    1736                      .dwendtag $C$DW$T$58
    1737              
    1738              
TMS320C2000 Assembler PC v6.1.3 Thu Jan 30 10:25:22 2014

Tools Copyright (c) 1996-2012 Texas Instruments Incorporated
C:\Users\a0272466\AppData\Local\Temp\0699610                         PAGE   33

    1739              $C$DW$T$59      .dwtag  DW_TAG_union_type
    1740                      .dwattr $C$DW$T$59, DW_AT_name("DC0_REG")
    1741                      .dwattr $C$DW$T$59, DW_AT_byte_size(0x02)
    1742              $C$DW$205       .dwtag  DW_TAG_member
    1743                      .dwattr $C$DW$205, DW_AT_type(*$C$DW$T$21)
    1744                      .dwattr $C$DW$205, DW_AT_name("all")
    1745                      .dwattr $C$DW$205, DW_AT_TI_symbol_name("_all")
    1746                      .dwattr $C$DW$205, DW_AT_data_member_location[DW_OP_plus_uconst 0x0]
    1747                      .dwattr $C$DW$205, DW_AT_accessibility(DW_ACCESS_public)
    1748              $C$DW$206       .dwtag  DW_TAG_member
    1749                      .dwattr $C$DW$206, DW_AT_type(*$C$DW$T$58)
    1750                      .dwattr $C$DW$206, DW_AT_name("bit")
    1751                      .dwattr $C$DW$206, DW_AT_TI_symbol_name("_bit")
    1752                      .dwattr $C$DW$206, DW_AT_data_member_location[DW_OP_plus_uconst 0x0]
    1753                      .dwattr $C$DW$206, DW_AT_accessibility(DW_ACCESS_public)
    1754                      .dwendtag $C$DW$T$59
    1755              
    1756              
    1757              $C$DW$T$60      .dwtag  DW_TAG_structure_type
    1758                      .dwattr $C$DW$T$60, DW_AT_name("DC10_BITS")
    1759                      .dwattr $C$DW$T$60, DW_AT_byte_size(0x02)
    1760              $C$DW$207       .dwtag  DW_TAG_member
    1761                      .dwattr $C$DW$207, DW_AT_type(*$C$DW$T$19)
    1762                      .dwattr $C$DW$207, DW_AT_name("I2C_A")
    1763                      .dwattr $C$DW$207, DW_AT_TI_symbol_name("_I2C_A")
    1764                      .dwattr $C$DW$207, DW_AT_bit_offset(0x0f), DW_AT_bit_size(0x01)
    1765                      .dwattr $C$DW$207, DW_AT_data_member_location[DW_OP_plus_uconst 0x0]
    1766                      .dwattr $C$DW$207, DW_AT_accessibility(DW_ACCESS_public)
    1767              $C$DW$208       .dwtag  DW_TAG_member
    1768                      .dwattr $C$DW$208, DW_AT_type(*$C$DW$T$19)
    1769                      .dwattr $C$DW$208, DW_AT_name("I2C_B")
    1770                      .dwattr $C$DW$208, DW_AT_TI_symbol_name("_I2C_B")
    1771                      .dwattr $C$DW$208, DW_AT_bit_offset(0x0e), DW_AT_bit_size(0x01)
    1772                      .dwattr $C$DW$208, DW_AT_data_member_location[DW_OP_plus_uconst 0x0]
    1773                      .dwattr $C$DW$208, DW_AT_accessibility(DW_ACCESS_public)
    1774              $C$DW$209       .dwtag  DW_TAG_member
    1775                      .dwattr $C$DW$209, DW_AT_type(*$C$DW$T$19)
    1776                      .dwattr $C$DW$209, DW_AT_name("rsvd1")
    1777                      .dwattr $C$DW$209, DW_AT_TI_symbol_name("_rsvd1")
    1778                      .dwattr $C$DW$209, DW_AT_bit_offset(0x00), DW_AT_bit_size(0x0e)
    1779                      .dwattr $C$DW$209, DW_AT_data_member_location[DW_OP_plus_uconst 0x0]
    1780                      .dwattr $C$DW$209, DW_AT_accessibility(DW_ACCESS_public)
    1781              $C$DW$210       .dwtag  DW_TAG_member
    1782                      .dwattr $C$DW$210, DW_AT_type(*$C$DW$T$19)
    1783                      .dwattr $C$DW$210, DW_AT_name("rsvd2")
    1784                      .dwattr $C$DW$210, DW_AT_TI_symbol_name("_rsvd2")
    1785                      .dwattr $C$DW$210, DW_AT_bit_offset(0x00), DW_AT_bit_size(0x10)
    1786                      .dwattr $C$DW$210, DW_AT_data_member_location[DW_OP_plus_uconst 0x1]
    1787                      .dwattr $C$DW$210, DW_AT_accessibility(DW_ACCESS_public)
    1788                      .dwendtag $C$DW$T$60
    1789              
    1790              
    1791              $C$DW$T$61      .dwtag  DW_TAG_union_type
    1792                      .dwattr $C$DW$T$61, DW_AT_name("DC10_REG")
    1793                      .dwattr $C$DW$T$61, DW_AT_byte_size(0x02)
TMS320C2000 Assembler PC v6.1.3 Thu Jan 30 10:25:22 2014

Tools Copyright (c) 1996-2012 Texas Instruments Incorporated
C:\Users\a0272466\AppData\Local\Temp\0699610                         PAGE   34

    1794              $C$DW$211       .dwtag  DW_TAG_member
    1795                      .dwattr $C$DW$211, DW_AT_type(*$C$DW$T$21)
    1796                      .dwattr $C$DW$211, DW_AT_name("all")
    1797                      .dwattr $C$DW$211, DW_AT_TI_symbol_name("_all")
    1798                      .dwattr $C$DW$211, DW_AT_data_member_location[DW_OP_plus_uconst 0x0]
    1799                      .dwattr $C$DW$211, DW_AT_accessibility(DW_ACCESS_public)
    1800              $C$DW$212       .dwtag  DW_TAG_member
    1801                      .dwattr $C$DW$212, DW_AT_type(*$C$DW$T$60)
    1802                      .dwattr $C$DW$212, DW_AT_name("bit")
    1803                      .dwattr $C$DW$212, DW_AT_TI_symbol_name("_bit")
    1804                      .dwattr $C$DW$212, DW_AT_data_member_location[DW_OP_plus_uconst 0x0]
    1805                      .dwattr $C$DW$212, DW_AT_accessibility(DW_ACCESS_public)
    1806                      .dwendtag $C$DW$T$61
    1807              
    1808              
    1809              $C$DW$T$62      .dwtag  DW_TAG_structure_type
    1810                      .dwattr $C$DW$T$62, DW_AT_name("DC11_BITS")
    1811                      .dwattr $C$DW$T$62, DW_AT_byte_size(0x02)
    1812              $C$DW$213       .dwtag  DW_TAG_member
    1813                      .dwattr $C$DW$213, DW_AT_type(*$C$DW$T$19)
    1814                      .dwattr $C$DW$213, DW_AT_name("CAN_A")
    1815                      .dwattr $C$DW$213, DW_AT_TI_symbol_name("_CAN_A")
    1816                      .dwattr $C$DW$213, DW_AT_bit_offset(0x0f), DW_AT_bit_size(0x01)
    1817                      .dwattr $C$DW$213, DW_AT_data_member_location[DW_OP_plus_uconst 0x0]
    1818                      .dwattr $C$DW$213, DW_AT_accessibility(DW_ACCESS_public)
    1819              $C$DW$214       .dwtag  DW_TAG_member
    1820                      .dwattr $C$DW$214, DW_AT_type(*$C$DW$T$19)
    1821                      .dwattr $C$DW$214, DW_AT_name("CAN_B")
    1822                      .dwattr $C$DW$214, DW_AT_TI_symbol_name("_CAN_B")
    1823                      .dwattr $C$DW$214, DW_AT_bit_offset(0x0e), DW_AT_bit_size(0x01)
    1824                      .dwattr $C$DW$214, DW_AT_data_member_location[DW_OP_plus_uconst 0x0]
    1825                      .dwattr $C$DW$214, DW_AT_accessibility(DW_ACCESS_public)
    1826              $C$DW$215       .dwtag  DW_TAG_member
    1827                      .dwattr $C$DW$215, DW_AT_type(*$C$DW$T$19)
    1828                      .dwattr $C$DW$215, DW_AT_name("rsvd1")
    1829                      .dwattr $C$DW$215, DW_AT_TI_symbol_name("_rsvd1")
    1830                      .dwattr $C$DW$215, DW_AT_bit_offset(0x00), DW_AT_bit_size(0x0e)
    1831                      .dwattr $C$DW$215, DW_AT_data_member_location[DW_OP_plus_uconst 0x0]
    1832                      .dwattr $C$DW$215, DW_AT_accessibility(DW_ACCESS_public)
    1833              $C$DW$216       .dwtag  DW_TAG_member
    1834                      .dwattr $C$DW$216, DW_AT_type(*$C$DW$T$19)
    1835                      .dwattr $C$DW$216, DW_AT_name("rsvd2")
    1836                      .dwattr $C$DW$216, DW_AT_TI_symbol_name("_rsvd2")
    1837                      .dwattr $C$DW$216, DW_AT_bit_offset(0x00), DW_AT_bit_size(0x10)
    1838                      .dwattr $C$DW$216, DW_AT_data_member_location[DW_OP_plus_uconst 0x1]
    1839                      .dwattr $C$DW$216, DW_AT_accessibility(DW_ACCESS_public)
    1840                      .dwendtag $C$DW$T$62
    1841              
    1842              
    1843              $C$DW$T$63      .dwtag  DW_TAG_union_type
    1844                      .dwattr $C$DW$T$63, DW_AT_name("DC11_REG")
    1845                      .dwattr $C$DW$T$63, DW_AT_byte_size(0x02)
    1846              $C$DW$217       .dwtag  DW_TAG_member
    1847                      .dwattr $C$DW$217, DW_AT_type(*$C$DW$T$21)
    1848                      .dwattr $C$DW$217, DW_AT_name("all")
TMS320C2000 Assembler PC v6.1.3 Thu Jan 30 10:25:22 2014

Tools Copyright (c) 1996-2012 Texas Instruments Incorporated
C:\Users\a0272466\AppData\Local\Temp\0699610                         PAGE   35

    1849                      .dwattr $C$DW$217, DW_AT_TI_symbol_name("_all")
    1850                      .dwattr $C$DW$217, DW_AT_data_member_location[DW_OP_plus_uconst 0x0]
    1851                      .dwattr $C$DW$217, DW_AT_accessibility(DW_ACCESS_public)
    1852              $C$DW$218       .dwtag  DW_TAG_member
    1853                      .dwattr $C$DW$218, DW_AT_type(*$C$DW$T$62)
    1854                      .dwattr $C$DW$218, DW_AT_name("bit")
    1855                      .dwattr $C$DW$218, DW_AT_TI_symbol_name("_bit")
    1856                      .dwattr $C$DW$218, DW_AT_data_member_location[DW_OP_plus_uconst 0x0]
    1857                      .dwattr $C$DW$218, DW_AT_accessibility(DW_ACCESS_public)
    1858                      .dwendtag $C$DW$T$63
    1859              
    1860              
    1861              $C$DW$T$64      .dwtag  DW_TAG_structure_type
    1862                      .dwattr $C$DW$T$64, DW_AT_name("DC12_BITS")
    1863                      .dwattr $C$DW$T$64, DW_AT_byte_size(0x02)
    1864              $C$DW$219       .dwtag  DW_TAG_member
    1865                      .dwattr $C$DW$219, DW_AT_type(*$C$DW$T$19)
    1866                      .dwattr $C$DW$219, DW_AT_name("McBSP_A")
    1867                      .dwattr $C$DW$219, DW_AT_TI_symbol_name("_McBSP_A")
    1868                      .dwattr $C$DW$219, DW_AT_bit_offset(0x0f), DW_AT_bit_size(0x01)
    1869                      .dwattr $C$DW$219, DW_AT_data_member_location[DW_OP_plus_uconst 0x0]
    1870                      .dwattr $C$DW$219, DW_AT_accessibility(DW_ACCESS_public)
    1871              $C$DW$220       .dwtag  DW_TAG_member
    1872                      .dwattr $C$DW$220, DW_AT_type(*$C$DW$T$19)
    1873                      .dwattr $C$DW$220, DW_AT_name("McBSP_B")
    1874                      .dwattr $C$DW$220, DW_AT_TI_symbol_name("_McBSP_B")
    1875                      .dwattr $C$DW$220, DW_AT_bit_offset(0x0e), DW_AT_bit_size(0x01)
    1876                      .dwattr $C$DW$220, DW_AT_data_member_location[DW_OP_plus_uconst 0x0]
    1877                      .dwattr $C$DW$220, DW_AT_accessibility(DW_ACCESS_public)
    1878              $C$DW$221       .dwtag  DW_TAG_member
    1879                      .dwattr $C$DW$221, DW_AT_type(*$C$DW$T$19)
    1880                      .dwattr $C$DW$221, DW_AT_name("rsvd1")
    1881                      .dwattr $C$DW$221, DW_AT_TI_symbol_name("_rsvd1")
    1882                      .dwattr $C$DW$221, DW_AT_bit_offset(0x00), DW_AT_bit_size(0x0e)
    1883                      .dwattr $C$DW$221, DW_AT_data_member_location[DW_OP_plus_uconst 0x0]
    1884                      .dwattr $C$DW$221, DW_AT_accessibility(DW_ACCESS_public)
    1885              $C$DW$222       .dwtag  DW_TAG_member
    1886                      .dwattr $C$DW$222, DW_AT_type(*$C$DW$T$19)
    1887                      .dwattr $C$DW$222, DW_AT_name("USB_A")
    1888                      .dwattr $C$DW$222, DW_AT_TI_symbol_name("_USB_A")
    1889                      .dwattr $C$DW$222, DW_AT_bit_offset(0x0e), DW_AT_bit_size(0x02)
    1890                      .dwattr $C$DW$222, DW_AT_data_member_location[DW_OP_plus_uconst 0x1]
    1891                      .dwattr $C$DW$222, DW_AT_accessibility(DW_ACCESS_public)
    1892              $C$DW$223       .dwtag  DW_TAG_member
    1893                      .dwattr $C$DW$223, DW_AT_type(*$C$DW$T$19)
    1894                      .dwattr $C$DW$223, DW_AT_name("rsvd2")
    1895                      .dwattr $C$DW$223, DW_AT_TI_symbol_name("_rsvd2")
    1896                      .dwattr $C$DW$223, DW_AT_bit_offset(0x00), DW_AT_bit_size(0x0e)
    1897                      .dwattr $C$DW$223, DW_AT_data_member_location[DW_OP_plus_uconst 0x1]
    1898                      .dwattr $C$DW$223, DW_AT_accessibility(DW_ACCESS_public)
    1899                      .dwendtag $C$DW$T$64
    1900              
    1901              
    1902              $C$DW$T$65      .dwtag  DW_TAG_union_type
    1903                      .dwattr $C$DW$T$65, DW_AT_name("DC12_REG")
TMS320C2000 Assembler PC v6.1.3 Thu Jan 30 10:25:22 2014

Tools Copyright (c) 1996-2012 Texas Instruments Incorporated
C:\Users\a0272466\AppData\Local\Temp\0699610                         PAGE   36

    1904                      .dwattr $C$DW$T$65, DW_AT_byte_size(0x02)
    1905              $C$DW$224       .dwtag  DW_TAG_member
    1906                      .dwattr $C$DW$224, DW_AT_type(*$C$DW$T$21)
    1907                      .dwattr $C$DW$224, DW_AT_name("all")
    1908                      .dwattr $C$DW$224, DW_AT_TI_symbol_name("_all")
    1909                      .dwattr $C$DW$224, DW_AT_data_member_location[DW_OP_plus_uconst 0x0]
    1910                      .dwattr $C$DW$224, DW_AT_accessibility(DW_ACCESS_public)
    1911              $C$DW$225       .dwtag  DW_TAG_member
    1912                      .dwattr $C$DW$225, DW_AT_type(*$C$DW$T$64)
    1913                      .dwattr $C$DW$225, DW_AT_name("bit")
    1914                      .dwattr $C$DW$225, DW_AT_TI_symbol_name("_bit")
    1915                      .dwattr $C$DW$225, DW_AT_data_member_location[DW_OP_plus_uconst 0x0]
    1916                      .dwattr $C$DW$225, DW_AT_accessibility(DW_ACCESS_public)
    1917                      .dwendtag $C$DW$T$65
    1918              
    1919              
    1920              $C$DW$T$66      .dwtag  DW_TAG_structure_type
    1921                      .dwattr $C$DW$T$66, DW_AT_name("DC13_BITS")
    1922                      .dwattr $C$DW$T$66, DW_AT_byte_size(0x02)
    1923              $C$DW$226       .dwtag  DW_TAG_member
    1924                      .dwattr $C$DW$226, DW_AT_type(*$C$DW$T$19)
    1925                      .dwattr $C$DW$226, DW_AT_name("uPP_A")
    1926                      .dwattr $C$DW$226, DW_AT_TI_symbol_name("_uPP_A")
    1927                      .dwattr $C$DW$226, DW_AT_bit_offset(0x0f), DW_AT_bit_size(0x01)
    1928                      .dwattr $C$DW$226, DW_AT_data_member_location[DW_OP_plus_uconst 0x0]
    1929                      .dwattr $C$DW$226, DW_AT_accessibility(DW_ACCESS_public)
    1930              $C$DW$227       .dwtag  DW_TAG_member
    1931                      .dwattr $C$DW$227, DW_AT_type(*$C$DW$T$19)
    1932                      .dwattr $C$DW$227, DW_AT_name("rsvd1")
    1933                      .dwattr $C$DW$227, DW_AT_TI_symbol_name("_rsvd1")
    1934                      .dwattr $C$DW$227, DW_AT_bit_offset(0x00), DW_AT_bit_size(0x0f)
    1935                      .dwattr $C$DW$227, DW_AT_data_member_location[DW_OP_plus_uconst 0x0]
    1936                      .dwattr $C$DW$227, DW_AT_accessibility(DW_ACCESS_public)
    1937              $C$DW$228       .dwtag  DW_TAG_member
    1938                      .dwattr $C$DW$228, DW_AT_type(*$C$DW$T$19)
    1939                      .dwattr $C$DW$228, DW_AT_name("rsvd2")
    1940                      .dwattr $C$DW$228, DW_AT_TI_symbol_name("_rsvd2")
    1941                      .dwattr $C$DW$228, DW_AT_bit_offset(0x00), DW_AT_bit_size(0x10)
    1942                      .dwattr $C$DW$228, DW_AT_data_member_location[DW_OP_plus_uconst 0x1]
    1943                      .dwattr $C$DW$228, DW_AT_accessibility(DW_ACCESS_public)
    1944                      .dwendtag $C$DW$T$66
    1945              
    1946              
    1947              $C$DW$T$67      .dwtag  DW_TAG_union_type
    1948                      .dwattr $C$DW$T$67, DW_AT_name("DC13_REG")
    1949                      .dwattr $C$DW$T$67, DW_AT_byte_size(0x02)
    1950              $C$DW$229       .dwtag  DW_TAG_member
    1951                      .dwattr $C$DW$229, DW_AT_type(*$C$DW$T$21)
    1952                      .dwattr $C$DW$229, DW_AT_name("all")
    1953                      .dwattr $C$DW$229, DW_AT_TI_symbol_name("_all")
    1954                      .dwattr $C$DW$229, DW_AT_data_member_location[DW_OP_plus_uconst 0x0]
    1955                      .dwattr $C$DW$229, DW_AT_accessibility(DW_ACCESS_public)
    1956              $C$DW$230       .dwtag  DW_TAG_member
    1957                      .dwattr $C$DW$230, DW_AT_type(*$C$DW$T$66)
    1958                      .dwattr $C$DW$230, DW_AT_name("bit")
TMS320C2000 Assembler PC v6.1.3 Thu Jan 30 10:25:22 2014

Tools Copyright (c) 1996-2012 Texas Instruments Incorporated
C:\Users\a0272466\AppData\Local\Temp\0699610                         PAGE   37

    1959                      .dwattr $C$DW$230, DW_AT_TI_symbol_name("_bit")
    1960                      .dwattr $C$DW$230, DW_AT_data_member_location[DW_OP_plus_uconst 0x0]
    1961                      .dwattr $C$DW$230, DW_AT_accessibility(DW_ACCESS_public)
    1962                      .dwendtag $C$DW$T$67
    1963              
    1964              
    1965              $C$DW$T$68      .dwtag  DW_TAG_structure_type
    1966                      .dwattr $C$DW$T$68, DW_AT_name("DC14_BITS")
    1967                      .dwattr $C$DW$T$68, DW_AT_byte_size(0x02)
    1968              $C$DW$231       .dwtag  DW_TAG_member
    1969                      .dwattr $C$DW$231, DW_AT_type(*$C$DW$T$19)
    1970                      .dwattr $C$DW$231, DW_AT_name("ADC1")
    1971                      .dwattr $C$DW$231, DW_AT_TI_symbol_name("_ADC1")
    1972                      .dwattr $C$DW$231, DW_AT_bit_offset(0x0f), DW_AT_bit_size(0x01)
    1973                      .dwattr $C$DW$231, DW_AT_data_member_location[DW_OP_plus_uconst 0x0]
    1974                      .dwattr $C$DW$231, DW_AT_accessibility(DW_ACCESS_public)
    1975              $C$DW$232       .dwtag  DW_TAG_member
    1976                      .dwattr $C$DW$232, DW_AT_type(*$C$DW$T$19)
    1977                      .dwattr $C$DW$232, DW_AT_name("ADC2")
    1978                      .dwattr $C$DW$232, DW_AT_TI_symbol_name("_ADC2")
    1979                      .dwattr $C$DW$232, DW_AT_bit_offset(0x0e), DW_AT_bit_size(0x01)
    1980                      .dwattr $C$DW$232, DW_AT_data_member_location[DW_OP_plus_uconst 0x0]
    1981                      .dwattr $C$DW$232, DW_AT_accessibility(DW_ACCESS_public)
    1982              $C$DW$233       .dwtag  DW_TAG_member
    1983                      .dwattr $C$DW$233, DW_AT_type(*$C$DW$T$19)
    1984                      .dwattr $C$DW$233, DW_AT_name("ADC3")
    1985                      .dwattr $C$DW$233, DW_AT_TI_symbol_name("_ADC3")
    1986                      .dwattr $C$DW$233, DW_AT_bit_offset(0x0d), DW_AT_bit_size(0x01)
    1987                      .dwattr $C$DW$233, DW_AT_data_member_location[DW_OP_plus_uconst 0x0]
    1988                      .dwattr $C$DW$233, DW_AT_accessibility(DW_ACCESS_public)
    1989              $C$DW$234       .dwtag  DW_TAG_member
    1990                      .dwattr $C$DW$234, DW_AT_type(*$C$DW$T$19)
    1991                      .dwattr $C$DW$234, DW_AT_name("ADC4")
    1992                      .dwattr $C$DW$234, DW_AT_TI_symbol_name("_ADC4")
    1993                      .dwattr $C$DW$234, DW_AT_bit_offset(0x0c), DW_AT_bit_size(0x01)
    1994                      .dwattr $C$DW$234, DW_AT_data_member_location[DW_OP_plus_uconst 0x0]
    1995                      .dwattr $C$DW$234, DW_AT_accessibility(DW_ACCESS_public)
    1996              $C$DW$235       .dwtag  DW_TAG_member
    1997                      .dwattr $C$DW$235, DW_AT_type(*$C$DW$T$19)
    1998                      .dwattr $C$DW$235, DW_AT_name("rsvd1")
    1999                      .dwattr $C$DW$235, DW_AT_TI_symbol_name("_rsvd1")
    2000                      .dwattr $C$DW$235, DW_AT_bit_offset(0x00), DW_AT_bit_size(0x0c)
    2001                      .dwattr $C$DW$235, DW_AT_data_member_location[DW_OP_plus_uconst 0x0]
    2002                      .dwattr $C$DW$235, DW_AT_accessibility(DW_ACCESS_public)
    2003              $C$DW$236       .dwtag  DW_TAG_member
    2004                      .dwattr $C$DW$236, DW_AT_type(*$C$DW$T$19)
    2005                      .dwattr $C$DW$236, DW_AT_name("rsvd2")
    2006                      .dwattr $C$DW$236, DW_AT_TI_symbol_name("_rsvd2")
    2007                      .dwattr $C$DW$236, DW_AT_bit_offset(0x00), DW_AT_bit_size(0x10)
    2008                      .dwattr $C$DW$236, DW_AT_data_member_location[DW_OP_plus_uconst 0x1]
    2009                      .dwattr $C$DW$236, DW_AT_accessibility(DW_ACCESS_public)
    2010                      .dwendtag $C$DW$T$68
    2011              
    2012              
    2013              $C$DW$T$69      .dwtag  DW_TAG_union_type
TMS320C2000 Assembler PC v6.1.3 Thu Jan 30 10:25:22 2014

Tools Copyright (c) 1996-2012 Texas Instruments Incorporated
C:\Users\a0272466\AppData\Local\Temp\0699610                         PAGE   38

    2014                      .dwattr $C$DW$T$69, DW_AT_name("DC14_REG")
    2015                      .dwattr $C$DW$T$69, DW_AT_byte_size(0x02)
    2016              $C$DW$237       .dwtag  DW_TAG_member
    2017                      .dwattr $C$DW$237, DW_AT_type(*$C$DW$T$21)
    2018                      .dwattr $C$DW$237, DW_AT_name("all")
    2019                      .dwattr $C$DW$237, DW_AT_TI_symbol_name("_all")
    2020                      .dwattr $C$DW$237, DW_AT_data_member_location[DW_OP_plus_uconst 0x0]
    2021                      .dwattr $C$DW$237, DW_AT_accessibility(DW_ACCESS_public)
    2022              $C$DW$238       .dwtag  DW_TAG_member
    2023                      .dwattr $C$DW$238, DW_AT_type(*$C$DW$T$68)
    2024                      .dwattr $C$DW$238, DW_AT_name("bit")
    2025                      .dwattr $C$DW$238, DW_AT_TI_symbol_name("_bit")
    2026                      .dwattr $C$DW$238, DW_AT_data_member_location[DW_OP_plus_uconst 0x0]
    2027                      .dwattr $C$DW$238, DW_AT_accessibility(DW_ACCESS_public)
    2028                      .dwendtag $C$DW$T$69
    2029              
    2030              
    2031              $C$DW$T$70      .dwtag  DW_TAG_structure_type
    2032                      .dwattr $C$DW$T$70, DW_AT_name("DC15_BITS")
    2033                      .dwattr $C$DW$T$70, DW_AT_byte_size(0x02)
    2034              $C$DW$239       .dwtag  DW_TAG_member
    2035                      .dwattr $C$DW$239, DW_AT_type(*$C$DW$T$19)
    2036                      .dwattr $C$DW$239, DW_AT_name("CMPSS1")
    2037                      .dwattr $C$DW$239, DW_AT_TI_symbol_name("_CMPSS1")
    2038                      .dwattr $C$DW$239, DW_AT_bit_offset(0x0f), DW_AT_bit_size(0x01)
    2039                      .dwattr $C$DW$239, DW_AT_data_member_location[DW_OP_plus_uconst 0x0]
    2040                      .dwattr $C$DW$239, DW_AT_accessibility(DW_ACCESS_public)
    2041              $C$DW$240       .dwtag  DW_TAG_member
    2042                      .dwattr $C$DW$240, DW_AT_type(*$C$DW$T$19)
    2043                      .dwattr $C$DW$240, DW_AT_name("CMPSS2")
    2044                      .dwattr $C$DW$240, DW_AT_TI_symbol_name("_CMPSS2")
    2045                      .dwattr $C$DW$240, DW_AT_bit_offset(0x0e), DW_AT_bit_size(0x01)
    2046                      .dwattr $C$DW$240, DW_AT_data_member_location[DW_OP_plus_uconst 0x0]
    2047                      .dwattr $C$DW$240, DW_AT_accessibility(DW_ACCESS_public)
    2048              $C$DW$241       .dwtag  DW_TAG_member
    2049                      .dwattr $C$DW$241, DW_AT_type(*$C$DW$T$19)
    2050                      .dwattr $C$DW$241, DW_AT_name("CMPSS3")
    2051                      .dwattr $C$DW$241, DW_AT_TI_symbol_name("_CMPSS3")
    2052                      .dwattr $C$DW$241, DW_AT_bit_offset(0x0d), DW_AT_bit_size(0x01)
    2053                      .dwattr $C$DW$241, DW_AT_data_member_location[DW_OP_plus_uconst 0x0]
    2054                      .dwattr $C$DW$241, DW_AT_accessibility(DW_ACCESS_public)
    2055              $C$DW$242       .dwtag  DW_TAG_member
    2056                      .dwattr $C$DW$242, DW_AT_type(*$C$DW$T$19)
    2057                      .dwattr $C$DW$242, DW_AT_name("CMPSS4")
    2058                      .dwattr $C$DW$242, DW_AT_TI_symbol_name("_CMPSS4")
    2059                      .dwattr $C$DW$242, DW_AT_bit_offset(0x0c), DW_AT_bit_size(0x01)
    2060                      .dwattr $C$DW$242, DW_AT_data_member_location[DW_OP_plus_uconst 0x0]
    2061                      .dwattr $C$DW$242, DW_AT_accessibility(DW_ACCESS_public)
    2062              $C$DW$243       .dwtag  DW_TAG_member
    2063                      .dwattr $C$DW$243, DW_AT_type(*$C$DW$T$19)
    2064                      .dwattr $C$DW$243, DW_AT_name("CMPSS5")
    2065                      .dwattr $C$DW$243, DW_AT_TI_symbol_name("_CMPSS5")
    2066                      .dwattr $C$DW$243, DW_AT_bit_offset(0x0b), DW_AT_bit_size(0x01)
    2067                      .dwattr $C$DW$243, DW_AT_data_member_location[DW_OP_plus_uconst 0x0]
    2068                      .dwattr $C$DW$243, DW_AT_accessibility(DW_ACCESS_public)
TMS320C2000 Assembler PC v6.1.3 Thu Jan 30 10:25:22 2014

Tools Copyright (c) 1996-2012 Texas Instruments Incorporated
C:\Users\a0272466\AppData\Local\Temp\0699610                         PAGE   39

    2069              $C$DW$244       .dwtag  DW_TAG_member
    2070                      .dwattr $C$DW$244, DW_AT_type(*$C$DW$T$19)
    2071                      .dwattr $C$DW$244, DW_AT_name("CMPSS6")
    2072                      .dwattr $C$DW$244, DW_AT_TI_symbol_name("_CMPSS6")
    2073                      .dwattr $C$DW$244, DW_AT_bit_offset(0x0a), DW_AT_bit_size(0x01)
    2074                      .dwattr $C$DW$244, DW_AT_data_member_location[DW_OP_plus_uconst 0x0]
    2075                      .dwattr $C$DW$244, DW_AT_accessibility(DW_ACCESS_public)
    2076              $C$DW$245       .dwtag  DW_TAG_member
    2077                      .dwattr $C$DW$245, DW_AT_type(*$C$DW$T$19)
    2078                      .dwattr $C$DW$245, DW_AT_name("CMPSS7")
    2079                      .dwattr $C$DW$245, DW_AT_TI_symbol_name("_CMPSS7")
    2080                      .dwattr $C$DW$245, DW_AT_bit_offset(0x09), DW_AT_bit_size(0x01)
    2081                      .dwattr $C$DW$245, DW_AT_data_member_location[DW_OP_plus_uconst 0x0]
    2082                      .dwattr $C$DW$245, DW_AT_accessibility(DW_ACCESS_public)
    2083              $C$DW$246       .dwtag  DW_TAG_member
    2084                      .dwattr $C$DW$246, DW_AT_type(*$C$DW$T$19)
    2085                      .dwattr $C$DW$246, DW_AT_name("CMPSS8")
    2086                      .dwattr $C$DW$246, DW_AT_TI_symbol_name("_CMPSS8")
    2087                      .dwattr $C$DW$246, DW_AT_bit_offset(0x08), DW_AT_bit_size(0x01)
    2088                      .dwattr $C$DW$246, DW_AT_data_member_location[DW_OP_plus_uconst 0x0]
    2089                      .dwattr $C$DW$246, DW_AT_accessibility(DW_ACCESS_public)
    2090              $C$DW$247       .dwtag  DW_TAG_member
    2091                      .dwattr $C$DW$247, DW_AT_type(*$C$DW$T$19)
    2092                      .dwattr $C$DW$247, DW_AT_name("rsvd1")
    2093                      .dwattr $C$DW$247, DW_AT_TI_symbol_name("_rsvd1")
    2094                      .dwattr $C$DW$247, DW_AT_bit_offset(0x00), DW_AT_bit_size(0x08)
    2095                      .dwattr $C$DW$247, DW_AT_data_member_location[DW_OP_plus_uconst 0x0]
    2096                      .dwattr $C$DW$247, DW_AT_accessibility(DW_ACCESS_public)
    2097              $C$DW$248       .dwtag  DW_TAG_member
    2098                      .dwattr $C$DW$248, DW_AT_type(*$C$DW$T$19)
    2099                      .dwattr $C$DW$248, DW_AT_name("rsvd2")
    2100                      .dwattr $C$DW$248, DW_AT_TI_symbol_name("_rsvd2")
    2101                      .dwattr $C$DW$248, DW_AT_bit_offset(0x00), DW_AT_bit_size(0x10)
    2102                      .dwattr $C$DW$248, DW_AT_data_member_location[DW_OP_plus_uconst 0x1]
    2103                      .dwattr $C$DW$248, DW_AT_accessibility(DW_ACCESS_public)
    2104                      .dwendtag $C$DW$T$70
    2105              
    2106              
    2107              $C$DW$T$71      .dwtag  DW_TAG_union_type
    2108                      .dwattr $C$DW$T$71, DW_AT_name("DC15_REG")
    2109                      .dwattr $C$DW$T$71, DW_AT_byte_size(0x02)
    2110              $C$DW$249       .dwtag  DW_TAG_member
    2111                      .dwattr $C$DW$249, DW_AT_type(*$C$DW$T$21)
    2112                      .dwattr $C$DW$249, DW_AT_name("all")
    2113                      .dwattr $C$DW$249, DW_AT_TI_symbol_name("_all")
    2114                      .dwattr $C$DW$249, DW_AT_data_member_location[DW_OP_plus_uconst 0x0]
    2115                      .dwattr $C$DW$249, DW_AT_accessibility(DW_ACCESS_public)
    2116              $C$DW$250       .dwtag  DW_TAG_member
    2117                      .dwattr $C$DW$250, DW_AT_type(*$C$DW$T$70)
    2118                      .dwattr $C$DW$250, DW_AT_name("bit")
    2119                      .dwattr $C$DW$250, DW_AT_TI_symbol_name("_bit")
    2120                      .dwattr $C$DW$250, DW_AT_data_member_location[DW_OP_plus_uconst 0x0]
    2121                      .dwattr $C$DW$250, DW_AT_accessibility(DW_ACCESS_public)
    2122                      .dwendtag $C$DW$T$71
    2123              
TMS320C2000 Assembler PC v6.1.3 Thu Jan 30 10:25:22 2014

Tools Copyright (c) 1996-2012 Texas Instruments Incorporated
C:\Users\a0272466\AppData\Local\Temp\0699610                         PAGE   40

    2124              
    2125              $C$DW$T$72      .dwtag  DW_TAG_structure_type
    2126                      .dwattr $C$DW$T$72, DW_AT_name("DC17_BITS")
    2127                      .dwattr $C$DW$T$72, DW_AT_byte_size(0x02)
    2128              $C$DW$251       .dwtag  DW_TAG_member
    2129                      .dwattr $C$DW$251, DW_AT_type(*$C$DW$T$19)
    2130                      .dwattr $C$DW$251, DW_AT_name("rsvd1")
    2131                      .dwattr $C$DW$251, DW_AT_TI_symbol_name("_rsvd1")
    2132                      .dwattr $C$DW$251, DW_AT_bit_offset(0x00), DW_AT_bit_size(0x10)
    2133                      .dwattr $C$DW$251, DW_AT_data_member_location[DW_OP_plus_uconst 0x0]
    2134                      .dwattr $C$DW$251, DW_AT_accessibility(DW_ACCESS_public)
    2135              $C$DW$252       .dwtag  DW_TAG_member
    2136                      .dwattr $C$DW$252, DW_AT_type(*$C$DW$T$19)
    2137                      .dwattr $C$DW$252, DW_AT_name("Buffered_DAC12_1")
    2138                      .dwattr $C$DW$252, DW_AT_TI_symbol_name("_Buffered_DAC12_1")
    2139                      .dwattr $C$DW$252, DW_AT_bit_offset(0x0f), DW_AT_bit_size(0x01)
    2140                      .dwattr $C$DW$252, DW_AT_data_member_location[DW_OP_plus_uconst 0x1]
    2141                      .dwattr $C$DW$252, DW_AT_accessibility(DW_ACCESS_public)
    2142              $C$DW$253       .dwtag  DW_TAG_member
    2143                      .dwattr $C$DW$253, DW_AT_type(*$C$DW$T$19)
    2144                      .dwattr $C$DW$253, DW_AT_name("Buffered_DAC12_2")
    2145                      .dwattr $C$DW$253, DW_AT_TI_symbol_name("_Buffered_DAC12_2")
    2146                      .dwattr $C$DW$253, DW_AT_bit_offset(0x0e), DW_AT_bit_size(0x01)
    2147                      .dwattr $C$DW$253, DW_AT_data_member_location[DW_OP_plus_uconst 0x1]
    2148                      .dwattr $C$DW$253, DW_AT_accessibility(DW_ACCESS_public)
    2149              $C$DW$254       .dwtag  DW_TAG_member
    2150                      .dwattr $C$DW$254, DW_AT_type(*$C$DW$T$19)
    2151                      .dwattr $C$DW$254, DW_AT_name("Buffered_DAC12_3")
    2152                      .dwattr $C$DW$254, DW_AT_TI_symbol_name("_Buffered_DAC12_3")
    2153                      .dwattr $C$DW$254, DW_AT_bit_offset(0x0d), DW_AT_bit_size(0x01)
    2154                      .dwattr $C$DW$254, DW_AT_data_member_location[DW_OP_plus_uconst 0x1]
    2155                      .dwattr $C$DW$254, DW_AT_accessibility(DW_ACCESS_public)
    2156              $C$DW$255       .dwtag  DW_TAG_member
    2157                      .dwattr $C$DW$255, DW_AT_type(*$C$DW$T$19)
    2158                      .dwattr $C$DW$255, DW_AT_name("rsvd2")
    2159                      .dwattr $C$DW$255, DW_AT_TI_symbol_name("_rsvd2")
    2160                      .dwattr $C$DW$255, DW_AT_bit_offset(0x00), DW_AT_bit_size(0x0d)
    2161                      .dwattr $C$DW$255, DW_AT_data_member_location[DW_OP_plus_uconst 0x1]
    2162                      .dwattr $C$DW$255, DW_AT_accessibility(DW_ACCESS_public)
    2163                      .dwendtag $C$DW$T$72
    2164              
    2165              
    2166              $C$DW$T$73      .dwtag  DW_TAG_union_type
    2167                      .dwattr $C$DW$T$73, DW_AT_name("DC17_REG")
    2168                      .dwattr $C$DW$T$73, DW_AT_byte_size(0x02)
    2169              $C$DW$256       .dwtag  DW_TAG_member
    2170                      .dwattr $C$DW$256, DW_AT_type(*$C$DW$T$21)
    2171                      .dwattr $C$DW$256, DW_AT_name("all")
    2172                      .dwattr $C$DW$256, DW_AT_TI_symbol_name("_all")
    2173                      .dwattr $C$DW$256, DW_AT_data_member_location[DW_OP_plus_uconst 0x0]
    2174                      .dwattr $C$DW$256, DW_AT_accessibility(DW_ACCESS_public)
    2175              $C$DW$257       .dwtag  DW_TAG_member
    2176                      .dwattr $C$DW$257, DW_AT_type(*$C$DW$T$72)
    2177                      .dwattr $C$DW$257, DW_AT_name("bit")
    2178                      .dwattr $C$DW$257, DW_AT_TI_symbol_name("_bit")
TMS320C2000 Assembler PC v6.1.3 Thu Jan 30 10:25:22 2014

Tools Copyright (c) 1996-2012 Texas Instruments Incorporated
C:\Users\a0272466\AppData\Local\Temp\0699610                         PAGE   41

    2179                      .dwattr $C$DW$257, DW_AT_data_member_location[DW_OP_plus_uconst 0x0]
    2180                      .dwattr $C$DW$257, DW_AT_accessibility(DW_ACCESS_public)
    2181                      .dwendtag $C$DW$T$73
    2182              
    2183              
    2184              $C$DW$T$74      .dwtag  DW_TAG_structure_type
    2185                      .dwattr $C$DW$T$74, DW_AT_name("DC18_BITS")
    2186                      .dwattr $C$DW$T$74, DW_AT_byte_size(0x02)
    2187              $C$DW$258       .dwtag  DW_TAG_member
    2188                      .dwattr $C$DW$258, DW_AT_type(*$C$DW$T$19)
    2189                      .dwattr $C$DW$258, DW_AT_name("LS0_1")
    2190                      .dwattr $C$DW$258, DW_AT_TI_symbol_name("_LS0_1")
    2191                      .dwattr $C$DW$258, DW_AT_bit_offset(0x0f), DW_AT_bit_size(0x01)
    2192                      .dwattr $C$DW$258, DW_AT_data_member_location[DW_OP_plus_uconst 0x0]
    2193                      .dwattr $C$DW$258, DW_AT_accessibility(DW_ACCESS_public)
    2194              $C$DW$259       .dwtag  DW_TAG_member
    2195                      .dwattr $C$DW$259, DW_AT_type(*$C$DW$T$19)
    2196                      .dwattr $C$DW$259, DW_AT_name("LS1_1")
    2197                      .dwattr $C$DW$259, DW_AT_TI_symbol_name("_LS1_1")
    2198                      .dwattr $C$DW$259, DW_AT_bit_offset(0x0e), DW_AT_bit_size(0x01)
    2199                      .dwattr $C$DW$259, DW_AT_data_member_location[DW_OP_plus_uconst 0x0]
    2200                      .dwattr $C$DW$259, DW_AT_accessibility(DW_ACCESS_public)
    2201              $C$DW$260       .dwtag  DW_TAG_member
    2202                      .dwattr $C$DW$260, DW_AT_type(*$C$DW$T$19)
    2203                      .dwattr $C$DW$260, DW_AT_name("LS2_1")
    2204                      .dwattr $C$DW$260, DW_AT_TI_symbol_name("_LS2_1")
    2205                      .dwattr $C$DW$260, DW_AT_bit_offset(0x0d), DW_AT_bit_size(0x01)
    2206                      .dwattr $C$DW$260, DW_AT_data_member_location[DW_OP_plus_uconst 0x0]
    2207                      .dwattr $C$DW$260, DW_AT_accessibility(DW_ACCESS_public)
    2208              $C$DW$261       .dwtag  DW_TAG_member
    2209                      .dwattr $C$DW$261, DW_AT_type(*$C$DW$T$19)
    2210                      .dwattr $C$DW$261, DW_AT_name("LS3_1")
    2211                      .dwattr $C$DW$261, DW_AT_TI_symbol_name("_LS3_1")
    2212                      .dwattr $C$DW$261, DW_AT_bit_offset(0x0c), DW_AT_bit_size(0x01)
    2213                      .dwattr $C$DW$261, DW_AT_data_member_location[DW_OP_plus_uconst 0x0]
    2214                      .dwattr $C$DW$261, DW_AT_accessibility(DW_ACCESS_public)
    2215              $C$DW$262       .dwtag  DW_TAG_member
    2216                      .dwattr $C$DW$262, DW_AT_type(*$C$DW$T$19)
    2217                      .dwattr $C$DW$262, DW_AT_name("LS4_1")
    2218                      .dwattr $C$DW$262, DW_AT_TI_symbol_name("_LS4_1")
    2219                      .dwattr $C$DW$262, DW_AT_bit_offset(0x0b), DW_AT_bit_size(0x01)
    2220                      .dwattr $C$DW$262, DW_AT_data_member_location[DW_OP_plus_uconst 0x0]
    2221                      .dwattr $C$DW$262, DW_AT_accessibility(DW_ACCESS_public)
    2222              $C$DW$263       .dwtag  DW_TAG_member
    2223                      .dwattr $C$DW$263, DW_AT_type(*$C$DW$T$19)
    2224                      .dwattr $C$DW$263, DW_AT_name("LS5_1")
    2225                      .dwattr $C$DW$263, DW_AT_TI_symbol_name("_LS5_1")
    2226                      .dwattr $C$DW$263, DW_AT_bit_offset(0x0a), DW_AT_bit_size(0x01)
    2227                      .dwattr $C$DW$263, DW_AT_data_member_location[DW_OP_plus_uconst 0x0]
    2228                      .dwattr $C$DW$263, DW_AT_accessibility(DW_ACCESS_public)
    2229              $C$DW$264       .dwtag  DW_TAG_member
    2230                      .dwattr $C$DW$264, DW_AT_type(*$C$DW$T$19)
    2231                      .dwattr $C$DW$264, DW_AT_name("rsvd1")
    2232                      .dwattr $C$DW$264, DW_AT_TI_symbol_name("_rsvd1")
    2233                      .dwattr $C$DW$264, DW_AT_bit_offset(0x00), DW_AT_bit_size(0x0a)
TMS320C2000 Assembler PC v6.1.3 Thu Jan 30 10:25:22 2014

Tools Copyright (c) 1996-2012 Texas Instruments Incorporated
C:\Users\a0272466\AppData\Local\Temp\0699610                         PAGE   42

    2234                      .dwattr $C$DW$264, DW_AT_data_member_location[DW_OP_plus_uconst 0x0]
    2235                      .dwattr $C$DW$264, DW_AT_accessibility(DW_ACCESS_public)
    2236              $C$DW$265       .dwtag  DW_TAG_member
    2237                      .dwattr $C$DW$265, DW_AT_type(*$C$DW$T$19)
    2238                      .dwattr $C$DW$265, DW_AT_name("rsvd2")
    2239                      .dwattr $C$DW$265, DW_AT_TI_symbol_name("_rsvd2")
    2240                      .dwattr $C$DW$265, DW_AT_bit_offset(0x00), DW_AT_bit_size(0x10)
    2241                      .dwattr $C$DW$265, DW_AT_data_member_location[DW_OP_plus_uconst 0x1]
    2242                      .dwattr $C$DW$265, DW_AT_accessibility(DW_ACCESS_public)
    2243                      .dwendtag $C$DW$T$74
    2244              
    2245              
    2246              $C$DW$T$75      .dwtag  DW_TAG_union_type
    2247                      .dwattr $C$DW$T$75, DW_AT_name("DC18_REG")
    2248                      .dwattr $C$DW$T$75, DW_AT_byte_size(0x02)
    2249              $C$DW$266       .dwtag  DW_TAG_member
    2250                      .dwattr $C$DW$266, DW_AT_type(*$C$DW$T$21)
    2251                      .dwattr $C$DW$266, DW_AT_name("all")
    2252                      .dwattr $C$DW$266, DW_AT_TI_symbol_name("_all")
    2253                      .dwattr $C$DW$266, DW_AT_data_member_location[DW_OP_plus_uconst 0x0]
    2254                      .dwattr $C$DW$266, DW_AT_accessibility(DW_ACCESS_public)
    2255              $C$DW$267       .dwtag  DW_TAG_member
    2256                      .dwattr $C$DW$267, DW_AT_type(*$C$DW$T$74)
    2257                      .dwattr $C$DW$267, DW_AT_name("bit")
    2258                      .dwattr $C$DW$267, DW_AT_TI_symbol_name("_bit")
    2259                      .dwattr $C$DW$267, DW_AT_data_member_location[DW_OP_plus_uconst 0x0]
    2260                      .dwattr $C$DW$267, DW_AT_accessibility(DW_ACCESS_public)
    2261                      .dwendtag $C$DW$T$75
    2262              
    2263              
    2264              $C$DW$T$76      .dwtag  DW_TAG_structure_type
    2265                      .dwattr $C$DW$T$76, DW_AT_name("DC19_BITS")
    2266                      .dwattr $C$DW$T$76, DW_AT_byte_size(0x02)
    2267              $C$DW$268       .dwtag  DW_TAG_member
    2268                      .dwattr $C$DW$268, DW_AT_type(*$C$DW$T$19)
    2269                      .dwattr $C$DW$268, DW_AT_name("LS0_2")
    2270                      .dwattr $C$DW$268, DW_AT_TI_symbol_name("_LS0_2")
    2271                      .dwattr $C$DW$268, DW_AT_bit_offset(0x0f), DW_AT_bit_size(0x01)
    2272                      .dwattr $C$DW$268, DW_AT_data_member_location[DW_OP_plus_uconst 0x0]
    2273                      .dwattr $C$DW$268, DW_AT_accessibility(DW_ACCESS_public)
    2274              $C$DW$269       .dwtag  DW_TAG_member
    2275                      .dwattr $C$DW$269, DW_AT_type(*$C$DW$T$19)
    2276                      .dwattr $C$DW$269, DW_AT_name("LS1_2")
    2277                      .dwattr $C$DW$269, DW_AT_TI_symbol_name("_LS1_2")
    2278                      .dwattr $C$DW$269, DW_AT_bit_offset(0x0e), DW_AT_bit_size(0x01)
    2279                      .dwattr $C$DW$269, DW_AT_data_member_location[DW_OP_plus_uconst 0x0]
    2280                      .dwattr $C$DW$269, DW_AT_accessibility(DW_ACCESS_public)
    2281              $C$DW$270       .dwtag  DW_TAG_member
    2282                      .dwattr $C$DW$270, DW_AT_type(*$C$DW$T$19)
    2283                      .dwattr $C$DW$270, DW_AT_name("LS2_2")
    2284                      .dwattr $C$DW$270, DW_AT_TI_symbol_name("_LS2_2")
    2285                      .dwattr $C$DW$270, DW_AT_bit_offset(0x0d), DW_AT_bit_size(0x01)
    2286                      .dwattr $C$DW$270, DW_AT_data_member_location[DW_OP_plus_uconst 0x0]
    2287                      .dwattr $C$DW$270, DW_AT_accessibility(DW_ACCESS_public)
    2288              $C$DW$271       .dwtag  DW_TAG_member
TMS320C2000 Assembler PC v6.1.3 Thu Jan 30 10:25:22 2014

Tools Copyright (c) 1996-2012 Texas Instruments Incorporated
C:\Users\a0272466\AppData\Local\Temp\0699610                         PAGE   43

    2289                      .dwattr $C$DW$271, DW_AT_type(*$C$DW$T$19)
    2290                      .dwattr $C$DW$271, DW_AT_name("LS3_2")
    2291                      .dwattr $C$DW$271, DW_AT_TI_symbol_name("_LS3_2")
    2292                      .dwattr $C$DW$271, DW_AT_bit_offset(0x0c), DW_AT_bit_size(0x01)
    2293                      .dwattr $C$DW$271, DW_AT_data_member_location[DW_OP_plus_uconst 0x0]
    2294                      .dwattr $C$DW$271, DW_AT_accessibility(DW_ACCESS_public)
    2295              $C$DW$272       .dwtag  DW_TAG_member
    2296                      .dwattr $C$DW$272, DW_AT_type(*$C$DW$T$19)
    2297                      .dwattr $C$DW$272, DW_AT_name("LS4_2")
    2298                      .dwattr $C$DW$272, DW_AT_TI_symbol_name("_LS4_2")
    2299                      .dwattr $C$DW$272, DW_AT_bit_offset(0x0b), DW_AT_bit_size(0x01)
    2300                      .dwattr $C$DW$272, DW_AT_data_member_location[DW_OP_plus_uconst 0x0]
    2301                      .dwattr $C$DW$272, DW_AT_accessibility(DW_ACCESS_public)
    2302              $C$DW$273       .dwtag  DW_TAG_member
    2303                      .dwattr $C$DW$273, DW_AT_type(*$C$DW$T$19)
    2304                      .dwattr $C$DW$273, DW_AT_name("LS5_2")
    2305                      .dwattr $C$DW$273, DW_AT_TI_symbol_name("_LS5_2")
    2306                      .dwattr $C$DW$273, DW_AT_bit_offset(0x0a), DW_AT_bit_size(0x01)
    2307                      .dwattr $C$DW$273, DW_AT_data_member_location[DW_OP_plus_uconst 0x0]
    2308                      .dwattr $C$DW$273, DW_AT_accessibility(DW_ACCESS_public)
    2309              $C$DW$274       .dwtag  DW_TAG_member
    2310                      .dwattr $C$DW$274, DW_AT_type(*$C$DW$T$19)
    2311                      .dwattr $C$DW$274, DW_AT_name("rsvd1")
    2312                      .dwattr $C$DW$274, DW_AT_TI_symbol_name("_rsvd1")
    2313                      .dwattr $C$DW$274, DW_AT_bit_offset(0x00), DW_AT_bit_size(0x0a)
    2314                      .dwattr $C$DW$274, DW_AT_data_member_location[DW_OP_plus_uconst 0x0]
    2315                      .dwattr $C$DW$274, DW_AT_accessibility(DW_ACCESS_public)
    2316              $C$DW$275       .dwtag  DW_TAG_member
    2317                      .dwattr $C$DW$275, DW_AT_type(*$C$DW$T$19)
    2318                      .dwattr $C$DW$275, DW_AT_name("rsvd2")
    2319                      .dwattr $C$DW$275, DW_AT_TI_symbol_name("_rsvd2")
    2320                      .dwattr $C$DW$275, DW_AT_bit_offset(0x00), DW_AT_bit_size(0x10)
    2321                      .dwattr $C$DW$275, DW_AT_data_member_location[DW_OP_plus_uconst 0x1]
    2322                      .dwattr $C$DW$275, DW_AT_accessibility(DW_ACCESS_public)
    2323                      .dwendtag $C$DW$T$76
    2324              
    2325              
    2326              $C$DW$T$77      .dwtag  DW_TAG_union_type
    2327                      .dwattr $C$DW$T$77, DW_AT_name("DC19_REG")
    2328                      .dwattr $C$DW$T$77, DW_AT_byte_size(0x02)
    2329              $C$DW$276       .dwtag  DW_TAG_member
    2330                      .dwattr $C$DW$276, DW_AT_type(*$C$DW$T$21)
    2331                      .dwattr $C$DW$276, DW_AT_name("all")
    2332                      .dwattr $C$DW$276, DW_AT_TI_symbol_name("_all")
    2333                      .dwattr $C$DW$276, DW_AT_data_member_location[DW_OP_plus_uconst 0x0]
    2334                      .dwattr $C$DW$276, DW_AT_accessibility(DW_ACCESS_public)
    2335              $C$DW$277       .dwtag  DW_TAG_member
    2336                      .dwattr $C$DW$277, DW_AT_type(*$C$DW$T$76)
    2337                      .dwattr $C$DW$277, DW_AT_name("bit")
    2338                      .dwattr $C$DW$277, DW_AT_TI_symbol_name("_bit")
    2339                      .dwattr $C$DW$277, DW_AT_data_member_location[DW_OP_plus_uconst 0x0]
    2340                      .dwattr $C$DW$277, DW_AT_accessibility(DW_ACCESS_public)
    2341                      .dwendtag $C$DW$T$77
    2342              
    2343              
TMS320C2000 Assembler PC v6.1.3 Thu Jan 30 10:25:22 2014

Tools Copyright (c) 1996-2012 Texas Instruments Incorporated
C:\Users\a0272466\AppData\Local\Temp\0699610                         PAGE   44

    2344              $C$DW$T$78      .dwtag  DW_TAG_structure_type
    2345                      .dwattr $C$DW$T$78, DW_AT_name("DC1_BITS")
    2346                      .dwattr $C$DW$T$78, DW_AT_byte_size(0x02)
    2347              $C$DW$278       .dwtag  DW_TAG_member
    2348                      .dwattr $C$DW$278, DW_AT_type(*$C$DW$T$19)
    2349                      .dwattr $C$DW$278, DW_AT_name("CPU1_FPU_TMU")
    2350                      .dwattr $C$DW$278, DW_AT_TI_symbol_name("_CPU1_FPU_TMU")
    2351                      .dwattr $C$DW$278, DW_AT_bit_offset(0x0f), DW_AT_bit_size(0x01)
    2352                      .dwattr $C$DW$278, DW_AT_data_member_location[DW_OP_plus_uconst 0x0]
    2353                      .dwattr $C$DW$278, DW_AT_accessibility(DW_ACCESS_public)
    2354              $C$DW$279       .dwtag  DW_TAG_member
    2355                      .dwattr $C$DW$279, DW_AT_type(*$C$DW$T$19)
    2356                      .dwattr $C$DW$279, DW_AT_name("CPU2_FPU_TMU")
    2357                      .dwattr $C$DW$279, DW_AT_TI_symbol_name("_CPU2_FPU_TMU")
    2358                      .dwattr $C$DW$279, DW_AT_bit_offset(0x0e), DW_AT_bit_size(0x01)
    2359                      .dwattr $C$DW$279, DW_AT_data_member_location[DW_OP_plus_uconst 0x0]
    2360                      .dwattr $C$DW$279, DW_AT_accessibility(DW_ACCESS_public)
    2361              $C$DW$280       .dwtag  DW_TAG_member
    2362                      .dwattr $C$DW$280, DW_AT_type(*$C$DW$T$19)
    2363                      .dwattr $C$DW$280, DW_AT_name("CPU1_VCU")
    2364                      .dwattr $C$DW$280, DW_AT_TI_symbol_name("_CPU1_VCU")
    2365                      .dwattr $C$DW$280, DW_AT_bit_offset(0x0d), DW_AT_bit_size(0x01)
    2366                      .dwattr $C$DW$280, DW_AT_data_member_location[DW_OP_plus_uconst 0x0]
    2367                      .dwattr $C$DW$280, DW_AT_accessibility(DW_ACCESS_public)
    2368              $C$DW$281       .dwtag  DW_TAG_member
    2369                      .dwattr $C$DW$281, DW_AT_type(*$C$DW$T$19)
    2370                      .dwattr $C$DW$281, DW_AT_name("CPU2_VCU")
    2371                      .dwattr $C$DW$281, DW_AT_TI_symbol_name("_CPU2_VCU")
    2372                      .dwattr $C$DW$281, DW_AT_bit_offset(0x0c), DW_AT_bit_size(0x01)
    2373                      .dwattr $C$DW$281, DW_AT_data_member_location[DW_OP_plus_uconst 0x0]
    2374                      .dwattr $C$DW$281, DW_AT_accessibility(DW_ACCESS_public)
    2375              $C$DW$282       .dwtag  DW_TAG_member
    2376                      .dwattr $C$DW$282, DW_AT_type(*$C$DW$T$19)
    2377                      .dwattr $C$DW$282, DW_AT_name("rsvd1")
    2378                      .dwattr $C$DW$282, DW_AT_TI_symbol_name("_rsvd1")
    2379                      .dwattr $C$DW$282, DW_AT_bit_offset(0x0a), DW_AT_bit_size(0x02)
    2380                      .dwattr $C$DW$282, DW_AT_data_member_location[DW_OP_plus_uconst 0x0]
    2381                      .dwattr $C$DW$282, DW_AT_accessibility(DW_ACCESS_public)
    2382              $C$DW$283       .dwtag  DW_TAG_member
    2383                      .dwattr $C$DW$283, DW_AT_type(*$C$DW$T$19)
    2384                      .dwattr $C$DW$283, DW_AT_name("CPU1_CLA1")
    2385                      .dwattr $C$DW$283, DW_AT_TI_symbol_name("_CPU1_CLA1")
    2386                      .dwattr $C$DW$283, DW_AT_bit_offset(0x09), DW_AT_bit_size(0x01)
    2387                      .dwattr $C$DW$283, DW_AT_data_member_location[DW_OP_plus_uconst 0x0]
    2388                      .dwattr $C$DW$283, DW_AT_accessibility(DW_ACCESS_public)
    2389              $C$DW$284       .dwtag  DW_TAG_member
    2390                      .dwattr $C$DW$284, DW_AT_type(*$C$DW$T$19)
    2391                      .dwattr $C$DW$284, DW_AT_name("rsvd2")
    2392                      .dwattr $C$DW$284, DW_AT_TI_symbol_name("_rsvd2")
    2393                      .dwattr $C$DW$284, DW_AT_bit_offset(0x08), DW_AT_bit_size(0x01)
    2394                      .dwattr $C$DW$284, DW_AT_data_member_location[DW_OP_plus_uconst 0x0]
    2395                      .dwattr $C$DW$284, DW_AT_accessibility(DW_ACCESS_public)
    2396              $C$DW$285       .dwtag  DW_TAG_member
    2397                      .dwattr $C$DW$285, DW_AT_type(*$C$DW$T$19)
    2398                      .dwattr $C$DW$285, DW_AT_name("CPU2_CLA1")
TMS320C2000 Assembler PC v6.1.3 Thu Jan 30 10:25:22 2014

Tools Copyright (c) 1996-2012 Texas Instruments Incorporated
C:\Users\a0272466\AppData\Local\Temp\0699610                         PAGE   45

    2399                      .dwattr $C$DW$285, DW_AT_TI_symbol_name("_CPU2_CLA1")
    2400                      .dwattr $C$DW$285, DW_AT_bit_offset(0x07), DW_AT_bit_size(0x01)
    2401                      .dwattr $C$DW$285, DW_AT_data_member_location[DW_OP_plus_uconst 0x0]
    2402                      .dwattr $C$DW$285, DW_AT_accessibility(DW_ACCESS_public)
    2403              $C$DW$286       .dwtag  DW_TAG_member
    2404                      .dwattr $C$DW$286, DW_AT_type(*$C$DW$T$19)
    2405                      .dwattr $C$DW$286, DW_AT_name("rsvd3")
    2406                      .dwattr $C$DW$286, DW_AT_TI_symbol_name("_rsvd3")
    2407                      .dwattr $C$DW$286, DW_AT_bit_offset(0x00), DW_AT_bit_size(0x07)
    2408                      .dwattr $C$DW$286, DW_AT_data_member_location[DW_OP_plus_uconst 0x0]
    2409                      .dwattr $C$DW$286, DW_AT_accessibility(DW_ACCESS_public)
    2410              $C$DW$287       .dwtag  DW_TAG_member
    2411                      .dwattr $C$DW$287, DW_AT_type(*$C$DW$T$19)
    2412                      .dwattr $C$DW$287, DW_AT_name("rsvd4")
    2413                      .dwattr $C$DW$287, DW_AT_TI_symbol_name("_rsvd4")
    2414                      .dwattr $C$DW$287, DW_AT_bit_offset(0x00), DW_AT_bit_size(0x10)
    2415                      .dwattr $C$DW$287, DW_AT_data_member_location[DW_OP_plus_uconst 0x1]
    2416                      .dwattr $C$DW$287, DW_AT_accessibility(DW_ACCESS_public)
    2417                      .dwendtag $C$DW$T$78
    2418              
    2419              
    2420              $C$DW$T$79      .dwtag  DW_TAG_union_type
    2421                      .dwattr $C$DW$T$79, DW_AT_name("DC1_REG")
    2422                      .dwattr $C$DW$T$79, DW_AT_byte_size(0x02)
    2423              $C$DW$288       .dwtag  DW_TAG_member
    2424                      .dwattr $C$DW$288, DW_AT_type(*$C$DW$T$21)
    2425                      .dwattr $C$DW$288, DW_AT_name("all")
    2426                      .dwattr $C$DW$288, DW_AT_TI_symbol_name("_all")
    2427                      .dwattr $C$DW$288, DW_AT_data_member_location[DW_OP_plus_uconst 0x0]
    2428                      .dwattr $C$DW$288, DW_AT_accessibility(DW_ACCESS_public)
    2429              $C$DW$289       .dwtag  DW_TAG_member
    2430                      .dwattr $C$DW$289, DW_AT_type(*$C$DW$T$78)
    2431                      .dwattr $C$DW$289, DW_AT_name("bit")
    2432                      .dwattr $C$DW$289, DW_AT_TI_symbol_name("_bit")
    2433                      .dwattr $C$DW$289, DW_AT_data_member_location[DW_OP_plus_uconst 0x0]
    2434                      .dwattr $C$DW$289, DW_AT_accessibility(DW_ACCESS_public)
    2435                      .dwendtag $C$DW$T$79
    2436              
    2437              
    2438              $C$DW$T$80      .dwtag  DW_TAG_structure_type
    2439                      .dwattr $C$DW$T$80, DW_AT_name("DC20_BITS")
    2440                      .dwattr $C$DW$T$80, DW_AT_byte_size(0x02)
    2441              $C$DW$290       .dwtag  DW_TAG_member
    2442                      .dwattr $C$DW$290, DW_AT_type(*$C$DW$T$19)
    2443                      .dwattr $C$DW$290, DW_AT_name("GS0")
    2444                      .dwattr $C$DW$290, DW_AT_TI_symbol_name("_GS0")
    2445                      .dwattr $C$DW$290, DW_AT_bit_offset(0x0f), DW_AT_bit_size(0x01)
    2446                      .dwattr $C$DW$290, DW_AT_data_member_location[DW_OP_plus_uconst 0x0]
    2447                      .dwattr $C$DW$290, DW_AT_accessibility(DW_ACCESS_public)
    2448              $C$DW$291       .dwtag  DW_TAG_member
    2449                      .dwattr $C$DW$291, DW_AT_type(*$C$DW$T$19)
    2450                      .dwattr $C$DW$291, DW_AT_name("GS1")
    2451                      .dwattr $C$DW$291, DW_AT_TI_symbol_name("_GS1")
    2452                      .dwattr $C$DW$291, DW_AT_bit_offset(0x0e), DW_AT_bit_size(0x01)
    2453                      .dwattr $C$DW$291, DW_AT_data_member_location[DW_OP_plus_uconst 0x0]
TMS320C2000 Assembler PC v6.1.3 Thu Jan 30 10:25:22 2014

Tools Copyright (c) 1996-2012 Texas Instruments Incorporated
C:\Users\a0272466\AppData\Local\Temp\0699610                         PAGE   46

    2454                      .dwattr $C$DW$291, DW_AT_accessibility(DW_ACCESS_public)
    2455              $C$DW$292       .dwtag  DW_TAG_member
    2456                      .dwattr $C$DW$292, DW_AT_type(*$C$DW$T$19)
    2457                      .dwattr $C$DW$292, DW_AT_name("GS2")
    2458                      .dwattr $C$DW$292, DW_AT_TI_symbol_name("_GS2")
    2459                      .dwattr $C$DW$292, DW_AT_bit_offset(0x0d), DW_AT_bit_size(0x01)
    2460                      .dwattr $C$DW$292, DW_AT_data_member_location[DW_OP_plus_uconst 0x0]
    2461                      .dwattr $C$DW$292, DW_AT_accessibility(DW_ACCESS_public)
    2462              $C$DW$293       .dwtag  DW_TAG_member
    2463                      .dwattr $C$DW$293, DW_AT_type(*$C$DW$T$19)
    2464                      .dwattr $C$DW$293, DW_AT_name("GS3")
    2465                      .dwattr $C$DW$293, DW_AT_TI_symbol_name("_GS3")
    2466                      .dwattr $C$DW$293, DW_AT_bit_offset(0x0c), DW_AT_bit_size(0x01)
    2467                      .dwattr $C$DW$293, DW_AT_data_member_location[DW_OP_plus_uconst 0x0]
    2468                      .dwattr $C$DW$293, DW_AT_accessibility(DW_ACCESS_public)
    2469              $C$DW$294       .dwtag  DW_TAG_member
    2470                      .dwattr $C$DW$294, DW_AT_type(*$C$DW$T$19)
    2471                      .dwattr $C$DW$294, DW_AT_name("GS4")
    2472                      .dwattr $C$DW$294, DW_AT_TI_symbol_name("_GS4")
    2473                      .dwattr $C$DW$294, DW_AT_bit_offset(0x0b), DW_AT_bit_size(0x01)
    2474                      .dwattr $C$DW$294, DW_AT_data_member_location[DW_OP_plus_uconst 0x0]
    2475                      .dwattr $C$DW$294, DW_AT_accessibility(DW_ACCESS_public)
    2476              $C$DW$295       .dwtag  DW_TAG_member
    2477                      .dwattr $C$DW$295, DW_AT_type(*$C$DW$T$19)
    2478                      .dwattr $C$DW$295, DW_AT_name("GS5")
    2479                      .dwattr $C$DW$295, DW_AT_TI_symbol_name("_GS5")
    2480                      .dwattr $C$DW$295, DW_AT_bit_offset(0x0a), DW_AT_bit_size(0x01)
    2481                      .dwattr $C$DW$295, DW_AT_data_member_location[DW_OP_plus_uconst 0x0]
    2482                      .dwattr $C$DW$295, DW_AT_accessibility(DW_ACCESS_public)
    2483              $C$DW$296       .dwtag  DW_TAG_member
    2484                      .dwattr $C$DW$296, DW_AT_type(*$C$DW$T$19)
    2485                      .dwattr $C$DW$296, DW_AT_name("GS6")
    2486                      .dwattr $C$DW$296, DW_AT_TI_symbol_name("_GS6")
    2487                      .dwattr $C$DW$296, DW_AT_bit_offset(0x09), DW_AT_bit_size(0x01)
    2488                      .dwattr $C$DW$296, DW_AT_data_member_location[DW_OP_plus_uconst 0x0]
    2489                      .dwattr $C$DW$296, DW_AT_accessibility(DW_ACCESS_public)
    2490              $C$DW$297       .dwtag  DW_TAG_member
    2491                      .dwattr $C$DW$297, DW_AT_type(*$C$DW$T$19)
    2492                      .dwattr $C$DW$297, DW_AT_name("GS7")
    2493                      .dwattr $C$DW$297, DW_AT_TI_symbol_name("_GS7")
    2494                      .dwattr $C$DW$297, DW_AT_bit_offset(0x08), DW_AT_bit_size(0x01)
    2495                      .dwattr $C$DW$297, DW_AT_data_member_location[DW_OP_plus_uconst 0x0]
    2496                      .dwattr $C$DW$297, DW_AT_accessibility(DW_ACCESS_public)
    2497              $C$DW$298       .dwtag  DW_TAG_member
    2498                      .dwattr $C$DW$298, DW_AT_type(*$C$DW$T$19)
    2499                      .dwattr $C$DW$298, DW_AT_name("GS8")
    2500                      .dwattr $C$DW$298, DW_AT_TI_symbol_name("_GS8")
    2501                      .dwattr $C$DW$298, DW_AT_bit_offset(0x07), DW_AT_bit_size(0x01)
    2502                      .dwattr $C$DW$298, DW_AT_data_member_location[DW_OP_plus_uconst 0x0]
    2503                      .dwattr $C$DW$298, DW_AT_accessibility(DW_ACCESS_public)
    2504              $C$DW$299       .dwtag  DW_TAG_member
    2505                      .dwattr $C$DW$299, DW_AT_type(*$C$DW$T$19)
    2506                      .dwattr $C$DW$299, DW_AT_name("GS9")
    2507                      .dwattr $C$DW$299, DW_AT_TI_symbol_name("_GS9")
    2508                      .dwattr $C$DW$299, DW_AT_bit_offset(0x06), DW_AT_bit_size(0x01)
TMS320C2000 Assembler PC v6.1.3 Thu Jan 30 10:25:22 2014

Tools Copyright (c) 1996-2012 Texas Instruments Incorporated
C:\Users\a0272466\AppData\Local\Temp\0699610                         PAGE   47

    2509                      .dwattr $C$DW$299, DW_AT_data_member_location[DW_OP_plus_uconst 0x0]
    2510                      .dwattr $C$DW$299, DW_AT_accessibility(DW_ACCESS_public)
    2511              $C$DW$300       .dwtag  DW_TAG_member
    2512                      .dwattr $C$DW$300, DW_AT_type(*$C$DW$T$19)
    2513                      .dwattr $C$DW$300, DW_AT_name("GS10")
    2514                      .dwattr $C$DW$300, DW_AT_TI_symbol_name("_GS10")
    2515                      .dwattr $C$DW$300, DW_AT_bit_offset(0x05), DW_AT_bit_size(0x01)
    2516                      .dwattr $C$DW$300, DW_AT_data_member_location[DW_OP_plus_uconst 0x0]
    2517                      .dwattr $C$DW$300, DW_AT_accessibility(DW_ACCESS_public)
    2518              $C$DW$301       .dwtag  DW_TAG_member
    2519                      .dwattr $C$DW$301, DW_AT_type(*$C$DW$T$19)
    2520                      .dwattr $C$DW$301, DW_AT_name("GS11")
    2521                      .dwattr $C$DW$301, DW_AT_TI_symbol_name("_GS11")
    2522                      .dwattr $C$DW$301, DW_AT_bit_offset(0x04), DW_AT_bit_size(0x01)
    2523                      .dwattr $C$DW$301, DW_AT_data_member_location[DW_OP_plus_uconst 0x0]
    2524                      .dwattr $C$DW$301, DW_AT_accessibility(DW_ACCESS_public)
    2525              $C$DW$302       .dwtag  DW_TAG_member
    2526                      .dwattr $C$DW$302, DW_AT_type(*$C$DW$T$19)
    2527                      .dwattr $C$DW$302, DW_AT_name("GS12")
    2528                      .dwattr $C$DW$302, DW_AT_TI_symbol_name("_GS12")
    2529                      .dwattr $C$DW$302, DW_AT_bit_offset(0x03), DW_AT_bit_size(0x01)
    2530                      .dwattr $C$DW$302, DW_AT_data_member_location[DW_OP_plus_uconst 0x0]
    2531                      .dwattr $C$DW$302, DW_AT_accessibility(DW_ACCESS_public)
    2532              $C$DW$303       .dwtag  DW_TAG_member
    2533                      .dwattr $C$DW$303, DW_AT_type(*$C$DW$T$19)
    2534                      .dwattr $C$DW$303, DW_AT_name("GS13")
    2535                      .dwattr $C$DW$303, DW_AT_TI_symbol_name("_GS13")
    2536                      .dwattr $C$DW$303, DW_AT_bit_offset(0x02), DW_AT_bit_size(0x01)
    2537                      .dwattr $C$DW$303, DW_AT_data_member_location[DW_OP_plus_uconst 0x0]
    2538                      .dwattr $C$DW$303, DW_AT_accessibility(DW_ACCESS_public)
    2539              $C$DW$304       .dwtag  DW_TAG_member
    2540                      .dwattr $C$DW$304, DW_AT_type(*$C$DW$T$19)
    2541                      .dwattr $C$DW$304, DW_AT_name("GS14")
    2542                      .dwattr $C$DW$304, DW_AT_TI_symbol_name("_GS14")
    2543                      .dwattr $C$DW$304, DW_AT_bit_offset(0x01), DW_AT_bit_size(0x01)
    2544                      .dwattr $C$DW$304, DW_AT_data_member_location[DW_OP_plus_uconst 0x0]
    2545                      .dwattr $C$DW$304, DW_AT_accessibility(DW_ACCESS_public)
    2546              $C$DW$305       .dwtag  DW_TAG_member
    2547                      .dwattr $C$DW$305, DW_AT_type(*$C$DW$T$19)
    2548                      .dwattr $C$DW$305, DW_AT_name("GS15")
    2549                      .dwattr $C$DW$305, DW_AT_TI_symbol_name("_GS15")
    2550                      .dwattr $C$DW$305, DW_AT_bit_offset(0x00), DW_AT_bit_size(0x01)
    2551                      .dwattr $C$DW$305, DW_AT_data_member_location[DW_OP_plus_uconst 0x0]
    2552                      .dwattr $C$DW$305, DW_AT_accessibility(DW_ACCESS_public)
    2553              $C$DW$306       .dwtag  DW_TAG_member
    2554                      .dwattr $C$DW$306, DW_AT_type(*$C$DW$T$19)
    2555                      .dwattr $C$DW$306, DW_AT_name("rsvd1")
    2556                      .dwattr $C$DW$306, DW_AT_TI_symbol_name("_rsvd1")
    2557                      .dwattr $C$DW$306, DW_AT_bit_offset(0x00), DW_AT_bit_size(0x10)
    2558                      .dwattr $C$DW$306, DW_AT_data_member_location[DW_OP_plus_uconst 0x1]
    2559                      .dwattr $C$DW$306, DW_AT_accessibility(DW_ACCESS_public)
    2560                      .dwendtag $C$DW$T$80
    2561              
    2562              
    2563              $C$DW$T$81      .dwtag  DW_TAG_union_type
TMS320C2000 Assembler PC v6.1.3 Thu Jan 30 10:25:22 2014

Tools Copyright (c) 1996-2012 Texas Instruments Incorporated
C:\Users\a0272466\AppData\Local\Temp\0699610                         PAGE   48

    2564                      .dwattr $C$DW$T$81, DW_AT_name("DC20_REG")
    2565                      .dwattr $C$DW$T$81, DW_AT_byte_size(0x02)
    2566              $C$DW$307       .dwtag  DW_TAG_member
    2567                      .dwattr $C$DW$307, DW_AT_type(*$C$DW$T$21)
    2568                      .dwattr $C$DW$307, DW_AT_name("all")
    2569                      .dwattr $C$DW$307, DW_AT_TI_symbol_name("_all")
    2570                      .dwattr $C$DW$307, DW_AT_data_member_location[DW_OP_plus_uconst 0x0]
    2571                      .dwattr $C$DW$307, DW_AT_accessibility(DW_ACCESS_public)
    2572              $C$DW$308       .dwtag  DW_TAG_member
    2573                      .dwattr $C$DW$308, DW_AT_type(*$C$DW$T$80)
    2574                      .dwattr $C$DW$308, DW_AT_name("bit")
    2575                      .dwattr $C$DW$308, DW_AT_TI_symbol_name("_bit")
    2576                      .dwattr $C$DW$308, DW_AT_data_member_location[DW_OP_plus_uconst 0x0]
    2577                      .dwattr $C$DW$308, DW_AT_accessibility(DW_ACCESS_public)
    2578                      .dwendtag $C$DW$T$81
    2579              
    2580              
    2581              $C$DW$T$82      .dwtag  DW_TAG_structure_type
    2582                      .dwattr $C$DW$T$82, DW_AT_name("DC2_BITS")
    2583                      .dwattr $C$DW$T$82, DW_AT_byte_size(0x02)
    2584              $C$DW$309       .dwtag  DW_TAG_member
    2585                      .dwattr $C$DW$309, DW_AT_type(*$C$DW$T$19)
    2586                      .dwattr $C$DW$309, DW_AT_name("EMIF1")
    2587                      .dwattr $C$DW$309, DW_AT_TI_symbol_name("_EMIF1")
    2588                      .dwattr $C$DW$309, DW_AT_bit_offset(0x0f), DW_AT_bit_size(0x01)
    2589                      .dwattr $C$DW$309, DW_AT_data_member_location[DW_OP_plus_uconst 0x0]
    2590                      .dwattr $C$DW$309, DW_AT_accessibility(DW_ACCESS_public)
    2591              $C$DW$310       .dwtag  DW_TAG_member
    2592                      .dwattr $C$DW$310, DW_AT_type(*$C$DW$T$19)
    2593                      .dwattr $C$DW$310, DW_AT_name("EMIF2")
    2594                      .dwattr $C$DW$310, DW_AT_TI_symbol_name("_EMIF2")
    2595                      .dwattr $C$DW$310, DW_AT_bit_offset(0x0e), DW_AT_bit_size(0x01)
    2596                      .dwattr $C$DW$310, DW_AT_data_member_location[DW_OP_plus_uconst 0x0]
    2597                      .dwattr $C$DW$310, DW_AT_accessibility(DW_ACCESS_public)
    2598              $C$DW$311       .dwtag  DW_TAG_member
    2599                      .dwattr $C$DW$311, DW_AT_type(*$C$DW$T$19)
    2600                      .dwattr $C$DW$311, DW_AT_name("rsvd1")
    2601                      .dwattr $C$DW$311, DW_AT_TI_symbol_name("_rsvd1")
    2602                      .dwattr $C$DW$311, DW_AT_bit_offset(0x00), DW_AT_bit_size(0x0e)
    2603                      .dwattr $C$DW$311, DW_AT_data_member_location[DW_OP_plus_uconst 0x0]
    2604                      .dwattr $C$DW$311, DW_AT_accessibility(DW_ACCESS_public)
    2605              $C$DW$312       .dwtag  DW_TAG_member
    2606                      .dwattr $C$DW$312, DW_AT_type(*$C$DW$T$19)
    2607                      .dwattr $C$DW$312, DW_AT_name("rsvd2")
    2608                      .dwattr $C$DW$312, DW_AT_TI_symbol_name("_rsvd2")
    2609                      .dwattr $C$DW$312, DW_AT_bit_offset(0x00), DW_AT_bit_size(0x10)
    2610                      .dwattr $C$DW$312, DW_AT_data_member_location[DW_OP_plus_uconst 0x1]
    2611                      .dwattr $C$DW$312, DW_AT_accessibility(DW_ACCESS_public)
    2612                      .dwendtag $C$DW$T$82
    2613              
    2614              
    2615              $C$DW$T$83      .dwtag  DW_TAG_union_type
    2616                      .dwattr $C$DW$T$83, DW_AT_name("DC2_REG")
    2617                      .dwattr $C$DW$T$83, DW_AT_byte_size(0x02)
    2618              $C$DW$313       .dwtag  DW_TAG_member
TMS320C2000 Assembler PC v6.1.3 Thu Jan 30 10:25:22 2014

Tools Copyright (c) 1996-2012 Texas Instruments Incorporated
C:\Users\a0272466\AppData\Local\Temp\0699610                         PAGE   49

    2619                      .dwattr $C$DW$313, DW_AT_type(*$C$DW$T$21)
    2620                      .dwattr $C$DW$313, DW_AT_name("all")
    2621                      .dwattr $C$DW$313, DW_AT_TI_symbol_name("_all")
    2622                      .dwattr $C$DW$313, DW_AT_data_member_location[DW_OP_plus_uconst 0x0]
    2623                      .dwattr $C$DW$313, DW_AT_accessibility(DW_ACCESS_public)
    2624              $C$DW$314       .dwtag  DW_TAG_member
    2625                      .dwattr $C$DW$314, DW_AT_type(*$C$DW$T$82)
    2626                      .dwattr $C$DW$314, DW_AT_name("bit")
    2627                      .dwattr $C$DW$314, DW_AT_TI_symbol_name("_bit")
    2628                      .dwattr $C$DW$314, DW_AT_data_member_location[DW_OP_plus_uconst 0x0]
    2629                      .dwattr $C$DW$314, DW_AT_accessibility(DW_ACCESS_public)
    2630                      .dwendtag $C$DW$T$83
    2631              
    2632              
    2633              $C$DW$T$84      .dwtag  DW_TAG_structure_type
    2634                      .dwattr $C$DW$T$84, DW_AT_name("DC3_BITS")
    2635                      .dwattr $C$DW$T$84, DW_AT_byte_size(0x02)
    2636              $C$DW$315       .dwtag  DW_TAG_member
    2637                      .dwattr $C$DW$315, DW_AT_type(*$C$DW$T$19)
    2638                      .dwattr $C$DW$315, DW_AT_name("EPWM1")
    2639                      .dwattr $C$DW$315, DW_AT_TI_symbol_name("_EPWM1")
    2640                      .dwattr $C$DW$315, DW_AT_bit_offset(0x0f), DW_AT_bit_size(0x01)
    2641                      .dwattr $C$DW$315, DW_AT_data_member_location[DW_OP_plus_uconst 0x0]
    2642                      .dwattr $C$DW$315, DW_AT_accessibility(DW_ACCESS_public)
    2643              $C$DW$316       .dwtag  DW_TAG_member
    2644                      .dwattr $C$DW$316, DW_AT_type(*$C$DW$T$19)
    2645                      .dwattr $C$DW$316, DW_AT_name("EPWM2")
    2646                      .dwattr $C$DW$316, DW_AT_TI_symbol_name("_EPWM2")
    2647                      .dwattr $C$DW$316, DW_AT_bit_offset(0x0e), DW_AT_bit_size(0x01)
    2648                      .dwattr $C$DW$316, DW_AT_data_member_location[DW_OP_plus_uconst 0x0]
    2649                      .dwattr $C$DW$316, DW_AT_accessibility(DW_ACCESS_public)
    2650              $C$DW$317       .dwtag  DW_TAG_member
    2651                      .dwattr $C$DW$317, DW_AT_type(*$C$DW$T$19)
    2652                      .dwattr $C$DW$317, DW_AT_name("EPWM3")
    2653                      .dwattr $C$DW$317, DW_AT_TI_symbol_name("_EPWM3")
    2654                      .dwattr $C$DW$317, DW_AT_bit_offset(0x0d), DW_AT_bit_size(0x01)
    2655                      .dwattr $C$DW$317, DW_AT_data_member_location[DW_OP_plus_uconst 0x0]
    2656                      .dwattr $C$DW$317, DW_AT_accessibility(DW_ACCESS_public)
    2657              $C$DW$318       .dwtag  DW_TAG_member
    2658                      .dwattr $C$DW$318, DW_AT_type(*$C$DW$T$19)
    2659                      .dwattr $C$DW$318, DW_AT_name("EPWM4")
    2660                      .dwattr $C$DW$318, DW_AT_TI_symbol_name("_EPWM4")
    2661                      .dwattr $C$DW$318, DW_AT_bit_offset(0x0c), DW_AT_bit_size(0x01)
    2662                      .dwattr $C$DW$318, DW_AT_data_member_location[DW_OP_plus_uconst 0x0]
    2663                      .dwattr $C$DW$318, DW_AT_accessibility(DW_ACCESS_public)
    2664              $C$DW$319       .dwtag  DW_TAG_member
    2665                      .dwattr $C$DW$319, DW_AT_type(*$C$DW$T$19)
    2666                      .dwattr $C$DW$319, DW_AT_name("EPWM5")
    2667                      .dwattr $C$DW$319, DW_AT_TI_symbol_name("_EPWM5")
    2668                      .dwattr $C$DW$319, DW_AT_bit_offset(0x0b), DW_AT_bit_size(0x01)
    2669                      .dwattr $C$DW$319, DW_AT_data_member_location[DW_OP_plus_uconst 0x0]
    2670                      .dwattr $C$DW$319, DW_AT_accessibility(DW_ACCESS_public)
    2671              $C$DW$320       .dwtag  DW_TAG_member
    2672                      .dwattr $C$DW$320, DW_AT_type(*$C$DW$T$19)
    2673                      .dwattr $C$DW$320, DW_AT_name("EPWM6")
TMS320C2000 Assembler PC v6.1.3 Thu Jan 30 10:25:22 2014

Tools Copyright (c) 1996-2012 Texas Instruments Incorporated
C:\Users\a0272466\AppData\Local\Temp\0699610                         PAGE   50

    2674                      .dwattr $C$DW$320, DW_AT_TI_symbol_name("_EPWM6")
    2675                      .dwattr $C$DW$320, DW_AT_bit_offset(0x0a), DW_AT_bit_size(0x01)
    2676                      .dwattr $C$DW$320, DW_AT_data_member_location[DW_OP_plus_uconst 0x0]
    2677                      .dwattr $C$DW$320, DW_AT_accessibility(DW_ACCESS_public)
    2678              $C$DW$321       .dwtag  DW_TAG_member
    2679                      .dwattr $C$DW$321, DW_AT_type(*$C$DW$T$19)
    2680                      .dwattr $C$DW$321, DW_AT_name("EPWM7")
    2681                      .dwattr $C$DW$321, DW_AT_TI_symbol_name("_EPWM7")
    2682                      .dwattr $C$DW$321, DW_AT_bit_offset(0x09), DW_AT_bit_size(0x01)
    2683                      .dwattr $C$DW$321, DW_AT_data_member_location[DW_OP_plus_uconst 0x0]
    2684                      .dwattr $C$DW$321, DW_AT_accessibility(DW_ACCESS_public)
    2685              $C$DW$322       .dwtag  DW_TAG_member
    2686                      .dwattr $C$DW$322, DW_AT_type(*$C$DW$T$19)
    2687                      .dwattr $C$DW$322, DW_AT_name("EPWM8")
    2688                      .dwattr $C$DW$322, DW_AT_TI_symbol_name("_EPWM8")
    2689                      .dwattr $C$DW$322, DW_AT_bit_offset(0x08), DW_AT_bit_size(0x01)
    2690                      .dwattr $C$DW$322, DW_AT_data_member_location[DW_OP_plus_uconst 0x0]
    2691                      .dwattr $C$DW$322, DW_AT_accessibility(DW_ACCESS_public)
    2692              $C$DW$323       .dwtag  DW_TAG_member
    2693                      .dwattr $C$DW$323, DW_AT_type(*$C$DW$T$19)
    2694                      .dwattr $C$DW$323, DW_AT_name("EPWM9")
    2695                      .dwattr $C$DW$323, DW_AT_TI_symbol_name("_EPWM9")
    2696                      .dwattr $C$DW$323, DW_AT_bit_offset(0x07), DW_AT_bit_size(0x01)
    2697                      .dwattr $C$DW$323, DW_AT_data_member_location[DW_OP_plus_uconst 0x0]
    2698                      .dwattr $C$DW$323, DW_AT_accessibility(DW_ACCESS_public)
    2699              $C$DW$324       .dwtag  DW_TAG_member
    2700                      .dwattr $C$DW$324, DW_AT_type(*$C$DW$T$19)
    2701                      .dwattr $C$DW$324, DW_AT_name("EPWM10")
    2702                      .dwattr $C$DW$324, DW_AT_TI_symbol_name("_EPWM10")
    2703                      .dwattr $C$DW$324, DW_AT_bit_offset(0x06), DW_AT_bit_size(0x01)
    2704                      .dwattr $C$DW$324, DW_AT_data_member_location[DW_OP_plus_uconst 0x0]
    2705                      .dwattr $C$DW$324, DW_AT_accessibility(DW_ACCESS_public)
    2706              $C$DW$325       .dwtag  DW_TAG_member
    2707                      .dwattr $C$DW$325, DW_AT_type(*$C$DW$T$19)
    2708                      .dwattr $C$DW$325, DW_AT_name("EPWM11")
    2709                      .dwattr $C$DW$325, DW_AT_TI_symbol_name("_EPWM11")
    2710                      .dwattr $C$DW$325, DW_AT_bit_offset(0x05), DW_AT_bit_size(0x01)
    2711                      .dwattr $C$DW$325, DW_AT_data_member_location[DW_OP_plus_uconst 0x0]
    2712                      .dwattr $C$DW$325, DW_AT_accessibility(DW_ACCESS_public)
    2713              $C$DW$326       .dwtag  DW_TAG_member
    2714                      .dwattr $C$DW$326, DW_AT_type(*$C$DW$T$19)
    2715                      .dwattr $C$DW$326, DW_AT_name("EPWM12")
    2716                      .dwattr $C$DW$326, DW_AT_TI_symbol_name("_EPWM12")
    2717                      .dwattr $C$DW$326, DW_AT_bit_offset(0x04), DW_AT_bit_size(0x01)
    2718                      .dwattr $C$DW$326, DW_AT_data_member_location[DW_OP_plus_uconst 0x0]
    2719                      .dwattr $C$DW$326, DW_AT_accessibility(DW_ACCESS_public)
    2720              $C$DW$327       .dwtag  DW_TAG_member
    2721                      .dwattr $C$DW$327, DW_AT_type(*$C$DW$T$19)
    2722                      .dwattr $C$DW$327, DW_AT_name("rsvd1")
    2723                      .dwattr $C$DW$327, DW_AT_TI_symbol_name("_rsvd1")
    2724                      .dwattr $C$DW$327, DW_AT_bit_offset(0x00), DW_AT_bit_size(0x04)
    2725                      .dwattr $C$DW$327, DW_AT_data_member_location[DW_OP_plus_uconst 0x0]
    2726                      .dwattr $C$DW$327, DW_AT_accessibility(DW_ACCESS_public)
    2727              $C$DW$328       .dwtag  DW_TAG_member
    2728                      .dwattr $C$DW$328, DW_AT_type(*$C$DW$T$19)
TMS320C2000 Assembler PC v6.1.3 Thu Jan 30 10:25:22 2014

Tools Copyright (c) 1996-2012 Texas Instruments Incorporated
C:\Users\a0272466\AppData\Local\Temp\0699610                         PAGE   51

    2729                      .dwattr $C$DW$328, DW_AT_name("rsvd2")
    2730                      .dwattr $C$DW$328, DW_AT_TI_symbol_name("_rsvd2")
    2731                      .dwattr $C$DW$328, DW_AT_bit_offset(0x00), DW_AT_bit_size(0x10)
    2732                      .dwattr $C$DW$328, DW_AT_data_member_location[DW_OP_plus_uconst 0x1]
    2733                      .dwattr $C$DW$328, DW_AT_accessibility(DW_ACCESS_public)
    2734                      .dwendtag $C$DW$T$84
    2735              
    2736              
    2737              $C$DW$T$85      .dwtag  DW_TAG_union_type
    2738                      .dwattr $C$DW$T$85, DW_AT_name("DC3_REG")
    2739                      .dwattr $C$DW$T$85, DW_AT_byte_size(0x02)
    2740              $C$DW$329       .dwtag  DW_TAG_member
    2741                      .dwattr $C$DW$329, DW_AT_type(*$C$DW$T$21)
    2742                      .dwattr $C$DW$329, DW_AT_name("all")
    2743                      .dwattr $C$DW$329, DW_AT_TI_symbol_name("_all")
    2744                      .dwattr $C$DW$329, DW_AT_data_member_location[DW_OP_plus_uconst 0x0]
    2745                      .dwattr $C$DW$329, DW_AT_accessibility(DW_ACCESS_public)
    2746              $C$DW$330       .dwtag  DW_TAG_member
    2747                      .dwattr $C$DW$330, DW_AT_type(*$C$DW$T$84)
    2748                      .dwattr $C$DW$330, DW_AT_name("bit")
    2749                      .dwattr $C$DW$330, DW_AT_TI_symbol_name("_bit")
    2750                      .dwattr $C$DW$330, DW_AT_data_member_location[DW_OP_plus_uconst 0x0]
    2751                      .dwattr $C$DW$330, DW_AT_accessibility(DW_ACCESS_public)
    2752                      .dwendtag $C$DW$T$85
    2753              
    2754              
    2755              $C$DW$T$86      .dwtag  DW_TAG_structure_type
    2756                      .dwattr $C$DW$T$86, DW_AT_name("DC4_BITS")
    2757                      .dwattr $C$DW$T$86, DW_AT_byte_size(0x02)
    2758              $C$DW$331       .dwtag  DW_TAG_member
    2759                      .dwattr $C$DW$331, DW_AT_type(*$C$DW$T$19)
    2760                      .dwattr $C$DW$331, DW_AT_name("ECAP1")
    2761                      .dwattr $C$DW$331, DW_AT_TI_symbol_name("_ECAP1")
    2762                      .dwattr $C$DW$331, DW_AT_bit_offset(0x0f), DW_AT_bit_size(0x01)
    2763                      .dwattr $C$DW$331, DW_AT_data_member_location[DW_OP_plus_uconst 0x0]
    2764                      .dwattr $C$DW$331, DW_AT_accessibility(DW_ACCESS_public)
    2765              $C$DW$332       .dwtag  DW_TAG_member
    2766                      .dwattr $C$DW$332, DW_AT_type(*$C$DW$T$19)
    2767                      .dwattr $C$DW$332, DW_AT_name("ECAP2")
    2768                      .dwattr $C$DW$332, DW_AT_TI_symbol_name("_ECAP2")
    2769                      .dwattr $C$DW$332, DW_AT_bit_offset(0x0e), DW_AT_bit_size(0x01)
    2770                      .dwattr $C$DW$332, DW_AT_data_member_location[DW_OP_plus_uconst 0x0]
    2771                      .dwattr $C$DW$332, DW_AT_accessibility(DW_ACCESS_public)
    2772              $C$DW$333       .dwtag  DW_TAG_member
    2773                      .dwattr $C$DW$333, DW_AT_type(*$C$DW$T$19)
    2774                      .dwattr $C$DW$333, DW_AT_name("ECAP3")
    2775                      .dwattr $C$DW$333, DW_AT_TI_symbol_name("_ECAP3")
    2776                      .dwattr $C$DW$333, DW_AT_bit_offset(0x0d), DW_AT_bit_size(0x01)
    2777                      .dwattr $C$DW$333, DW_AT_data_member_location[DW_OP_plus_uconst 0x0]
    2778                      .dwattr $C$DW$333, DW_AT_accessibility(DW_ACCESS_public)
    2779              $C$DW$334       .dwtag  DW_TAG_member
    2780                      .dwattr $C$DW$334, DW_AT_type(*$C$DW$T$19)
    2781                      .dwattr $C$DW$334, DW_AT_name("ECAP4")
    2782                      .dwattr $C$DW$334, DW_AT_TI_symbol_name("_ECAP4")
    2783                      .dwattr $C$DW$334, DW_AT_bit_offset(0x0c), DW_AT_bit_size(0x01)
TMS320C2000 Assembler PC v6.1.3 Thu Jan 30 10:25:22 2014

Tools Copyright (c) 1996-2012 Texas Instruments Incorporated
C:\Users\a0272466\AppData\Local\Temp\0699610                         PAGE   52

    2784                      .dwattr $C$DW$334, DW_AT_data_member_location[DW_OP_plus_uconst 0x0]
    2785                      .dwattr $C$DW$334, DW_AT_accessibility(DW_ACCESS_public)
    2786              $C$DW$335       .dwtag  DW_TAG_member
    2787                      .dwattr $C$DW$335, DW_AT_type(*$C$DW$T$19)
    2788                      .dwattr $C$DW$335, DW_AT_name("ECAP5")
    2789                      .dwattr $C$DW$335, DW_AT_TI_symbol_name("_ECAP5")
    2790                      .dwattr $C$DW$335, DW_AT_bit_offset(0x0b), DW_AT_bit_size(0x01)
    2791                      .dwattr $C$DW$335, DW_AT_data_member_location[DW_OP_plus_uconst 0x0]
    2792                      .dwattr $C$DW$335, DW_AT_accessibility(DW_ACCESS_public)
    2793              $C$DW$336       .dwtag  DW_TAG_member
    2794                      .dwattr $C$DW$336, DW_AT_type(*$C$DW$T$19)
    2795                      .dwattr $C$DW$336, DW_AT_name("ECAP6")
    2796                      .dwattr $C$DW$336, DW_AT_TI_symbol_name("_ECAP6")
    2797                      .dwattr $C$DW$336, DW_AT_bit_offset(0x0a), DW_AT_bit_size(0x01)
    2798                      .dwattr $C$DW$336, DW_AT_data_member_location[DW_OP_plus_uconst 0x0]
    2799                      .dwattr $C$DW$336, DW_AT_accessibility(DW_ACCESS_public)
    2800              $C$DW$337       .dwtag  DW_TAG_member
    2801                      .dwattr $C$DW$337, DW_AT_type(*$C$DW$T$19)
    2802                      .dwattr $C$DW$337, DW_AT_name("rsvd1")
    2803                      .dwattr $C$DW$337, DW_AT_TI_symbol_name("_rsvd1")
    2804                      .dwattr $C$DW$337, DW_AT_bit_offset(0x00), DW_AT_bit_size(0x0a)
    2805                      .dwattr $C$DW$337, DW_AT_data_member_location[DW_OP_plus_uconst 0x0]
    2806                      .dwattr $C$DW$337, DW_AT_accessibility(DW_ACCESS_public)
    2807              $C$DW$338       .dwtag  DW_TAG_member
    2808                      .dwattr $C$DW$338, DW_AT_type(*$C$DW$T$19)
    2809                      .dwattr $C$DW$338, DW_AT_name("rsvd2")
    2810                      .dwattr $C$DW$338, DW_AT_TI_symbol_name("_rsvd2")
    2811                      .dwattr $C$DW$338, DW_AT_bit_offset(0x00), DW_AT_bit_size(0x10)
    2812                      .dwattr $C$DW$338, DW_AT_data_member_location[DW_OP_plus_uconst 0x1]
    2813                      .dwattr $C$DW$338, DW_AT_accessibility(DW_ACCESS_public)
    2814                      .dwendtag $C$DW$T$86
    2815              
    2816              
    2817              $C$DW$T$87      .dwtag  DW_TAG_union_type
    2818                      .dwattr $C$DW$T$87, DW_AT_name("DC4_REG")
    2819                      .dwattr $C$DW$T$87, DW_AT_byte_size(0x02)
    2820              $C$DW$339       .dwtag  DW_TAG_member
    2821                      .dwattr $C$DW$339, DW_AT_type(*$C$DW$T$21)
    2822                      .dwattr $C$DW$339, DW_AT_name("all")
    2823                      .dwattr $C$DW$339, DW_AT_TI_symbol_name("_all")
    2824                      .dwattr $C$DW$339, DW_AT_data_member_location[DW_OP_plus_uconst 0x0]
    2825                      .dwattr $C$DW$339, DW_AT_accessibility(DW_ACCESS_public)
    2826              $C$DW$340       .dwtag  DW_TAG_member
    2827                      .dwattr $C$DW$340, DW_AT_type(*$C$DW$T$86)
    2828                      .dwattr $C$DW$340, DW_AT_name("bit")
    2829                      .dwattr $C$DW$340, DW_AT_TI_symbol_name("_bit")
    2830                      .dwattr $C$DW$340, DW_AT_data_member_location[DW_OP_plus_uconst 0x0]
    2831                      .dwattr $C$DW$340, DW_AT_accessibility(DW_ACCESS_public)
    2832                      .dwendtag $C$DW$T$87
    2833              
    2834              
    2835              $C$DW$T$88      .dwtag  DW_TAG_structure_type
    2836                      .dwattr $C$DW$T$88, DW_AT_name("DC5_BITS")
    2837                      .dwattr $C$DW$T$88, DW_AT_byte_size(0x02)
    2838              $C$DW$341       .dwtag  DW_TAG_member
TMS320C2000 Assembler PC v6.1.3 Thu Jan 30 10:25:22 2014

Tools Copyright (c) 1996-2012 Texas Instruments Incorporated
C:\Users\a0272466\AppData\Local\Temp\0699610                         PAGE   53

    2839                      .dwattr $C$DW$341, DW_AT_type(*$C$DW$T$19)
    2840                      .dwattr $C$DW$341, DW_AT_name("EQEP1")
    2841                      .dwattr $C$DW$341, DW_AT_TI_symbol_name("_EQEP1")
    2842                      .dwattr $C$DW$341, DW_AT_bit_offset(0x0f), DW_AT_bit_size(0x01)
    2843                      .dwattr $C$DW$341, DW_AT_data_member_location[DW_OP_plus_uconst 0x0]
    2844                      .dwattr $C$DW$341, DW_AT_accessibility(DW_ACCESS_public)
    2845              $C$DW$342       .dwtag  DW_TAG_member
    2846                      .dwattr $C$DW$342, DW_AT_type(*$C$DW$T$19)
    2847                      .dwattr $C$DW$342, DW_AT_name("EQEP2")
    2848                      .dwattr $C$DW$342, DW_AT_TI_symbol_name("_EQEP2")
    2849                      .dwattr $C$DW$342, DW_AT_bit_offset(0x0e), DW_AT_bit_size(0x01)
    2850                      .dwattr $C$DW$342, DW_AT_data_member_location[DW_OP_plus_uconst 0x0]
    2851                      .dwattr $C$DW$342, DW_AT_accessibility(DW_ACCESS_public)
    2852              $C$DW$343       .dwtag  DW_TAG_member
    2853                      .dwattr $C$DW$343, DW_AT_type(*$C$DW$T$19)
    2854                      .dwattr $C$DW$343, DW_AT_name("EQEP3")
    2855                      .dwattr $C$DW$343, DW_AT_TI_symbol_name("_EQEP3")
    2856                      .dwattr $C$DW$343, DW_AT_bit_offset(0x0d), DW_AT_bit_size(0x01)
    2857                      .dwattr $C$DW$343, DW_AT_data_member_location[DW_OP_plus_uconst 0x0]
    2858                      .dwattr $C$DW$343, DW_AT_accessibility(DW_ACCESS_public)
    2859              $C$DW$344       .dwtag  DW_TAG_member
    2860                      .dwattr $C$DW$344, DW_AT_type(*$C$DW$T$19)
    2861                      .dwattr $C$DW$344, DW_AT_name("rsvd1")
    2862                      .dwattr $C$DW$344, DW_AT_TI_symbol_name("_rsvd1")
    2863                      .dwattr $C$DW$344, DW_AT_bit_offset(0x00), DW_AT_bit_size(0x0d)
    2864                      .dwattr $C$DW$344, DW_AT_data_member_location[DW_OP_plus_uconst 0x0]
    2865                      .dwattr $C$DW$344, DW_AT_accessibility(DW_ACCESS_public)
    2866              $C$DW$345       .dwtag  DW_TAG_member
    2867                      .dwattr $C$DW$345, DW_AT_type(*$C$DW$T$19)
    2868                      .dwattr $C$DW$345, DW_AT_name("rsvd2")
    2869                      .dwattr $C$DW$345, DW_AT_TI_symbol_name("_rsvd2")
    2870                      .dwattr $C$DW$345, DW_AT_bit_offset(0x00), DW_AT_bit_size(0x10)
    2871                      .dwattr $C$DW$345, DW_AT_data_member_location[DW_OP_plus_uconst 0x1]
    2872                      .dwattr $C$DW$345, DW_AT_accessibility(DW_ACCESS_public)
    2873                      .dwendtag $C$DW$T$88
    2874              
    2875              
    2876              $C$DW$T$89      .dwtag  DW_TAG_union_type
    2877                      .dwattr $C$DW$T$89, DW_AT_name("DC5_REG")
    2878                      .dwattr $C$DW$T$89, DW_AT_byte_size(0x02)
    2879              $C$DW$346       .dwtag  DW_TAG_member
    2880                      .dwattr $C$DW$346, DW_AT_type(*$C$DW$T$21)
    2881                      .dwattr $C$DW$346, DW_AT_name("all")
    2882                      .dwattr $C$DW$346, DW_AT_TI_symbol_name("_all")
    2883                      .dwattr $C$DW$346, DW_AT_data_member_location[DW_OP_plus_uconst 0x0]
    2884                      .dwattr $C$DW$346, DW_AT_accessibility(DW_ACCESS_public)
    2885              $C$DW$347       .dwtag  DW_TAG_member
    2886                      .dwattr $C$DW$347, DW_AT_type(*$C$DW$T$88)
    2887                      .dwattr $C$DW$347, DW_AT_name("bit")
    2888                      .dwattr $C$DW$347, DW_AT_TI_symbol_name("_bit")
    2889                      .dwattr $C$DW$347, DW_AT_data_member_location[DW_OP_plus_uconst 0x0]
    2890                      .dwattr $C$DW$347, DW_AT_accessibility(DW_ACCESS_public)
    2891                      .dwendtag $C$DW$T$89
    2892              
    2893              
TMS320C2000 Assembler PC v6.1.3 Thu Jan 30 10:25:22 2014

Tools Copyright (c) 1996-2012 Texas Instruments Incorporated
C:\Users\a0272466\AppData\Local\Temp\0699610                         PAGE   54

    2894              $C$DW$T$90      .dwtag  DW_TAG_structure_type
    2895                      .dwattr $C$DW$T$90, DW_AT_name("DC6_BITS")
    2896                      .dwattr $C$DW$T$90, DW_AT_byte_size(0x02)
    2897              $C$DW$348       .dwtag  DW_TAG_member
    2898                      .dwattr $C$DW$348, DW_AT_type(*$C$DW$T$19)
    2899                      .dwattr $C$DW$348, DW_AT_name("rsvd1")
    2900                      .dwattr $C$DW$348, DW_AT_TI_symbol_name("_rsvd1")
    2901                      .dwattr $C$DW$348, DW_AT_bit_offset(0x00), DW_AT_bit_size(0x10)
    2902                      .dwattr $C$DW$348, DW_AT_data_member_location[DW_OP_plus_uconst 0x0]
    2903                      .dwattr $C$DW$348, DW_AT_accessibility(DW_ACCESS_public)
    2904              $C$DW$349       .dwtag  DW_TAG_member
    2905                      .dwattr $C$DW$349, DW_AT_type(*$C$DW$T$19)
    2906                      .dwattr $C$DW$349, DW_AT_name("rsvd2")
    2907                      .dwattr $C$DW$349, DW_AT_TI_symbol_name("_rsvd2")
    2908                      .dwattr $C$DW$349, DW_AT_bit_offset(0x00), DW_AT_bit_size(0x10)
    2909                      .dwattr $C$DW$349, DW_AT_data_member_location[DW_OP_plus_uconst 0x1]
    2910                      .dwattr $C$DW$349, DW_AT_accessibility(DW_ACCESS_public)
    2911                      .dwendtag $C$DW$T$90
    2912              
    2913              
    2914              $C$DW$T$91      .dwtag  DW_TAG_union_type
    2915                      .dwattr $C$DW$T$91, DW_AT_name("DC6_REG")
    2916                      .dwattr $C$DW$T$91, DW_AT_byte_size(0x02)
    2917              $C$DW$350       .dwtag  DW_TAG_member
    2918                      .dwattr $C$DW$350, DW_AT_type(*$C$DW$T$21)
    2919                      .dwattr $C$DW$350, DW_AT_name("all")
    2920                      .dwattr $C$DW$350, DW_AT_TI_symbol_name("_all")
    2921                      .dwattr $C$DW$350, DW_AT_data_member_location[DW_OP_plus_uconst 0x0]
    2922                      .dwattr $C$DW$350, DW_AT_accessibility(DW_ACCESS_public)
    2923              $C$DW$351       .dwtag  DW_TAG_member
    2924                      .dwattr $C$DW$351, DW_AT_type(*$C$DW$T$90)
    2925                      .dwattr $C$DW$351, DW_AT_name("bit")
    2926                      .dwattr $C$DW$351, DW_AT_TI_symbol_name("_bit")
    2927                      .dwattr $C$DW$351, DW_AT_data_member_location[DW_OP_plus_uconst 0x0]
    2928                      .dwattr $C$DW$351, DW_AT_accessibility(DW_ACCESS_public)
    2929                      .dwendtag $C$DW$T$91
    2930              
    2931              
    2932              $C$DW$T$92      .dwtag  DW_TAG_structure_type
    2933                      .dwattr $C$DW$T$92, DW_AT_name("DC7_BITS")
    2934                      .dwattr $C$DW$T$92, DW_AT_byte_size(0x02)
    2935              $C$DW$352       .dwtag  DW_TAG_member
    2936                      .dwattr $C$DW$352, DW_AT_type(*$C$DW$T$19)
    2937                      .dwattr $C$DW$352, DW_AT_name("SD1")
    2938                      .dwattr $C$DW$352, DW_AT_TI_symbol_name("_SD1")
    2939                      .dwattr $C$DW$352, DW_AT_bit_offset(0x0f), DW_AT_bit_size(0x01)
    2940                      .dwattr $C$DW$352, DW_AT_data_member_location[DW_OP_plus_uconst 0x0]
    2941                      .dwattr $C$DW$352, DW_AT_accessibility(DW_ACCESS_public)
    2942              $C$DW$353       .dwtag  DW_TAG_member
    2943                      .dwattr $C$DW$353, DW_AT_type(*$C$DW$T$19)
    2944                      .dwattr $C$DW$353, DW_AT_name("SD2")
    2945                      .dwattr $C$DW$353, DW_AT_TI_symbol_name("_SD2")
    2946                      .dwattr $C$DW$353, DW_AT_bit_offset(0x0e), DW_AT_bit_size(0x01)
    2947                      .dwattr $C$DW$353, DW_AT_data_member_location[DW_OP_plus_uconst 0x0]
    2948                      .dwattr $C$DW$353, DW_AT_accessibility(DW_ACCESS_public)
TMS320C2000 Assembler PC v6.1.3 Thu Jan 30 10:25:22 2014

Tools Copyright (c) 1996-2012 Texas Instruments Incorporated
C:\Users\a0272466\AppData\Local\Temp\0699610                         PAGE   55

    2949              $C$DW$354       .dwtag  DW_TAG_member
    2950                      .dwattr $C$DW$354, DW_AT_type(*$C$DW$T$19)
    2951                      .dwattr $C$DW$354, DW_AT_name("rsvd1")
    2952                      .dwattr $C$DW$354, DW_AT_TI_symbol_name("_rsvd1")
    2953                      .dwattr $C$DW$354, DW_AT_bit_offset(0x00), DW_AT_bit_size(0x0e)
    2954                      .dwattr $C$DW$354, DW_AT_data_member_location[DW_OP_plus_uconst 0x0]
    2955                      .dwattr $C$DW$354, DW_AT_accessibility(DW_ACCESS_public)
    2956              $C$DW$355       .dwtag  DW_TAG_member
    2957                      .dwattr $C$DW$355, DW_AT_type(*$C$DW$T$19)
    2958                      .dwattr $C$DW$355, DW_AT_name("rsvd2")
    2959                      .dwattr $C$DW$355, DW_AT_TI_symbol_name("_rsvd2")
    2960                      .dwattr $C$DW$355, DW_AT_bit_offset(0x00), DW_AT_bit_size(0x10)
    2961                      .dwattr $C$DW$355, DW_AT_data_member_location[DW_OP_plus_uconst 0x1]
    2962                      .dwattr $C$DW$355, DW_AT_accessibility(DW_ACCESS_public)
    2963                      .dwendtag $C$DW$T$92
    2964              
    2965              
    2966              $C$DW$T$93      .dwtag  DW_TAG_union_type
    2967                      .dwattr $C$DW$T$93, DW_AT_name("DC7_REG")
    2968                      .dwattr $C$DW$T$93, DW_AT_byte_size(0x02)
    2969              $C$DW$356       .dwtag  DW_TAG_member
    2970                      .dwattr $C$DW$356, DW_AT_type(*$C$DW$T$21)
    2971                      .dwattr $C$DW$356, DW_AT_name("all")
    2972                      .dwattr $C$DW$356, DW_AT_TI_symbol_name("_all")
    2973                      .dwattr $C$DW$356, DW_AT_data_member_location[DW_OP_plus_uconst 0x0]
    2974                      .dwattr $C$DW$356, DW_AT_accessibility(DW_ACCESS_public)
    2975              $C$DW$357       .dwtag  DW_TAG_member
    2976                      .dwattr $C$DW$357, DW_AT_type(*$C$DW$T$92)
    2977                      .dwattr $C$DW$357, DW_AT_name("bit")
    2978                      .dwattr $C$DW$357, DW_AT_TI_symbol_name("_bit")
    2979                      .dwattr $C$DW$357, DW_AT_data_member_location[DW_OP_plus_uconst 0x0]
    2980                      .dwattr $C$DW$357, DW_AT_accessibility(DW_ACCESS_public)
    2981                      .dwendtag $C$DW$T$93
    2982              
    2983              
    2984              $C$DW$T$94      .dwtag  DW_TAG_structure_type
    2985                      .dwattr $C$DW$T$94, DW_AT_name("DC8_BITS")
    2986                      .dwattr $C$DW$T$94, DW_AT_byte_size(0x02)
    2987              $C$DW$358       .dwtag  DW_TAG_member
    2988                      .dwattr $C$DW$358, DW_AT_type(*$C$DW$T$19)
    2989                      .dwattr $C$DW$358, DW_AT_name("SCI_A")
    2990                      .dwattr $C$DW$358, DW_AT_TI_symbol_name("_SCI_A")
    2991                      .dwattr $C$DW$358, DW_AT_bit_offset(0x0f), DW_AT_bit_size(0x01)
    2992                      .dwattr $C$DW$358, DW_AT_data_member_location[DW_OP_plus_uconst 0x0]
    2993                      .dwattr $C$DW$358, DW_AT_accessibility(DW_ACCESS_public)
    2994              $C$DW$359       .dwtag  DW_TAG_member
    2995                      .dwattr $C$DW$359, DW_AT_type(*$C$DW$T$19)
    2996                      .dwattr $C$DW$359, DW_AT_name("SCI_B")
    2997                      .dwattr $C$DW$359, DW_AT_TI_symbol_name("_SCI_B")
    2998                      .dwattr $C$DW$359, DW_AT_bit_offset(0x0e), DW_AT_bit_size(0x01)
    2999                      .dwattr $C$DW$359, DW_AT_data_member_location[DW_OP_plus_uconst 0x0]
    3000                      .dwattr $C$DW$359, DW_AT_accessibility(DW_ACCESS_public)
    3001              $C$DW$360       .dwtag  DW_TAG_member
    3002                      .dwattr $C$DW$360, DW_AT_type(*$C$DW$T$19)
    3003                      .dwattr $C$DW$360, DW_AT_name("SCI_C")
TMS320C2000 Assembler PC v6.1.3 Thu Jan 30 10:25:22 2014

Tools Copyright (c) 1996-2012 Texas Instruments Incorporated
C:\Users\a0272466\AppData\Local\Temp\0699610                         PAGE   56

    3004                      .dwattr $C$DW$360, DW_AT_TI_symbol_name("_SCI_C")
    3005                      .dwattr $C$DW$360, DW_AT_bit_offset(0x0d), DW_AT_bit_size(0x01)
    3006                      .dwattr $C$DW$360, DW_AT_data_member_location[DW_OP_plus_uconst 0x0]
    3007                      .dwattr $C$DW$360, DW_AT_accessibility(DW_ACCESS_public)
    3008              $C$DW$361       .dwtag  DW_TAG_member
    3009                      .dwattr $C$DW$361, DW_AT_type(*$C$DW$T$19)
    3010                      .dwattr $C$DW$361, DW_AT_name("SCI_D")
    3011                      .dwattr $C$DW$361, DW_AT_TI_symbol_name("_SCI_D")
    3012                      .dwattr $C$DW$361, DW_AT_bit_offset(0x0c), DW_AT_bit_size(0x01)
    3013                      .dwattr $C$DW$361, DW_AT_data_member_location[DW_OP_plus_uconst 0x0]
    3014                      .dwattr $C$DW$361, DW_AT_accessibility(DW_ACCESS_public)
    3015              $C$DW$362       .dwtag  DW_TAG_member
    3016                      .dwattr $C$DW$362, DW_AT_type(*$C$DW$T$19)
    3017                      .dwattr $C$DW$362, DW_AT_name("rsvd1")
    3018                      .dwattr $C$DW$362, DW_AT_TI_symbol_name("_rsvd1")
    3019                      .dwattr $C$DW$362, DW_AT_bit_offset(0x00), DW_AT_bit_size(0x0c)
    3020                      .dwattr $C$DW$362, DW_AT_data_member_location[DW_OP_plus_uconst 0x0]
    3021                      .dwattr $C$DW$362, DW_AT_accessibility(DW_ACCESS_public)
    3022              $C$DW$363       .dwtag  DW_TAG_member
    3023                      .dwattr $C$DW$363, DW_AT_type(*$C$DW$T$19)
    3024                      .dwattr $C$DW$363, DW_AT_name("rsvd2")
    3025                      .dwattr $C$DW$363, DW_AT_TI_symbol_name("_rsvd2")
    3026                      .dwattr $C$DW$363, DW_AT_bit_offset(0x00), DW_AT_bit_size(0x10)
    3027                      .dwattr $C$DW$363, DW_AT_data_member_location[DW_OP_plus_uconst 0x1]
    3028                      .dwattr $C$DW$363, DW_AT_accessibility(DW_ACCESS_public)
    3029                      .dwendtag $C$DW$T$94
    3030              
    3031              
    3032              $C$DW$T$95      .dwtag  DW_TAG_union_type
    3033                      .dwattr $C$DW$T$95, DW_AT_name("DC8_REG")
    3034                      .dwattr $C$DW$T$95, DW_AT_byte_size(0x02)
    3035              $C$DW$364       .dwtag  DW_TAG_member
    3036                      .dwattr $C$DW$364, DW_AT_type(*$C$DW$T$21)
    3037                      .dwattr $C$DW$364, DW_AT_name("all")
    3038                      .dwattr $C$DW$364, DW_AT_TI_symbol_name("_all")
    3039                      .dwattr $C$DW$364, DW_AT_data_member_location[DW_OP_plus_uconst 0x0]
    3040                      .dwattr $C$DW$364, DW_AT_accessibility(DW_ACCESS_public)
    3041              $C$DW$365       .dwtag  DW_TAG_member
    3042                      .dwattr $C$DW$365, DW_AT_type(*$C$DW$T$94)
    3043                      .dwattr $C$DW$365, DW_AT_name("bit")
    3044                      .dwattr $C$DW$365, DW_AT_TI_symbol_name("_bit")
    3045                      .dwattr $C$DW$365, DW_AT_data_member_location[DW_OP_plus_uconst 0x0]
    3046                      .dwattr $C$DW$365, DW_AT_accessibility(DW_ACCESS_public)
    3047                      .dwendtag $C$DW$T$95
    3048              
    3049              
    3050              $C$DW$T$96      .dwtag  DW_TAG_structure_type
    3051                      .dwattr $C$DW$T$96, DW_AT_name("DC9_BITS")
    3052                      .dwattr $C$DW$T$96, DW_AT_byte_size(0x02)
    3053              $C$DW$366       .dwtag  DW_TAG_member
    3054                      .dwattr $C$DW$366, DW_AT_type(*$C$DW$T$19)
    3055                      .dwattr $C$DW$366, DW_AT_name("SPI_A")
    3056                      .dwattr $C$DW$366, DW_AT_TI_symbol_name("_SPI_A")
    3057                      .dwattr $C$DW$366, DW_AT_bit_offset(0x0f), DW_AT_bit_size(0x01)
    3058                      .dwattr $C$DW$366, DW_AT_data_member_location[DW_OP_plus_uconst 0x0]
TMS320C2000 Assembler PC v6.1.3 Thu Jan 30 10:25:22 2014

Tools Copyright (c) 1996-2012 Texas Instruments Incorporated
C:\Users\a0272466\AppData\Local\Temp\0699610                         PAGE   57

    3059                      .dwattr $C$DW$366, DW_AT_accessibility(DW_ACCESS_public)
    3060              $C$DW$367       .dwtag  DW_TAG_member
    3061                      .dwattr $C$DW$367, DW_AT_type(*$C$DW$T$19)
    3062                      .dwattr $C$DW$367, DW_AT_name("SPI_B")
    3063                      .dwattr $C$DW$367, DW_AT_TI_symbol_name("_SPI_B")
    3064                      .dwattr $C$DW$367, DW_AT_bit_offset(0x0e), DW_AT_bit_size(0x01)
    3065                      .dwattr $C$DW$367, DW_AT_data_member_location[DW_OP_plus_uconst 0x0]
    3066                      .dwattr $C$DW$367, DW_AT_accessibility(DW_ACCESS_public)
    3067              $C$DW$368       .dwtag  DW_TAG_member
    3068                      .dwattr $C$DW$368, DW_AT_type(*$C$DW$T$19)
    3069                      .dwattr $C$DW$368, DW_AT_name("SPI_C")
    3070                      .dwattr $C$DW$368, DW_AT_TI_symbol_name("_SPI_C")
    3071                      .dwattr $C$DW$368, DW_AT_bit_offset(0x0d), DW_AT_bit_size(0x01)
    3072                      .dwattr $C$DW$368, DW_AT_data_member_location[DW_OP_plus_uconst 0x0]
    3073                      .dwattr $C$DW$368, DW_AT_accessibility(DW_ACCESS_public)
    3074              $C$DW$369       .dwtag  DW_TAG_member
    3075                      .dwattr $C$DW$369, DW_AT_type(*$C$DW$T$19)
    3076                      .dwattr $C$DW$369, DW_AT_name("rsvd1")
    3077                      .dwattr $C$DW$369, DW_AT_TI_symbol_name("_rsvd1")
    3078                      .dwattr $C$DW$369, DW_AT_bit_offset(0x00), DW_AT_bit_size(0x0d)
    3079                      .dwattr $C$DW$369, DW_AT_data_member_location[DW_OP_plus_uconst 0x0]
    3080                      .dwattr $C$DW$369, DW_AT_accessibility(DW_ACCESS_public)
    3081              $C$DW$370       .dwtag  DW_TAG_member
    3082                      .dwattr $C$DW$370, DW_AT_type(*$C$DW$T$19)
    3083                      .dwattr $C$DW$370, DW_AT_name("rsvd2")
    3084                      .dwattr $C$DW$370, DW_AT_TI_symbol_name("_rsvd2")
    3085                      .dwattr $C$DW$370, DW_AT_bit_offset(0x00), DW_AT_bit_size(0x10)
    3086                      .dwattr $C$DW$370, DW_AT_data_member_location[DW_OP_plus_uconst 0x1]
    3087                      .dwattr $C$DW$370, DW_AT_accessibility(DW_ACCESS_public)
    3088                      .dwendtag $C$DW$T$96
    3089              
    3090              
    3091              $C$DW$T$97      .dwtag  DW_TAG_union_type
    3092                      .dwattr $C$DW$T$97, DW_AT_name("DC9_REG")
    3093                      .dwattr $C$DW$T$97, DW_AT_byte_size(0x02)
    3094              $C$DW$371       .dwtag  DW_TAG_member
    3095                      .dwattr $C$DW$371, DW_AT_type(*$C$DW$T$21)
    3096                      .dwattr $C$DW$371, DW_AT_name("all")
    3097                      .dwattr $C$DW$371, DW_AT_TI_symbol_name("_all")
    3098                      .dwattr $C$DW$371, DW_AT_data_member_location[DW_OP_plus_uconst 0x0]
    3099                      .dwattr $C$DW$371, DW_AT_accessibility(DW_ACCESS_public)
    3100              $C$DW$372       .dwtag  DW_TAG_member
    3101                      .dwattr $C$DW$372, DW_AT_type(*$C$DW$T$96)
    3102                      .dwattr $C$DW$372, DW_AT_name("bit")
    3103                      .dwattr $C$DW$372, DW_AT_TI_symbol_name("_bit")
    3104                      .dwattr $C$DW$372, DW_AT_data_member_location[DW_OP_plus_uconst 0x0]
    3105                      .dwattr $C$DW$372, DW_AT_accessibility(DW_ACCESS_public)
    3106                      .dwendtag $C$DW$T$97
    3107              
    3108              
    3109              $C$DW$T$98      .dwtag  DW_TAG_structure_type
    3110                      .dwattr $C$DW$T$98, DW_AT_name("DEVCFGLOCK1_BITS")
    3111                      .dwattr $C$DW$T$98, DW_AT_byte_size(0x02)
    3112              $C$DW$373       .dwtag  DW_TAG_member
    3113                      .dwattr $C$DW$373, DW_AT_type(*$C$DW$T$19)
TMS320C2000 Assembler PC v6.1.3 Thu Jan 30 10:25:22 2014

Tools Copyright (c) 1996-2012 Texas Instruments Incorporated
C:\Users\a0272466\AppData\Local\Temp\0699610                         PAGE   58

    3114                      .dwattr $C$DW$373, DW_AT_name("CPUSEL0")
    3115                      .dwattr $C$DW$373, DW_AT_TI_symbol_name("_CPUSEL0")
    3116                      .dwattr $C$DW$373, DW_AT_bit_offset(0x0f), DW_AT_bit_size(0x01)
    3117                      .dwattr $C$DW$373, DW_AT_data_member_location[DW_OP_plus_uconst 0x0]
    3118                      .dwattr $C$DW$373, DW_AT_accessibility(DW_ACCESS_public)
    3119              $C$DW$374       .dwtag  DW_TAG_member
    3120                      .dwattr $C$DW$374, DW_AT_type(*$C$DW$T$19)
    3121                      .dwattr $C$DW$374, DW_AT_name("CPUSEL1")
    3122                      .dwattr $C$DW$374, DW_AT_TI_symbol_name("_CPUSEL1")
    3123                      .dwattr $C$DW$374, DW_AT_bit_offset(0x0e), DW_AT_bit_size(0x01)
    3124                      .dwattr $C$DW$374, DW_AT_data_member_location[DW_OP_plus_uconst 0x0]
    3125                      .dwattr $C$DW$374, DW_AT_accessibility(DW_ACCESS_public)
    3126              $C$DW$375       .dwtag  DW_TAG_member
    3127                      .dwattr $C$DW$375, DW_AT_type(*$C$DW$T$19)
    3128                      .dwattr $C$DW$375, DW_AT_name("CPUSEL2")
    3129                      .dwattr $C$DW$375, DW_AT_TI_symbol_name("_CPUSEL2")
    3130                      .dwattr $C$DW$375, DW_AT_bit_offset(0x0d), DW_AT_bit_size(0x01)
    3131                      .dwattr $C$DW$375, DW_AT_data_member_location[DW_OP_plus_uconst 0x0]
    3132                      .dwattr $C$DW$375, DW_AT_accessibility(DW_ACCESS_public)
    3133              $C$DW$376       .dwtag  DW_TAG_member
    3134                      .dwattr $C$DW$376, DW_AT_type(*$C$DW$T$19)
    3135                      .dwattr $C$DW$376, DW_AT_name("CPUSEL3")
    3136                      .dwattr $C$DW$376, DW_AT_TI_symbol_name("_CPUSEL3")
    3137                      .dwattr $C$DW$376, DW_AT_bit_offset(0x0c), DW_AT_bit_size(0x01)
    3138                      .dwattr $C$DW$376, DW_AT_data_member_location[DW_OP_plus_uconst 0x0]
    3139                      .dwattr $C$DW$376, DW_AT_accessibility(DW_ACCESS_public)
    3140              $C$DW$377       .dwtag  DW_TAG_member
    3141                      .dwattr $C$DW$377, DW_AT_type(*$C$DW$T$19)
    3142                      .dwattr $C$DW$377, DW_AT_name("CPUSEL4")
    3143                      .dwattr $C$DW$377, DW_AT_TI_symbol_name("_CPUSEL4")
    3144                      .dwattr $C$DW$377, DW_AT_bit_offset(0x0b), DW_AT_bit_size(0x01)
    3145                      .dwattr $C$DW$377, DW_AT_data_member_location[DW_OP_plus_uconst 0x0]
    3146                      .dwattr $C$DW$377, DW_AT_accessibility(DW_ACCESS_public)
    3147              $C$DW$378       .dwtag  DW_TAG_member
    3148                      .dwattr $C$DW$378, DW_AT_type(*$C$DW$T$19)
    3149                      .dwattr $C$DW$378, DW_AT_name("CPUSEL5")
    3150                      .dwattr $C$DW$378, DW_AT_TI_symbol_name("_CPUSEL5")
    3151                      .dwattr $C$DW$378, DW_AT_bit_offset(0x0a), DW_AT_bit_size(0x01)
    3152                      .dwattr $C$DW$378, DW_AT_data_member_location[DW_OP_plus_uconst 0x0]
    3153                      .dwattr $C$DW$378, DW_AT_accessibility(DW_ACCESS_public)
    3154              $C$DW$379       .dwtag  DW_TAG_member
