TMS320C2000 Assembler PC v6.1.3 Thu Jan 30 10:33:25 2014

Tools Copyright (c) 1996-2012 Texas Instruments Incorporated
C:\Users\a0272466\AppData\Local\Temp\0939610                         PAGE    1

       1              ;***************************************************************
       2              ;* TMS320C2000 C/C++ Codegen                         PC v6.1.3 *
       3              ;* Date/Time created: Thu Jan 30 10:33:21 2014                 *
       4              ;***************************************************************
       5                      .compiler_opts --float_support=fpu32 --hll_source=on --mem_model:code=flat --mem_model:data=large --o
       6        0002  FP      .set    XAR2
       7              
       8              $C$DW$CU        .dwtag  DW_TAG_compile_unit
       9                      .dwattr $C$DW$CU, DW_AT_name("C:/work/grepos/bootrom/Boot_ROM/F2837x_bootROM-REVB/F2837x_bootROM_dev/
      10                      .dwattr $C$DW$CU, DW_AT_producer("TMS320C2000 C/C++ Codegen PC v6.1.3 Copyright (c) 1996-2012 Texas I
      11                      .dwattr $C$DW$CU, DW_AT_TI_version(0x01)
      12                      .dwattr $C$DW$CU, DW_AT_comp_dir("C:\work\grepos\bootrom\Boot_ROM\F2837x_bootROM-REVB\F2837x_bootROM_
      13              
      14              $C$DW$1 .dwtag  DW_TAG_subprogram, DW_AT_name("CRCCalcZ2")
      15                      .dwattr $C$DW$1, DW_AT_TI_symbol_name("_CRCCalcZ2")
      16                      .dwattr $C$DW$1, DW_AT_type(*$C$DW$T$10)
      17                      .dwattr $C$DW$1, DW_AT_declaration
      18                      .dwattr $C$DW$1, DW_AT_external
      19              $C$DW$2 .dwtag  DW_TAG_formal_parameter
      20                      .dwattr $C$DW$2, DW_AT_type(*$C$DW$T$88)
      21              $C$DW$3 .dwtag  DW_TAG_formal_parameter
      22                      .dwattr $C$DW$3, DW_AT_type(*$C$DW$T$88)
      23              $C$DW$4 .dwtag  DW_TAG_formal_parameter
      24                      .dwattr $C$DW$4, DW_AT_type(*$C$DW$T$11)
      25                      .dwendtag $C$DW$1
      26              
      27              
      28              $C$DW$5 .dwtag  DW_TAG_subprogram, DW_AT_name("CRCCalcZ1")
      29                      .dwattr $C$DW$5, DW_AT_TI_symbol_name("_CRCCalcZ1")
      30                      .dwattr $C$DW$5, DW_AT_type(*$C$DW$T$10)
      31                      .dwattr $C$DW$5, DW_AT_declaration
      32                      .dwattr $C$DW$5, DW_AT_external
      33              $C$DW$6 .dwtag  DW_TAG_formal_parameter
      34                      .dwattr $C$DW$6, DW_AT_type(*$C$DW$T$88)
      35              $C$DW$7 .dwtag  DW_TAG_formal_parameter
      36                      .dwattr $C$DW$7, DW_AT_type(*$C$DW$T$88)
      37              $C$DW$8 .dwtag  DW_TAG_formal_parameter
      38                      .dwattr $C$DW$8, DW_AT_type(*$C$DW$T$11)
      39                      .dwendtag $C$DW$5
      40              
      41              $C$DW$9 .dwtag  DW_TAG_variable, DW_AT_name("DcsmRegsCommon")
      42                      .dwattr $C$DW$9, DW_AT_TI_symbol_name("_DcsmRegsCommon")
      43                      .dwattr $C$DW$9, DW_AT_type(*$C$DW$T$73)
      44                      .dwattr $C$DW$9, DW_AT_declaration
      45                      .dwattr $C$DW$9, DW_AT_external
      46              $C$DW$10        .dwtag  DW_TAG_variable, DW_AT_name("DcsmRegsZ1")
      47                      .dwattr $C$DW$10, DW_AT_TI_symbol_name("_DcsmRegsZ1")
      48                      .dwattr $C$DW$10, DW_AT_type(*$C$DW$T$74)
      49                      .dwattr $C$DW$10, DW_AT_declaration
      50                      .dwattr $C$DW$10, DW_AT_external
      51              $C$DW$11        .dwtag  DW_TAG_variable, DW_AT_name("DcsmRegsZ2")
      52                      .dwattr $C$DW$11, DW_AT_TI_symbol_name("_DcsmRegsZ2")
      53                      .dwattr $C$DW$11, DW_AT_type(*$C$DW$T$75)
      54                      .dwattr $C$DW$11, DW_AT_declaration
      55                      .dwattr $C$DW$11, DW_AT_external
TMS320C2000 Assembler PC v6.1.3 Thu Jan 30 10:33:25 2014

Tools Copyright (c) 1996-2012 Texas Instruments Incorporated
C:\Users\a0272466\AppData\Local\Temp\0939610                         PAGE    2

      56              ;       C:\ti\ccsv5\tools\compiler\c2000_6.1.3\bin\ac2000.exe -@C:\\Users\\a0272466\\AppData\\Local\\Temp\\09
      57 00000000               .sect   "SCCLZ1"
      58                      .global _SafeCopyCodeZ1
      59              
      60              $C$DW$12        .dwtag  DW_TAG_subprogram, DW_AT_name("SafeCopyCodeZ1")
      61                      .dwattr $C$DW$12, DW_AT_low_pc(_SafeCopyCodeZ1)
      62                      .dwattr $C$DW$12, DW_AT_high_pc(0x00)
      63                      .dwattr $C$DW$12, DW_AT_TI_symbol_name("_SafeCopyCodeZ1")
      64                      .dwattr $C$DW$12, DW_AT_external
      65                      .dwattr $C$DW$12, DW_AT_type(*$C$DW$T$21)
      66                      .dwattr $C$DW$12, DW_AT_TI_begin_file("C:/work/grepos/bootrom/Boot_ROM/F2837x_bootROM-REVB/F2837x_boo
      67                      .dwattr $C$DW$12, DW_AT_TI_begin_line(0x2f)
      68                      .dwattr $C$DW$12, DW_AT_TI_begin_column(0x08)
      69                      .dwattr $C$DW$12, DW_AT_TI_max_frame_size(-14)
      70                      .dwpsn  file "C:/work/grepos/bootrom/Boot_ROM/F2837x_bootROM-REVB/F2837x_bootROM_dev/F2837x_bootROM/c
      71              
      72                      .dwfde $C$DW$CIE, _SafeCopyCodeZ1
      73              $C$DW$13        .dwtag  DW_TAG_formal_parameter, DW_AT_name("size")
      74                      .dwattr $C$DW$13, DW_AT_TI_symbol_name("_size")
      75                      .dwattr $C$DW$13, DW_AT_type(*$C$DW$T$20)
      76                      .dwattr $C$DW$13, DW_AT_location[DW_OP_reg0]
      77              $C$DW$14        .dwtag  DW_TAG_formal_parameter, DW_AT_name("dst")
      78                      .dwattr $C$DW$14, DW_AT_TI_symbol_name("_dst")
      79                      .dwattr $C$DW$14, DW_AT_type(*$C$DW$T$91)
      80                      .dwattr $C$DW$14, DW_AT_location[DW_OP_reg12]
      81              $C$DW$15        .dwtag  DW_TAG_formal_parameter, DW_AT_name("src")
      82                      .dwattr $C$DW$15, DW_AT_TI_symbol_name("_src")
      83                      .dwattr $C$DW$15, DW_AT_type(*$C$DW$T$91)
      84                      .dwattr $C$DW$15, DW_AT_location[DW_OP_reg14]
      85              
      86              ;***************************************************************
      87              ;* FNAME: _SafeCopyCodeZ1               FR SIZE:  12           *
      88              ;*                                                             *
      89              ;* FUNCTION ENVIRONMENT                                        *
      90              ;*                                                             *
      91              ;* FUNCTION PROPERTIES                                         *
      92              ;*                            0 Parameter, 11 Auto,  0 SOE     *
      93              ;***************************************************************
      94              
      95 00000000       _SafeCopyCodeZ1:
      96                      .dwcfi  cfa_offset, -2
      97                      .dwcfi  save_reg_to_mem, 26, 0
      98                      .dwcfi  save_reg_to_reg, 78, 26
      99 00000000 FE0C          ADDB      SP,#12                ; [CPU_U] 
     100                      .dwcfi  cfa_offset, -14
     101              $C$DW$16        .dwtag  DW_TAG_variable, DW_AT_name("size")
     102                      .dwattr $C$DW$16, DW_AT_TI_symbol_name("_size")
     103                      .dwattr $C$DW$16, DW_AT_type(*$C$DW$T$20)
     104                      .dwattr $C$DW$16, DW_AT_location[DW_OP_breg20 -2]
     105              $C$DW$17        .dwtag  DW_TAG_variable, DW_AT_name("dst")
     106                      .dwattr $C$DW$17, DW_AT_TI_symbol_name("_dst")
     107                      .dwattr $C$DW$17, DW_AT_type(*$C$DW$T$91)
     108                      .dwattr $C$DW$17, DW_AT_location[DW_OP_breg20 -4]
     109              $C$DW$18        .dwtag  DW_TAG_variable, DW_AT_name("src")
     110                      .dwattr $C$DW$18, DW_AT_TI_symbol_name("_src")
TMS320C2000 Assembler PC v6.1.3 Thu Jan 30 10:33:25 2014

Tools Copyright (c) 1996-2012 Texas Instruments Incorporated
C:\Users\a0272466\AppData\Local\Temp\0939610                         PAGE    3

     111                      .dwattr $C$DW$18, DW_AT_type(*$C$DW$T$91)
     112                      .dwattr $C$DW$18, DW_AT_location[DW_OP_breg20 -6]
     113              $C$DW$19        .dwtag  DW_TAG_variable, DW_AT_name("copied")
     114                      .dwattr $C$DW$19, DW_AT_TI_symbol_name("_copied")
     115                      .dwattr $C$DW$19, DW_AT_type(*$C$DW$T$20)
     116                      .dwattr $C$DW$19, DW_AT_location[DW_OP_breg20 -8]
     117              $C$DW$20        .dwtag  DW_TAG_variable, DW_AT_name("dst_ram")
     118                      .dwattr $C$DW$20, DW_AT_TI_symbol_name("_dst_ram")
     119                      .dwattr $C$DW$20, DW_AT_type(*$C$DW$T$21)
     120                      .dwattr $C$DW$20, DW_AT_location[DW_OP_breg20 -9]
     121              $C$DW$21        .dwtag  DW_TAG_variable, DW_AT_name("src_sect")
     122                      .dwattr $C$DW$21, DW_AT_TI_symbol_name("_src_sect")
     123                      .dwattr $C$DW$21, DW_AT_type(*$C$DW$T$21)
     124                      .dwattr $C$DW$21, DW_AT_location[DW_OP_breg20 -10]
     125              $C$DW$22        .dwtag  DW_TAG_variable, DW_AT_name("check_var")
     126                      .dwattr $C$DW$22, DW_AT_TI_symbol_name("_check_var")
     127                      .dwattr $C$DW$22, DW_AT_type(*$C$DW$T$21)
     128                      .dwattr $C$DW$22, DW_AT_location[DW_OP_breg20 -11]
     129 00000001 A046          MOVL      *-SP[6],XAR5          ; [CPU_] |48| 
     130 00000002 A844          MOVL      *-SP[4],XAR4          ; [CPU_] |48| 
     131 00000003 1E42          MOVL      *-SP[2],ACC           ; [CPU_] |48| 
     132                      .dwpsn  file "C:/work/grepos/bootrom/Boot_ROM/F2837x_bootROM-REVB/F2837x_bootROM_dev/F2837x_bootROM/c
     133 00000004 0200          MOVB      ACC,#0                ; [CPU_] |49| 
     134 00000005 1E48          MOVL      *-SP[8],ACC           ; [CPU_] |49| 
     135                      .dwpsn  file "C:/work/grepos/bootrom/Boot_ROM/F2837x_bootROM-REVB/F2837x_bootROM_dev/F2837x_bootROM/c
     136 00000006 2849          MOV       *-SP[9],#65535        ; [CPU_] |50| 
         00000007 FFFF 
     137                      .dwpsn  file "C:/work/grepos/bootrom/Boot_ROM/F2837x_bootROM-REVB/F2837x_bootROM_dev/F2837x_bootROM/c
     138 00000008 284A          MOV       *-SP[10],#65535       ; [CPU_] |51| 
         00000009 FFFF 
     139                      .dwpsn  file "C:/work/grepos/bootrom/Boot_ROM/F2837x_bootROM-REVB/F2837x_bootROM_dev/F2837x_bootROM/c
     140 0000000a 284B          MOV       *-SP[11],#64095       ; [CPU_] |52| 
         0000000b FA5F 
     141                      .dwpsn  file "C:/work/grepos/bootrom/Boot_ROM/F2837x_bootROM-REVB/F2837x_bootROM_dev/F2837x_bootROM/c
     142 0000000c 761F!         MOVW      DP,#_DcsmRegsZ1+34    ; [CPU_U] 
         0000000d 0000 
     143 0000000e 1A22!         OR        @_DcsmRegsZ1+34,#0x0001 ; [CPU_] |55| 
         0000000f 0001 
     144                      .dwpsn  file "C:/work/grepos/bootrom/Boot_ROM/F2837x_bootROM-REVB/F2837x_bootROM_dev/F2837x_bootROM/c
     145 00000010 0642          MOVL      ACC,*-SP[2]           ; [CPU_] |58| 
     146 00000011 EC05          BF        $C$L1,EQ              ; [CPU_] |58| 
     147                      ; branchcc occurs ; [] |58| 
     148 00000012 0644          MOVL      ACC,*-SP[4]           ; [CPU_] |58| 
     149 00000013 EC03          BF        $C$L1,EQ              ; [CPU_] |58| 
     150                      ; branchcc occurs ; [] |58| 
     151 00000014 0646          MOVL      ACC,*-SP[6]           ; [CPU_] |58| 
     152 00000015 ED10          BF        $C$L2,NEQ             ; [CPU_] |58| 
     153                      ; branchcc occurs ; [] |58| 
     154 00000016       $C$L1:    
     155                      .dwpsn  file "C:/work/grepos/bootrom/Boot_ROM/F2837x_bootROM-REVB/F2837x_bootROM_dev/F2837x_bootROM/c
     156 00000016 1822!         AND       @_DcsmRegsZ1+34,#0xfffe ; [CPU_] |60| 
         00000017 FFFE 
     157                      .dwpsn  file "C:/work/grepos/bootrom/Boot_ROM/F2837x_bootROM-REVB/F2837x_bootROM_dev/F2837x_bootROM/c
     158 00000018 0200          MOVB      ACC,#0                ; [CPU_] |62| 
     159 00000019 1E42          MOVL      *-SP[2],ACC           ; [CPU_] |62| 
TMS320C2000 Assembler PC v6.1.3 Thu Jan 30 10:33:25 2014

Tools Copyright (c) 1996-2012 Texas Instruments Incorporated
C:\Users\a0272466\AppData\Local\Temp\0939610                         PAGE    4

     160                      .dwpsn  file "C:/work/grepos/bootrom/Boot_ROM/F2837x_bootROM-REVB/F2837x_bootROM_dev/F2837x_bootROM/c
     161 0000001a 1E44          MOVL      *-SP[4],ACC           ; [CPU_] |63| 
     162                      .dwpsn  file "C:/work/grepos/bootrom/Boot_ROM/F2837x_bootROM-REVB/F2837x_bootROM_dev/F2837x_bootROM/c
     163 0000001b 1E46          MOVL      *-SP[6],ACC           ; [CPU_] |64| 
     164                      .dwpsn  file "C:/work/grepos/bootrom/Boot_ROM/F2837x_bootROM-REVB/F2837x_bootROM_dev/F2837x_bootROM/c
     165 0000001c 1E48          MOVL      *-SP[8],ACC           ; [CPU_] |65| 
     166                      .dwpsn  file "C:/work/grepos/bootrom/Boot_ROM/F2837x_bootROM-REVB/F2837x_bootROM_dev/F2837x_bootROM/c
     167 0000001d 2849          MOV       *-SP[9],#65535        ; [CPU_] |66| 
         0000001e FFFF 
     168                      .dwpsn  file "C:/work/grepos/bootrom/Boot_ROM/F2837x_bootROM-REVB/F2837x_bootROM_dev/F2837x_bootROM/c
     169 0000001f 284A          MOV       *-SP[10],#65535       ; [CPU_] |67| 
         00000020 FFFF 
     170                      .dwpsn  file "C:/work/grepos/bootrom/Boot_ROM/F2837x_bootROM-REVB/F2837x_bootROM_dev/F2837x_bootROM/c
     171 00000021 2B4B          MOV       *-SP[11],#0           ; [CPU_] |68| 
     172                      .dwpsn  file "C:/work/grepos/bootrom/Boot_ROM/F2837x_bootROM-REVB/F2837x_bootROM_dev/F2837x_bootROM/c
     173 00000022 9A00          MOVB      AL,#0                 ; [CPU_] |69| 
     174 00000023 FFEF          B         $C$L28,UNC            ; [CPU_] |69| 
         00000024 029E 
     175                      ; branch occurs ; [] |69| 
     176 00000025       $C$L2:    
     177                      .dwpsn  file "C:/work/grepos/bootrom/Boot_ROM/F2837x_bootROM-REVB/F2837x_bootROM_dev/F2837x_bootROM/c
     178 00000025 C446          MOVL      XAR6,*-SP[6]          ; [CPU_] |73| 
     179 00000026 8F10          MOVL      XAR4,#1048576         ; [CPU_U] |73| 
         00000027 0000 
     180 00000028 A8A9          MOVL      ACC,XAR4              ; [CPU_] |73| 
     181 00000029 0FA6          CMPL      ACC,XAR6              ; [CPU_] |73| 
     182 0000002a 6907          B         $C$L3,LOS             ; [CPU_] |73| 
     183                      ; branchcc occurs ; [] |73| 
     184 0000002b C446          MOVL      XAR6,*-SP[6]          ; [CPU_] |73| 
     185 0000002c 8F08          MOVL      XAR4,#524288          ; [CPU_U] |73| 
         0000002d 0000 
     186 0000002e A8A9          MOVL      ACC,XAR4              ; [CPU_] |73| 
     187 0000002f 0FA6          CMPL      ACC,XAR6              ; [CPU_] |73| 
     188 00000030 6910          B         $C$L4,LOS             ; [CPU_] |73| 
     189                      ; branchcc occurs ; [] |73| 
     190 00000031       $C$L3:    
     191                      .dwpsn  file "C:/work/grepos/bootrom/Boot_ROM/F2837x_bootROM-REVB/F2837x_bootROM_dev/F2837x_bootROM/c
     192 00000031 1822!         AND       @_DcsmRegsZ1+34,#0xfffe ; [CPU_] |76| 
         00000032 FFFE 
     193                      .dwpsn  file "C:/work/grepos/bootrom/Boot_ROM/F2837x_bootROM-REVB/F2837x_bootROM_dev/F2837x_bootROM/c
     194 00000033 0200          MOVB      ACC,#0                ; [CPU_] |78| 
     195 00000034 1E42          MOVL      *-SP[2],ACC           ; [CPU_] |78| 
     196                      .dwpsn  file "C:/work/grepos/bootrom/Boot_ROM/F2837x_bootROM-REVB/F2837x_bootROM_dev/F2837x_bootROM/c
     197 00000035 1E44          MOVL      *-SP[4],ACC           ; [CPU_] |79| 
     198                      .dwpsn  file "C:/work/grepos/bootrom/Boot_ROM/F2837x_bootROM-REVB/F2837x_bootROM_dev/F2837x_bootROM/c
     199 00000036 1E46          MOVL      *-SP[6],ACC           ; [CPU_] |80| 
     200                      .dwpsn  file "C:/work/grepos/bootrom/Boot_ROM/F2837x_bootROM-REVB/F2837x_bootROM_dev/F2837x_bootROM/c
     201 00000037 1E48          MOVL      *-SP[8],ACC           ; [CPU_] |81| 
     202                      .dwpsn  file "C:/work/grepos/bootrom/Boot_ROM/F2837x_bootROM-REVB/F2837x_bootROM_dev/F2837x_bootROM/c
     203 00000038 2849          MOV       *-SP[9],#65535        ; [CPU_] |82| 
         00000039 FFFF 
     204                      .dwpsn  file "C:/work/grepos/bootrom/Boot_ROM/F2837x_bootROM-REVB/F2837x_bootROM_dev/F2837x_bootROM/c
     205 0000003a 284A          MOV       *-SP[10],#65535       ; [CPU_] |83| 
         0000003b FFFF 
     206                      .dwpsn  file "C:/work/grepos/bootrom/Boot_ROM/F2837x_bootROM-REVB/F2837x_bootROM_dev/F2837x_bootROM/c
TMS320C2000 Assembler PC v6.1.3 Thu Jan 30 10:33:25 2014

Tools Copyright (c) 1996-2012 Texas Instruments Incorporated
C:\Users\a0272466\AppData\Local\Temp\0939610                         PAGE    5

     207 0000003c 2B4B          MOV       *-SP[11],#0           ; [CPU_] |84| 
     208                      .dwpsn  file "C:/work/grepos/bootrom/Boot_ROM/F2837x_bootROM-REVB/F2837x_bootROM_dev/F2837x_bootROM/c
     209 0000003d 9A00          MOVB      AL,#0                 ; [CPU_] |85| 
     210 0000003e FFEF          B         $C$L28,UNC            ; [CPU_] |85| 
         0000003f 0283 
     211                      ; branch occurs ; [] |85| 
     212 00000040       $C$L4:    
     213                      .dwpsn  file "C:/work/grepos/bootrom/Boot_ROM/F2837x_bootROM-REVB/F2837x_bootROM_dev/F2837x_bootROM/c
     214 00000040 C444          MOVL      XAR6,*-SP[4]          ; [CPU_] |91| 
     215 00000041 2901          CLRC      SXM                   ; [CPU_] 
     216 00000042 FF20          MOV       ACC,#49152            ; [CPU_] |91| 
         00000043 C000 
     217 00000044 0FA6          CMPL      ACC,XAR6              ; [CPU_] |91| 
     218 00000045 6906          B         $C$L5,LOS             ; [CPU_] |91| 
     219                      ; branchcc occurs ; [] |91| 
     220 00000046 C444          MOVL      XAR6,*-SP[4]          ; [CPU_] |91| 
     221 00000047 FF20          MOV       ACC,#32768            ; [CPU_] |91| 
         00000048 8000 
     222 00000049 0FA6          CMPL      ACC,XAR6              ; [CPU_] |91| 
     223 0000004a 6910          B         $C$L6,LOS             ; [CPU_] |91| 
     224                      ; branchcc occurs ; [] |91| 
     225 0000004b       $C$L5:    
     226                      .dwpsn  file "C:/work/grepos/bootrom/Boot_ROM/F2837x_bootROM-REVB/F2837x_bootROM_dev/F2837x_bootROM/c
     227 0000004b 1822!         AND       @_DcsmRegsZ1+34,#0xfffe ; [CPU_] |94| 
         0000004c FFFE 
     228                      .dwpsn  file "C:/work/grepos/bootrom/Boot_ROM/F2837x_bootROM-REVB/F2837x_bootROM_dev/F2837x_bootROM/c
     229 0000004d 0200          MOVB      ACC,#0                ; [CPU_] |96| 
     230 0000004e 1E42          MOVL      *-SP[2],ACC           ; [CPU_] |96| 
     231                      .dwpsn  file "C:/work/grepos/bootrom/Boot_ROM/F2837x_bootROM-REVB/F2837x_bootROM_dev/F2837x_bootROM/c
     232 0000004f 1E44          MOVL      *-SP[4],ACC           ; [CPU_] |97| 
     233                      .dwpsn  file "C:/work/grepos/bootrom/Boot_ROM/F2837x_bootROM-REVB/F2837x_bootROM_dev/F2837x_bootROM/c
     234 00000050 1E46          MOVL      *-SP[6],ACC           ; [CPU_] |98| 
     235                      .dwpsn  file "C:/work/grepos/bootrom/Boot_ROM/F2837x_bootROM-REVB/F2837x_bootROM_dev/F2837x_bootROM/c
     236 00000051 1E48          MOVL      *-SP[8],ACC           ; [CPU_] |99| 
     237                      .dwpsn  file "C:/work/grepos/bootrom/Boot_ROM/F2837x_bootROM-REVB/F2837x_bootROM_dev/F2837x_bootROM/c
     238 00000052 2849          MOV       *-SP[9],#65535        ; [CPU_] |100| 
         00000053 FFFF 
     239                      .dwpsn  file "C:/work/grepos/bootrom/Boot_ROM/F2837x_bootROM-REVB/F2837x_bootROM_dev/F2837x_bootROM/c
     240 00000054 284A          MOV       *-SP[10],#65535       ; [CPU_] |101| 
         00000055 FFFF 
     241                      .dwpsn  file "C:/work/grepos/bootrom/Boot_ROM/F2837x_bootROM-REVB/F2837x_bootROM_dev/F2837x_bootROM/c
     242 00000056 2B4B          MOV       *-SP[11],#0           ; [CPU_] |102| 
     243                      .dwpsn  file "C:/work/grepos/bootrom/Boot_ROM/F2837x_bootROM-REVB/F2837x_bootROM_dev/F2837x_bootROM/c
     244 00000057 9A00          MOVB      AL,#0                 ; [CPU_] |103| 
     245 00000058 FFEF          B         $C$L28,UNC            ; [CPU_] |103| 
         00000059 0269 
     246                      ; branch occurs ; [] |103| 
     247 0000005a       $C$L6:    
     248                      .dwpsn  file "C:/work/grepos/bootrom/Boot_ROM/F2837x_bootROM-REVB/F2837x_bootROM_dev/F2837x_bootROM/c
     249 0000005a 0644          MOVL      ACC,*-SP[4]           ; [CPU_] |109| 
     250 0000005b 8F00          MOVL      XAR4,#2048            ; [CPU_U] |109| 
         0000005c 0800 
     251 0000005d 9B00          MOVB      AH,#0                 ; [CPU_] |109| 
     252 0000005e 18A9          AND       AL,#0x07ff            ; [CPU_] |109| 
         0000005f 07FF 
TMS320C2000 Assembler PC v6.1.3 Thu Jan 30 10:33:25 2014

Tools Copyright (c) 1996-2012 Texas Instruments Incorporated
C:\Users\a0272466\AppData\Local\Temp\0939610                         PAGE    6

     253 00000060 0742          ADDL      ACC,*-SP[2]           ; [CPU_] |109| 
     254 00000061 0FA4          CMPL      ACC,XAR4              ; [CPU_] |109| 
     255 00000062 6910          B         $C$L7,LOS             ; [CPU_] |109| 
     256                      ; branchcc occurs ; [] |109| 
     257                      .dwpsn  file "C:/work/grepos/bootrom/Boot_ROM/F2837x_bootROM-REVB/F2837x_bootROM_dev/F2837x_bootROM/c
     258 00000063 1822!         AND       @_DcsmRegsZ1+34,#0xfffe ; [CPU_] |111| 
         00000064 FFFE 
     259                      .dwpsn  file "C:/work/grepos/bootrom/Boot_ROM/F2837x_bootROM-REVB/F2837x_bootROM_dev/F2837x_bootROM/c
     260 00000065 0200          MOVB      ACC,#0                ; [CPU_] |113| 
     261 00000066 1E42          MOVL      *-SP[2],ACC           ; [CPU_] |113| 
     262                      .dwpsn  file "C:/work/grepos/bootrom/Boot_ROM/F2837x_bootROM-REVB/F2837x_bootROM_dev/F2837x_bootROM/c
     263 00000067 1E44          MOVL      *-SP[4],ACC           ; [CPU_] |114| 
     264                      .dwpsn  file "C:/work/grepos/bootrom/Boot_ROM/F2837x_bootROM-REVB/F2837x_bootROM_dev/F2837x_bootROM/c
     265 00000068 1E46          MOVL      *-SP[6],ACC           ; [CPU_] |115| 
     266                      .dwpsn  file "C:/work/grepos/bootrom/Boot_ROM/F2837x_bootROM-REVB/F2837x_bootROM_dev/F2837x_bootROM/c
     267 00000069 1E48          MOVL      *-SP[8],ACC           ; [CPU_] |116| 
     268                      .dwpsn  file "C:/work/grepos/bootrom/Boot_ROM/F2837x_bootROM-REVB/F2837x_bootROM_dev/F2837x_bootROM/c
     269 0000006a 2849          MOV       *-SP[9],#65535        ; [CPU_] |117| 
         0000006b FFFF 
     270                      .dwpsn  file "C:/work/grepos/bootrom/Boot_ROM/F2837x_bootROM-REVB/F2837x_bootROM_dev/F2837x_bootROM/c
     271 0000006c 284A          MOV       *-SP[10],#65535       ; [CPU_] |118| 
         0000006d FFFF 
     272                      .dwpsn  file "C:/work/grepos/bootrom/Boot_ROM/F2837x_bootROM-REVB/F2837x_bootROM_dev/F2837x_bootROM/c
     273 0000006e 2B4B          MOV       *-SP[11],#0           ; [CPU_] |119| 
     274                      .dwpsn  file "C:/work/grepos/bootrom/Boot_ROM/F2837x_bootROM-REVB/F2837x_bootROM_dev/F2837x_bootROM/c
     275 0000006f 9A00          MOVB      AL,#0                 ; [CPU_] |120| 
     276 00000070 FFEF          B         $C$L28,UNC            ; [CPU_] |120| 
         00000071 0251 
     277                      ; branch occurs ; [] |120| 
     278 00000072       $C$L7:    
     279                      .dwpsn  file "C:/work/grepos/bootrom/Boot_ROM/F2837x_bootROM-REVB/F2837x_bootROM_dev/F2837x_bootROM/c
     280 00000072 0644          MOVL      ACC,*-SP[4]           ; [CPU_] |124| 
     281 00000073 8F00          MOVL      XAR4,#47104           ; [CPU_U] |124| 
         00000074 B800 
     282 00000075 9B00          MOVB      AH,#0                 ; [CPU_] |124| 
     283 00000076 18A9          AND       AL,#0xb800            ; [CPU_] |124| 
         00000077 B800 
     284 00000078 0FA4          CMPL      ACC,XAR4              ; [CPU_] |124| 
     285                      .dwpsn  file "C:/work/grepos/bootrom/Boot_ROM/F2837x_bootROM-REVB/F2837x_bootROM_dev/F2837x_bootROM/c
     286 00000079 56B1          MOVB      *-SP[9],#14,EQ        ; [CPU_] |127| 
         0000007a 0E49 
     287                      .dwpsn  file "C:/work/grepos/bootrom/Boot_ROM/F2837x_bootROM-REVB/F2837x_bootROM_dev/F2837x_bootROM/c
     288 0000007b EC46          BF        $C$L8,EQ              ; [CPU_] |128| 
     289                      ; branchcc occurs ; [] |128| 
     290                      .dwpsn  file "C:/work/grepos/bootrom/Boot_ROM/F2837x_bootROM-REVB/F2837x_bootROM_dev/F2837x_bootROM/c
     291 0000007c 0644          MOVL      ACC,*-SP[4]           ; [CPU_] |129| 
     292 0000007d 8F00          MOVL      XAR4,#45056           ; [CPU_U] |129| 
         0000007e B000 
     293 0000007f 9B00          MOVB      AH,#0                 ; [CPU_] |129| 
     294 00000080 18A9          AND       AL,#0xb000            ; [CPU_] |129| 
         00000081 B000 
     295 00000082 0FA4          CMPL      ACC,XAR4              ; [CPU_] |129| 
     296                      .dwpsn  file "C:/work/grepos/bootrom/Boot_ROM/F2837x_bootROM-REVB/F2837x_bootROM_dev/F2837x_bootROM/c
     297 00000083 56B1          MOVB      *-SP[9],#12,EQ        ; [CPU_] |132| 
         00000084 0C49 
TMS320C2000 Assembler PC v6.1.3 Thu Jan 30 10:33:25 2014

Tools Copyright (c) 1996-2012 Texas Instruments Incorporated
C:\Users\a0272466\AppData\Local\Temp\0939610                         PAGE    7

     298                      .dwpsn  file "C:/work/grepos/bootrom/Boot_ROM/F2837x_bootROM-REVB/F2837x_bootROM_dev/F2837x_bootROM/c
     299 00000085 EC3C          BF        $C$L8,EQ              ; [CPU_] |133| 
     300                      ; branchcc occurs ; [] |133| 
     301                      .dwpsn  file "C:/work/grepos/bootrom/Boot_ROM/F2837x_bootROM-REVB/F2837x_bootROM_dev/F2837x_bootROM/c
     302 00000086 0644          MOVL      ACC,*-SP[4]           ; [CPU_] |134| 
     303 00000087 8F00          MOVL      XAR4,#43008           ; [CPU_U] |134| 
         00000088 A800 
     304 00000089 9B00          MOVB      AH,#0                 ; [CPU_] |134| 
     305 0000008a 18A9          AND       AL,#0xa800            ; [CPU_] |134| 
         0000008b A800 
     306 0000008c 0FA4          CMPL      ACC,XAR4              ; [CPU_] |134| 
     307                      .dwpsn  file "C:/work/grepos/bootrom/Boot_ROM/F2837x_bootROM-REVB/F2837x_bootROM_dev/F2837x_bootROM/c
     308 0000008d 56B1          MOVB      *-SP[9],#10,EQ        ; [CPU_] |137| 
         0000008e 0A49 
     309                      .dwpsn  file "C:/work/grepos/bootrom/Boot_ROM/F2837x_bootROM-REVB/F2837x_bootROM_dev/F2837x_bootROM/c
     310 0000008f EC32          BF        $C$L8,EQ              ; [CPU_] |138| 
     311                      ; branchcc occurs ; [] |138| 
     312                      .dwpsn  file "C:/work/grepos/bootrom/Boot_ROM/F2837x_bootROM-REVB/F2837x_bootROM_dev/F2837x_bootROM/c
     313 00000090 0644          MOVL      ACC,*-SP[4]           ; [CPU_] |139| 
     314 00000091 8F00          MOVL      XAR4,#40960           ; [CPU_U] |139| 
         00000092 A000 
     315 00000093 9B00          MOVB      AH,#0                 ; [CPU_] |139| 
     316 00000094 18A9          AND       AL,#0xa000            ; [CPU_] |139| 
         00000095 A000 
     317 00000096 0FA4          CMPL      ACC,XAR4              ; [CPU_] |139| 
     318                      .dwpsn  file "C:/work/grepos/bootrom/Boot_ROM/F2837x_bootROM-REVB/F2837x_bootROM_dev/F2837x_bootROM/c
     319 00000097 56B1          MOVB      *-SP[9],#8,EQ         ; [CPU_] |142| 
         00000098 0849 
     320                      .dwpsn  file "C:/work/grepos/bootrom/Boot_ROM/F2837x_bootROM-REVB/F2837x_bootROM_dev/F2837x_bootROM/c
     321 00000099 EC28          BF        $C$L8,EQ              ; [CPU_] |143| 
     322                      ; branchcc occurs ; [] |143| 
     323                      .dwpsn  file "C:/work/grepos/bootrom/Boot_ROM/F2837x_bootROM-REVB/F2837x_bootROM_dev/F2837x_bootROM/c
     324 0000009a 0644          MOVL      ACC,*-SP[4]           ; [CPU_] |144| 
     325 0000009b 8F00          MOVL      XAR4,#38912           ; [CPU_U] |144| 
         0000009c 9800 
     326 0000009d 9B00          MOVB      AH,#0                 ; [CPU_] |144| 
     327 0000009e 18A9          AND       AL,#0x9800            ; [CPU_] |144| 
         0000009f 9800 
     328 000000a0 0FA4          CMPL      ACC,XAR4              ; [CPU_] |144| 
     329                      .dwpsn  file "C:/work/grepos/bootrom/Boot_ROM/F2837x_bootROM-REVB/F2837x_bootROM_dev/F2837x_bootROM/c
     330 000000a1 56B1          MOVB      *-SP[9],#6,EQ         ; [CPU_] |147| 
         000000a2 0649 
     331                      .dwpsn  file "C:/work/grepos/bootrom/Boot_ROM/F2837x_bootROM-REVB/F2837x_bootROM_dev/F2837x_bootROM/c
     332 000000a3 EC1E          BF        $C$L8,EQ              ; [CPU_] |148| 
     333                      ; branchcc occurs ; [] |148| 
     334                      .dwpsn  file "C:/work/grepos/bootrom/Boot_ROM/F2837x_bootROM-REVB/F2837x_bootROM_dev/F2837x_bootROM/c
     335 000000a4 0644          MOVL      ACC,*-SP[4]           ; [CPU_] |149| 
     336 000000a5 8F00          MOVL      XAR4,#36864           ; [CPU_U] |149| 
         000000a6 9000 
     337 000000a7 9B00          MOVB      AH,#0                 ; [CPU_] |149| 
     338 000000a8 18A9          AND       AL,#0x9000            ; [CPU_] |149| 
         000000a9 9000 
     339 000000aa 0FA4          CMPL      ACC,XAR4              ; [CPU_] |149| 
     340                      .dwpsn  file "C:/work/grepos/bootrom/Boot_ROM/F2837x_bootROM-REVB/F2837x_bootROM_dev/F2837x_bootROM/c
     341 000000ab 56B1          MOVB      *-SP[9],#4,EQ         ; [CPU_] |152| 
TMS320C2000 Assembler PC v6.1.3 Thu Jan 30 10:33:25 2014

Tools Copyright (c) 1996-2012 Texas Instruments Incorporated
C:\Users\a0272466\AppData\Local\Temp\0939610                         PAGE    8

         000000ac 0449 
     342                      .dwpsn  file "C:/work/grepos/bootrom/Boot_ROM/F2837x_bootROM-REVB/F2837x_bootROM_dev/F2837x_bootROM/c
     343 000000ad EC14          BF        $C$L8,EQ              ; [CPU_] |153| 
     344                      ; branchcc occurs ; [] |153| 
     345                      .dwpsn  file "C:/work/grepos/bootrom/Boot_ROM/F2837x_bootROM-REVB/F2837x_bootROM_dev/F2837x_bootROM/c
     346 000000ae 0644          MOVL      ACC,*-SP[4]           ; [CPU_] |154| 
     347 000000af 8F00          MOVL      XAR4,#34816           ; [CPU_U] |154| 
         000000b0 8800 
     348 000000b1 9B00          MOVB      AH,#0                 ; [CPU_] |154| 
     349 000000b2 18A9          AND       AL,#0x8800            ; [CPU_] |154| 
         000000b3 8800 
     350 000000b4 0FA4          CMPL      ACC,XAR4              ; [CPU_] |154| 
     351                      .dwpsn  file "C:/work/grepos/bootrom/Boot_ROM/F2837x_bootROM-REVB/F2837x_bootROM_dev/F2837x_bootROM/c
     352 000000b5 56B1          MOVB      *-SP[9],#2,EQ         ; [CPU_] |157| 
         000000b6 0249 
     353                      .dwpsn  file "C:/work/grepos/bootrom/Boot_ROM/F2837x_bootROM-REVB/F2837x_bootROM_dev/F2837x_bootROM/c
     354 000000b7 EC0A          BF        $C$L8,EQ              ; [CPU_] |158| 
     355                      ; branchcc occurs ; [] |158| 
     356                      .dwpsn  file "C:/work/grepos/bootrom/Boot_ROM/F2837x_bootROM-REVB/F2837x_bootROM_dev/F2837x_bootROM/c
     357 000000b8 0644          MOVL      ACC,*-SP[4]           ; [CPU_] |159| 
     358 000000b9 8F00          MOVL      XAR4,#32768           ; [CPU_U] |159| 
         000000ba 8000 
     359 000000bb 9B00          MOVB      AH,#0                 ; [CPU_] |159| 
     360 000000bc 18A9          AND       AL,#0x8000            ; [CPU_] |159| 
         000000bd 8000 
     361 000000be 0FA4          CMPL      ACC,XAR4              ; [CPU_] |159| 
     362 000000bf ED02          BF        $C$L8,NEQ             ; [CPU_] |159| 
     363                      ; branchcc occurs ; [] |159| 
     364                      .dwpsn  file "C:/work/grepos/bootrom/Boot_ROM/F2837x_bootROM-REVB/F2837x_bootROM_dev/F2837x_bootROM/c
     365 000000c0 2B49          MOV       *-SP[9],#0            ; [CPU_] |162| 
     366 000000c1       $C$L8:    
     367                      .dwpsn  file "C:/work/grepos/bootrom/Boot_ROM/F2837x_bootROM-REVB/F2837x_bootROM_dev/F2837x_bootROM/c
     368 000000c1 0644          MOVL      ACC,*-SP[4]           ; [CPU_] |170| 
     369 000000c2 8F00          MOVL      XAR4,#2048            ; [CPU_U] |170| 
         000000c3 0800 
     370 000000c4 9B00          MOVB      AH,#0                 ; [CPU_] |170| 
     371 000000c5 18A9          AND       AL,#0x07ff            ; [CPU_] |170| 
         000000c6 07FF 
     372 000000c7 0742          ADDL      ACC,*-SP[2]           ; [CPU_] |170| 
     373 000000c8 0FA4          CMPL      ACC,XAR4              ; [CPU_] |170| 
     374 000000c9 6910          B         $C$L9,LOS             ; [CPU_] |170| 
     375                      ; branchcc occurs ; [] |170| 
     376                      .dwpsn  file "C:/work/grepos/bootrom/Boot_ROM/F2837x_bootROM-REVB/F2837x_bootROM_dev/F2837x_bootROM/c
     377 000000ca 1822!         AND       @_DcsmRegsZ1+34,#0xfffe ; [CPU_] |172| 
         000000cb FFFE 
     378                      .dwpsn  file "C:/work/grepos/bootrom/Boot_ROM/F2837x_bootROM-REVB/F2837x_bootROM_dev/F2837x_bootROM/c
     379 000000cc 0200          MOVB      ACC,#0                ; [CPU_] |174| 
     380 000000cd 1E42          MOVL      *-SP[2],ACC           ; [CPU_] |174| 
     381                      .dwpsn  file "C:/work/grepos/bootrom/Boot_ROM/F2837x_bootROM-REVB/F2837x_bootROM_dev/F2837x_bootROM/c
     382 000000ce 1E44          MOVL      *-SP[4],ACC           ; [CPU_] |175| 
     383                      .dwpsn  file "C:/work/grepos/bootrom/Boot_ROM/F2837x_bootROM-REVB/F2837x_bootROM_dev/F2837x_bootROM/c
     384 000000cf 1E46          MOVL      *-SP[6],ACC           ; [CPU_] |176| 
     385                      .dwpsn  file "C:/work/grepos/bootrom/Boot_ROM/F2837x_bootROM-REVB/F2837x_bootROM_dev/F2837x_bootROM/c
     386 000000d0 1E48          MOVL      *-SP[8],ACC           ; [CPU_] |177| 
     387                      .dwpsn  file "C:/work/grepos/bootrom/Boot_ROM/F2837x_bootROM-REVB/F2837x_bootROM_dev/F2837x_bootROM/c
TMS320C2000 Assembler PC v6.1.3 Thu Jan 30 10:33:25 2014

Tools Copyright (c) 1996-2012 Texas Instruments Incorporated
C:\Users\a0272466\AppData\Local\Temp\0939610                         PAGE    9

     388 000000d1 2849          MOV       *-SP[9],#65535        ; [CPU_] |178| 
         000000d2 FFFF 
     389                      .dwpsn  file "C:/work/grepos/bootrom/Boot_ROM/F2837x_bootROM-REVB/F2837x_bootROM_dev/F2837x_bootROM/c
     390 000000d3 284A          MOV       *-SP[10],#65535       ; [CPU_] |179| 
         000000d4 FFFF 
     391                      .dwpsn  file "C:/work/grepos/bootrom/Boot_ROM/F2837x_bootROM-REVB/F2837x_bootROM_dev/F2837x_bootROM/c
     392 000000d5 2B4B          MOV       *-SP[11],#0           ; [CPU_] |180| 
     393                      .dwpsn  file "C:/work/grepos/bootrom/Boot_ROM/F2837x_bootROM-REVB/F2837x_bootROM_dev/F2837x_bootROM/c
     394 000000d6 9A00          MOVB      AL,#0                 ; [CPU_] |181| 
     395 000000d7 FFEF          B         $C$L28,UNC            ; [CPU_] |181| 
         000000d8 01EA 
     396                      ; branch occurs ; [] |181| 
     397 000000d9       $C$L9:    
     398                      .dwpsn  file "C:/work/grepos/bootrom/Boot_ROM/F2837x_bootROM-REVB/F2837x_bootROM_dev/F2837x_bootROM/c
     399 000000d9 0646          MOVL      ACC,*-SP[6]           ; [CPU_] |187| 
     400 000000da 8F0C          MOVL      XAR4,#786432          ; [CPU_U] |187| 
         000000db 0000 
     401 000000dc 5608          AND       ACC,#12 << 16         ; [CPU_] |187| 
         000000dd 000C 
     402 000000de 0FA4          CMPL      ACC,XAR4              ; [CPU_] |187| 
     403 000000df ED34          BF        $C$L12,NEQ            ; [CPU_] |187| 
     404                      ; branchcc occurs ; [] |187| 
     405                      .dwpsn  file "C:/work/grepos/bootrom/Boot_ROM/F2837x_bootROM-REVB/F2837x_bootROM_dev/F2837x_bootROM/c
     406 000000e0 761F!         MOVW      DP,#_DcsmRegsCommon+6 ; [CPU_U] 
         000000e1 0000 
     407 000000e2 CC06!         AND       AL,@_DcsmRegsCommon+6,#0x03c0 ; [CPU_] |191| 
         000000e3 03C0 
     408 000000e4 FFC5          LSR       AL,6                  ; [CPU_] |191| 
     409 000000e5 520F          CMPB      AL,#15                ; [CPU_] |191| 
     410 000000e6 EC1C          BF        $C$L11,EQ             ; [CPU_] |191| 
     411                      ; branchcc occurs ; [] |191| 
     412                      .dwpsn  file "C:/work/grepos/bootrom/Boot_ROM/F2837x_bootROM-REVB/F2837x_bootROM_dev/F2837x_bootROM/c
     413 000000e7 0646          MOVL      ACC,*-SP[6]           ; [CPU_] |194| 
     414 000000e8 8F10          MOVL      XAR4,#1048576         ; [CPU_U] |194| 
         000000e9 0000 
     415 000000ea 0742          ADDL      ACC,*-SP[2]           ; [CPU_] |194| 
     416 000000eb 0FA4          CMPL      ACC,XAR4              ; [CPU_] |194| 
     417 000000ec 6912          B         $C$L10,LOS            ; [CPU_] |194| 
     418                      ; branchcc occurs ; [] |194| 
     419                      .dwpsn  file "C:/work/grepos/bootrom/Boot_ROM/F2837x_bootROM-REVB/F2837x_bootROM_dev/F2837x_bootROM/c
     420 000000ed 761F!         MOVW      DP,#_DcsmRegsZ1+34    ; [CPU_U] 
         000000ee 0000 
     421 000000ef 1822!         AND       @_DcsmRegsZ1+34,#0xfffe ; [CPU_] |196| 
         000000f0 FFFE 
     422                      .dwpsn  file "C:/work/grepos/bootrom/Boot_ROM/F2837x_bootROM-REVB/F2837x_bootROM_dev/F2837x_bootROM/c
     423 000000f1 0200          MOVB      ACC,#0                ; [CPU_] |198| 
     424 000000f2 1E42          MOVL      *-SP[2],ACC           ; [CPU_] |198| 
     425                      .dwpsn  file "C:/work/grepos/bootrom/Boot_ROM/F2837x_bootROM-REVB/F2837x_bootROM_dev/F2837x_bootROM/c
     426 000000f3 1E44          MOVL      *-SP[4],ACC           ; [CPU_] |199| 
     427                      .dwpsn  file "C:/work/grepos/bootrom/Boot_ROM/F2837x_bootROM-REVB/F2837x_bootROM_dev/F2837x_bootROM/c
     428 000000f4 1E46          MOVL      *-SP[6],ACC           ; [CPU_] |200| 
     429                      .dwpsn  file "C:/work/grepos/bootrom/Boot_ROM/F2837x_bootROM-REVB/F2837x_bootROM_dev/F2837x_bootROM/c
     430 000000f5 1E48          MOVL      *-SP[8],ACC           ; [CPU_] |201| 
     431                      .dwpsn  file "C:/work/grepos/bootrom/Boot_ROM/F2837x_bootROM-REVB/F2837x_bootROM_dev/F2837x_bootROM/c
     432 000000f6 2849          MOV       *-SP[9],#65535        ; [CPU_] |202| 
TMS320C2000 Assembler PC v6.1.3 Thu Jan 30 10:33:25 2014

Tools Copyright (c) 1996-2012 Texas Instruments Incorporated
C:\Users\a0272466\AppData\Local\Temp\0939610                         PAGE   10

         000000f7 FFFF 
     433                      .dwpsn  file "C:/work/grepos/bootrom/Boot_ROM/F2837x_bootROM-REVB/F2837x_bootROM_dev/F2837x_bootROM/c
     434 000000f8 284A          MOV       *-SP[10],#65535       ; [CPU_] |203| 
         000000f9 FFFF 
     435                      .dwpsn  file "C:/work/grepos/bootrom/Boot_ROM/F2837x_bootROM-REVB/F2837x_bootROM_dev/F2837x_bootROM/c
     436 000000fa 2B4B          MOV       *-SP[11],#0           ; [CPU_] |204| 
     437                      .dwpsn  file "C:/work/grepos/bootrom/Boot_ROM/F2837x_bootROM-REVB/F2837x_bootROM_dev/F2837x_bootROM/c
     438 000000fb 9A00          MOVB      AL,#0                 ; [CPU_] |205| 
     439 000000fc FFEF          B         $C$L28,UNC            ; [CPU_] |205| 
         000000fd 01C5 
     440                      ; branch occurs ; [] |205| 
     441 000000fe       $C$L10:    
     442                      .dwpsn  file "C:/work/grepos/bootrom/Boot_ROM/F2837x_bootROM-REVB/F2837x_bootROM_dev/F2837x_bootROM/c
     443 000000fe 56BF          MOVB      *-SP[10],#28,UNC      ; [CPU_] |207| 
         000000ff 1C4A 
     444                      .dwpsn  file "C:/work/grepos/bootrom/Boot_ROM/F2837x_bootROM-REVB/F2837x_bootROM_dev/F2837x_bootROM/c
     445 00000100 FFEF          B         $C$L18,UNC            ; [CPU_] |208| 
         00000101 0100 
     446                      ; branch occurs ; [] |208| 
     447 00000102       $C$L11:    
     448                      .dwpsn  file "C:/work/grepos/bootrom/Boot_ROM/F2837x_bootROM-REVB/F2837x_bootROM_dev/F2837x_bootROM/c
     449 00000102 761F!         MOVW      DP,#_DcsmRegsZ1+34    ; [CPU_U] 
         00000103 0000 
     450 00000104 1822!         AND       @_DcsmRegsZ1+34,#0xfffe ; [CPU_] |211| 
         00000105 FFFE 
     451                      .dwpsn  file "C:/work/grepos/bootrom/Boot_ROM/F2837x_bootROM-REVB/F2837x_bootROM_dev/F2837x_bootROM/c
     452 00000106 0200          MOVB      ACC,#0                ; [CPU_] |213| 
     453 00000107 1E42          MOVL      *-SP[2],ACC           ; [CPU_] |213| 
     454                      .dwpsn  file "C:/work/grepos/bootrom/Boot_ROM/F2837x_bootROM-REVB/F2837x_bootROM_dev/F2837x_bootROM/c
     455 00000108 1E44          MOVL      *-SP[4],ACC           ; [CPU_] |214| 
     456                      .dwpsn  file "C:/work/grepos/bootrom/Boot_ROM/F2837x_bootROM-REVB/F2837x_bootROM_dev/F2837x_bootROM/c
     457 00000109 1E46          MOVL      *-SP[6],ACC           ; [CPU_] |215| 
     458                      .dwpsn  file "C:/work/grepos/bootrom/Boot_ROM/F2837x_bootROM-REVB/F2837x_bootROM_dev/F2837x_bootROM/c
     459 0000010a 1E48          MOVL      *-SP[8],ACC           ; [CPU_] |216| 
     460                      .dwpsn  file "C:/work/grepos/bootrom/Boot_ROM/F2837x_bootROM-REVB/F2837x_bootROM_dev/F2837x_bootROM/c
     461 0000010b 2849          MOV       *-SP[9],#65535        ; [CPU_] |217| 
         0000010c FFFF 
     462                      .dwpsn  file "C:/work/grepos/bootrom/Boot_ROM/F2837x_bootROM-REVB/F2837x_bootROM_dev/F2837x_bootROM/c
     463 0000010d 284A          MOV       *-SP[10],#65535       ; [CPU_] |218| 
         0000010e FFFF 
     464                      .dwpsn  file "C:/work/grepos/bootrom/Boot_ROM/F2837x_bootROM-REVB/F2837x_bootROM_dev/F2837x_bootROM/c
     465 0000010f 2B4B          MOV       *-SP[11],#0           ; [CPU_] |219| 
     466                      .dwpsn  file "C:/work/grepos/bootrom/Boot_ROM/F2837x_bootROM-REVB/F2837x_bootROM_dev/F2837x_bootROM/c
     467 00000110 9A00          MOVB      AL,#0                 ; [CPU_] |220| 
     468 00000111 FFEF          B         $C$L28,UNC            ; [CPU_] |220| 
         00000112 01B0 
     469                      ; branch occurs ; [] |220| 
     470 00000113       $C$L12:    
     471                      .dwpsn  file "C:/work/grepos/bootrom/Boot_ROM/F2837x_bootROM-REVB/F2837x_bootROM_dev/F2837x_bootROM/c
     472 00000113 C446          MOVL      XAR6,*-SP[6]          ; [CPU_] |223| 
     473 00000114 8F0B          MOVL      XAR4,#753664          ; [CPU_U] |223| 
         00000115 8000 
     474 00000116 A8A9          MOVL      ACC,XAR4              ; [CPU_] |223| 
     475 00000117 0FA6          CMPL      ACC,XAR6              ; [CPU_] |223| 
     476 00000118 664B          B         $C$L14,HI             ; [CPU_] |223| 
TMS320C2000 Assembler PC v6.1.3 Thu Jan 30 10:33:25 2014

Tools Copyright (c) 1996-2012 Texas Instruments Incorporated
C:\Users\a0272466\AppData\Local\Temp\0939610                         PAGE   11

     477                      ; branchcc occurs ; [] |223| 
     478 00000119 C446          MOVL      XAR6,*-SP[6]          ; [CPU_] |223| 
     479 0000011a 8F0C          MOVL      XAR4,#786432          ; [CPU_U] |223| 
         0000011b 0000 
     480 0000011c A8A9          MOVL      ACC,XAR4              ; [CPU_] |223| 
     481 0000011d 0FA6          CMPL      ACC,XAR6              ; [CPU_] |223| 
     482 0000011e 6945          B         $C$L14,LOS            ; [CPU_] |223| 
     483                      ; branchcc occurs ; [] |223| 
     484                      .dwpsn  file "C:/work/grepos/bootrom/Boot_ROM/F2837x_bootROM-REVB/F2837x_bootROM_dev/F2837x_bootROM/c
     485 0000011f 0646          MOVL      ACC,*-SP[6]           ; [CPU_] |226| 
     486 00000120 8F00          MOVL      XAR4,#8192            ; [CPU_U] |226| 
         00000121 2000 
     487 00000122 9B00          MOVB      AH,#0                 ; [CPU_] |226| 
     488 00000123 18A9          AND       AL,#0x1fff            ; [CPU_] |226| 
         00000124 1FFF 
     489 00000125 0742          ADDL      ACC,*-SP[2]           ; [CPU_] |226| 
     490 00000126 0FA4          CMPL      ACC,XAR4              ; [CPU_] |226| 
     491 00000127 6910          B         $C$L13,LOS            ; [CPU_] |226| 
     492                      ; branchcc occurs ; [] |226| 
     493                      .dwpsn  file "C:/work/grepos/bootrom/Boot_ROM/F2837x_bootROM-REVB/F2837x_bootROM_dev/F2837x_bootROM/c
     494 00000128 1822!         AND       @_DcsmRegsZ1+34,#0xfffe ; [CPU_] |228| 
         00000129 FFFE 
     495                      .dwpsn  file "C:/work/grepos/bootrom/Boot_ROM/F2837x_bootROM-REVB/F2837x_bootROM_dev/F2837x_bootROM/c
     496 0000012a 0200          MOVB      ACC,#0                ; [CPU_] |230| 
     497 0000012b 1E42          MOVL      *-SP[2],ACC           ; [CPU_] |230| 
     498                      .dwpsn  file "C:/work/grepos/bootrom/Boot_ROM/F2837x_bootROM-REVB/F2837x_bootROM_dev/F2837x_bootROM/c
     499 0000012c 1E44          MOVL      *-SP[4],ACC           ; [CPU_] |231| 
     500                      .dwpsn  file "C:/work/grepos/bootrom/Boot_ROM/F2837x_bootROM-REVB/F2837x_bootROM_dev/F2837x_bootROM/c
     501 0000012d 1E46          MOVL      *-SP[6],ACC           ; [CPU_] |232| 
     502                      .dwpsn  file "C:/work/grepos/bootrom/Boot_ROM/F2837x_bootROM-REVB/F2837x_bootROM_dev/F2837x_bootROM/c
     503 0000012e 1E48          MOVL      *-SP[8],ACC           ; [CPU_] |233| 
     504                      .dwpsn  file "C:/work/grepos/bootrom/Boot_ROM/F2837x_bootROM-REVB/F2837x_bootROM_dev/F2837x_bootROM/c
     505 0000012f 2849          MOV       *-SP[9],#65535        ; [CPU_] |234| 
         00000130 FFFF 
     506                      .dwpsn  file "C:/work/grepos/bootrom/Boot_ROM/F2837x_bootROM-REVB/F2837x_bootROM_dev/F2837x_bootROM/c
     507 00000131 284A          MOV       *-SP[10],#65535       ; [CPU_] |235| 
         00000132 FFFF 
     508                      .dwpsn  file "C:/work/grepos/bootrom/Boot_ROM/F2837x_bootROM-REVB/F2837x_bootROM_dev/F2837x_bootROM/c
     509 00000133 2B4B          MOV       *-SP[11],#0           ; [CPU_] |236| 
     510                      .dwpsn  file "C:/work/grepos/bootrom/Boot_ROM/F2837x_bootROM-REVB/F2837x_bootROM_dev/F2837x_bootROM/c
     511 00000134 9A00          MOVB      AL,#0                 ; [CPU_] |237| 
     512 00000135 FFEF          B         $C$L28,UNC            ; [CPU_] |237| 
         00000136 018C 
     513                      ; branch occurs ; [] |237| 
     514 00000137       $C$L13:    
     515                      .dwpsn  file "C:/work/grepos/bootrom/Boot_ROM/F2837x_bootROM-REVB/F2837x_bootROM_dev/F2837x_bootROM/c
     516 00000137 8F0B          MOVL      XAR4,#778240          ; [CPU_U] |239| 
         00000138 E000 
     517 00000139 0646          MOVL      ACC,*-SP[6]           ; [CPU_] |239| 
     518 0000013a A8AB          MOVL      P,XAR4                ; [CPU_] |239| 
     519 0000013b CEAB          AND       AL,PL                 ; [CPU_] |239| 
     520 0000013c CFAA          AND       AH,PH                 ; [CPU_] |239| 
     521 0000013d 0FA4          CMPL      ACC,XAR4              ; [CPU_] |239| 
     522                      .dwpsn  file "C:/work/grepos/bootrom/Boot_ROM/F2837x_bootROM-REVB/F2837x_bootROM_dev/F2837x_bootROM/c
     523 0000013e 56B1          MOVB      *-SP[10],#26,EQ       ; [CPU_] |242| 
TMS320C2000 Assembler PC v6.1.3 Thu Jan 30 10:33:25 2014

Tools Copyright (c) 1996-2012 Texas Instruments Incorporated
C:\Users\a0272466\AppData\Local\Temp\0939610                         PAGE   12

         0000013f 1A4A 
     524                      .dwpsn  file "C:/work/grepos/bootrom/Boot_ROM/F2837x_bootROM-REVB/F2837x_bootROM_dev/F2837x_bootROM/c
     525 00000140 56C1          BF        $C$L18,EQ             ; [CPU_] |243| 
         00000141 00C0 
     526                      ; branchcc occurs ; [] |243| 
     527                      .dwpsn  file "C:/work/grepos/bootrom/Boot_ROM/F2837x_bootROM-REVB/F2837x_bootROM_dev/F2837x_bootROM/c
     528 00000142 8F0B          MOVL      XAR4,#770048          ; [CPU_U] |244| 
         00000143 C000 
     529 00000144 0646          MOVL      ACC,*-SP[6]           ; [CPU_] |244| 
     530 00000145 A8AB          MOVL      P,XAR4                ; [CPU_] |244| 
     531 00000146 CEAB          AND       AL,PL                 ; [CPU_] |244| 
     532 00000147 CFAA          AND       AH,PH                 ; [CPU_] |244| 
     533 00000148 0FA4          CMPL      ACC,XAR4              ; [CPU_] |244| 
     534                      .dwpsn  file "C:/work/grepos/bootrom/Boot_ROM/F2837x_bootROM-REVB/F2837x_bootROM_dev/F2837x_bootROM/c
     535 00000149 56B1          MOVB      *-SP[10],#24,EQ       ; [CPU_] |247| 
         0000014a 184A 
     536                      .dwpsn  file "C:/work/grepos/bootrom/Boot_ROM/F2837x_bootROM-REVB/F2837x_bootROM_dev/F2837x_bootROM/c
     537 0000014b 56C1          BF        $C$L18,EQ             ; [CPU_] |248| 
         0000014c 00B5 
     538                      ; branchcc occurs ; [] |248| 
     539                      .dwpsn  file "C:/work/grepos/bootrom/Boot_ROM/F2837x_bootROM-REVB/F2837x_bootROM_dev/F2837x_bootROM/c
     540 0000014d 8F0B          MOVL      XAR4,#761856          ; [CPU_U] |249| 
         0000014e A000 
     541 0000014f 0646          MOVL      ACC,*-SP[6]           ; [CPU_] |249| 
     542 00000150 A8AB          MOVL      P,XAR4                ; [CPU_] |249| 
     543 00000151 CEAB          AND       AL,PL                 ; [CPU_] |249| 
     544 00000152 CFAA          AND       AH,PH                 ; [CPU_] |249| 
     545 00000153 0FA4          CMPL      ACC,XAR4              ; [CPU_] |249| 
     546                      .dwpsn  file "C:/work/grepos/bootrom/Boot_ROM/F2837x_bootROM-REVB/F2837x_bootROM_dev/F2837x_bootROM/c
     547 00000154 56B1          MOVB      *-SP[10],#22,EQ       ; [CPU_] |252| 
         00000155 164A 
     548                      .dwpsn  file "C:/work/grepos/bootrom/Boot_ROM/F2837x_bootROM-REVB/F2837x_bootROM_dev/F2837x_bootROM/c
     549 00000156 56C1          BF        $C$L18,EQ             ; [CPU_] |253| 
         00000157 00AA 
     550                      ; branchcc occurs ; [] |253| 
     551                      .dwpsn  file "C:/work/grepos/bootrom/Boot_ROM/F2837x_bootROM-REVB/F2837x_bootROM_dev/F2837x_bootROM/c
     552 00000158 8F0B          MOVL      XAR4,#753664          ; [CPU_U] |254| 
         00000159 8000 
     553 0000015a 0646          MOVL      ACC,*-SP[6]           ; [CPU_] |254| 
     554 0000015b A8AB          MOVL      P,XAR4                ; [CPU_] |254| 
     555 0000015c CEAB          AND       AL,PL                 ; [CPU_] |254| 
     556 0000015d CFAA          AND       AH,PH                 ; [CPU_] |254| 
     557 0000015e 0FA4          CMPL      ACC,XAR4              ; [CPU_] |254| 
     558                      .dwpsn  file "C:/work/grepos/bootrom/Boot_ROM/F2837x_bootROM-REVB/F2837x_bootROM_dev/F2837x_bootROM/c
     559 0000015f 56B1          MOVB      *-SP[10],#20,EQ       ; [CPU_] |257| 
         00000160 144A 
     560                      .dwpsn  file "C:/work/grepos/bootrom/Boot_ROM/F2837x_bootROM-REVB/F2837x_bootROM_dev/F2837x_bootROM/c
     561 00000161 FFEF          B         $C$L18,UNC            ; [CPU_] |259| 
         00000162 009F 
     562                      ; branch occurs ; [] |259| 
     563 00000163       $C$L14:    
     564                      .dwpsn  file "C:/work/grepos/bootrom/Boot_ROM/F2837x_bootROM-REVB/F2837x_bootROM_dev/F2837x_bootROM/c
     565 00000163 C446          MOVL      XAR6,*-SP[6]          ; [CPU_] |260| 
     566 00000164 8F08          MOVL      XAR4,#557056          ; [CPU_U] |260| 
         00000165 8000 
TMS320C2000 Assembler PC v6.1.3 Thu Jan 30 10:33:25 2014

Tools Copyright (c) 1996-2012 Texas Instruments Incorporated
C:\Users\a0272466\AppData\Local\Temp\0939610                         PAGE   13

     567 00000166 A8A9          MOVL      ACC,XAR4              ; [CPU_] |260| 
     568 00000167 0FA6          CMPL      ACC,XAR6              ; [CPU_] |260| 
     569 00000168 665A          B         $C$L16,HI             ; [CPU_] |260| 
     570                      ; branchcc occurs ; [] |260| 
     571 00000169 C446          MOVL      XAR6,*-SP[6]          ; [CPU_] |260| 
     572 0000016a 8F0B          MOVL      XAR4,#753664          ; [CPU_U] |260| 
         0000016b 8000 
     573 0000016c A8A9          MOVL      ACC,XAR4              ; [CPU_] |260| 
     574 0000016d 0FA6          CMPL      ACC,XAR6              ; [CPU_] |260| 
     575 0000016e 6954          B         $C$L16,LOS            ; [CPU_] |260| 
     576                      ; branchcc occurs ; [] |260| 
     577                      .dwpsn  file "C:/work/grepos/bootrom/Boot_ROM/F2837x_bootROM-REVB/F2837x_bootROM_dev/F2837x_bootROM/c
     578 0000016f 0646          MOVL      ACC,*-SP[6]           ; [CPU_] |263| 
     579 00000170 8F00          MOVL      XAR4,#32768           ; [CPU_U] |263| 
         00000171 8000 
     580 00000172 9B00          MOVB      AH,#0                 ; [CPU_] |263| 
     581 00000173 18A9          AND       AL,#0x7fff            ; [CPU_] |263| 
         00000174 7FFF 
     582 00000175 0742          ADDL      ACC,*-SP[2]           ; [CPU_] |263| 
     583 00000176 0FA4          CMPL      ACC,XAR4              ; [CPU_] |263| 
     584 00000177 6910          B         $C$L15,LOS            ; [CPU_] |263| 
     585                      ; branchcc occurs ; [] |263| 
     586                      .dwpsn  file "C:/work/grepos/bootrom/Boot_ROM/F2837x_bootROM-REVB/F2837x_bootROM_dev/F2837x_bootROM/c
     587 00000178 1822!         AND       @_DcsmRegsZ1+34,#0xfffe ; [CPU_] |265| 
         00000179 FFFE 
     588                      .dwpsn  file "C:/work/grepos/bootrom/Boot_ROM/F2837x_bootROM-REVB/F2837x_bootROM_dev/F2837x_bootROM/c
     589 0000017a 0200          MOVB      ACC,#0                ; [CPU_] |267| 
     590 0000017b 1E42          MOVL      *-SP[2],ACC           ; [CPU_] |267| 
     591                      .dwpsn  file "C:/work/grepos/bootrom/Boot_ROM/F2837x_bootROM-REVB/F2837x_bootROM_dev/F2837x_bootROM/c
     592 0000017c 1E44          MOVL      *-SP[4],ACC           ; [CPU_] |268| 
     593                      .dwpsn  file "C:/work/grepos/bootrom/Boot_ROM/F2837x_bootROM-REVB/F2837x_bootROM_dev/F2837x_bootROM/c
     594 0000017d 1E46          MOVL      *-SP[6],ACC           ; [CPU_] |269| 
     595                      .dwpsn  file "C:/work/grepos/bootrom/Boot_ROM/F2837x_bootROM-REVB/F2837x_bootROM_dev/F2837x_bootROM/c
     596 0000017e 1E48          MOVL      *-SP[8],ACC           ; [CPU_] |270| 
     597                      .dwpsn  file "C:/work/grepos/bootrom/Boot_ROM/F2837x_bootROM-REVB/F2837x_bootROM_dev/F2837x_bootROM/c
     598 0000017f 2849          MOV       *-SP[9],#65535        ; [CPU_] |271| 
         00000180 FFFF 
     599                      .dwpsn  file "C:/work/grepos/bootrom/Boot_ROM/F2837x_bootROM-REVB/F2837x_bootROM_dev/F2837x_bootROM/c
     600 00000181 284A          MOV       *-SP[10],#65535       ; [CPU_] |272| 
         00000182 FFFF 
     601                      .dwpsn  file "C:/work/grepos/bootrom/Boot_ROM/F2837x_bootROM-REVB/F2837x_bootROM_dev/F2837x_bootROM/c
     602 00000183 2B4B          MOV       *-SP[11],#0           ; [CPU_] |273| 
     603                      .dwpsn  file "C:/work/grepos/bootrom/Boot_ROM/F2837x_bootROM-REVB/F2837x_bootROM_dev/F2837x_bootROM/c
     604 00000184 9A00          MOVB      AL,#0                 ; [CPU_] |274| 
     605 00000185 FFEF          B         $C$L28,UNC            ; [CPU_] |274| 
         00000186 013C 
     606                      ; branch occurs ; [] |274| 
     607 00000187       $C$L15:    
     608                      .dwpsn  file "C:/work/grepos/bootrom/Boot_ROM/F2837x_bootROM-REVB/F2837x_bootROM_dev/F2837x_bootROM/c
     609 00000187 8F0B          MOVL      XAR4,#720896          ; [CPU_U] |276| 
         00000188 0000 
     610 00000189 0646          MOVL      ACC,*-SP[6]           ; [CPU_] |276| 
     611 0000018a A8AB          MOVL      P,XAR4                ; [CPU_] |276| 
     612 0000018b CEAB          AND       AL,PL                 ; [CPU_] |276| 
     613 0000018c CFAA          AND       AH,PH                 ; [CPU_] |276| 
TMS320C2000 Assembler PC v6.1.3 Thu Jan 30 10:33:25 2014

Tools Copyright (c) 1996-2012 Texas Instruments Incorporated
C:\Users\a0272466\AppData\Local\Temp\0939610                         PAGE   14

     614 0000018d 0FA4          CMPL      ACC,XAR4              ; [CPU_] |276| 
     615                      .dwpsn  file "C:/work/grepos/bootrom/Boot_ROM/F2837x_bootROM-REVB/F2837x_bootROM_dev/F2837x_bootROM/c
     616 0000018e 56B1          MOVB      *-SP[10],#18,EQ       ; [CPU_] |279| 
         0000018f 124A 
     617                      .dwpsn  file "C:/work/grepos/bootrom/Boot_ROM/F2837x_bootROM-REVB/F2837x_bootROM_dev/F2837x_bootROM/c
     618 00000190 EC70          BF        $C$L18,EQ             ; [CPU_] |280| 
     619                      ; branchcc occurs ; [] |280| 
     620                      .dwpsn  file "C:/work/grepos/bootrom/Boot_ROM/F2837x_bootROM-REVB/F2837x_bootROM_dev/F2837x_bootROM/c
     621 00000191 8F0A          MOVL      XAR4,#688128          ; [CPU_U] |281| 
         00000192 8000 
     622 00000193 0646          MOVL      ACC,*-SP[6]           ; [CPU_] |281| 
     623 00000194 A8AB          MOVL      P,XAR4                ; [CPU_] |281| 
     624 00000195 CEAB          AND       AL,PL                 ; [CPU_] |281| 
     625 00000196 CFAA          AND       AH,PH                 ; [CPU_] |281| 
     626 00000197 0FA4          CMPL      ACC,XAR4              ; [CPU_] |281| 
     627                      .dwpsn  file "C:/work/grepos/bootrom/Boot_ROM/F2837x_bootROM-REVB/F2837x_bootROM_dev/F2837x_bootROM/c
     628 00000198 56B1          MOVB      *-SP[10],#16,EQ       ; [CPU_] |284| 
         00000199 104A 
     629                      .dwpsn  file "C:/work/grepos/bootrom/Boot_ROM/F2837x_bootROM-REVB/F2837x_bootROM_dev/F2837x_bootROM/c
     630 0000019a EC66          BF        $C$L18,EQ             ; [CPU_] |285| 
     631                      ; branchcc occurs ; [] |285| 
     632                      .dwpsn  file "C:/work/grepos/bootrom/Boot_ROM/F2837x_bootROM-REVB/F2837x_bootROM_dev/F2837x_bootROM/c
     633 0000019b 0646          MOVL      ACC,*-SP[6]           ; [CPU_] |286| 
     634 0000019c 8F0A          MOVL      XAR4,#655360          ; [CPU_U] |286| 
         0000019d 0000 
     635 0000019e 5608          AND       ACC,#10 << 16         ; [CPU_] |286| 
         0000019f 000A 
     636 000001a0 0FA4          CMPL      ACC,XAR4              ; [CPU_] |286| 
     637                      .dwpsn  file "C:/work/grepos/bootrom/Boot_ROM/F2837x_bootROM-REVB/F2837x_bootROM_dev/F2837x_bootROM/c
     638 000001a1 56B1          MOVB      *-SP[10],#14,EQ       ; [CPU_] |289| 
         000001a2 0E4A 
     639                      .dwpsn  file "C:/work/grepos/bootrom/Boot_ROM/F2837x_bootROM-REVB/F2837x_bootROM_dev/F2837x_bootROM/c
     640 000001a3 EC5D          BF        $C$L18,EQ             ; [CPU_] |290| 
     641                      ; branchcc occurs ; [] |290| 
     642                      .dwpsn  file "C:/work/grepos/bootrom/Boot_ROM/F2837x_bootROM-REVB/F2837x_bootROM_dev/F2837x_bootROM/c
     643 000001a4 8F09          MOVL      XAR4,#622592          ; [CPU_U] |291| 
         000001a5 8000 
     644 000001a6 0646          MOVL      ACC,*-SP[6]           ; [CPU_] |291| 
     645 000001a7 A8AB          MOVL      P,XAR4                ; [CPU_] |291| 
     646 000001a8 CEAB          AND       AL,PL                 ; [CPU_] |291| 
     647 000001a9 CFAA          AND       AH,PH                 ; [CPU_] |291| 
     648 000001aa 0FA4          CMPL      ACC,XAR4              ; [CPU_] |291| 
     649                      .dwpsn  file "C:/work/grepos/bootrom/Boot_ROM/F2837x_bootROM-REVB/F2837x_bootROM_dev/F2837x_bootROM/c
     650 000001ab 56B1          MOVB      *-SP[10],#12,EQ       ; [CPU_] |294| 
         000001ac 0C4A 
     651                      .dwpsn  file "C:/work/grepos/bootrom/Boot_ROM/F2837x_bootROM-REVB/F2837x_bootROM_dev/F2837x_bootROM/c
     652 000001ad EC53          BF        $C$L18,EQ             ; [CPU_] |295| 
     653                      ; branchcc occurs ; [] |295| 
     654                      .dwpsn  file "C:/work/grepos/bootrom/Boot_ROM/F2837x_bootROM-REVB/F2837x_bootROM_dev/F2837x_bootROM/c
     655 000001ae 8F09          MOVL      XAR4,#589824          ; [CPU_U] |296| 
         000001af 0000 
     656 000001b0 0646          MOVL      ACC,*-SP[6]           ; [CPU_] |296| 
     657 000001b1 A8AB          MOVL      P,XAR4                ; [CPU_] |296| 
     658 000001b2 CEAB          AND       AL,PL                 ; [CPU_] |296| 
     659 000001b3 CFAA          AND       AH,PH                 ; [CPU_] |296| 
TMS320C2000 Assembler PC v6.1.3 Thu Jan 30 10:33:25 2014

Tools Copyright (c) 1996-2012 Texas Instruments Incorporated
C:\Users\a0272466\AppData\Local\Temp\0939610                         PAGE   15

     660 000001b4 0FA4          CMPL      ACC,XAR4              ; [CPU_] |296| 
     661                      .dwpsn  file "C:/work/grepos/bootrom/Boot_ROM/F2837x_bootROM-REVB/F2837x_bootROM_dev/F2837x_bootROM/c
     662 000001b5 56B1          MOVB      *-SP[10],#10,EQ       ; [CPU_] |299| 
         000001b6 0A4A 
     663                      .dwpsn  file "C:/work/grepos/bootrom/Boot_ROM/F2837x_bootROM-REVB/F2837x_bootROM_dev/F2837x_bootROM/c
     664 000001b7 EC49          BF        $C$L18,EQ             ; [CPU_] |300| 
     665                      ; branchcc occurs ; [] |300| 
     666                      .dwpsn  file "C:/work/grepos/bootrom/Boot_ROM/F2837x_bootROM-REVB/F2837x_bootROM_dev/F2837x_bootROM/c
     667 000001b8 8F08          MOVL      XAR4,#557056          ; [CPU_U] |301| 
         000001b9 8000 
     668 000001ba 0646          MOVL      ACC,*-SP[6]           ; [CPU_] |301| 
     669 000001bb A8AB          MOVL      P,XAR4                ; [CPU_] |301| 
     670 000001bc CEAB          AND       AL,PL                 ; [CPU_] |301| 
     671 000001bd CFAA          AND       AH,PH                 ; [CPU_] |301| 
     672 000001be 0FA4          CMPL      ACC,XAR4              ; [CPU_] |301| 
     673                      .dwpsn  file "C:/work/grepos/bootrom/Boot_ROM/F2837x_bootROM-REVB/F2837x_bootROM_dev/F2837x_bootROM/c
     674 000001bf 56B1          MOVB      *-SP[10],#8,EQ        ; [CPU_] |304| 
         000001c0 084A 
     675                      .dwpsn  file "C:/work/grepos/bootrom/Boot_ROM/F2837x_bootROM-REVB/F2837x_bootROM_dev/F2837x_bootROM/c
     676 000001c1 6F3F          B         $C$L18,UNC            ; [CPU_] |306| 
     677                      ; branch occurs ; [] |306| 
     678 000001c2       $C$L16:    
     679                      .dwpsn  file "C:/work/grepos/bootrom/Boot_ROM/F2837x_bootROM-REVB/F2837x_bootROM_dev/F2837x_bootROM/c
     680 000001c2 0646          MOVL      ACC,*-SP[6]           ; [CPU_] |309| 
     681 000001c3 8F00          MOVL      XAR4,#8192            ; [CPU_U] |309| 
         000001c4 2000 
     682 000001c5 9B00          MOVB      AH,#0                 ; [CPU_] |309| 
     683 000001c6 18A9          AND       AL,#0x1fff            ; [CPU_] |309| 
         000001c7 1FFF 
     684 000001c8 0742          ADDL      ACC,*-SP[2]           ; [CPU_] |309| 
     685 000001c9 0FA4          CMPL      ACC,XAR4              ; [CPU_] |309| 
     686 000001ca 6910          B         $C$L17,LOS            ; [CPU_] |309| 
     687                      ; branchcc occurs ; [] |309| 
     688                      .dwpsn  file "C:/work/grepos/bootrom/Boot_ROM/F2837x_bootROM-REVB/F2837x_bootROM_dev/F2837x_bootROM/c
     689 000001cb 1822!         AND       @_DcsmRegsZ1+34,#0xfffe ; [CPU_] |311| 
         000001cc FFFE 
     690                      .dwpsn  file "C:/work/grepos/bootrom/Boot_ROM/F2837x_bootROM-REVB/F2837x_bootROM_dev/F2837x_bootROM/c
     691 000001cd 0200          MOVB      ACC,#0                ; [CPU_] |313| 
     692 000001ce 1E42          MOVL      *-SP[2],ACC           ; [CPU_] |313| 
     693                      .dwpsn  file "C:/work/grepos/bootrom/Boot_ROM/F2837x_bootROM-REVB/F2837x_bootROM_dev/F2837x_bootROM/c
     694 000001cf 1E44          MOVL      *-SP[4],ACC           ; [CPU_] |314| 
     695                      .dwpsn  file "C:/work/grepos/bootrom/Boot_ROM/F2837x_bootROM-REVB/F2837x_bootROM_dev/F2837x_bootROM/c
     696 000001d0 1E46          MOVL      *-SP[6],ACC           ; [CPU_] |315| 
     697                      .dwpsn  file "C:/work/grepos/bootrom/Boot_ROM/F2837x_bootROM-REVB/F2837x_bootROM_dev/F2837x_bootROM/c
     698 000001d1 1E48          MOVL      *-SP[8],ACC           ; [CPU_] |316| 
     699                      .dwpsn  file "C:/work/grepos/bootrom/Boot_ROM/F2837x_bootROM-REVB/F2837x_bootROM_dev/F2837x_bootROM/c
     700 000001d2 2849          MOV       *-SP[9],#65535        ; [CPU_] |317| 
         000001d3 FFFF 
     701                      .dwpsn  file "C:/work/grepos/bootrom/Boot_ROM/F2837x_bootROM-REVB/F2837x_bootROM_dev/F2837x_bootROM/c
     702 000001d4 284A          MOV       *-SP[10],#65535       ; [CPU_] |318| 
         000001d5 FFFF 
     703                      .dwpsn  file "C:/work/grepos/bootrom/Boot_ROM/F2837x_bootROM-REVB/F2837x_bootROM_dev/F2837x_bootROM/c
     704 000001d6 2B4B          MOV       *-SP[11],#0           ; [CPU_] |319| 
     705                      .dwpsn  file "C:/work/grepos/bootrom/Boot_ROM/F2837x_bootROM-REVB/F2837x_bootROM_dev/F2837x_bootROM/c
     706 000001d7 9A00          MOVB      AL,#0                 ; [CPU_] |320| 
TMS320C2000 Assembler PC v6.1.3 Thu Jan 30 10:33:25 2014

Tools Copyright (c) 1996-2012 Texas Instruments Incorporated
C:\Users\a0272466\AppData\Local\Temp\0939610                         PAGE   16

     707 000001d8 FFEF          B         $C$L28,UNC            ; [CPU_] |320| 
         000001d9 00E9 
     708                      ; branch occurs ; [] |320| 
     709 000001da       $C$L17:    
     710                      .dwpsn  file "C:/work/grepos/bootrom/Boot_ROM/F2837x_bootROM-REVB/F2837x_bootROM_dev/F2837x_bootROM/c
     711 000001da 8F08          MOVL      XAR4,#548864          ; [CPU_U] |322| 
         000001db 6000 
     712 000001dc 0646          MOVL      ACC,*-SP[6]           ; [CPU_] |322| 
     713 000001dd A8AB          MOVL      P,XAR4                ; [CPU_] |322| 
     714 000001de CEAB          AND       AL,PL                 ; [CPU_] |322| 
     715 000001df CFAA          AND       AH,PH                 ; [CPU_] |322| 
     716 000001e0 0FA4          CMPL      ACC,XAR4              ; [CPU_] |322| 
     717                      .dwpsn  file "C:/work/grepos/bootrom/Boot_ROM/F2837x_bootROM-REVB/F2837x_bootROM_dev/F2837x_bootROM/c
     718 000001e1 56B1          MOVB      *-SP[10],#6,EQ        ; [CPU_] |325| 
         000001e2 064A 
     719                      .dwpsn  file "C:/work/grepos/bootrom/Boot_ROM/F2837x_bootROM-REVB/F2837x_bootROM_dev/F2837x_bootROM/c
     720 000001e3 EC1D          BF        $C$L18,EQ             ; [CPU_] |326| 
     721                      ; branchcc occurs ; [] |326| 
     722                      .dwpsn  file "C:/work/grepos/bootrom/Boot_ROM/F2837x_bootROM-REVB/F2837x_bootROM_dev/F2837x_bootROM/c
     723 000001e4 8F08          MOVL      XAR4,#540672          ; [CPU_U] |327| 
         000001e5 4000 
     724 000001e6 0646          MOVL      ACC,*-SP[6]           ; [CPU_] |327| 
     725 000001e7 A8AB          MOVL      P,XAR4                ; [CPU_] |327| 
     726 000001e8 CEAB          AND       AL,PL                 ; [CPU_] |327| 
     727 000001e9 CFAA          AND       AH,PH                 ; [CPU_] |327| 
     728 000001ea 0FA4          CMPL      ACC,XAR4              ; [CPU_] |327| 
     729                      .dwpsn  file "C:/work/grepos/bootrom/Boot_ROM/F2837x_bootROM-REVB/F2837x_bootROM_dev/F2837x_bootROM/c
     730 000001eb 56B1          MOVB      *-SP[10],#4,EQ        ; [CPU_] |330| 
         000001ec 044A 
     731                      .dwpsn  file "C:/work/grepos/bootrom/Boot_ROM/F2837x_bootROM-REVB/F2837x_bootROM_dev/F2837x_bootROM/c
     732 000001ed EC13          BF        $C$L18,EQ             ; [CPU_] |331| 
     733                      ; branchcc occurs ; [] |331| 
     734                      .dwpsn  file "C:/work/grepos/bootrom/Boot_ROM/F2837x_bootROM-REVB/F2837x_bootROM_dev/F2837x_bootROM/c
     735 000001ee 8F08          MOVL      XAR4,#532480          ; [CPU_U] |332| 
         000001ef 2000 
     736 000001f0 0646          MOVL      ACC,*-SP[6]           ; [CPU_] |332| 
     737 000001f1 A8AB          MOVL      P,XAR4                ; [CPU_] |332| 
     738 000001f2 CEAB          AND       AL,PL                 ; [CPU_] |332| 
     739 000001f3 CFAA          AND       AH,PH                 ; [CPU_] |332| 
     740 000001f4 0FA4          CMPL      ACC,XAR4              ; [CPU_] |332| 
     741                      .dwpsn  file "C:/work/grepos/bootrom/Boot_ROM/F2837x_bootROM-REVB/F2837x_bootROM_dev/F2837x_bootROM/c
     742 000001f5 56B1          MOVB      *-SP[10],#2,EQ        ; [CPU_] |335| 
         000001f6 024A 
     743                      .dwpsn  file "C:/work/grepos/bootrom/Boot_ROM/F2837x_bootROM-REVB/F2837x_bootROM_dev/F2837x_bootROM/c
     744 000001f7 EC09          BF        $C$L18,EQ             ; [CPU_] |336| 
     745                      ; branchcc occurs ; [] |336| 
     746                      .dwpsn  file "C:/work/grepos/bootrom/Boot_ROM/F2837x_bootROM-REVB/F2837x_bootROM_dev/F2837x_bootROM/c
     747 000001f8 0646          MOVL      ACC,*-SP[6]           ; [CPU_] |337| 
     748 000001f9 8F08          MOVL      XAR4,#524288          ; [CPU_U] |337| 
         000001fa 0000 
     749 000001fb 5608          AND       ACC,#8 << 16          ; [CPU_] |337| 
         000001fc 0008 
     750 000001fd 0FA4          CMPL      ACC,XAR4              ; [CPU_] |337| 
     751 000001fe ED02          BF        $C$L18,NEQ            ; [CPU_] |337| 
     752                      ; branchcc occurs ; [] |337| 
TMS320C2000 Assembler PC v6.1.3 Thu Jan 30 10:33:25 2014

Tools Copyright (c) 1996-2012 Texas Instruments Incorporated
C:\Users\a0272466\AppData\Local\Temp\0939610                         PAGE   17

     753                      .dwpsn  file "C:/work/grepos/bootrom/Boot_ROM/F2837x_bootROM-REVB/F2837x_bootROM_dev/F2837x_bootROM/c
     754 000001ff 2B4A          MOV       *-SP[10],#0           ; [CPU_] |340| 
     755 00000200       $C$L18:    
     756                      .dwpsn  file "C:/work/grepos/bootrom/Boot_ROM/F2837x_bootROM-REVB/F2837x_bootROM_dev/F2837x_bootROM/c
     757 00000200 1B4A          CMP       *-SP[10],#65535       ; [CPU_] |344| 
         00000201 FFFF 
     758 00000202 EC04          BF        $C$L19,EQ             ; [CPU_] |344| 
     759                      ; branchcc occurs ; [] |344| 
     760 00000203 1B49          CMP       *-SP[9],#65535        ; [CPU_] |344| 
         00000204 FFFF 
     761 00000205 ED12          BF        $C$L20,NEQ            ; [CPU_] |344| 
     762                      ; branchcc occurs ; [] |344| 
     763 00000206       $C$L19:    
     764                      .dwpsn  file "C:/work/grepos/bootrom/Boot_ROM/F2837x_bootROM-REVB/F2837x_bootROM_dev/F2837x_bootROM/c
     765 00000206 761F!         MOVW      DP,#_DcsmRegsZ1+34    ; [CPU_U] 
         00000207 0000 
     766 00000208 1822!         AND       @_DcsmRegsZ1+34,#0xfffe ; [CPU_] |346| 
         00000209 FFFE 
     767                      .dwpsn  file "C:/work/grepos/bootrom/Boot_ROM/F2837x_bootROM-REVB/F2837x_bootROM_dev/F2837x_bootROM/c
     768 0000020a 0200          MOVB      ACC,#0                ; [CPU_] |348| 
     769 0000020b 1E42          MOVL      *-SP[2],ACC           ; [CPU_] |348| 
     770                      .dwpsn  file "C:/work/grepos/bootrom/Boot_ROM/F2837x_bootROM-REVB/F2837x_bootROM_dev/F2837x_bootROM/c
     771 0000020c 1E44          MOVL      *-SP[4],ACC           ; [CPU_] |349| 
     772                      .dwpsn  file "C:/work/grepos/bootrom/Boot_ROM/F2837x_bootROM-REVB/F2837x_bootROM_dev/F2837x_bootROM/c
     773 0000020d 1E46          MOVL      *-SP[6],ACC           ; [CPU_] |350| 
     774                      .dwpsn  file "C:/work/grepos/bootrom/Boot_ROM/F2837x_bootROM-REVB/F2837x_bootROM_dev/F2837x_bootROM/c
     775 0000020e 1E48          MOVL      *-SP[8],ACC           ; [CPU_] |351| 
     776                      .dwpsn  file "C:/work/grepos/bootrom/Boot_ROM/F2837x_bootROM-REVB/F2837x_bootROM_dev/F2837x_bootROM/c
     777 0000020f 2849          MOV       *-SP[9],#65535        ; [CPU_] |352| 
         00000210 FFFF 
     778                      .dwpsn  file "C:/work/grepos/bootrom/Boot_ROM/F2837x_bootROM-REVB/F2837x_bootROM_dev/F2837x_bootROM/c
     779 00000211 284A          MOV       *-SP[10],#65535       ; [CPU_] |353| 
         00000212 FFFF 
     780                      .dwpsn  file "C:/work/grepos/bootrom/Boot_ROM/F2837x_bootROM-REVB/F2837x_bootROM_dev/F2837x_bootROM/c
     781 00000213 2B4B          MOV       *-SP[11],#0           ; [CPU_] |354| 
     782                      .dwpsn  file "C:/work/grepos/bootrom/Boot_ROM/F2837x_bootROM-REVB/F2837x_bootROM_dev/F2837x_bootROM/c
     783 00000214 9A00          MOVB      AL,#0                 ; [CPU_] |355| 
     784 00000215 FFEF          B         $C$L28,UNC            ; [CPU_] |355| 
         00000216 00AC 
     785                      ; branch occurs ; [] |355| 
     786 00000217       $C$L20:    
     787                      .dwpsn  file "C:/work/grepos/bootrom/Boot_ROM/F2837x_bootROM-REVB/F2837x_bootROM_dev/F2837x_bootROM/c
     788 00000217 0203          MOVB      ACC,#3                ; [CPU_] |359| 
     789 00000218 2D4A          MOV       T,*-SP[10]            ; [CPU_] |359| 
     790 00000219 761F!         MOVW      DP,#_DcsmRegsCommon+2 ; [CPU_U] 
         0000021a 0000 
     791 0000021b BE01          MOVB      XAR6,#1               ; [CPU_] |359| 
     792 0000021c 563B          LSLL      ACC,T                 ; [CPU_] |359| 
     793 0000021d CE02!         AND       AL,@_DcsmRegsCommon+2 ; [CPU_] |359| 
     794 0000021e CF03!         AND       AH,@_DcsmRegsCommon+3 ; [CPU_] |359| 
     795 0000021f 5622          LSRL      ACC,T                 ; [CPU_] |359| 
     796 00000220 0FA6          CMPL      ACC,XAR6              ; [CPU_] |359| 
     797 00000221 EC12          BF        $C$L21,EQ             ; [CPU_] |359| 
     798                      ; branchcc occurs ; [] |359| 
     799                      .dwpsn  file "C:/work/grepos/bootrom/Boot_ROM/F2837x_bootROM-REVB/F2837x_bootROM_dev/F2837x_bootROM/c
TMS320C2000 Assembler PC v6.1.3 Thu Jan 30 10:33:25 2014

Tools Copyright (c) 1996-2012 Texas Instruments Incorporated
C:\Users\a0272466\AppData\Local\Temp\0939610                         PAGE   18

     800 00000222 761F!         MOVW      DP,#_DcsmRegsZ1+34    ; [CPU_U] 
         00000223 0000 
     801 00000224 1822!         AND       @_DcsmRegsZ1+34,#0xfffe ; [CPU_] |361| 
         00000225 FFFE 
     802                      .dwpsn  file "C:/work/grepos/bootrom/Boot_ROM/F2837x_bootROM-REVB/F2837x_bootROM_dev/F2837x_bootROM/c
     803 00000226 0200          MOVB      ACC,#0                ; [CPU_] |363| 
     804 00000227 1E42          MOVL      *-SP[2],ACC           ; [CPU_] |363| 
     805                      .dwpsn  file "C:/work/grepos/bootrom/Boot_ROM/F2837x_bootROM-REVB/F2837x_bootROM_dev/F2837x_bootROM/c
     806 00000228 1E44          MOVL      *-SP[4],ACC           ; [CPU_] |364| 
     807                      .dwpsn  file "C:/work/grepos/bootrom/Boot_ROM/F2837x_bootROM-REVB/F2837x_bootROM_dev/F2837x_bootROM/c
     808 00000229 1E46          MOVL      *-SP[6],ACC           ; [CPU_] |365| 
     809                      .dwpsn  file "C:/work/grepos/bootrom/Boot_ROM/F2837x_bootROM-REVB/F2837x_bootROM_dev/F2837x_bootROM/c
     810 0000022a 1E48          MOVL      *-SP[8],ACC           ; [CPU_] |366| 
     811                      .dwpsn  file "C:/work/grepos/bootrom/Boot_ROM/F2837x_bootROM-REVB/F2837x_bootROM_dev/F2837x_bootROM/c
     812 0000022b 2849          MOV       *-SP[9],#65535        ; [CPU_] |367| 
         0000022c FFFF 
     813                      .dwpsn  file "C:/work/grepos/bootrom/Boot_ROM/F2837x_bootROM-REVB/F2837x_bootROM_dev/F2837x_bootROM/c
     814 0000022d 284A          MOV       *-SP[10],#65535       ; [CPU_] |368| 
         0000022e FFFF 
     815                      .dwpsn  file "C:/work/grepos/bootrom/Boot_ROM/F2837x_bootROM-REVB/F2837x_bootROM_dev/F2837x_bootROM/c
     816 0000022f 2B4B          MOV       *-SP[11],#0           ; [CPU_] |369| 
     817                      .dwpsn  file "C:/work/grepos/bootrom/Boot_ROM/F2837x_bootROM-REVB/F2837x_bootROM_dev/F2837x_bootROM/c
     818 00000230 9A00          MOVB      AL,#0                 ; [CPU_] |370| 
     819 00000231 FFEF          B         $C$L28,UNC            ; [CPU_] |370| 
         00000232 0090 
     820                      ; branch occurs ; [] |370| 
     821 00000233       $C$L21:    
     822                      .dwpsn  file "C:/work/grepos/bootrom/Boot_ROM/F2837x_bootROM-REVB/F2837x_bootROM_dev/F2837x_bootROM/c
     823 00000233 0203          MOVB      ACC,#3                ; [CPU_] |373| 
     824 00000234 2D49          MOV       T,*-SP[9]             ; [CPU_] |373| 
     825 00000235 563B          LSLL      ACC,T                 ; [CPU_] |373| 
     826 00000236 CE04!         AND       AL,@_DcsmRegsCommon+4 ; [CPU_] |373| 
     827 00000237 CF05!         AND       AH,@_DcsmRegsCommon+5 ; [CPU_] |373| 
     828 00000238 5622          LSRL      ACC,T                 ; [CPU_] |373| 
     829 00000239 0FA6          CMPL      ACC,XAR6              ; [CPU_] |373| 
     830 0000023a EC11          BF        $C$L22,EQ             ; [CPU_] |373| 
     831                      ; branchcc occurs ; [] |373| 
     832                      .dwpsn  file "C:/work/grepos/bootrom/Boot_ROM/F2837x_bootROM-REVB/F2837x_bootROM_dev/F2837x_bootROM/c
     833 0000023b 761F!         MOVW      DP,#_DcsmRegsZ1+34    ; [CPU_U] 
         0000023c 0000 
     834 0000023d 1822!         AND       @_DcsmRegsZ1+34,#0xfffe ; [CPU_] |375| 
         0000023e FFFE 
     835                      .dwpsn  file "C:/work/grepos/bootrom/Boot_ROM/F2837x_bootROM-REVB/F2837x_bootROM_dev/F2837x_bootROM/c
     836 0000023f 0200          MOVB      ACC,#0                ; [CPU_] |377| 
     837 00000240 1E42          MOVL      *-SP[2],ACC           ; [CPU_] |377| 
     838                      .dwpsn  file "C:/work/grepos/bootrom/Boot_ROM/F2837x_bootROM-REVB/F2837x_bootROM_dev/F2837x_bootROM/c
     839 00000241 1E44          MOVL      *-SP[4],ACC           ; [CPU_] |378| 
     840                      .dwpsn  file "C:/work/grepos/bootrom/Boot_ROM/F2837x_bootROM-REVB/F2837x_bootROM_dev/F2837x_bootROM/c
     841 00000242 1E46          MOVL      *-SP[6],ACC           ; [CPU_] |379| 
     842                      .dwpsn  file "C:/work/grepos/bootrom/Boot_ROM/F2837x_bootROM-REVB/F2837x_bootROM_dev/F2837x_bootROM/c
     843 00000243 1E48          MOVL      *-SP[8],ACC           ; [CPU_] |380| 
     844                      .dwpsn  file "C:/work/grepos/bootrom/Boot_ROM/F2837x_bootROM-REVB/F2837x_bootROM_dev/F2837x_bootROM/c
     845 00000244 2849          MOV       *-SP[9],#65535        ; [CPU_] |381| 
         00000245 FFFF 
     846                      .dwpsn  file "C:/work/grepos/bootrom/Boot_ROM/F2837x_bootROM-REVB/F2837x_bootROM_dev/F2837x_bootROM/c
TMS320C2000 Assembler PC v6.1.3 Thu Jan 30 10:33:25 2014

Tools Copyright (c) 1996-2012 Texas Instruments Incorporated
C:\Users\a0272466\AppData\Local\Temp\0939610                         PAGE   19

     847 00000246 284A          MOV       *-SP[10],#65535       ; [CPU_] |382| 
         00000247 FFFF 
     848                      .dwpsn  file "C:/work/grepos/bootrom/Boot_ROM/F2837x_bootROM-REVB/F2837x_bootROM_dev/F2837x_bootROM/c
     849 00000248 2B4B          MOV       *-SP[11],#0           ; [CPU_] |383| 
     850                      .dwpsn  file "C:/work/grepos/bootrom/Boot_ROM/F2837x_bootROM-REVB/F2837x_bootROM_dev/F2837x_bootROM/c
     851 00000249 9A00          MOVB      AL,#0                 ; [CPU_] |384| 
     852 0000024a 6F77          B         $C$L28,UNC            ; [CPU_] |384| 
     853                      ; branch occurs ; [] |384| 
     854 0000024b       $C$L22:    
     855                      .dwpsn  file "C:/work/grepos/bootrom/Boot_ROM/F2837x_bootROM-REVB/F2837x_bootROM_dev/F2837x_bootROM/c
     856 0000024b 924A          MOV       AL,*-SP[10]           ; [CPU_] |390| 
     857 0000024c 28AB          MOV       PL,#1                 ; [CPU_] |390| 
         0000024d 0001 
     858 0000024e 2BAA          MOV       PH,#0                 ; [CPU_] |390| 
     859 0000024f FFC0          LSR       AL,1                  ; [CPU_] |390| 
     860 00000250 761F!         MOVW      DP,#_DcsmRegsZ1+30    ; [CPU_U] 
         00000251 0000 
     861 00000252 2DA9          MOV       T,AL                  ; [CPU_] |390| 
     862 00000253 A9A9          MOVL      ACC,P                 ; [CPU_] |390| 
     863 00000254 563B          LSLL      ACC,T                 ; [CPU_] |390| 
     864 00000255 FF5A          MOVL      P,ACC                 ; [CPU_] |390| 
     865 00000256 92AB          MOV       AL,PL                 ; [CPU_] |390| 
     866 00000257 93AA          MOV       AH,PH                 ; [CPU_] |390| 
     867 00000258 CE1E!         AND       AL,@_DcsmRegsZ1+30    ; [CPU_] |390| 
     868 00000259 27A9          MOV       PL,AL                 ; [CPU_] |390| 
     869 0000025a CF1F!         AND       AH,@_DcsmRegsZ1+31    ; [CPU_] |390| 
     870 0000025b 2FA8          MOV       PH,AH                 ; [CPU_] |390| 
     871 0000025c A9A9          MOVL      ACC,P                 ; [CPU_] |390| 
     872 0000025d EC0F          BF        $C$L23,EQ             ; [CPU_] |390| 
     873                      ; branchcc occurs ; [] |390| 
     874                      .dwpsn  file "C:/work/grepos/bootrom/Boot_ROM/F2837x_bootROM-REVB/F2837x_bootROM_dev/F2837x_bootROM/c
     875 0000025e 1822!         AND       @_DcsmRegsZ1+34,#0xfffe ; [CPU_] |392| 
         0000025f FFFE 
     876                      .dwpsn  file "C:/work/grepos/bootrom/Boot_ROM/F2837x_bootROM-REVB/F2837x_bootROM_dev/F2837x_bootROM/c
     877 00000260 0200          MOVB      ACC,#0                ; [CPU_] |394| 
     878 00000261 1E42          MOVL      *-SP[2],ACC           ; [CPU_] |394| 
     879                      .dwpsn  file "C:/work/grepos/bootrom/Boot_ROM/F2837x_bootROM-REVB/F2837x_bootROM_dev/F2837x_bootROM/c
     880 00000262 1E44          MOVL      *-SP[4],ACC           ; [CPU_] |395| 
     881                      .dwpsn  file "C:/work/grepos/bootrom/Boot_ROM/F2837x_bootROM-REVB/F2837x_bootROM_dev/F2837x_bootROM/c
     882 00000263 1E46          MOVL      *-SP[6],ACC           ; [CPU_] |396| 
     883                      .dwpsn  file "C:/work/grepos/bootrom/Boot_ROM/F2837x_bootROM-REVB/F2837x_bootROM_dev/F2837x_bootROM/c
     884 00000264 1E48          MOVL      *-SP[8],ACC           ; [CPU_] |397| 
     885                      .dwpsn  file "C:/work/grepos/bootrom/Boot_ROM/F2837x_bootROM-REVB/F2837x_bootROM_dev/F2837x_bootROM/c
     886 00000265 2849          MOV       *-SP[9],#65535        ; [CPU_] |398| 
         00000266 FFFF 
     887                      .dwpsn  file "C:/work/grepos/bootrom/Boot_ROM/F2837x_bootROM-REVB/F2837x_bootROM_dev/F2837x_bootROM/c
     888 00000267 284A          MOV       *-SP[10],#65535       ; [CPU_] |399| 
         00000268 FFFF 
     889                      .dwpsn  file "C:/work/grepos/bootrom/Boot_ROM/F2837x_bootROM-REVB/F2837x_bootROM_dev/F2837x_bootROM/c
     890 00000269 2B4B          MOV       *-SP[11],#0           ; [CPU_] |400| 
     891                      .dwpsn  file "C:/work/grepos/bootrom/Boot_ROM/F2837x_bootROM-REVB/F2837x_bootROM_dev/F2837x_bootROM/c
     892 0000026a 9A00          MOVB      AL,#0                 ; [CPU_] |401| 
     893 0000026b 6F56          B         $C$L28,UNC            ; [CPU_] |401| 
     894                      ; branch occurs ; [] |401| 
     895 0000026c       $C$L23:    
TMS320C2000 Assembler PC v6.1.3 Thu Jan 30 10:33:25 2014

Tools Copyright (c) 1996-2012 Texas Instruments Incorporated
C:\Users\a0272466\AppData\Local\Temp\0939610                         PAGE   20

     896                      .dwpsn  file "C:/work/grepos/bootrom/Boot_ROM/F2837x_bootROM-REVB/F2837x_bootROM_dev/F2837x_bootROM/c
     897 0000026c 9249          MOV       AL,*-SP[9]            ; [CPU_] |405| 
     898 0000026d 28AB          MOV       PL,#1                 ; [CPU_] |405| 
         0000026e 0001 
     899 0000026f 2BAA          MOV       PH,#0                 ; [CPU_] |405| 
     900 00000270 FFC0          LSR       AL,1                  ; [CPU_] |405| 
     901 00000271 2DA9          MOV       T,AL                  ; [CPU_] |405| 
     902 00000272 A9A9          MOVL      ACC,P                 ; [CPU_] |405| 
     903 00000273 563B          LSLL      ACC,T                 ; [CPU_] |405| 
     904 00000274 FF5A          MOVL      P,ACC                 ; [CPU_] |405| 
     905 00000275 92AB          MOV       AL,PL                 ; [CPU_] |405| 
     906 00000276 93AA          MOV       AH,PH                 ; [CPU_] |405| 
     907 00000277 CE20!         AND       AL,@_DcsmRegsZ1+32    ; [CPU_] |405| 
     908 00000278 27A9          MOV       PL,AL                 ; [CPU_] |405| 
     909 00000279 CF21!         AND       AH,@_DcsmRegsZ1+33    ; [CPU_] |405| 
     910 0000027a 2FA8          MOV       PH,AH                 ; [CPU_] |405| 
     911 0000027b A9A9          MOVL      ACC,P                 ; [CPU_] |405| 
     912 0000027c EC0F          BF        $C$L24,EQ             ; [CPU_] |405| 
     913                      ; branchcc occurs ; [] |405| 
     914                      .dwpsn  file "C:/work/grepos/bootrom/Boot_ROM/F2837x_bootROM-REVB/F2837x_bootROM_dev/F2837x_bootROM/c
     915 0000027d 1822!         AND       @_DcsmRegsZ1+34,#0xfffe ; [CPU_] |407| 
         0000027e FFFE 
     916                      .dwpsn  file "C:/work/grepos/bootrom/Boot_ROM/F2837x_bootROM-REVB/F2837x_bootROM_dev/F2837x_bootROM/c
     917 0000027f 0200          MOVB      ACC,#0                ; [CPU_] |409| 
     918 00000280 1E42          MOVL      *-SP[2],ACC           ; [CPU_] |409| 
     919                      .dwpsn  file "C:/work/grepos/bootrom/Boot_ROM/F2837x_bootROM-REVB/F2837x_bootROM_dev/F2837x_bootROM/c
     920 00000281 1E44          MOVL      *-SP[4],ACC           ; [CPU_] |410| 
     921                      .dwpsn  file "C:/work/grepos/bootrom/Boot_ROM/F2837x_bootROM-REVB/F2837x_bootROM_dev/F2837x_bootROM/c
     922 00000282 1E46          MOVL      *-SP[6],ACC           ; [CPU_] |411| 
     923                      .dwpsn  file "C:/work/grepos/bootrom/Boot_ROM/F2837x_bootROM-REVB/F2837x_bootROM_dev/F2837x_bootROM/c
     924 00000283 1E48          MOVL      *-SP[8],ACC           ; [CPU_] |412| 
     925                      .dwpsn  file "C:/work/grepos/bootrom/Boot_ROM/F2837x_bootROM-REVB/F2837x_bootROM_dev/F2837x_bootROM/c
     926 00000284 2849          MOV       *-SP[9],#65535        ; [CPU_] |413| 
         00000285 FFFF 
     927                      .dwpsn  file "C:/work/grepos/bootrom/Boot_ROM/F2837x_bootROM-REVB/F2837x_bootROM_dev/F2837x_bootROM/c
     928 00000286 284A          MOV       *-SP[10],#65535       ; [CPU_] |414| 
         00000287 FFFF 
     929                      .dwpsn  file "C:/work/grepos/bootrom/Boot_ROM/F2837x_bootROM-REVB/F2837x_bootROM_dev/F2837x_bootROM/c
     930 00000288 2B4B          MOV       *-SP[11],#0           ; [CPU_] |415| 
     931                      .dwpsn  file "C:/work/grepos/bootrom/Boot_ROM/F2837x_bootROM-REVB/F2837x_bootROM_dev/F2837x_bootROM/c
     932 00000289 9A00          MOVB      AL,#0                 ; [CPU_] |416| 
     933 0000028a 6F37          B         $C$L28,UNC            ; [CPU_] |416| 
     934                      ; branch occurs ; [] |416| 
     935 0000028b       $C$L24:    
     936                      .dwpsn  file "C:/work/grepos/bootrom/Boot_ROM/F2837x_bootROM-REVB/F2837x_bootROM_dev/F2837x_bootROM/c
     937 0000028b 0642          MOVL      ACC,*-SP[2]           ; [CPU_] |419| 
     938 0000028c EC27          BF        $C$L27,EQ             ; [CPU_] |419| 
     939                      ; branchcc occurs ; [] |419| 
     940 0000028d       $C$L25:    
     941 0000028d       $C$DW$L$_SafeCopyCodeZ1$72$B:
     942                      .dwpsn  file "C:/work/grepos/bootrom/Boot_ROM/F2837x_bootROM-REVB/F2837x_bootROM_dev/F2837x_bootROM/c
     943 0000028d 8A46          MOVL      XAR4,*-SP[6]          ; [CPU_] |426| 
     944 0000028e 8344          MOVL      XAR5,*-SP[4]          ; [CPU_] |426| 
     945 0000028f 9284          MOV       AL,*XAR4++            ; [CPU_] |426| 
     946 00000290 C4A5          MOVL      XAR6,XAR5             ; [CPU_] |426| 
TMS320C2000 Assembler PC v6.1.3 Thu Jan 30 10:33:25 2014

Tools Copyright (c) 1996-2012 Texas Instruments Incorporated
C:\Users\a0272466\AppData\Local\Temp\0939610                         PAGE   21

     947 00000291 DE01          ADDB      XAR6,#1               ; [CPU_U] |426| 
     948 00000292 C244          MOVL      *-SP[4],XAR6          ; [CPU_] |426| 
     949 00000293 A846          MOVL      *-SP[6],XAR4          ; [CPU_] |426| 
     950 00000294 96C5          MOV       *+XAR5[0],AL          ; [CPU_] |426| 
     951                      .dwpsn  file "C:/work/grepos/bootrom/Boot_ROM/F2837x_bootROM-REVB/F2837x_bootROM_dev/F2837x_bootROM/c
     952 00000295 1B4B          CMP       *-SP[11],#64095       ; [CPU_] |428| 
         00000296 FA5F 
     953 00000297 EC15          BF        $C$L26,EQ             ; [CPU_] |428| 
     954                      ; branchcc occurs ; [] |428| 
     955 00000298       $C$DW$L$_SafeCopyCodeZ1$72$E:
     956                      .dwpsn  file "C:/work/grepos/bootrom/Boot_ROM/F2837x_bootROM-REVB/F2837x_bootROM_dev/F2837x_bootROM/c
     957 00000298 8A44          MOVL      XAR4,*-SP[4]          ; [CPU_] |431| 
     958 00000299 DC81          SUBB      XAR4,#1               ; [CPU_U] |431| 
     959 0000029a A844          MOVL      *-SP[4],XAR4          ; [CPU_] |431| 
     960 0000029b 2BC4          MOV       *+XAR4[0],#0          ; [CPU_] |431| 
     961                      .dwpsn  file "C:/work/grepos/bootrom/Boot_ROM/F2837x_bootROM-REVB/F2837x_bootROM_dev/F2837x_bootROM/c
     962 0000029c 761F!         MOVW      DP,#_DcsmRegsZ1+34    ; [CPU_U] 
         0000029d 0000 
     963 0000029e 1822!         AND       @_DcsmRegsZ1+34,#0xfffe ; [CPU_] |433| 
         0000029f FFFE 
     964                      .dwpsn  file "C:/work/grepos/bootrom/Boot_ROM/F2837x_bootROM-REVB/F2837x_bootROM_dev/F2837x_bootROM/c
     965 000002a0 0200          MOVB      ACC,#0                ; [CPU_] |435| 
     966 000002a1 1E42          MOVL      *-SP[2],ACC           ; [CPU_] |435| 
     967                      .dwpsn  file "C:/work/grepos/bootrom/Boot_ROM/F2837x_bootROM-REVB/F2837x_bootROM_dev/F2837x_bootROM/c
     968 000002a2 1E44          MOVL      *-SP[4],ACC           ; [CPU_] |436| 
     969                      .dwpsn  file "C:/work/grepos/bootrom/Boot_ROM/F2837x_bootROM-REVB/F2837x_bootROM_dev/F2837x_bootROM/c
     970 000002a3 1E46          MOVL      *-SP[6],ACC           ; [CPU_] |437| 
     971                      .dwpsn  file "C:/work/grepos/bootrom/Boot_ROM/F2837x_bootROM-REVB/F2837x_bootROM_dev/F2837x_bootROM/c
     972 000002a4 1E48          MOVL      *-SP[8],ACC           ; [CPU_] |438| 
     973                      .dwpsn  file "C:/work/grepos/bootrom/Boot_ROM/F2837x_bootROM-REVB/F2837x_bootROM_dev/F2837x_bootROM/c
     974 000002a5 2849          MOV       *-SP[9],#65535        ; [CPU_] |439| 
         000002a6 FFFF 
     975                      .dwpsn  file "C:/work/grepos/bootrom/Boot_ROM/F2837x_bootROM-REVB/F2837x_bootROM_dev/F2837x_bootROM/c
     976 000002a7 284A          MOV       *-SP[10],#65535       ; [CPU_] |440| 
         000002a8 FFFF 
     977                      .dwpsn  file "C:/work/grepos/bootrom/Boot_ROM/F2837x_bootROM-REVB/F2837x_bootROM_dev/F2837x_bootROM/c
     978 000002a9 2B4B          MOV       *-SP[11],#0           ; [CPU_] |441| 
     979                      .dwpsn  file "C:/work/grepos/bootrom/Boot_ROM/F2837x_bootROM-REVB/F2837x_bootROM_dev/F2837x_bootROM/c
     980 000002aa 9A00          MOVB      AL,#0                 ; [CPU_] |442| 
     981 000002ab 6F16          B         $C$L28,UNC            ; [CPU_] |442| 
     982                      ; branch occurs ; [] |442| 
     983 000002ac       $C$L26:    
     984 000002ac       $C$DW$L$_SafeCopyCodeZ1$74$B:
     985                      .dwpsn  file "C:/work/grepos/bootrom/Boot_ROM/F2837x_bootROM-REVB/F2837x_bootROM_dev/F2837x_bootROM/c
     986 000002ac 0201          MOVB      ACC,#1                ; [CPU_] |444| 
     987 000002ad 5641          SUBL      *-SP[2],ACC           ; [CPU_] |444| 
         000002ae 0042 
     988                      .dwpsn  file "C:/work/grepos/bootrom/Boot_ROM/F2837x_bootROM-REVB/F2837x_bootROM_dev/F2837x_bootROM/c
     989 000002af 0748          ADDL      ACC,*-SP[8]           ; [CPU_] |445| 
     990 000002b0 1E48          MOVL      *-SP[8],ACC           ; [CPU_] |445| 
     991                      .dwpsn  file "C:/work/grepos/bootrom/Boot_ROM/F2837x_bootROM-REVB/F2837x_bootROM_dev/F2837x_bootROM/c
     992 000002b1 0642          MOVL      ACC,*-SP[2]           ; [CPU_] |419| 
     993 000002b2 EDDB          BF        $C$L25,NEQ            ; [CPU_] |419| 
     994                      ; branchcc occurs ; [] |419| 
     995 000002b3       $C$DW$L$_SafeCopyCodeZ1$74$E:
TMS320C2000 Assembler PC v6.1.3 Thu Jan 30 10:33:25 2014

Tools Copyright (c) 1996-2012 Texas Instruments Incorporated
C:\Users\a0272466\AppData\Local\Temp\0939610                         PAGE   22

     996 000002b3       $C$L27:    
     997                      .dwpsn  file "C:/work/grepos/bootrom/Boot_ROM/F2837x_bootROM-REVB/F2837x_bootROM_dev/F2837x_bootROM/c
     998 000002b3 761F!         MOVW      DP,#_DcsmRegsZ1+34    ; [CPU_U] 
         000002b4 0000 
     999 000002b5 1822!         AND       @_DcsmRegsZ1+34,#0xfffe ; [CPU_] |449| 
         000002b6 FFFE 
    1000                      .dwpsn  file "C:/work/grepos/bootrom/Boot_ROM/F2837x_bootROM-REVB/F2837x_bootROM_dev/F2837x_bootROM/c
    1001 000002b7 0200          MOVB      ACC,#0                ; [CPU_] |451| 
    1002 000002b8 1E42          MOVL      *-SP[2],ACC           ; [CPU_] |451| 
    1003                      .dwpsn  file "C:/work/grepos/bootrom/Boot_ROM/F2837x_bootROM-REVB/F2837x_bootROM_dev/F2837x_bootROM/c
    1004 000002b9 1E44          MOVL      *-SP[4],ACC           ; [CPU_] |452| 
    1005                      .dwpsn  file "C:/work/grepos/bootrom/Boot_ROM/F2837x_bootROM-REVB/F2837x_bootROM_dev/F2837x_bootROM/c
    1006 000002ba 1E46          MOVL      *-SP[6],ACC           ; [CPU_] |453| 
    1007                      .dwpsn  file "C:/work/grepos/bootrom/Boot_ROM/F2837x_bootROM-REVB/F2837x_bootROM_dev/F2837x_bootROM/c
    1008 000002bb 2849          MOV       *-SP[9],#65535        ; [CPU_] |454| 
         000002bc FFFF 
    1009                      .dwpsn  file "C:/work/grepos/bootrom/Boot_ROM/F2837x_bootROM-REVB/F2837x_bootROM_dev/F2837x_bootROM/c
    1010 000002bd 284A          MOV       *-SP[10],#65535       ; [CPU_] |455| 
         000002be FFFF 
    1011                      .dwpsn  file "C:/work/grepos/bootrom/Boot_ROM/F2837x_bootROM-REVB/F2837x_bootROM_dev/F2837x_bootROM/c
    1012 000002bf 2B4B          MOV       *-SP[11],#0           ; [CPU_] |456| 
    1013                      .dwpsn  file "C:/work/grepos/bootrom/Boot_ROM/F2837x_bootROM-REVB/F2837x_bootROM_dev/F2837x_bootROM/c
    1014 000002c0 9248          MOV       AL,*-SP[8]            ; [CPU_] |457| 
    1015 000002c1       $C$L28:    
    1016                      .dwpsn  file "C:/work/grepos/bootrom/Boot_ROM/F2837x_bootROM-REVB/F2837x_bootROM_dev/F2837x_bootROM/c
    1017 000002c1 FE8C          SUBB      SP,#12                ; [CPU_U] 
    1018                      .dwcfi  cfa_offset, -2
    1019              $C$DW$23        .dwtag  DW_TAG_TI_branch
    1020                      .dwattr $C$DW$23, DW_AT_low_pc(0x00)
    1021                      .dwattr $C$DW$23, DW_AT_TI_return
    1022 000002c2 0006          LRETR     ; [CPU_] 
    1023                      ; return occurs ; [] 
    1024              
    1025              $C$DW$24        .dwtag  DW_TAG_TI_loop
    1026                      .dwattr $C$DW$24, DW_AT_name("C:\\Users\\a0272466\\AppData\\Local\\Temp\\0939610:$C$L25:1:1391099602"
    1027                      .dwattr $C$DW$24, DW_AT_TI_begin_file("C:/work/grepos/bootrom/Boot_ROM/F2837x_bootROM-REVB/F2837x_boo
    1028                      .dwattr $C$DW$24, DW_AT_TI_begin_line(0x1a3)
    1029                      .dwattr $C$DW$24, DW_AT_TI_end_line(0x1be)
    1030              $C$DW$25        .dwtag  DW_TAG_TI_loop_range
    1031                      .dwattr $C$DW$25, DW_AT_low_pc($C$DW$L$_SafeCopyCodeZ1$72$B)
    1032                      .dwattr $C$DW$25, DW_AT_high_pc($C$DW$L$_SafeCopyCodeZ1$72$E)
    1033              $C$DW$26        .dwtag  DW_TAG_TI_loop_range
    1034                      .dwattr $C$DW$26, DW_AT_low_pc($C$DW$L$_SafeCopyCodeZ1$74$B)
    1035                      .dwattr $C$DW$26, DW_AT_high_pc($C$DW$L$_SafeCopyCodeZ1$74$E)
    1036                      .dwendtag $C$DW$24
    1037              
    1038                      .dwattr $C$DW$12, DW_AT_TI_end_file("C:/work/grepos/bootrom/Boot_ROM/F2837x_bootROM-REVB/F2837x_bootR
    1039                      .dwattr $C$DW$12, DW_AT_TI_end_line(0x1ca)
    1040                      .dwattr $C$DW$12, DW_AT_TI_end_column(0x01)
    1041                      .dwendentry
    1042                      .dwendtag $C$DW$12
    1043              
    1044 00000000               .sect   "SCCLZ2"
    1045                      .global _SafeCopyCodeZ2
    1046              
TMS320C2000 Assembler PC v6.1.3 Thu Jan 30 10:33:25 2014

Tools Copyright (c) 1996-2012 Texas Instruments Incorporated
C:\Users\a0272466\AppData\Local\Temp\0939610                         PAGE   23

    1047              $C$DW$27        .dwtag  DW_TAG_subprogram, DW_AT_name("SafeCopyCodeZ2")
    1048                      .dwattr $C$DW$27, DW_AT_low_pc(_SafeCopyCodeZ2)
    1049                      .dwattr $C$DW$27, DW_AT_high_pc(0x00)
    1050                      .dwattr $C$DW$27, DW_AT_TI_symbol_name("_SafeCopyCodeZ2")
    1051                      .dwattr $C$DW$27, DW_AT_external
    1052                      .dwattr $C$DW$27, DW_AT_type(*$C$DW$T$21)
    1053                      .dwattr $C$DW$27, DW_AT_TI_begin_file("C:/work/grepos/bootrom/Boot_ROM/F2837x_bootROM-REVB/F2837x_boo
    1054                      .dwattr $C$DW$27, DW_AT_TI_begin_line(0x1d2)
    1055                      .dwattr $C$DW$27, DW_AT_TI_begin_column(0x08)
    1056                      .dwattr $C$DW$27, DW_AT_TI_max_frame_size(-14)
    1057                      .dwpsn  file "C:/work/grepos/bootrom/Boot_ROM/F2837x_bootROM-REVB/F2837x_bootROM_dev/F2837x_bootROM/c
    1058              
    1059                      .dwfde $C$DW$CIE, _SafeCopyCodeZ2
    1060              $C$DW$28        .dwtag  DW_TAG_formal_parameter, DW_AT_name("size")
    1061                      .dwattr $C$DW$28, DW_AT_TI_symbol_name("_size")
    1062                      .dwattr $C$DW$28, DW_AT_type(*$C$DW$T$20)
    1063                      .dwattr $C$DW$28, DW_AT_location[DW_OP_reg0]
    1064              $C$DW$29        .dwtag  DW_TAG_formal_parameter, DW_AT_name("dst")
    1065                      .dwattr $C$DW$29, DW_AT_TI_symbol_name("_dst")
    1066                      .dwattr $C$DW$29, DW_AT_type(*$C$DW$T$91)
    1067                      .dwattr $C$DW$29, DW_AT_location[DW_OP_reg12]
    1068              $C$DW$30        .dwtag  DW_TAG_formal_parameter, DW_AT_name("src")
    1069                      .dwattr $C$DW$30, DW_AT_TI_symbol_name("_src")
    1070                      .dwattr $C$DW$30, DW_AT_type(*$C$DW$T$91)
    1071                      .dwattr $C$DW$30, DW_AT_location[DW_OP_reg14]
    1072              
    1073              ;***************************************************************
    1074              ;* FNAME: _SafeCopyCodeZ2               FR SIZE:  12           *
    1075              ;*                                                             *
    1076              ;* FUNCTION ENVIRONMENT                                        *
    1077              ;*                                                             *
    1078              ;* FUNCTION PROPERTIES                                         *
    1079              ;*                            0 Parameter, 11 Auto,  0 SOE     *
    1080              ;***************************************************************
    1081              
    1082 00000000       _SafeCopyCodeZ2:
    1083                      .dwcfi  cfa_offset, -2
    1084                      .dwcfi  save_reg_to_mem, 26, 0
    1085                      .dwcfi  save_reg_to_reg, 78, 26
    1086 00000000 FE0C          ADDB      SP,#12                ; [CPU_U] 
    1087                      .dwcfi  cfa_offset, -14
    1088              $C$DW$31        .dwtag  DW_TAG_variable, DW_AT_name("size")
    1089                      .dwattr $C$DW$31, DW_AT_TI_symbol_name("_size")
    1090                      .dwattr $C$DW$31, DW_AT_type(*$C$DW$T$20)
    1091                      .dwattr $C$DW$31, DW_AT_location[DW_OP_breg20 -2]
    1092              $C$DW$32        .dwtag  DW_TAG_variable, DW_AT_name("dst")
    1093                      .dwattr $C$DW$32, DW_AT_TI_symbol_name("_dst")
    1094                      .dwattr $C$DW$32, DW_AT_type(*$C$DW$T$91)
    1095                      .dwattr $C$DW$32, DW_AT_location[DW_OP_breg20 -4]
    1096              $C$DW$33        .dwtag  DW_TAG_variable, DW_AT_name("src")
    1097                      .dwattr $C$DW$33, DW_AT_TI_symbol_name("_src")
    1098                      .dwattr $C$DW$33, DW_AT_type(*$C$DW$T$91)
    1099                      .dwattr $C$DW$33, DW_AT_location[DW_OP_breg20 -6]
    1100              $C$DW$34        .dwtag  DW_TAG_variable, DW_AT_name("copied")
    1101                      .dwattr $C$DW$34, DW_AT_TI_symbol_name("_copied")
TMS320C2000 Assembler PC v6.1.3 Thu Jan 30 10:33:25 2014

Tools Copyright (c) 1996-2012 Texas Instruments Incorporated
C:\Users\a0272466\AppData\Local\Temp\0939610                         PAGE   24

    1102                      .dwattr $C$DW$34, DW_AT_type(*$C$DW$T$20)
    1103                      .dwattr $C$DW$34, DW_AT_location[DW_OP_breg20 -8]
    1104              $C$DW$35        .dwtag  DW_TAG_variable, DW_AT_name("dst_ram")
    1105                      .dwattr $C$DW$35, DW_AT_TI_symbol_name("_dst_ram")
    1106                      .dwattr $C$DW$35, DW_AT_type(*$C$DW$T$21)
    1107                      .dwattr $C$DW$35, DW_AT_location[DW_OP_breg20 -9]
    1108              $C$DW$36        .dwtag  DW_TAG_variable, DW_AT_name("src_sect")
    1109                      .dwattr $C$DW$36, DW_AT_TI_symbol_name("_src_sect")
    1110                      .dwattr $C$DW$36, DW_AT_type(*$C$DW$T$21)
    1111                      .dwattr $C$DW$36, DW_AT_location[DW_OP_breg20 -10]
    1112              $C$DW$37        .dwtag  DW_TAG_variable, DW_AT_name("check_var")
    1113                      .dwattr $C$DW$37, DW_AT_TI_symbol_name("_check_var")
    1114                      .dwattr $C$DW$37, DW_AT_type(*$C$DW$T$21)
    1115                      .dwattr $C$DW$37, DW_AT_location[DW_OP_breg20 -11]
    1116 00000001 A046          MOVL      *-SP[6],XAR5          ; [CPU_] |467| 
    1117 00000002 A844          MOVL      *-SP[4],XAR4          ; [CPU_] |467| 
    1118 00000003 1E42          MOVL      *-SP[2],ACC           ; [CPU_] |467| 
    1119                      .dwpsn  file "C:/work/grepos/bootrom/Boot_ROM/F2837x_bootROM-REVB/F2837x_bootROM_dev/F2837x_bootROM/c
    1120 00000004 0200          MOVB      ACC,#0                ; [CPU_] |468| 
    1121 00000005 1E48          MOVL      *-SP[8],ACC           ; [CPU_] |468| 
    1122                      .dwpsn  file "C:/work/grepos/bootrom/Boot_ROM/F2837x_bootROM-REVB/F2837x_bootROM_dev/F2837x_bootROM/c
    1123 00000006 2849          MOV       *-SP[9],#65535        ; [CPU_] |469| 
         00000007 FFFF 
    1124                      .dwpsn  file "C:/work/grepos/bootrom/Boot_ROM/F2837x_bootROM-REVB/F2837x_bootROM_dev/F2837x_bootROM/c
    1125 00000008 284A          MOV       *-SP[10],#65535       ; [CPU_] |470| 
         00000009 FFFF 
    1126                      .dwpsn  file "C:/work/grepos/bootrom/Boot_ROM/F2837x_bootROM-REVB/F2837x_bootROM_dev/F2837x_bootROM/c
    1127 0000000a 284B          MOV       *-SP[11],#64095       ; [CPU_] |471| 
         0000000b FA5F 
    1128                      .dwpsn  file "C:/work/grepos/bootrom/Boot_ROM/F2837x_bootROM-REVB/F2837x_bootROM_dev/F2837x_bootROM/c
    1129 0000000c 761F!         MOVW      DP,#_DcsmRegsZ2+34    ; [CPU_U] 
         0000000d 0000 
    1130 0000000e 1A22!         OR        @_DcsmRegsZ2+34,#0x0001 ; [CPU_] |474| 
         0000000f 0001 
    1131                      .dwpsn  file "C:/work/grepos/bootrom/Boot_ROM/F2837x_bootROM-REVB/F2837x_bootROM_dev/F2837x_bootROM/c
    1132 00000010 0642          MOVL      ACC,*-SP[2]           ; [CPU_] |477| 
    1133 00000011 EC05          BF        $C$L29,EQ             ; [CPU_] |477| 
    1134                      ; branchcc occurs ; [] |477| 
    1135 00000012 0644          MOVL      ACC,*-SP[4]           ; [CPU_] |477| 
    1136 00000013 EC03          BF        $C$L29,EQ             ; [CPU_] |477| 
    1137                      ; branchcc occurs ; [] |477| 
    1138 00000014 0646          MOVL      ACC,*-SP[6]           ; [CPU_] |477| 
    1139 00000015 ED10          BF        $C$L30,NEQ            ; [CPU_] |477| 
    1140                      ; branchcc occurs ; [] |477| 
    1141 00000016       $C$L29:    
    1142                      .dwpsn  file "C:/work/grepos/bootrom/Boot_ROM/F2837x_bootROM-REVB/F2837x_bootROM_dev/F2837x_bootROM/c
    1143 00000016 1822!         AND       @_DcsmRegsZ2+34,#0xfffe ; [CPU_] |479| 
         00000017 FFFE 
    1144                      .dwpsn  file "C:/work/grepos/bootrom/Boot_ROM/F2837x_bootROM-REVB/F2837x_bootROM_dev/F2837x_bootROM/c
    1145 00000018 0200          MOVB      ACC,#0                ; [CPU_] |481| 
    1146 00000019 1E42          MOVL      *-SP[2],ACC           ; [CPU_] |481| 
    1147                      .dwpsn  file "C:/work/grepos/bootrom/Boot_ROM/F2837x_bootROM-REVB/F2837x_bootROM_dev/F2837x_bootROM/c
    1148 0000001a 1E44          MOVL      *-SP[4],ACC           ; [CPU_] |482| 
    1149                      .dwpsn  file "C:/work/grepos/bootrom/Boot_ROM/F2837x_bootROM-REVB/F2837x_bootROM_dev/F2837x_bootROM/c
    1150 0000001b 1E46          MOVL      *-SP[6],ACC           ; [CPU_] |483| 
TMS320C2000 Assembler PC v6.1.3 Thu Jan 30 10:33:25 2014

Tools Copyright (c) 1996-2012 Texas Instruments Incorporated
C:\Users\a0272466\AppData\Local\Temp\0939610                         PAGE   25

    1151                      .dwpsn  file "C:/work/grepos/bootrom/Boot_ROM/F2837x_bootROM-REVB/F2837x_bootROM_dev/F2837x_bootROM/c
    1152 0000001c 1E48          MOVL      *-SP[8],ACC           ; [CPU_] |484| 
    1153                      .dwpsn  file "C:/work/grepos/bootrom/Boot_ROM/F2837x_bootROM-REVB/F2837x_bootROM_dev/F2837x_bootROM/c
    1154 0000001d 2849          MOV       *-SP[9],#65535        ; [CPU_] |485| 
         0000001e FFFF 
    1155                      .dwpsn  file "C:/work/grepos/bootrom/Boot_ROM/F2837x_bootROM-REVB/F2837x_bootROM_dev/F2837x_bootROM/c
    1156 0000001f 284A          MOV       *-SP[10],#65535       ; [CPU_] |486| 
         00000020 FFFF 
    1157                      .dwpsn  file "C:/work/grepos/bootrom/Boot_ROM/F2837x_bootROM-REVB/F2837x_bootROM_dev/F2837x_bootROM/c
    1158 00000021 2B4B          MOV       *-SP[11],#0           ; [CPU_] |487| 
    1159                      .dwpsn  file "C:/work/grepos/bootrom/Boot_ROM/F2837x_bootROM-REVB/F2837x_bootROM_dev/F2837x_bootROM/c
    1160 00000022 9A00          MOVB      AL,#0                 ; [CPU_] |488| 
    1161 00000023 FFEF          B         $C$L56,UNC            ; [CPU_] |488| 
         00000024 029E 
    1162                      ; branch occurs ; [] |488| 
    1163 00000025       $C$L30:    
    1164                      .dwpsn  file "C:/work/grepos/bootrom/Boot_ROM/F2837x_bootROM-REVB/F2837x_bootROM_dev/F2837x_bootROM/c
    1165 00000025 C446          MOVL      XAR6,*-SP[6]          ; [CPU_] |492| 
    1166 00000026 8F10          MOVL      XAR4,#1048576         ; [CPU_U] |492| 
         00000027 0000 
    1167 00000028 A8A9          MOVL      ACC,XAR4              ; [CPU_] |492| 
    1168 00000029 0FA6          CMPL      ACC,XAR6              ; [CPU_] |492| 
    1169 0000002a 6907          B         $C$L31,LOS            ; [CPU_] |492| 
    1170                      ; branchcc occurs ; [] |492| 
    1171 0000002b C446          MOVL      XAR6,*-SP[6]          ; [CPU_] |492| 
    1172 0000002c 8F08          MOVL      XAR4,#524288          ; [CPU_U] |492| 
         0000002d 0000 
    1173 0000002e A8A9          MOVL      ACC,XAR4              ; [CPU_] |492| 
    1174 0000002f 0FA6          CMPL      ACC,XAR6              ; [CPU_] |492| 
    1175 00000030 6910          B         $C$L32,LOS            ; [CPU_] |492| 
    1176                      ; branchcc occurs ; [] |492| 
    1177 00000031       $C$L31:    
    1178                      .dwpsn  file "C:/work/grepos/bootrom/Boot_ROM/F2837x_bootROM-REVB/F2837x_bootROM_dev/F2837x_bootROM/c
    1179 00000031 1822!         AND       @_DcsmRegsZ2+34,#0xfffe ; [CPU_] |495| 
         00000032 FFFE 
    1180                      .dwpsn  file "C:/work/grepos/bootrom/Boot_ROM/F2837x_bootROM-REVB/F2837x_bootROM_dev/F2837x_bootROM/c
    1181 00000033 0200          MOVB      ACC,#0                ; [CPU_] |497| 
    1182 00000034 1E42          MOVL      *-SP[2],ACC           ; [CPU_] |497| 
    1183                      .dwpsn  file "C:/work/grepos/bootrom/Boot_ROM/F2837x_bootROM-REVB/F2837x_bootROM_dev/F2837x_bootROM/c
    1184 00000035 1E44          MOVL      *-SP[4],ACC           ; [CPU_] |498| 
    1185                      .dwpsn  file "C:/work/grepos/bootrom/Boot_ROM/F2837x_bootROM-REVB/F2837x_bootROM_dev/F2837x_bootROM/c
    1186 00000036 1E46          MOVL      *-SP[6],ACC           ; [CPU_] |499| 
    1187                      .dwpsn  file "C:/work/grepos/bootrom/Boot_ROM/F2837x_bootROM-REVB/F2837x_bootROM_dev/F2837x_bootROM/c
    1188 00000037 1E48          MOVL      *-SP[8],ACC           ; [CPU_] |500| 
    1189                      .dwpsn  file "C:/work/grepos/bootrom/Boot_ROM/F2837x_bootROM-REVB/F2837x_bootROM_dev/F2837x_bootROM/c
    1190 00000038 2849          MOV       *-SP[9],#65535        ; [CPU_] |501| 
         00000039 FFFF 
    1191                      .dwpsn  file "C:/work/grepos/bootrom/Boot_ROM/F2837x_bootROM-REVB/F2837x_bootROM_dev/F2837x_bootROM/c
    1192 0000003a 284A          MOV       *-SP[10],#65535       ; [CPU_] |502| 
         0000003b FFFF 
    1193                      .dwpsn  file "C:/work/grepos/bootrom/Boot_ROM/F2837x_bootROM-REVB/F2837x_bootROM_dev/F2837x_bootROM/c
    1194 0000003c 2B4B          MOV       *-SP[11],#0           ; [CPU_] |503| 
    1195                      .dwpsn  file "C:/work/grepos/bootrom/Boot_ROM/F2837x_bootROM-REVB/F2837x_bootROM_dev/F2837x_bootROM/c
    1196 0000003d 9A00          MOVB      AL,#0                 ; [CPU_] |504| 
    1197 0000003e FFEF          B         $C$L56,UNC            ; [CPU_] |504| 
TMS320C2000 Assembler PC v6.1.3 Thu Jan 30 10:33:25 2014

Tools Copyright (c) 1996-2012 Texas Instruments Incorporated
C:\Users\a0272466\AppData\Local\Temp\0939610                         PAGE   26

         0000003f 0283 
    1198                      ; branch occurs ; [] |504| 
    1199 00000040       $C$L32:    
    1200                      .dwpsn  file "C:/work/grepos/bootrom/Boot_ROM/F2837x_bootROM-REVB/F2837x_bootROM_dev/F2837x_bootROM/c
    1201 00000040 C444          MOVL      XAR6,*-SP[4]          ; [CPU_] |510| 
    1202 00000041 2901          CLRC      SXM                   ; [CPU_] 
    1203 00000042 FF20          MOV       ACC,#49152            ; [CPU_] |510| 
         00000043 C000 
    1204 00000044 0FA6          CMPL      ACC,XAR6              ; [CPU_] |510| 
    1205 00000045 6906          B         $C$L33,LOS            ; [CPU_] |510| 
    1206                      ; branchcc occurs ; [] |510| 
    1207 00000046 C444          MOVL      XAR6,*-SP[4]          ; [CPU_] |510| 
    1208 00000047 FF20          MOV       ACC,#32768            ; [CPU_] |510| 
         00000048 8000 
    1209 00000049 0FA6          CMPL      ACC,XAR6              ; [CPU_] |510| 
    1210 0000004a 6910          B         $C$L34,LOS            ; [CPU_] |510| 
    1211                      ; branchcc occurs ; [] |510| 
    1212 0000004b       $C$L33:    
    1213                      .dwpsn  file "C:/work/grepos/bootrom/Boot_ROM/F2837x_bootROM-REVB/F2837x_bootROM_dev/F2837x_bootROM/c
    1214 0000004b 1822!         AND       @_DcsmRegsZ2+34,#0xfffe ; [CPU_] |513| 
         0000004c FFFE 
    1215                      .dwpsn  file "C:/work/grepos/bootrom/Boot_ROM/F2837x_bootROM-REVB/F2837x_bootROM_dev/F2837x_bootROM/c
    1216 0000004d 0200          MOVB      ACC,#0                ; [CPU_] |515| 
    1217 0000004e 1E42          MOVL      *-SP[2],ACC           ; [CPU_] |515| 
    1218                      .dwpsn  file "C:/work/grepos/bootrom/Boot_ROM/F2837x_bootROM-REVB/F2837x_bootROM_dev/F2837x_bootROM/c
    1219 0000004f 1E44          MOVL      *-SP[4],ACC           ; [CPU_] |516| 
    1220                      .dwpsn  file "C:/work/grepos/bootrom/Boot_ROM/F2837x_bootROM-REVB/F2837x_bootROM_dev/F2837x_bootROM/c
    1221 00000050 1E46          MOVL      *-SP[6],ACC           ; [CPU_] |517| 
    1222                      .dwpsn  file "C:/work/grepos/bootrom/Boot_ROM/F2837x_bootROM-REVB/F2837x_bootROM_dev/F2837x_bootROM/c
    1223 00000051 1E48          MOVL      *-SP[8],ACC           ; [CPU_] |518| 
    1224                      .dwpsn  file "C:/work/grepos/bootrom/Boot_ROM/F2837x_bootROM-REVB/F2837x_bootROM_dev/F2837x_bootROM/c
    1225 00000052 2849          MOV       *-SP[9],#65535        ; [CPU_] |519| 
         00000053 FFFF 
    1226                      .dwpsn  file "C:/work/grepos/bootrom/Boot_ROM/F2837x_bootROM-REVB/F2837x_bootROM_dev/F2837x_bootROM/c
    1227 00000054 284A          MOV       *-SP[10],#65535       ; [CPU_] |520| 
         00000055 FFFF 
    1228                      .dwpsn  file "C:/work/grepos/bootrom/Boot_ROM/F2837x_bootROM-REVB/F2837x_bootROM_dev/F2837x_bootROM/c
    1229 00000056 2B4B          MOV       *-SP[11],#0           ; [CPU_] |521| 
    1230                      .dwpsn  file "C:/work/grepos/bootrom/Boot_ROM/F2837x_bootROM-REVB/F2837x_bootROM_dev/F2837x_bootROM/c
    1231 00000057 9A00          MOVB      AL,#0                 ; [CPU_] |522| 
    1232 00000058 FFEF          B         $C$L56,UNC            ; [CPU_] |522| 
         00000059 0269 
    1233                      ; branch occurs ; [] |522| 
    1234 0000005a       $C$L34:    
    1235                      .dwpsn  file "C:/work/grepos/bootrom/Boot_ROM/F2837x_bootROM-REVB/F2837x_bootROM_dev/F2837x_bootROM/c
    1236 0000005a 0644          MOVL      ACC,*-SP[4]           ; [CPU_] |528| 
    1237 0000005b 8F00          MOVL      XAR4,#2048            ; [CPU_U] |528| 
         0000005c 0800 
    1238 0000005d 9B00          MOVB      AH,#0                 ; [CPU_] |528| 
    1239 0000005e 18A9          AND       AL,#0x07ff            ; [CPU_] |528| 
         0000005f 07FF 
    1240 00000060 0742          ADDL      ACC,*-SP[2]           ; [CPU_] |528| 
    1241 00000061 0FA4          CMPL      ACC,XAR4              ; [CPU_] |528| 
    1242 00000062 6910          B         $C$L35,LOS            ; [CPU_] |528| 
    1243                      ; branchcc occurs ; [] |528| 
TMS320C2000 Assembler PC v6.1.3 Thu Jan 30 10:33:25 2014

Tools Copyright (c) 1996-2012 Texas Instruments Incorporated
C:\Users\a0272466\AppData\Local\Temp\0939610                         PAGE   27

    1244                      .dwpsn  file "C:/work/grepos/bootrom/Boot_ROM/F2837x_bootROM-REVB/F2837x_bootROM_dev/F2837x_bootROM/c
    1245 00000063 1822!         AND       @_DcsmRegsZ2+34,#0xfffe ; [CPU_] |530| 
         00000064 FFFE 
    1246                      .dwpsn  file "C:/work/grepos/bootrom/Boot_ROM/F2837x_bootROM-REVB/F2837x_bootROM_dev/F2837x_bootROM/c
    1247 00000065 0200          MOVB      ACC,#0                ; [CPU_] |532| 
    1248 00000066 1E42          MOVL      *-SP[2],ACC           ; [CPU_] |532| 
    1249                      .dwpsn  file "C:/work/grepos/bootrom/Boot_ROM/F2837x_bootROM-REVB/F2837x_bootROM_dev/F2837x_bootROM/c
    1250 00000067 1E44          MOVL      *-SP[4],ACC           ; [CPU_] |533| 
    1251                      .dwpsn  file "C:/work/grepos/bootrom/Boot_ROM/F2837x_bootROM-REVB/F2837x_bootROM_dev/F2837x_bootROM/c
    1252 00000068 1E46          MOVL      *-SP[6],ACC           ; [CPU_] |534| 
    1253                      .dwpsn  file "C:/work/grepos/bootrom/Boot_ROM/F2837x_bootROM-REVB/F2837x_bootROM_dev/F2837x_bootROM/c
    1254 00000069 1E48          MOVL      *-SP[8],ACC           ; [CPU_] |535| 
    1255                      .dwpsn  file "C:/work/grepos/bootrom/Boot_ROM/F2837x_bootROM-REVB/F2837x_bootROM_dev/F2837x_bootROM/c
    1256 0000006a 2849          MOV       *-SP[9],#65535        ; [CPU_] |536| 
         0000006b FFFF 
    1257                      .dwpsn  file "C:/work/grepos/bootrom/Boot_ROM/F2837x_bootROM-REVB/F2837x_bootROM_dev/F2837x_bootROM/c
    1258 0000006c 284A          MOV       *-SP[10],#65535       ; [CPU_] |537| 
         0000006d FFFF 
    1259                      .dwpsn  file "C:/work/grepos/bootrom/Boot_ROM/F2837x_bootROM-REVB/F2837x_bootROM_dev/F2837x_bootROM/c
    1260 0000006e 2B4B          MOV       *-SP[11],#0           ; [CPU_] |538| 
    1261                      .dwpsn  file "C:/work/grepos/bootrom/Boot_ROM/F2837x_bootROM-REVB/F2837x_bootROM_dev/F2837x_bootROM/c
    1262 0000006f 9A00          MOVB      AL,#0                 ; [CPU_] |539| 
    1263 00000070 FFEF          B         $C$L56,UNC            ; [CPU_] |539| 
         00000071 0251 
    1264                      ; branch occurs ; [] |539| 
    1265 00000072       $C$L35:    
    1266                      .dwpsn  file "C:/work/grepos/bootrom/Boot_ROM/F2837x_bootROM-REVB/F2837x_bootROM_dev/F2837x_bootROM/c
    1267 00000072 0644          MOVL      ACC,*-SP[4]           ; [CPU_] |543| 
    1268 00000073 8F00          MOVL      XAR4,#47104           ; [CPU_U] |543| 
         00000074 B800 
    1269 00000075 9B00          MOVB      AH,#0                 ; [CPU_] |543| 
    1270 00000076 18A9          AND       AL,#0xb800            ; [CPU_] |543| 
         00000077 B800 
    1271 00000078 0FA4          CMPL      ACC,XAR4              ; [CPU_] |543| 
    1272                      .dwpsn  file "C:/work/grepos/bootrom/Boot_ROM/F2837x_bootROM-REVB/F2837x_bootROM_dev/F2837x_bootROM/c
    1273 00000079 56B1          MOVB      *-SP[9],#14,EQ        ; [CPU_] |546| 
         0000007a 0E49 
    1274                      .dwpsn  file "C:/work/grepos/bootrom/Boot_ROM/F2837x_bootROM-REVB/F2837x_bootROM_dev/F2837x_bootROM/c
    1275 0000007b EC46          BF        $C$L36,EQ             ; [CPU_] |547| 
    1276                      ; branchcc occurs ; [] |547| 
    1277                      .dwpsn  file "C:/work/grepos/bootrom/Boot_ROM/F2837x_bootROM-REVB/F2837x_bootROM_dev/F2837x_bootROM/c
    1278 0000007c 0644          MOVL      ACC,*-SP[4]           ; [CPU_] |548| 
    1279 0000007d 8F00          MOVL      XAR4,#45056           ; [CPU_U] |548| 
         0000007e B000 
    1280 0000007f 9B00          MOVB      AH,#0                 ; [CPU_] |548| 
    1281 00000080 18A9          AND       AL,#0xb000            ; [CPU_] |548| 
         00000081 B000 
    1282 00000082 0FA4          CMPL      ACC,XAR4              ; [CPU_] |548| 
    1283                      .dwpsn  file "C:/work/grepos/bootrom/Boot_ROM/F2837x_bootROM-REVB/F2837x_bootROM_dev/F2837x_bootROM/c
    1284 00000083 56B1          MOVB      *-SP[9],#12,EQ        ; [CPU_] |551| 
         00000084 0C49 
    1285                      .dwpsn  file "C:/work/grepos/bootrom/Boot_ROM/F2837x_bootROM-REVB/F2837x_bootROM_dev/F2837x_bootROM/c
    1286 00000085 EC3C          BF        $C$L36,EQ             ; [CPU_] |552| 
    1287                      ; branchcc occurs ; [] |552| 
    1288                      .dwpsn  file "C:/work/grepos/bootrom/Boot_ROM/F2837x_bootROM-REVB/F2837x_bootROM_dev/F2837x_bootROM/c
TMS320C2000 Assembler PC v6.1.3 Thu Jan 30 10:33:25 2014

Tools Copyright (c) 1996-2012 Texas Instruments Incorporated
C:\Users\a0272466\AppData\Local\Temp\0939610                         PAGE   28

    1289 00000086 0644          MOVL      ACC,*-SP[4]           ; [CPU_] |553| 
    1290 00000087 8F00          MOVL      XAR4,#43008           ; [CPU_U] |553| 
         00000088 A800 
    1291 00000089 9B00          MOVB      AH,#0                 ; [CPU_] |553| 
    1292 0000008a 18A9          AND       AL,#0xa800            ; [CPU_] |553| 
         0000008b A800 
    1293 0000008c 0FA4          CMPL      ACC,XAR4              ; [CPU_] |553| 
    1294                      .dwpsn  file "C:/work/grepos/bootrom/Boot_ROM/F2837x_bootROM-REVB/F2837x_bootROM_dev/F2837x_bootROM/c
    1295 0000008d 56B1          MOVB      *-SP[9],#10,EQ        ; [CPU_] |556| 
         0000008e 0A49 
    1296                      .dwpsn  file "C:/work/grepos/bootrom/Boot_ROM/F2837x_bootROM-REVB/F2837x_bootROM_dev/F2837x_bootROM/c
    1297 0000008f EC32          BF        $C$L36,EQ             ; [CPU_] |557| 
    1298                      ; branchcc occurs ; [] |557| 
    1299                      .dwpsn  file "C:/work/grepos/bootrom/Boot_ROM/F2837x_bootROM-REVB/F2837x_bootROM_dev/F2837x_bootROM/c
    1300 00000090 0644          MOVL      ACC,*-SP[4]           ; [CPU_] |558| 
    1301 00000091 8F00          MOVL      XAR4,#40960           ; [CPU_U] |558| 
         00000092 A000 
    1302 00000093 9B00          MOVB      AH,#0                 ; [CPU_] |558| 
    1303 00000094 18A9          AND       AL,#0xa000            ; [CPU_] |558| 
         00000095 A000 
    1304 00000096 0FA4          CMPL      ACC,XAR4              ; [CPU_] |558| 
    1305                      .dwpsn  file "C:/work/grepos/bootrom/Boot_ROM/F2837x_bootROM-REVB/F2837x_bootROM_dev/F2837x_bootROM/c
    1306 00000097 56B1          MOVB      *-SP[9],#8,EQ         ; [CPU_] |561| 
         00000098 0849 
    1307                      .dwpsn  file "C:/work/grepos/bootrom/Boot_ROM/F2837x_bootROM-REVB/F2837x_bootROM_dev/F2837x_bootROM/c
    1308 00000099 EC28          BF        $C$L36,EQ             ; [CPU_] |562| 
    1309                      ; branchcc occurs ; [] |562| 
    1310                      .dwpsn  file "C:/work/grepos/bootrom/Boot_ROM/F2837x_bootROM-REVB/F2837x_bootROM_dev/F2837x_bootROM/c
    1311 0000009a 0644          MOVL      ACC,*-SP[4]           ; [CPU_] |563| 
    1312 0000009b 8F00          MOVL      XAR4,#38912           ; [CPU_U] |563| 
         0000009c 9800 
    1313 0000009d 9B00          MOVB      AH,#0                 ; [CPU_] |563| 
    1314 0000009e 18A9          AND       AL,#0x9800            ; [CPU_] |563| 
         0000009f 9800 
    1315 000000a0 0FA4          CMPL      ACC,XAR4              ; [CPU_] |563| 
    1316                      .dwpsn  file "C:/work/grepos/bootrom/Boot_ROM/F2837x_bootROM-REVB/F2837x_bootROM_dev/F2837x_bootROM/c
    1317 000000a1 56B1          MOVB      *-SP[9],#6,EQ         ; [CPU_] |566| 
         000000a2 0649 
    1318                      .dwpsn  file "C:/work/grepos/bootrom/Boot_ROM/F2837x_bootROM-REVB/F2837x_bootROM_dev/F2837x_bootROM/c
    1319 000000a3 EC1E          BF        $C$L36,EQ             ; [CPU_] |567| 
    1320                      ; branchcc occurs ; [] |567| 
    1321                      .dwpsn  file "C:/work/grepos/bootrom/Boot_ROM/F2837x_bootROM-REVB/F2837x_bootROM_dev/F2837x_bootROM/c
    1322 000000a4 0644          MOVL      ACC,*-SP[4]           ; [CPU_] |568| 
    1323 000000a5 8F00          MOVL      XAR4,#36864           ; [CPU_U] |568| 
         000000a6 9000 
    1324 000000a7 9B00          MOVB      AH,#0                 ; [CPU_] |568| 
    1325 000000a8 18A9          AND       AL,#0x9000            ; [CPU_] |568| 
         000000a9 9000 
    1326 000000aa 0FA4          CMPL      ACC,XAR4              ; [CPU_] |568| 
    1327                      .dwpsn  file "C:/work/grepos/bootrom/Boot_ROM/F2837x_bootROM-REVB/F2837x_bootROM_dev/F2837x_bootROM/c
    1328 000000ab 56B1          MOVB      *-SP[9],#4,EQ         ; [CPU_] |571| 
         000000ac 0449 
    1329                      .dwpsn  file "C:/work/grepos/bootrom/Boot_ROM/F2837x_bootROM-REVB/F2837x_bootROM_dev/F2837x_bootROM/c
    1330 000000ad EC14          BF        $C$L36,EQ             ; [CPU_] |572| 
    1331                      ; branchcc occurs ; [] |572| 
TMS320C2000 Assembler PC v6.1.3 Thu Jan 30 10:33:25 2014

Tools Copyright (c) 1996-2012 Texas Instruments Incorporated
C:\Users\a0272466\AppData\Local\Temp\0939610                         PAGE   29

    1332                      .dwpsn  file "C:/work/grepos/bootrom/Boot_ROM/F2837x_bootROM-REVB/F2837x_bootROM_dev/F2837x_bootROM/c
    1333 000000ae 0644          MOVL      ACC,*-SP[4]           ; [CPU_] |573| 
    1334 000000af 8F00          MOVL      XAR4,#34816           ; [CPU_U] |573| 
         000000b0 8800 
    1335 000000b1 9B00          MOVB      AH,#0                 ; [CPU_] |573| 
    1336 000000b2 18A9          AND       AL,#0x8800            ; [CPU_] |573| 
         000000b3 8800 
    1337 000000b4 0FA4          CMPL      ACC,XAR4              ; [CPU_] |573| 
    1338                      .dwpsn  file "C:/work/grepos/bootrom/Boot_ROM/F2837x_bootROM-REVB/F2837x_bootROM_dev/F2837x_bootROM/c
    1339 000000b5 56B1          MOVB      *-SP[9],#2,EQ         ; [CPU_] |576| 
         000000b6 0249 
    1340                      .dwpsn  file "C:/work/grepos/bootrom/Boot_ROM/F2837x_bootROM-REVB/F2837x_bootROM_dev/F2837x_bootROM/c
    1341 000000b7 EC0A          BF        $C$L36,EQ             ; [CPU_] |577| 
    1342                      ; branchcc occurs ; [] |577| 
    1343                      .dwpsn  file "C:/work/grepos/bootrom/Boot_ROM/F2837x_bootROM-REVB/F2837x_bootROM_dev/F2837x_bootROM/c
    1344 000000b8 0644          MOVL      ACC,*-SP[4]           ; [CPU_] |578| 
    1345 000000b9 8F00          MOVL      XAR4,#32768           ; [CPU_U] |578| 
         000000ba 8000 
    1346 000000bb 9B00          MOVB      AH,#0                 ; [CPU_] |578| 
    1347 000000bc 18A9          AND       AL,#0x8000            ; [CPU_] |578| 
         000000bd 8000 
    1348 000000be 0FA4          CMPL      ACC,XAR4              ; [CPU_] |578| 
    1349 000000bf ED02          BF        $C$L36,NEQ            ; [CPU_] |578| 
    1350                      ; branchcc occurs ; [] |578| 
    1351                      .dwpsn  file "C:/work/grepos/bootrom/Boot_ROM/F2837x_bootROM-REVB/F2837x_bootROM_dev/F2837x_bootROM/c
    1352 000000c0 2B49          MOV       *-SP[9],#0            ; [CPU_] |581| 
    1353 000000c1       $C$L36:    
    1354                      .dwpsn  file "C:/work/grepos/bootrom/Boot_ROM/F2837x_bootROM-REVB/F2837x_bootROM_dev/F2837x_bootROM/c
    1355 000000c1 0644          MOVL      ACC,*-SP[4]           ; [CPU_] |589| 
    1356 000000c2 8F00          MOVL      XAR4,#2048            ; [CPU_U] |589| 
         000000c3 0800 
    1357 000000c4 9B00          MOVB      AH,#0                 ; [CPU_] |589| 
    1358 000000c5 18A9          AND       AL,#0x07ff            ; [CPU_] |589| 
         000000c6 07FF 
    1359 000000c7 0742          ADDL      ACC,*-SP[2]           ; [CPU_] |589| 
    1360 000000c8 0FA4          CMPL      ACC,XAR4              ; [CPU_] |589| 
    1361 000000c9 6910          B         $C$L37,LOS            ; [CPU_] |589| 
    1362                      ; branchcc occurs ; [] |589| 
    1363                      .dwpsn  file "C:/work/grepos/bootrom/Boot_ROM/F2837x_bootROM-REVB/F2837x_bootROM_dev/F2837x_bootROM/c
    1364 000000ca 1822!         AND       @_DcsmRegsZ2+34,#0xfffe ; [CPU_] |591| 
         000000cb FFFE 
    1365                      .dwpsn  file "C:/work/grepos/bootrom/Boot_ROM/F2837x_bootROM-REVB/F2837x_bootROM_dev/F2837x_bootROM/c
    1366 000000cc 0200          MOVB      ACC,#0                ; [CPU_] |593| 
    1367 000000cd 1E42          MOVL      *-SP[2],ACC           ; [CPU_] |593| 
    1368                      .dwpsn  file "C:/work/grepos/bootrom/Boot_ROM/F2837x_bootROM-REVB/F2837x_bootROM_dev/F2837x_bootROM/c
    1369 000000ce 1E44          MOVL      *-SP[4],ACC           ; [CPU_] |594| 
    1370                      .dwpsn  file "C:/work/grepos/bootrom/Boot_ROM/F2837x_bootROM-REVB/F2837x_bootROM_dev/F2837x_bootROM/c
    1371 000000cf 1E46          MOVL      *-SP[6],ACC           ; [CPU_] |595| 
    1372                      .dwpsn  file "C:/work/grepos/bootrom/Boot_ROM/F2837x_bootROM-REVB/F2837x_bootROM_dev/F2837x_bootROM/c
    1373 000000d0 1E48          MOVL      *-SP[8],ACC           ; [CPU_] |596| 
    1374                      .dwpsn  file "C:/work/grepos/bootrom/Boot_ROM/F2837x_bootROM-REVB/F2837x_bootROM_dev/F2837x_bootROM/c
    1375 000000d1 2849          MOV       *-SP[9],#65535        ; [CPU_] |597| 
         000000d2 FFFF 
    1376                      .dwpsn  file "C:/work/grepos/bootrom/Boot_ROM/F2837x_bootROM-REVB/F2837x_bootROM_dev/F2837x_bootROM/c
    1377 000000d3 284A          MOV       *-SP[10],#65535       ; [CPU_] |598| 
TMS320C2000 Assembler PC v6.1.3 Thu Jan 30 10:33:25 2014

Tools Copyright (c) 1996-2012 Texas Instruments Incorporated
C:\Users\a0272466\AppData\Local\Temp\0939610                         PAGE   30

         000000d4 FFFF 
    1378                      .dwpsn  file "C:/work/grepos/bootrom/Boot_ROM/F2837x_bootROM-REVB/F2837x_bootROM_dev/F2837x_bootROM/c
    1379 000000d5 2B4B          MOV       *-SP[11],#0           ; [CPU_] |599| 
    1380                      .dwpsn  file "C:/work/grepos/bootrom/Boot_ROM/F2837x_bootROM-REVB/F2837x_bootROM_dev/F2837x_bootROM/c
    1381 000000d6 9A00          MOVB      AL,#0                 ; [CPU_] |600| 
    1382 000000d7 FFEF          B         $C$L56,UNC            ; [CPU_] |600| 
         000000d8 01EA 
    1383                      ; branch occurs ; [] |600| 
    1384 000000d9       $C$L37:    
    1385                      .dwpsn  file "C:/work/grepos/bootrom/Boot_ROM/F2837x_bootROM-REVB/F2837x_bootROM_dev/F2837x_bootROM/c
    1386 000000d9 0646          MOVL      ACC,*-SP[6]           ; [CPU_] |606| 
    1387 000000da 8F0C          MOVL      XAR4,#786432          ; [CPU_U] |606| 
         000000db 0000 
    1388 000000dc 5608          AND       ACC,#12 << 16         ; [CPU_] |606| 
         000000dd 000C 
    1389 000000de 0FA4          CMPL      ACC,XAR4              ; [CPU_] |606| 
    1390 000000df ED34          BF        $C$L40,NEQ            ; [CPU_] |606| 
    1391                      ; branchcc occurs ; [] |606| 
    1392                      .dwpsn  file "C:/work/grepos/bootrom/Boot_ROM/F2837x_bootROM-REVB/F2837x_bootROM_dev/F2837x_bootROM/c
    1393 000000e0 761F!         MOVW      DP,#_DcsmRegsCommon+6 ; [CPU_U] 
         000000e1 0000 
    1394 000000e2 CC06!         AND       AL,@_DcsmRegsCommon+6,#0x03c0 ; [CPU_] |610| 
         000000e3 03C0 
    1395 000000e4 FFC5          LSR       AL,6                  ; [CPU_] |610| 
    1396 000000e5 520F          CMPB      AL,#15                ; [CPU_] |610| 
    1397 000000e6 EC1C          BF        $C$L39,EQ             ; [CPU_] |610| 
    1398                      ; branchcc occurs ; [] |610| 
    1399                      .dwpsn  file "C:/work/grepos/bootrom/Boot_ROM/F2837x_bootROM-REVB/F2837x_bootROM_dev/F2837x_bootROM/c
    1400 000000e7 0646          MOVL      ACC,*-SP[6]           ; [CPU_] |613| 
    1401 000000e8 8F10          MOVL      XAR4,#1048576         ; [CPU_U] |613| 
         000000e9 0000 
    1402 000000ea 0742          ADDL      ACC,*-SP[2]           ; [CPU_] |613| 
    1403 000000eb 0FA4          CMPL      ACC,XAR4              ; [CPU_] |613| 
    1404 000000ec 6912          B         $C$L38,LOS            ; [CPU_] |613| 
    1405                      ; branchcc occurs ; [] |613| 
    1406                      .dwpsn  file "C:/work/grepos/bootrom/Boot_ROM/F2837x_bootROM-REVB/F2837x_bootROM_dev/F2837x_bootROM/c
    1407 000000ed 761F!         MOVW      DP,#_DcsmRegsZ2+34    ; [CPU_U] 
         000000ee 0000 
    1408 000000ef 1822!         AND       @_DcsmRegsZ2+34,#0xfffe ; [CPU_] |615| 
         000000f0 FFFE 
    1409                      .dwpsn  file "C:/work/grepos/bootrom/Boot_ROM/F2837x_bootROM-REVB/F2837x_bootROM_dev/F2837x_bootROM/c
    1410 000000f1 0200          MOVB      ACC,#0                ; [CPU_] |617| 
    1411 000000f2 1E42          MOVL      *-SP[2],ACC           ; [CPU_] |617| 
    1412                      .dwpsn  file "C:/work/grepos/bootrom/Boot_ROM/F2837x_bootROM-REVB/F2837x_bootROM_dev/F2837x_bootROM/c
    1413 000000f3 1E44          MOVL      *-SP[4],ACC           ; [CPU_] |618| 
    1414                      .dwpsn  file "C:/work/grepos/bootrom/Boot_ROM/F2837x_bootROM-REVB/F2837x_bootROM_dev/F2837x_bootROM/c
    1415 000000f4 1E46          MOVL      *-SP[6],ACC           ; [CPU_] |619| 
    1416                      .dwpsn  file "C:/work/grepos/bootrom/Boot_ROM/F2837x_bootROM-REVB/F2837x_bootROM_dev/F2837x_bootROM/c
    1417 000000f5 1E48          MOVL      *-SP[8],ACC           ; [CPU_] |620| 
    1418                      .dwpsn  file "C:/work/grepos/bootrom/Boot_ROM/F2837x_bootROM-REVB/F2837x_bootROM_dev/F2837x_bootROM/c
    1419 000000f6 2849          MOV       *-SP[9],#65535        ; [CPU_] |621| 
         000000f7 FFFF 
    1420                      .dwpsn  file "C:/work/grepos/bootrom/Boot_ROM/F2837x_bootROM-REVB/F2837x_bootROM_dev/F2837x_bootROM/c
    1421 000000f8 284A          MOV       *-SP[10],#65535       ; [CPU_] |622| 
         000000f9 FFFF 
TMS320C2000 Assembler PC v6.1.3 Thu Jan 30 10:33:25 2014

Tools Copyright (c) 1996-2012 Texas Instruments Incorporated
C:\Users\a0272466\AppData\Local\Temp\0939610                         PAGE   31

    1422                      .dwpsn  file "C:/work/grepos/bootrom/Boot_ROM/F2837x_bootROM-REVB/F2837x_bootROM_dev/F2837x_bootROM/c
    1423 000000fa 2B4B          MOV       *-SP[11],#0           ; [CPU_] |623| 
    1424                      .dwpsn  file "C:/work/grepos/bootrom/Boot_ROM/F2837x_bootROM-REVB/F2837x_bootROM_dev/F2837x_bootROM/c
    1425 000000fb 9A00          MOVB      AL,#0                 ; [CPU_] |624| 
    1426 000000fc FFEF          B         $C$L56,UNC            ; [CPU_] |624| 
         000000fd 01C5 
    1427                      ; branch occurs ; [] |624| 
    1428 000000fe       $C$L38:    
    1429                      .dwpsn  file "C:/work/grepos/bootrom/Boot_ROM/F2837x_bootROM-REVB/F2837x_bootROM_dev/F2837x_bootROM/c
    1430 000000fe 56BF          MOVB      *-SP[10],#28,UNC      ; [CPU_] |626| 
         000000ff 1C4A 
    1431                      .dwpsn  file "C:/work/grepos/bootrom/Boot_ROM/F2837x_bootROM-REVB/F2837x_bootROM_dev/F2837x_bootROM/c
    1432 00000100 FFEF          B         $C$L46,UNC            ; [CPU_] |627| 
         00000101 0100 
    1433                      ; branch occurs ; [] |627| 
    1434 00000102       $C$L39:    
    1435                      .dwpsn  file "C:/work/grepos/bootrom/Boot_ROM/F2837x_bootROM-REVB/F2837x_bootROM_dev/F2837x_bootROM/c
    1436 00000102 761F!         MOVW      DP,#_DcsmRegsZ2+34    ; [CPU_U] 
         00000103 0000 
    1437 00000104 1822!         AND       @_DcsmRegsZ2+34,#0xfffe ; [CPU_] |630| 
         00000105 FFFE 
    1438                      .dwpsn  file "C:/work/grepos/bootrom/Boot_ROM/F2837x_bootROM-REVB/F2837x_bootROM_dev/F2837x_bootROM/c
    1439 00000106 0200          MOVB      ACC,#0                ; [CPU_] |632| 
    1440 00000107 1E42          MOVL      *-SP[2],ACC           ; [CPU_] |632| 
    1441                      .dwpsn  file "C:/work/grepos/bootrom/Boot_ROM/F2837x_bootROM-REVB/F2837x_bootROM_dev/F2837x_bootROM/c
    1442 00000108 1E44          MOVL      *-SP[4],ACC           ; [CPU_] |633| 
    1443                      .dwpsn  file "C:/work/grepos/bootrom/Boot_ROM/F2837x_bootROM-REVB/F2837x_bootROM_dev/F2837x_bootROM/c
    1444 00000109 1E46          MOVL      *-SP[6],ACC           ; [CPU_] |634| 
    1445                      .dwpsn  file "C:/work/grepos/bootrom/Boot_ROM/F2837x_bootROM-REVB/F2837x_bootROM_dev/F2837x_bootROM/c
    1446 0000010a 1E48          MOVL      *-SP[8],ACC           ; [CPU_] |635| 
    1447                      .dwpsn  file "C:/work/grepos/bootrom/Boot_ROM/F2837x_bootROM-REVB/F2837x_bootROM_dev/F2837x_bootROM/c
    1448 0000010b 2849          MOV       *-SP[9],#65535        ; [CPU_] |636| 
         0000010c FFFF 
    1449                      .dwpsn  file "C:/work/grepos/bootrom/Boot_ROM/F2837x_bootROM-REVB/F2837x_bootROM_dev/F2837x_bootROM/c
    1450 0000010d 284A          MOV       *-SP[10],#65535       ; [CPU_] |637| 
         0000010e FFFF 
    1451                      .dwpsn  file "C:/work/grepos/bootrom/Boot_ROM/F2837x_bootROM-REVB/F2837x_bootROM_dev/F2837x_bootROM/c
    1452 0000010f 2B4B          MOV       *-SP[11],#0           ; [CPU_] |638| 
    1453                      .dwpsn  file "C:/work/grepos/bootrom/Boot_ROM/F2837x_bootROM-REVB/F2837x_bootROM_dev/F2837x_bootROM/c
    1454 00000110 9A00          MOVB      AL,#0                 ; [CPU_] |639| 
    1455 00000111 FFEF          B         $C$L56,UNC            ; [CPU_] |639| 
         00000112 01B0 
    1456                      ; branch occurs ; [] |639| 
    1457 00000113       $C$L40:    
    1458                      .dwpsn  file "C:/work/grepos/bootrom/Boot_ROM/F2837x_bootROM-REVB/F2837x_bootROM_dev/F2837x_bootROM/c
    1459 00000113 C446          MOVL      XAR6,*-SP[6]          ; [CPU_] |642| 
    1460 00000114 8F0B          MOVL      XAR4,#753664          ; [CPU_U] |642| 
         00000115 8000 
    1461 00000116 A8A9          MOVL      ACC,XAR4              ; [CPU_] |642| 
    1462 00000117 0FA6          CMPL      ACC,XAR6              ; [CPU_] |642| 
    1463 00000118 664B          B         $C$L42,HI             ; [CPU_] |642| 
    1464                      ; branchcc occurs ; [] |642| 
    1465 00000119 C446          MOVL      XAR6,*-SP[6]          ; [CPU_] |642| 
    1466 0000011a 8F0C          MOVL      XAR4,#786432          ; [CPU_U] |642| 
         0000011b 0000 
TMS320C2000 Assembler PC v6.1.3 Thu Jan 30 10:33:25 2014

Tools Copyright (c) 1996-2012 Texas Instruments Incorporated
C:\Users\a0272466\AppData\Local\Temp\0939610                         PAGE   32

    1467 0000011c A8A9          MOVL      ACC,XAR4              ; [CPU_] |642| 
    1468 0000011d 0FA6          CMPL      ACC,XAR6              ; [CPU_] |642| 
    1469 0000011e 6945          B         $C$L42,LOS            ; [CPU_] |642| 
    1470                      ; branchcc occurs ; [] |642| 
    1471                      .dwpsn  file "C:/work/grepos/bootrom/Boot_ROM/F2837x_bootROM-REVB/F2837x_bootROM_dev/F2837x_bootROM/c
    1472 0000011f 0646          MOVL      ACC,*-SP[6]           ; [CPU_] |645| 
    1473 00000120 8F00          MOVL      XAR4,#8192            ; [CPU_U] |645| 
         00000121 2000 
    1474 00000122 9B00          MOVB      AH,#0                 ; [CPU_] |645| 
    1475 00000123 18A9          AND       AL,#0x1fff            ; [CPU_] |645| 
         00000124 1FFF 
    1476 00000125 0742          ADDL      ACC,*-SP[2]           ; [CPU_] |645| 
    1477 00000126 0FA4          CMPL      ACC,XAR4              ; [CPU_] |645| 
    1478 00000127 6910          B         $C$L41,LOS            ; [CPU_] |645| 
    1479                      ; branchcc occurs ; [] |645| 
    1480                      .dwpsn  file "C:/work/grepos/bootrom/Boot_ROM/F2837x_bootROM-REVB/F2837x_bootROM_dev/F2837x_bootROM/c
    1481 00000128 1822!         AND       @_DcsmRegsZ2+34,#0xfffe ; [CPU_] |647| 
         00000129 FFFE 
    1482                      .dwpsn  file "C:/work/grepos/bootrom/Boot_ROM/F2837x_bootROM-REVB/F2837x_bootROM_dev/F2837x_bootROM/c
    1483 0000012a 0200          MOVB      ACC,#0                ; [CPU_] |649| 
    1484 0000012b 1E42          MOVL      *-SP[2],ACC           ; [CPU_] |649| 
    1485                      .dwpsn  file "C:/work/grepos/bootrom/Boot_ROM/F2837x_bootROM-REVB/F2837x_bootROM_dev/F2837x_bootROM/c
    1486 0000012c 1E44          MOVL      *-SP[4],ACC           ; [CPU_] |650| 
    1487                      .dwpsn  file "C:/work/grepos/bootrom/Boot_ROM/F2837x_bootROM-REVB/F2837x_bootROM_dev/F2837x_bootROM/c
    1488 0000012d 1E46          MOVL      *-SP[6],ACC           ; [CPU_] |651| 
    1489                      .dwpsn  file "C:/work/grepos/bootrom/Boot_ROM/F2837x_bootROM-REVB/F2837x_bootROM_dev/F2837x_bootROM/c
    1490 0000012e 1E48          MOVL      *-SP[8],ACC           ; [CPU_] |652| 
    1491                      .dwpsn  file "C:/work/grepos/bootrom/Boot_ROM/F2837x_bootROM-REVB/F2837x_bootROM_dev/F2837x_bootROM/c
    1492 0000012f 2849          MOV       *-SP[9],#65535        ; [CPU_] |653| 
         00000130 FFFF 
    1493                      .dwpsn  file "C:/work/grepos/bootrom/Boot_ROM/F2837x_bootROM-REVB/F2837x_bootROM_dev/F2837x_bootROM/c
    1494 00000131 284A          MOV       *-SP[10],#65535       ; [CPU_] |654| 
         00000132 FFFF 
    1495                      .dwpsn  file "C:/work/grepos/bootrom/Boot_ROM/F2837x_bootROM-REVB/F2837x_bootROM_dev/F2837x_bootROM/c
    1496 00000133 2B4B          MOV       *-SP[11],#0           ; [CPU_] |655| 
    1497                      .dwpsn  file "C:/work/grepos/bootrom/Boot_ROM/F2837x_bootROM-REVB/F2837x_bootROM_dev/F2837x_bootROM/c
    1498 00000134 9A00          MOVB      AL,#0                 ; [CPU_] |656| 
    1499 00000135 FFEF          B         $C$L56,UNC            ; [CPU_] |656| 
         00000136 018C 
    1500                      ; branch occurs ; [] |656| 
    1501 00000137       $C$L41:    
    1502                      .dwpsn  file "C:/work/grepos/bootrom/Boot_ROM/F2837x_bootROM-REVB/F2837x_bootROM_dev/F2837x_bootROM/c
    1503 00000137 8F0B          MOVL      XAR4,#778240          ; [CPU_U] |658| 
         00000138 E000 
    1504 00000139 0646          MOVL      ACC,*-SP[6]           ; [CPU_] |658| 
    1505 0000013a A8AB          MOVL      P,XAR4                ; [CPU_] |658| 
    1506 0000013b CEAB          AND       AL,PL                 ; [CPU_] |658| 
    1507 0000013c CFAA          AND       AH,PH                 ; [CPU_] |658| 
    1508 0000013d 0FA4          CMPL      ACC,XAR4              ; [CPU_] |658| 
    1509                      .dwpsn  file "C:/work/grepos/bootrom/Boot_ROM/F2837x_bootROM-REVB/F2837x_bootROM_dev/F2837x_bootROM/c
    1510 0000013e 56B1          MOVB      *-SP[10],#26,EQ       ; [CPU_] |661| 
         0000013f 1A4A 
    1511                      .dwpsn  file "C:/work/grepos/bootrom/Boot_ROM/F2837x_bootROM-REVB/F2837x_bootROM_dev/F2837x_bootROM/c
    1512 00000140 56C1          BF        $C$L46,EQ             ; [CPU_] |662| 
         00000141 00C0 
TMS320C2000 Assembler PC v6.1.3 Thu Jan 30 10:33:25 2014

Tools Copyright (c) 1996-2012 Texas Instruments Incorporated
C:\Users\a0272466\AppData\Local\Temp\0939610                         PAGE   33

    1513                      ; branchcc occurs ; [] |662| 
    1514                      .dwpsn  file "C:/work/grepos/bootrom/Boot_ROM/F2837x_bootROM-REVB/F2837x_bootROM_dev/F2837x_bootROM/c
    1515 00000142 8F0B          MOVL      XAR4,#770048          ; [CPU_U] |663| 
         00000143 C000 
    1516 00000144 0646          MOVL      ACC,*-SP[6]           ; [CPU_] |663| 
    1517 00000145 A8AB          MOVL      P,XAR4                ; [CPU_] |663| 
    1518 00000146 CEAB          AND       AL,PL                 ; [CPU_] |663| 
    1519 00000147 CFAA          AND       AH,PH                 ; [CPU_] |663| 
    1520 00000148 0FA4          CMPL      ACC,XAR4              ; [CPU_] |663| 
    1521                      .dwpsn  file "C:/work/grepos/bootrom/Boot_ROM/F2837x_bootROM-REVB/F2837x_bootROM_dev/F2837x_bootROM/c
    1522 00000149 56B1          MOVB      *-SP[10],#24,EQ       ; [CPU_] |666| 
         0000014a 184A 
    1523                      .dwpsn  file "C:/work/grepos/bootrom/Boot_ROM/F2837x_bootROM-REVB/F2837x_bootROM_dev/F2837x_bootROM/c
    1524 0000014b 56C1          BF        $C$L46,EQ             ; [CPU_] |667| 
         0000014c 00B5 
    1525                      ; branchcc occurs ; [] |667| 
    1526                      .dwpsn  file "C:/work/grepos/bootrom/Boot_ROM/F2837x_bootROM-REVB/F2837x_bootROM_dev/F2837x_bootROM/c
    1527 0000014d 8F0B          MOVL      XAR4,#761856          ; [CPU_U] |668| 
         0000014e A000 
    1528 0000014f 0646          MOVL      ACC,*-SP[6]           ; [CPU_] |668| 
    1529 00000150 A8AB          MOVL      P,XAR4                ; [CPU_] |668| 
    1530 00000151 CEAB          AND       AL,PL                 ; [CPU_] |668| 
    1531 00000152 CFAA          AND       AH,PH                 ; [CPU_] |668| 
    1532 00000153 0FA4          CMPL      ACC,XAR4              ; [CPU_] |668| 
    1533                      .dwpsn  file "C:/work/grepos/bootrom/Boot_ROM/F2837x_bootROM-REVB/F2837x_bootROM_dev/F2837x_bootROM/c
    1534 00000154 56B1          MOVB      *-SP[10],#22,EQ       ; [CPU_] |671| 
         00000155 164A 
    1535                      .dwpsn  file "C:/work/grepos/bootrom/Boot_ROM/F2837x_bootROM-REVB/F2837x_bootROM_dev/F2837x_bootROM/c
    1536 00000156 56C1          BF        $C$L46,EQ             ; [CPU_] |672| 
         00000157 00AA 
    1537                      ; branchcc occurs ; [] |672| 
    1538                      .dwpsn  file "C:/work/grepos/bootrom/Boot_ROM/F2837x_bootROM-REVB/F2837x_bootROM_dev/F2837x_bootROM/c
    1539 00000158 8F0B          MOVL      XAR4,#753664          ; [CPU_U] |673| 
         00000159 8000 
    1540 0000015a 0646          MOVL      ACC,*-SP[6]           ; [CPU_] |673| 
    1541 0000015b A8AB          MOVL      P,XAR4                ; [CPU_] |673| 
    1542 0000015c CEAB          AND       AL,PL                 ; [CPU_] |673| 
    1543 0000015d CFAA          AND       AH,PH                 ; [CPU_] |673| 
    1544 0000015e 0FA4          CMPL      ACC,XAR4              ; [CPU_] |673| 
    1545                      .dwpsn  file "C:/work/grepos/bootrom/Boot_ROM/F2837x_bootROM-REVB/F2837x_bootROM_dev/F2837x_bootROM/c
    1546 0000015f 56B1          MOVB      *-SP[10],#20,EQ       ; [CPU_] |676| 
         00000160 144A 
    1547                      .dwpsn  file "C:/work/grepos/bootrom/Boot_ROM/F2837x_bootROM-REVB/F2837x_bootROM_dev/F2837x_bootROM/c
    1548 00000161 FFEF          B         $C$L46,UNC            ; [CPU_] |678| 
         00000162 009F 
    1549                      ; branch occurs ; [] |678| 
    1550 00000163       $C$L42:    
    1551                      .dwpsn  file "C:/work/grepos/bootrom/Boot_ROM/F2837x_bootROM-REVB/F2837x_bootROM_dev/F2837x_bootROM/c
    1552 00000163 C446          MOVL      XAR6,*-SP[6]          ; [CPU_] |679| 
    1553 00000164 8F08          MOVL      XAR4,#557056          ; [CPU_U] |679| 
         00000165 8000 
    1554 00000166 A8A9          MOVL      ACC,XAR4              ; [CPU_] |679| 
    1555 00000167 0FA6          CMPL      ACC,XAR6              ; [CPU_] |679| 
    1556 00000168 665A          B         $C$L44,HI             ; [CPU_] |679| 
    1557                      ; branchcc occurs ; [] |679| 
TMS320C2000 Assembler PC v6.1.3 Thu Jan 30 10:33:25 2014

Tools Copyright (c) 1996-2012 Texas Instruments Incorporated
C:\Users\a0272466\AppData\Local\Temp\0939610                         PAGE   34

    1558 00000169 C446          MOVL      XAR6,*-SP[6]          ; [CPU_] |679| 
    1559 0000016a 8F0B          MOVL      XAR4,#753664          ; [CPU_U] |679| 
         0000016b 8000 
    1560 0000016c A8A9          MOVL      ACC,XAR4              ; [CPU_] |679| 
    1561 0000016d 0FA6          CMPL      ACC,XAR6              ; [CPU_] |679| 
    1562 0000016e 6954          B         $C$L44,LOS            ; [CPU_] |679| 
    1563                      ; branchcc occurs ; [] |679| 
    1564                      .dwpsn  file "C:/work/grepos/bootrom/Boot_ROM/F2837x_bootROM-REVB/F2837x_bootROM_dev/F2837x_bootROM/c
    1565 0000016f 0646          MOVL      ACC,*-SP[6]           ; [CPU_] |682| 
    1566 00000170 8F00          MOVL      XAR4,#32768           ; [CPU_U] |682| 
         00000171 8000 
    1567 00000172 9B00          MOVB      AH,#0                 ; [CPU_] |682| 
    1568 00000173 18A9          AND       AL,#0x7fff            ; [CPU_] |682| 
         00000174 7FFF 
    1569 00000175 0742          ADDL      ACC,*-SP[2]           ; [CPU_] |682| 
    1570 00000176 0FA4          CMPL      ACC,XAR4              ; [CPU_] |682| 
    1571 00000177 6910          B         $C$L43,LOS            ; [CPU_] |682| 
    1572                      ; branchcc occurs ; [] |682| 
    1573                      .dwpsn  file "C:/work/grepos/bootrom/Boot_ROM/F2837x_bootROM-REVB/F2837x_bootROM_dev/F2837x_bootROM/c
    1574 00000178 1822!         AND       @_DcsmRegsZ2+34,#0xfffe ; [CPU_] |684| 
         00000179 FFFE 
    1575                      .dwpsn  file "C:/work/grepos/bootrom/Boot_ROM/F2837x_bootROM-REVB/F2837x_bootROM_dev/F2837x_bootROM/c
    1576 0000017a 0200          MOVB      ACC,#0                ; [CPU_] |686| 
    1577 0000017b 1E42          MOVL      *-SP[2],ACC           ; [CPU_] |686| 
    1578                      .dwpsn  file "C:/work/grepos/bootrom/Boot_ROM/F2837x_bootROM-REVB/F2837x_bootROM_dev/F2837x_bootROM/c
    1579 0000017c 1E44          MOVL      *-SP[4],ACC           ; [CPU_] |687| 
    1580                      .dwpsn  file "C:/work/grepos/bootrom/Boot_ROM/F2837x_bootROM-REVB/F2837x_bootROM_dev/F2837x_bootROM/c
    1581 0000017d 1E46          MOVL      *-SP[6],ACC           ; [CPU_] |688| 
    1582                      .dwpsn  file "C:/work/grepos/bootrom/Boot_ROM/F2837x_bootROM-REVB/F2837x_bootROM_dev/F2837x_bootROM/c
    1583 0000017e 1E48          MOVL      *-SP[8],ACC           ; [CPU_] |689| 
    1584                      .dwpsn  file "C:/work/grepos/bootrom/Boot_ROM/F2837x_bootROM-REVB/F2837x_bootROM_dev/F2837x_bootROM/c
    1585 0000017f 2849          MOV       *-SP[9],#65535        ; [CPU_] |690| 
         00000180 FFFF 
    1586                      .dwpsn  file "C:/work/grepos/bootrom/Boot_ROM/F2837x_bootROM-REVB/F2837x_bootROM_dev/F2837x_bootROM/c
    1587 00000181 284A          MOV       *-SP[10],#65535       ; [CPU_] |691| 
         00000182 FFFF 
    1588                      .dwpsn  file "C:/work/grepos/bootrom/Boot_ROM/F2837x_bootROM-REVB/F2837x_bootROM_dev/F2837x_bootROM/c
    1589 00000183 2B4B          MOV       *-SP[11],#0           ; [CPU_] |692| 
    1590                      .dwpsn  file "C:/work/grepos/bootrom/Boot_ROM/F2837x_bootROM-REVB/F2837x_bootROM_dev/F2837x_bootROM/c
    1591 00000184 9A00          MOVB      AL,#0                 ; [CPU_] |693| 
    1592 00000185 FFEF          B         $C$L56,UNC            ; [CPU_] |693| 
         00000186 013C 
    1593                      ; branch occurs ; [] |693| 
    1594 00000187       $C$L43:    
    1595                      .dwpsn  file "C:/work/grepos/bootrom/Boot_ROM/F2837x_bootROM-REVB/F2837x_bootROM_dev/F2837x_bootROM/c
    1596 00000187 8F0B          MOVL      XAR4,#720896          ; [CPU_U] |695| 
         00000188 0000 
    1597 00000189 0646          MOVL      ACC,*-SP[6]           ; [CPU_] |695| 
    1598 0000018a A8AB          MOVL      P,XAR4                ; [CPU_] |695| 
    1599 0000018b CEAB          AND       AL,PL                 ; [CPU_] |695| 
    1600 0000018c CFAA          AND       AH,PH                 ; [CPU_] |695| 
    1601 0000018d 0FA4          CMPL      ACC,XAR4              ; [CPU_] |695| 
    1602                      .dwpsn  file "C:/work/grepos/bootrom/Boot_ROM/F2837x_bootROM-REVB/F2837x_bootROM_dev/F2837x_bootROM/c
    1603 0000018e 56B1          MOVB      *-SP[10],#18,EQ       ; [CPU_] |698| 
         0000018f 124A 
TMS320C2000 Assembler PC v6.1.3 Thu Jan 30 10:33:25 2014

Tools Copyright (c) 1996-2012 Texas Instruments Incorporated
C:\Users\a0272466\AppData\Local\Temp\0939610                         PAGE   35

    1604                      .dwpsn  file "C:/work/grepos/bootrom/Boot_ROM/F2837x_bootROM-REVB/F2837x_bootROM_dev/F2837x_bootROM/c
    1605 00000190 EC70          BF        $C$L46,EQ             ; [CPU_] |699| 
    1606                      ; branchcc occurs ; [] |699| 
    1607                      .dwpsn  file "C:/work/grepos/bootrom/Boot_ROM/F2837x_bootROM-REVB/F2837x_bootROM_dev/F2837x_bootROM/c
    1608 00000191 8F0A          MOVL      XAR4,#688128          ; [CPU_U] |700| 
         00000192 8000 
    1609 00000193 0646          MOVL      ACC,*-SP[6]           ; [CPU_] |700| 
    1610 00000194 A8AB          MOVL      P,XAR4                ; [CPU_] |700| 
    1611 00000195 CEAB          AND       AL,PL                 ; [CPU_] |700| 
    1612 00000196 CFAA          AND       AH,PH                 ; [CPU_] |700| 
    1613 00000197 0FA4          CMPL      ACC,XAR4              ; [CPU_] |700| 
    1614                      .dwpsn  file "C:/work/grepos/bootrom/Boot_ROM/F2837x_bootROM-REVB/F2837x_bootROM_dev/F2837x_bootROM/c
    1615 00000198 56B1          MOVB      *-SP[10],#16,EQ       ; [CPU_] |703| 
         00000199 104A 
    1616                      .dwpsn  file "C:/work/grepos/bootrom/Boot_ROM/F2837x_bootROM-REVB/F2837x_bootROM_dev/F2837x_bootROM/c
    1617 0000019a EC66          BF        $C$L46,EQ             ; [CPU_] |704| 
    1618                      ; branchcc occurs ; [] |704| 
    1619                      .dwpsn  file "C:/work/grepos/bootrom/Boot_ROM/F2837x_bootROM-REVB/F2837x_bootROM_dev/F2837x_bootROM/c
    1620 0000019b 0646          MOVL      ACC,*-SP[6]           ; [CPU_] |705| 
    1621 0000019c 8F0A          MOVL      XAR4,#655360          ; [CPU_U] |705| 
         0000019d 0000 
    1622 0000019e 5608          AND       ACC,#10 << 16         ; [CPU_] |705| 
         0000019f 000A 
    1623 000001a0 0FA4          CMPL      ACC,XAR4              ; [CPU_] |705| 
    1624                      .dwpsn  file "C:/work/grepos/bootrom/Boot_ROM/F2837x_bootROM-REVB/F2837x_bootROM_dev/F2837x_bootROM/c
    1625 000001a1 56B1          MOVB      *-SP[10],#14,EQ       ; [CPU_] |708| 
         000001a2 0E4A 
    1626                      .dwpsn  file "C:/work/grepos/bootrom/Boot_ROM/F2837x_bootROM-REVB/F2837x_bootROM_dev/F2837x_bootROM/c
    1627 000001a3 EC5D          BF        $C$L46,EQ             ; [CPU_] |709| 
    1628                      ; branchcc occurs ; [] |709| 
    1629                      .dwpsn  file "C:/work/grepos/bootrom/Boot_ROM/F2837x_bootROM-REVB/F2837x_bootROM_dev/F2837x_bootROM/c
    1630 000001a4 8F09          MOVL      XAR4,#622592          ; [CPU_U] |710| 
         000001a5 8000 
    1631 000001a6 0646          MOVL      ACC,*-SP[6]           ; [CPU_] |710| 
    1632 000001a7 A8AB          MOVL      P,XAR4                ; [CPU_] |710| 
    1633 000001a8 CEAB          AND       AL,PL                 ; [CPU_] |710| 
    1634 000001a9 CFAA          AND       AH,PH                 ; [CPU_] |710| 
    1635 000001aa 0FA4          CMPL      ACC,XAR4              ; [CPU_] |710| 
    1636                      .dwpsn  file "C:/work/grepos/bootrom/Boot_ROM/F2837x_bootROM-REVB/F2837x_bootROM_dev/F2837x_bootROM/c
    1637 000001ab 56B1          MOVB      *-SP[10],#12,EQ       ; [CPU_] |713| 
         000001ac 0C4A 
    1638                      .dwpsn  file "C:/work/grepos/bootrom/Boot_ROM/F2837x_bootROM-REVB/F2837x_bootROM_dev/F2837x_bootROM/c
    1639 000001ad EC53          BF        $C$L46,EQ             ; [CPU_] |714| 
    1640                      ; branchcc occurs ; [] |714| 
    1641                      .dwpsn  file "C:/work/grepos/bootrom/Boot_ROM/F2837x_bootROM-REVB/F2837x_bootROM_dev/F2837x_bootROM/c
    1642 000001ae 8F09          MOVL      XAR4,#589824          ; [CPU_U] |715| 
         000001af 0000 
    1643 000001b0 0646          MOVL      ACC,*-SP[6]           ; [CPU_] |715| 
    1644 000001b1 A8AB          MOVL      P,XAR4                ; [CPU_] |715| 
    1645 000001b2 CEAB          AND       AL,PL                 ; [CPU_] |715| 
    1646 000001b3 CFAA          AND       AH,PH                 ; [CPU_] |715| 
    1647 000001b4 0FA4          CMPL      ACC,XAR4              ; [CPU_] |715| 
    1648                      .dwpsn  file "C:/work/grepos/bootrom/Boot_ROM/F2837x_bootROM-REVB/F2837x_bootROM_dev/F2837x_bootROM/c
    1649 000001b5 56B1          MOVB      *-SP[10],#10,EQ       ; [CPU_] |718| 
         000001b6 0A4A 
TMS320C2000 Assembler PC v6.1.3 Thu Jan 30 10:33:25 2014

Tools Copyright (c) 1996-2012 Texas Instruments Incorporated
C:\Users\a0272466\AppData\Local\Temp\0939610                         PAGE   36

    1650                      .dwpsn  file "C:/work/grepos/bootrom/Boot_ROM/F2837x_bootROM-REVB/F2837x_bootROM_dev/F2837x_bootROM/c
    1651 000001b7 EC49          BF        $C$L46,EQ             ; [CPU_] |719| 
    1652                      ; branchcc occurs ; [] |719| 
    1653                      .dwpsn  file "C:/work/grepos/bootrom/Boot_ROM/F2837x_bootROM-REVB/F2837x_bootROM_dev/F2837x_bootROM/c
    1654 000001b8 8F08          MOVL      XAR4,#557056          ; [CPU_U] |720| 
         000001b9 8000 
    1655 000001ba 0646          MOVL      ACC,*-SP[6]           ; [CPU_] |720| 
    1656 000001bb A8AB          MOVL      P,XAR4                ; [CPU_] |720| 
    1657 000001bc CEAB          AND       AL,PL                 ; [CPU_] |720| 
    1658 000001bd CFAA          AND       AH,PH                 ; [CPU_] |720| 
    1659 000001be 0FA4          CMPL      ACC,XAR4              ; [CPU_] |720| 
    1660                      .dwpsn  file "C:/work/grepos/bootrom/Boot_ROM/F2837x_bootROM-REVB/F2837x_bootROM_dev/F2837x_bootROM/c
    1661 000001bf 56B1          MOVB      *-SP[10],#8,EQ        ; [CPU_] |723| 
         000001c0 084A 
    1662                      .dwpsn  file "C:/work/grepos/bootrom/Boot_ROM/F2837x_bootROM-REVB/F2837x_bootROM_dev/F2837x_bootROM/c
    1663 000001c1 6F3F          B         $C$L46,UNC            ; [CPU_] |725| 
    1664                      ; branch occurs ; [] |725| 
    1665 000001c2       $C$L44:    
    1666                      .dwpsn  file "C:/work/grepos/bootrom/Boot_ROM/F2837x_bootROM-REVB/F2837x_bootROM_dev/F2837x_bootROM/c
    1667 000001c2 0646          MOVL      ACC,*-SP[6]           ; [CPU_] |728| 
    1668 000001c3 8F00          MOVL      XAR4,#8192            ; [CPU_U] |728| 
         000001c4 2000 
    1669 000001c5 9B00          MOVB      AH,#0                 ; [CPU_] |728| 
    1670 000001c6 18A9          AND       AL,#0x1fff            ; [CPU_] |728| 
         000001c7 1FFF 
    1671 000001c8 0742          ADDL      ACC,*-SP[2]           ; [CPU_] |728| 
    1672 000001c9 0FA4          CMPL      ACC,XAR4              ; [CPU_] |728| 
    1673 000001ca 6910          B         $C$L45,LOS            ; [CPU_] |728| 
    1674                      ; branchcc occurs ; [] |728| 
    1675                      .dwpsn  file "C:/work/grepos/bootrom/Boot_ROM/F2837x_bootROM-REVB/F2837x_bootROM_dev/F2837x_bootROM/c
    1676 000001cb 1822!         AND       @_DcsmRegsZ2+34,#0xfffe ; [CPU_] |730| 
         000001cc FFFE 
    1677                      .dwpsn  file "C:/work/grepos/bootrom/Boot_ROM/F2837x_bootROM-REVB/F2837x_bootROM_dev/F2837x_bootROM/c
    1678 000001cd 0200          MOVB      ACC,#0                ; [CPU_] |732| 
    1679 000001ce 1E42          MOVL      *-SP[2],ACC           ; [CPU_] |732| 
    1680                      .dwpsn  file "C:/work/grepos/bootrom/Boot_ROM/F2837x_bootROM-REVB/F2837x_bootROM_dev/F2837x_bootROM/c
    1681 000001cf 1E44          MOVL      *-SP[4],ACC           ; [CPU_] |733| 
    1682                      .dwpsn  file "C:/work/grepos/bootrom/Boot_ROM/F2837x_bootROM-REVB/F2837x_bootROM_dev/F2837x_bootROM/c
    1683 000001d0 1E46          MOVL      *-SP[6],ACC           ; [CPU_] |734| 
    1684                      .dwpsn  file "C:/work/grepos/bootrom/Boot_ROM/F2837x_bootROM-REVB/F2837x_bootROM_dev/F2837x_bootROM/c
    1685 000001d1 1E48          MOVL      *-SP[8],ACC           ; [CPU_] |735| 
    1686                      .dwpsn  file "C:/work/grepos/bootrom/Boot_ROM/F2837x_bootROM-REVB/F2837x_bootROM_dev/F2837x_bootROM/c
    1687 000001d2 2849          MOV       *-SP[9],#65535        ; [CPU_] |736| 
         000001d3 FFFF 
    1688                      .dwpsn  file "C:/work/grepos/bootrom/Boot_ROM/F2837x_bootROM-REVB/F2837x_bootROM_dev/F2837x_bootROM/c
    1689 000001d4 284A          MOV       *-SP[10],#65535       ; [CPU_] |737| 
         000001d5 FFFF 
    1690                      .dwpsn  file "C:/work/grepos/bootrom/Boot_ROM/F2837x_bootROM-REVB/F2837x_bootROM_dev/F2837x_bootROM/c
    1691 000001d6 2B4B          MOV       *-SP[11],#0           ; [CPU_] |738| 
    1692                      .dwpsn  file "C:/work/grepos/bootrom/Boot_ROM/F2837x_bootROM-REVB/F2837x_bootROM_dev/F2837x_bootROM/c
    1693 000001d7 9A00          MOVB      AL,#0                 ; [CPU_] |739| 
    1694 000001d8 FFEF          B         $C$L56,UNC            ; [CPU_] |739| 
         000001d9 00E9 
    1695                      ; branch occurs ; [] |739| 
    1696 000001da       $C$L45:    
TMS320C2000 Assembler PC v6.1.3 Thu Jan 30 10:33:25 2014

Tools Copyright (c) 1996-2012 Texas Instruments Incorporated
C:\Users\a0272466\AppData\Local\Temp\0939610                         PAGE   37

    1697                      .dwpsn  file "C:/work/grepos/bootrom/Boot_ROM/F2837x_bootROM-REVB/F2837x_bootROM_dev/F2837x_bootROM/c
    1698 000001da 8F08          MOVL      XAR4,#548864          ; [CPU_U] |741| 
         000001db 6000 
    1699 000001dc 0646          MOVL      ACC,*-SP[6]           ; [CPU_] |741| 
    1700 000001dd A8AB          MOVL      P,XAR4                ; [CPU_] |741| 
    1701 000001de CEAB          AND       AL,PL                 ; [CPU_] |741| 
    1702 000001df CFAA          AND       AH,PH                 ; [CPU_] |741| 
    1703 000001e0 0FA4          CMPL      ACC,XAR4              ; [CPU_] |741| 
    1704                      .dwpsn  file "C:/work/grepos/bootrom/Boot_ROM/F2837x_bootROM-REVB/F2837x_bootROM_dev/F2837x_bootROM/c
    1705 000001e1 56B1          MOVB      *-SP[10],#6,EQ        ; [CPU_] |744| 
         000001e2 064A 
    1706                      .dwpsn  file "C:/work/grepos/bootrom/Boot_ROM/F2837x_bootROM-REVB/F2837x_bootROM_dev/F2837x_bootROM/c
    1707 000001e3 EC1D          BF        $C$L46,EQ             ; [CPU_] |745| 
    1708                      ; branchcc occurs ; [] |745| 
    1709                      .dwpsn  file "C:/work/grepos/bootrom/Boot_ROM/F2837x_bootROM-REVB/F2837x_bootROM_dev/F2837x_bootROM/c
    1710 000001e4 8F08          MOVL      XAR4,#540672          ; [CPU_U] |746| 
         000001e5 4000 
    1711 000001e6 0646          MOVL      ACC,*-SP[6]           ; [CPU_] |746| 
    1712 000001e7 A8AB          MOVL      P,XAR4                ; [CPU_] |746| 
    1713 000001e8 CEAB          AND       AL,PL                 ; [CPU_] |746| 
    1714 000001e9 CFAA          AND       AH,PH                 ; [CPU_] |746| 
    1715 000001ea 0FA4          CMPL      ACC,XAR4              ; [CPU_] |746| 
    1716                      .dwpsn  file "C:/work/grepos/bootrom/Boot_ROM/F2837x_bootROM-REVB/F2837x_bootROM_dev/F2837x_bootROM/c
    1717 000001eb 56B1          MOVB      *-SP[10],#4,EQ        ; [CPU_] |749| 
         000001ec 044A 
    1718                      .dwpsn  file "C:/work/grepos/bootrom/Boot_ROM/F2837x_bootROM-REVB/F2837x_bootROM_dev/F2837x_bootROM/c
    1719 000001ed EC13          BF        $C$L46,EQ             ; [CPU_] |750| 
    1720                      ; branchcc occurs ; [] |750| 
    1721                      .dwpsn  file "C:/work/grepos/bootrom/Boot_ROM/F2837x_bootROM-REVB/F2837x_bootROM_dev/F2837x_bootROM/c
    1722 000001ee 8F08          MOVL      XAR4,#532480          ; [CPU_U] |751| 
         000001ef 2000 
    1723 000001f0 0646          MOVL      ACC,*-SP[6]           ; [CPU_] |751| 
    1724 000001f1 A8AB          MOVL      P,XAR4                ; [CPU_] |751| 
    1725 000001f2 CEAB          AND       AL,PL                 ; [CPU_] |751| 
    1726 000001f3 CFAA          AND       AH,PH                 ; [CPU_] |751| 
    1727 000001f4 0FA4          CMPL      ACC,XAR4              ; [CPU_] |751| 
    1728                      .dwpsn  file "C:/work/grepos/bootrom/Boot_ROM/F2837x_bootROM-REVB/F2837x_bootROM_dev/F2837x_bootROM/c
    1729 000001f5 56B1          MOVB      *-SP[10],#2,EQ        ; [CPU_] |754| 
         000001f6 024A 
    1730                      .dwpsn  file "C:/work/grepos/bootrom/Boot_ROM/F2837x_bootROM-REVB/F2837x_bootROM_dev/F2837x_bootROM/c
    1731 000001f7 EC09          BF        $C$L46,EQ             ; [CPU_] |755| 
    1732                      ; branchcc occurs ; [] |755| 
    1733                      .dwpsn  file "C:/work/grepos/bootrom/Boot_ROM/F2837x_bootROM-REVB/F2837x_bootROM_dev/F2837x_bootROM/c
    1734 000001f8 0646          MOVL      ACC,*-SP[6]           ; [CPU_] |756| 
    1735 000001f9 8F08          MOVL      XAR4,#524288          ; [CPU_U] |756| 
         000001fa 0000 
    1736 000001fb 5608          AND       ACC,#8 << 16          ; [CPU_] |756| 
         000001fc 0008 
    1737 000001fd 0FA4          CMPL      ACC,XAR4              ; [CPU_] |756| 
    1738 000001fe ED02          BF        $C$L46,NEQ            ; [CPU_] |756| 
    1739                      ; branchcc occurs ; [] |756| 
    1740                      .dwpsn  file "C:/work/grepos/bootrom/Boot_ROM/F2837x_bootROM-REVB/F2837x_bootROM_dev/F2837x_bootROM/c
    1741 000001ff 2B4A          MOV       *-SP[10],#0           ; [CPU_] |759| 
    1742 00000200       $C$L46:    
    1743                      .dwpsn  file "C:/work/grepos/bootrom/Boot_ROM/F2837x_bootROM-REVB/F2837x_bootROM_dev/F2837x_bootROM/c
TMS320C2000 Assembler PC v6.1.3 Thu Jan 30 10:33:25 2014

Tools Copyright (c) 1996-2012 Texas Instruments Incorporated
C:\Users\a0272466\AppData\Local\Temp\0939610                         PAGE   38

    1744 00000200 1B4A          CMP       *-SP[10],#65535       ; [CPU_] |763| 
         00000201 FFFF 
    1745 00000202 EC04          BF        $C$L47,EQ             ; [CPU_] |763| 
    1746                      ; branchcc occurs ; [] |763| 
    1747 00000203 1B49          CMP       *-SP[9],#65535        ; [CPU_] |763| 
         00000204 FFFF 
    1748 00000205 ED12          BF        $C$L48,NEQ            ; [CPU_] |763| 
    1749                      ; branchcc occurs ; [] |763| 
    1750 00000206       $C$L47:    
    1751                      .dwpsn  file "C:/work/grepos/bootrom/Boot_ROM/F2837x_bootROM-REVB/F2837x_bootROM_dev/F2837x_bootROM/c
    1752 00000206 761F!         MOVW      DP,#_DcsmRegsZ2+34    ; [CPU_U] 
         00000207 0000 
    1753 00000208 1822!         AND       @_DcsmRegsZ2+34,#0xfffe ; [CPU_] |765| 
         00000209 FFFE 
    1754                      .dwpsn  file "C:/work/grepos/bootrom/Boot_ROM/F2837x_bootROM-REVB/F2837x_bootROM_dev/F2837x_bootROM/c
    1755 0000020a 0200          MOVB      ACC,#0                ; [CPU_] |767| 
    1756 0000020b 1E42          MOVL      *-SP[2],ACC           ; [CPU_] |767| 
    1757                      .dwpsn  file "C:/work/grepos/bootrom/Boot_ROM/F2837x_bootROM-REVB/F2837x_bootROM_dev/F2837x_bootROM/c
    1758 0000020c 1E44          MOVL      *-SP[4],ACC           ; [CPU_] |768| 
    1759                      .dwpsn  file "C:/work/grepos/bootrom/Boot_ROM/F2837x_bootROM-REVB/F2837x_bootROM_dev/F2837x_bootROM/c
    1760 0000020d 1E46          MOVL      *-SP[6],ACC           ; [CPU_] |769| 
    1761                      .dwpsn  file "C:/work/grepos/bootrom/Boot_ROM/F2837x_bootROM-REVB/F2837x_bootROM_dev/F2837x_bootROM/c
    1762 0000020e 1E48          MOVL      *-SP[8],ACC           ; [CPU_] |770| 
    1763                      .dwpsn  file "C:/work/grepos/bootrom/Boot_ROM/F2837x_bootROM-REVB/F2837x_bootROM_dev/F2837x_bootROM/c
    1764 0000020f 2849          MOV       *-SP[9],#65535        ; [CPU_] |771| 
         00000210 FFFF 
    1765                      .dwpsn  file "C:/work/grepos/bootrom/Boot_ROM/F2837x_bootROM-REVB/F2837x_bootROM_dev/F2837x_bootROM/c
    1766 00000211 284A          MOV       *-SP[10],#65535       ; [CPU_] |772| 
         00000212 FFFF 
    1767                      .dwpsn  file "C:/work/grepos/bootrom/Boot_ROM/F2837x_bootROM-REVB/F2837x_bootROM_dev/F2837x_bootROM/c
    1768 00000213 2B4B          MOV       *-SP[11],#0           ; [CPU_] |773| 
    1769                      .dwpsn  file "C:/work/grepos/bootrom/Boot_ROM/F2837x_bootROM-REVB/F2837x_bootROM_dev/F2837x_bootROM/c
    1770 00000214 9A00          MOVB      AL,#0                 ; [CPU_] |774| 
    1771 00000215 FFEF          B         $C$L56,UNC            ; [CPU_] |774| 
         00000216 00AC 
    1772                      ; branch occurs ; [] |774| 
    1773 00000217       $C$L48:    
    1774                      .dwpsn  file "C:/work/grepos/bootrom/Boot_ROM/F2837x_bootROM-REVB/F2837x_bootROM_dev/F2837x_bootROM/c
    1775 00000217 0203          MOVB      ACC,#3                ; [CPU_] |778| 
    1776 00000218 2D4A          MOV       T,*-SP[10]            ; [CPU_] |778| 
    1777 00000219 761F!         MOVW      DP,#_DcsmRegsCommon+2 ; [CPU_U] 
         0000021a 0000 
    1778 0000021b BE02          MOVB      XAR6,#2               ; [CPU_] |778| 
    1779 0000021c 563B          LSLL      ACC,T                 ; [CPU_] |778| 
    1780 0000021d CE02!         AND       AL,@_DcsmRegsCommon+2 ; [CPU_] |778| 
    1781 0000021e CF03!         AND       AH,@_DcsmRegsCommon+3 ; [CPU_] |778| 
    1782 0000021f 5622          LSRL      ACC,T                 ; [CPU_] |778| 
    1783 00000220 0FA6          CMPL      ACC,XAR6              ; [CPU_] |778| 
    1784 00000221 EC12          BF        $C$L49,EQ             ; [CPU_] |778| 
    1785                      ; branchcc occurs ; [] |778| 
    1786                      .dwpsn  file "C:/work/grepos/bootrom/Boot_ROM/F2837x_bootROM-REVB/F2837x_bootROM_dev/F2837x_bootROM/c
    1787 00000222 761F!         MOVW      DP,#_DcsmRegsZ2+34    ; [CPU_U] 
         00000223 0000 
    1788 00000224 1822!         AND       @_DcsmRegsZ2+34,#0xfffe ; [CPU_] |780| 
         00000225 FFFE 
TMS320C2000 Assembler PC v6.1.3 Thu Jan 30 10:33:25 2014

Tools Copyright (c) 1996-2012 Texas Instruments Incorporated
C:\Users\a0272466\AppData\Local\Temp\0939610                         PAGE   39

    1789                      .dwpsn  file "C:/work/grepos/bootrom/Boot_ROM/F2837x_bootROM-REVB/F2837x_bootROM_dev/F2837x_bootROM/c
    1790 00000226 0200          MOVB      ACC,#0                ; [CPU_] |782| 
    1791 00000227 1E42          MOVL      *-SP[2],ACC           ; [CPU_] |782| 
    1792                      .dwpsn  file "C:/work/grepos/bootrom/Boot_ROM/F2837x_bootROM-REVB/F2837x_bootROM_dev/F2837x_bootROM/c
    1793 00000228 1E44          MOVL      *-SP[4],ACC           ; [CPU_] |783| 
    1794                      .dwpsn  file "C:/work/grepos/bootrom/Boot_ROM/F2837x_bootROM-REVB/F2837x_bootROM_dev/F2837x_bootROM/c
    1795 00000229 1E46          MOVL      *-SP[6],ACC           ; [CPU_] |784| 
    1796                      .dwpsn  file "C:/work/grepos/bootrom/Boot_ROM/F2837x_bootROM-REVB/F2837x_bootROM_dev/F2837x_bootROM/c
    1797 0000022a 1E48          MOVL      *-SP[8],ACC           ; [CPU_] |785| 
    1798                      .dwpsn  file "C:/work/grepos/bootrom/Boot_ROM/F2837x_bootROM-REVB/F2837x_bootROM_dev/F2837x_bootROM/c
    1799 0000022b 2849          MOV       *-SP[9],#65535        ; [CPU_] |786| 
         0000022c FFFF 
    1800                      .dwpsn  file "C:/work/grepos/bootrom/Boot_ROM/F2837x_bootROM-REVB/F2837x_bootROM_dev/F2837x_bootROM/c
    1801 0000022d 284A          MOV       *-SP[10],#65535       ; [CPU_] |787| 
         0000022e FFFF 
    1802                      .dwpsn  file "C:/work/grepos/bootrom/Boot_ROM/F2837x_bootROM-REVB/F2837x_bootROM_dev/F2837x_bootROM/c
    1803 0000022f 2B4B          MOV       *-SP[11],#0           ; [CPU_] |788| 
    1804                      .dwpsn  file "C:/work/grepos/bootrom/Boot_ROM/F2837x_bootROM-REVB/F2837x_bootROM_dev/F2837x_bootROM/c
    1805 00000230 9A00          MOVB      AL,#0                 ; [CPU_] |789| 
    1806 00000231 FFEF          B         $C$L56,UNC            ; [CPU_] |789| 
         00000232 0090 
    1807                      ; branch occurs ; [] |789| 
    1808 00000233       $C$L49:    
    1809                      .dwpsn  file "C:/work/grepos/bootrom/Boot_ROM/F2837x_bootROM-REVB/F2837x_bootROM_dev/F2837x_bootROM/c
    1810 00000233 0203          MOVB      ACC,#3                ; [CPU_] |792| 
    1811 00000234 2D49          MOV       T,*-SP[9]             ; [CPU_] |792| 
    1812 00000235 563B          LSLL      ACC,T                 ; [CPU_] |792| 
    1813 00000236 CE04!         AND       AL,@_DcsmRegsCommon+4 ; [CPU_] |792| 
    1814 00000237 CF05!         AND       AH,@_DcsmRegsCommon+5 ; [CPU_] |792| 
    1815 00000238 5622          LSRL      ACC,T                 ; [CPU_] |792| 
    1816 00000239 0FA6          CMPL      ACC,XAR6              ; [CPU_] |792| 
    1817 0000023a EC11          BF        $C$L50,EQ             ; [CPU_] |792| 
    1818                      ; branchcc occurs ; [] |792| 
    1819                      .dwpsn  file "C:/work/grepos/bootrom/Boot_ROM/F2837x_bootROM-REVB/F2837x_bootROM_dev/F2837x_bootROM/c
    1820 0000023b 761F!         MOVW      DP,#_DcsmRegsZ2+34    ; [CPU_U] 
         0000023c 0000 
    1821 0000023d 1822!         AND       @_DcsmRegsZ2+34,#0xfffe ; [CPU_] |794| 
         0000023e FFFE 
    1822                      .dwpsn  file "C:/work/grepos/bootrom/Boot_ROM/F2837x_bootROM-REVB/F2837x_bootROM_dev/F2837x_bootROM/c
    1823 0000023f 0200          MOVB      ACC,#0                ; [CPU_] |796| 
    1824 00000240 1E42          MOVL      *-SP[2],ACC           ; [CPU_] |796| 
    1825                      .dwpsn  file "C:/work/grepos/bootrom/Boot_ROM/F2837x_bootROM-REVB/F2837x_bootROM_dev/F2837x_bootROM/c
    1826 00000241 1E44          MOVL      *-SP[4],ACC           ; [CPU_] |797| 
    1827                      .dwpsn  file "C:/work/grepos/bootrom/Boot_ROM/F2837x_bootROM-REVB/F2837x_bootROM_dev/F2837x_bootROM/c
    1828 00000242 1E46          MOVL      *-SP[6],ACC           ; [CPU_] |798| 
    1829                      .dwpsn  file "C:/work/grepos/bootrom/Boot_ROM/F2837x_bootROM-REVB/F2837x_bootROM_dev/F2837x_bootROM/c
    1830 00000243 1E48          MOVL      *-SP[8],ACC           ; [CPU_] |799| 
    1831                      .dwpsn  file "C:/work/grepos/bootrom/Boot_ROM/F2837x_bootROM-REVB/F2837x_bootROM_dev/F2837x_bootROM/c
    1832 00000244 2849          MOV       *-SP[9],#65535        ; [CPU_] |800| 
         00000245 FFFF 
    1833                      .dwpsn  file "C:/work/grepos/bootrom/Boot_ROM/F2837x_bootROM-REVB/F2837x_bootROM_dev/F2837x_bootROM/c
    1834 00000246 284A          MOV       *-SP[10],#65535       ; [CPU_] |801| 
         00000247 FFFF 
    1835                      .dwpsn  file "C:/work/grepos/bootrom/Boot_ROM/F2837x_bootROM-REVB/F2837x_bootROM_dev/F2837x_bootROM/c
    1836 00000248 2B4B          MOV       *-SP[11],#0           ; [CPU_] |802| 
TMS320C2000 Assembler PC v6.1.3 Thu Jan 30 10:33:25 2014

Tools Copyright (c) 1996-2012 Texas Instruments Incorporated
C:\Users\a0272466\AppData\Local\Temp\0939610                         PAGE   40

    1837                      .dwpsn  file "C:/work/grepos/bootrom/Boot_ROM/F2837x_bootROM-REVB/F2837x_bootROM_dev/F2837x_bootROM/c
    1838 00000249 9A00          MOVB      AL,#0                 ; [CPU_] |803| 
    1839 0000024a 6F77          B         $C$L56,UNC            ; [CPU_] |803| 
    1840                      ; branch occurs ; [] |803| 
    1841 0000024b       $C$L50:    
    1842                      .dwpsn  file "C:/work/grepos/bootrom/Boot_ROM/F2837x_bootROM-REVB/F2837x_bootROM_dev/F2837x_bootROM/c
    1843 0000024b 924A          MOV       AL,*-SP[10]           ; [CPU_] |809| 
    1844 0000024c 28AB          MOV       PL,#1                 ; [CPU_] |809| 
         0000024d 0001 
    1845 0000024e 2BAA          MOV       PH,#0                 ; [CPU_] |809| 
    1846 0000024f FFC0          LSR       AL,1                  ; [CPU_] |809| 
    1847 00000250 761F!         MOVW      DP,#_DcsmRegsZ2+30    ; [CPU_U] 
         00000251 0000 
    1848 00000252 2DA9          MOV       T,AL                  ; [CPU_] |809| 
    1849 00000253 A9A9          MOVL      ACC,P                 ; [CPU_] |809| 
    1850 00000254 563B          LSLL      ACC,T                 ; [CPU_] |809| 
    1851 00000255 FF5A          MOVL      P,ACC                 ; [CPU_] |809| 
    1852 00000256 92AB          MOV       AL,PL                 ; [CPU_] |809| 
    1853 00000257 93AA          MOV       AH,PH                 ; [CPU_] |809| 
    1854 00000258 CE1E!         AND       AL,@_DcsmRegsZ2+30    ; [CPU_] |809| 
    1855 00000259 27A9          MOV       PL,AL                 ; [CPU_] |809| 
    1856 0000025a CF1F!         AND       AH,@_DcsmRegsZ2+31    ; [CPU_] |809| 
    1857 0000025b 2FA8          MOV       PH,AH                 ; [CPU_] |809| 
    1858 0000025c A9A9          MOVL      ACC,P                 ; [CPU_] |809| 
    1859 0000025d EC0F          BF        $C$L51,EQ             ; [CPU_] |809| 
    1860                      ; branchcc occurs ; [] |809| 
    1861                      .dwpsn  file "C:/work/grepos/bootrom/Boot_ROM/F2837x_bootROM-REVB/F2837x_bootROM_dev/F2837x_bootROM/c
    1862 0000025e 1822!         AND       @_DcsmRegsZ2+34,#0xfffe ; [CPU_] |811| 
         0000025f FFFE 
    1863                      .dwpsn  file "C:/work/grepos/bootrom/Boot_ROM/F2837x_bootROM-REVB/F2837x_bootROM_dev/F2837x_bootROM/c
    1864 00000260 0200          MOVB      ACC,#0                ; [CPU_] |813| 
    1865 00000261 1E42          MOVL      *-SP[2],ACC           ; [CPU_] |813| 
    1866                      .dwpsn  file "C:/work/grepos/bootrom/Boot_ROM/F2837x_bootROM-REVB/F2837x_bootROM_dev/F2837x_bootROM/c
    1867 00000262 1E44          MOVL      *-SP[4],ACC           ; [CPU_] |814| 
    1868                      .dwpsn  file "C:/work/grepos/bootrom/Boot_ROM/F2837x_bootROM-REVB/F2837x_bootROM_dev/F2837x_bootROM/c
    1869 00000263 1E46          MOVL      *-SP[6],ACC           ; [CPU_] |815| 
    1870                      .dwpsn  file "C:/work/grepos/bootrom/Boot_ROM/F2837x_bootROM-REVB/F2837x_bootROM_dev/F2837x_bootROM/c
    1871 00000264 1E48          MOVL      *-SP[8],ACC           ; [CPU_] |816| 
    1872                      .dwpsn  file "C:/work/grepos/bootrom/Boot_ROM/F2837x_bootROM-REVB/F2837x_bootROM_dev/F2837x_bootROM/c
    1873 00000265 2849          MOV       *-SP[9],#65535        ; [CPU_] |817| 
         00000266 FFFF 
    1874                      .dwpsn  file "C:/work/grepos/bootrom/Boot_ROM/F2837x_bootROM-REVB/F2837x_bootROM_dev/F2837x_bootROM/c
    1875 00000267 284A          MOV       *-SP[10],#65535       ; [CPU_] |818| 
         00000268 FFFF 
    1876                      .dwpsn  file "C:/work/grepos/bootrom/Boot_ROM/F2837x_bootROM-REVB/F2837x_bootROM_dev/F2837x_bootROM/c
    1877 00000269 2B4B          MOV       *-SP[11],#0           ; [CPU_] |819| 
    1878                      .dwpsn  file "C:/work/grepos/bootrom/Boot_ROM/F2837x_bootROM-REVB/F2837x_bootROM_dev/F2837x_bootROM/c
    1879 0000026a 9A00          MOVB      AL,#0                 ; [CPU_] |820| 
    1880 0000026b 6F56          B         $C$L56,UNC            ; [CPU_] |820| 
    1881                      ; branch occurs ; [] |820| 
    1882 0000026c       $C$L51:    
    1883                      .dwpsn  file "C:/work/grepos/bootrom/Boot_ROM/F2837x_bootROM-REVB/F2837x_bootROM_dev/F2837x_bootROM/c
    1884 0000026c 9249          MOV       AL,*-SP[9]            ; [CPU_] |824| 
    1885 0000026d 28AB          MOV       PL,#1                 ; [CPU_] |824| 
         0000026e 0001 
TMS320C2000 Assembler PC v6.1.3 Thu Jan 30 10:33:25 2014

Tools Copyright (c) 1996-2012 Texas Instruments Incorporated
C:\Users\a0272466\AppData\Local\Temp\0939610                         PAGE   41

    1886 0000026f 2BAA          MOV       PH,#0                 ; [CPU_] |824| 
    1887 00000270 FFC0          LSR       AL,1                  ; [CPU_] |824| 
    1888 00000271 2DA9          MOV       T,AL                  ; [CPU_] |824| 
    1889 00000272 A9A9          MOVL      ACC,P                 ; [CPU_] |824| 
    1890 00000273 563B          LSLL      ACC,T                 ; [CPU_] |824| 
    1891 00000274 FF5A          MOVL      P,ACC                 ; [CPU_] |824| 
    1892 00000275 92AB          MOV       AL,PL                 ; [CPU_] |824| 
    1893 00000276 93AA          MOV       AH,PH                 ; [CPU_] |824| 
    1894 00000277 CE20!         AND       AL,@_DcsmRegsZ2+32    ; [CPU_] |824| 
    1895 00000278 27A9          MOV       PL,AL                 ; [CPU_] |824| 
    1896 00000279 CF21!         AND       AH,@_DcsmRegsZ2+33    ; [CPU_] |824| 
    1897 0000027a 2FA8          MOV       PH,AH                 ; [CPU_] |824| 
    1898 0000027b A9A9          MOVL      ACC,P                 ; [CPU_] |824| 
    1899 0000027c EC0F          BF        $C$L52,EQ             ; [CPU_] |824| 
    1900                      ; branchcc occurs ; [] |824| 
    1901                      .dwpsn  file "C:/work/grepos/bootrom/Boot_ROM/F2837x_bootROM-REVB/F2837x_bootROM_dev/F2837x_bootROM/c
    1902 0000027d 1822!         AND       @_DcsmRegsZ2+34,#0xfffe ; [CPU_] |826| 
         0000027e FFFE 
    1903                      .dwpsn  file "C:/work/grepos/bootrom/Boot_ROM/F2837x_bootROM-REVB/F2837x_bootROM_dev/F2837x_bootROM/c
    1904 0000027f 0200          MOVB      ACC,#0                ; [CPU_] |828| 
    1905 00000280 1E42          MOVL      *-SP[2],ACC           ; [CPU_] |828| 
    1906                      .dwpsn  file "C:/work/grepos/bootrom/Boot_ROM/F2837x_bootROM-REVB/F2837x_bootROM_dev/F2837x_bootROM/c
    1907 00000281 1E44          MOVL      *-SP[4],ACC           ; [CPU_] |829| 
    1908                      .dwpsn  file "C:/work/grepos/bootrom/Boot_ROM/F2837x_bootROM-REVB/F2837x_bootROM_dev/F2837x_bootROM/c
    1909 00000282 1E46          MOVL      *-SP[6],ACC           ; [CPU_] |830| 
    1910                      .dwpsn  file "C:/work/grepos/bootrom/Boot_ROM/F2837x_bootROM-REVB/F2837x_bootROM_dev/F2837x_bootROM/c
    1911 00000283 1E48          MOVL      *-SP[8],ACC           ; [CPU_] |831| 
    1912                      .dwpsn  file "C:/work/grepos/bootrom/Boot_ROM/F2837x_bootROM-REVB/F2837x_bootROM_dev/F2837x_bootROM/c
    1913 00000284 2849          MOV       *-SP[9],#65535        ; [CPU_] |832| 
         00000285 FFFF 
    1914                      .dwpsn  file "C:/work/grepos/bootrom/Boot_ROM/F2837x_bootROM-REVB/F2837x_bootROM_dev/F2837x_bootROM/c
    1915 00000286 284A          MOV       *-SP[10],#65535       ; [CPU_] |833| 
         00000287 FFFF 
    1916                      .dwpsn  file "C:/work/grepos/bootrom/Boot_ROM/F2837x_bootROM-REVB/F2837x_bootROM_dev/F2837x_bootROM/c
    1917 00000288 2B4B          MOV       *-SP[11],#0           ; [CPU_] |834| 
    1918                      .dwpsn  file "C:/work/grepos/bootrom/Boot_ROM/F2837x_bootROM-REVB/F2837x_bootROM_dev/F2837x_bootROM/c
    1919 00000289 9A00          MOVB      AL,#0                 ; [CPU_] |835| 
    1920 0000028a 6F37          B         $C$L56,UNC            ; [CPU_] |835| 
    1921                      ; branch occurs ; [] |835| 
    1922 0000028b       $C$L52:    
    1923                      .dwpsn  file "C:/work/grepos/bootrom/Boot_ROM/F2837x_bootROM-REVB/F2837x_bootROM_dev/F2837x_bootROM/c
    1924 0000028b 0642          MOVL      ACC,*-SP[2]           ; [CPU_] |838| 
    1925 0000028c EC27          BF        $C$L55,EQ             ; [CPU_] |838| 
    1926                      ; branchcc occurs ; [] |838| 
    1927 0000028d       $C$L53:    
    1928 0000028d       $C$DW$L$_SafeCopyCodeZ2$72$B:
    1929                      .dwpsn  file "C:/work/grepos/bootrom/Boot_ROM/F2837x_bootROM-REVB/F2837x_bootROM_dev/F2837x_bootROM/c
    1930 0000028d 8A46          MOVL      XAR4,*-SP[6]          ; [CPU_] |845| 
    1931 0000028e 8344          MOVL      XAR5,*-SP[4]          ; [CPU_] |845| 
    1932 0000028f 9284          MOV       AL,*XAR4++            ; [CPU_] |845| 
    1933 00000290 C4A5          MOVL      XAR6,XAR5             ; [CPU_] |845| 
    1934 00000291 DE01          ADDB      XAR6,#1               ; [CPU_U] |845| 
    1935 00000292 C244          MOVL      *-SP[4],XAR6          ; [CPU_] |845| 
    1936 00000293 A846          MOVL      *-SP[6],XAR4          ; [CPU_] |845| 
    1937 00000294 96C5          MOV       *+XAR5[0],AL          ; [CPU_] |845| 
TMS320C2000 Assembler PC v6.1.3 Thu Jan 30 10:33:25 2014

Tools Copyright (c) 1996-2012 Texas Instruments Incorporated
C:\Users\a0272466\AppData\Local\Temp\0939610                         PAGE   42

    1938                      .dwpsn  file "C:/work/grepos/bootrom/Boot_ROM/F2837x_bootROM-REVB/F2837x_bootROM_dev/F2837x_bootROM/c
    1939 00000295 1B4B          CMP       *-SP[11],#64095       ; [CPU_] |847| 
         00000296 FA5F 
    1940 00000297 EC15          BF        $C$L54,EQ             ; [CPU_] |847| 
    1941                      ; branchcc occurs ; [] |847| 
    1942 00000298       $C$DW$L$_SafeCopyCodeZ2$72$E:
    1943                      .dwpsn  file "C:/work/grepos/bootrom/Boot_ROM/F2837x_bootROM-REVB/F2837x_bootROM_dev/F2837x_bootROM/c
    1944 00000298 8A44          MOVL      XAR4,*-SP[4]          ; [CPU_] |850| 
    1945 00000299 DC81          SUBB      XAR4,#1               ; [CPU_U] |850| 
    1946 0000029a A844          MOVL      *-SP[4],XAR4          ; [CPU_] |850| 
    1947 0000029b 2BC4          MOV       *+XAR4[0],#0          ; [CPU_] |850| 
    1948                      .dwpsn  file "C:/work/grepos/bootrom/Boot_ROM/F2837x_bootROM-REVB/F2837x_bootROM_dev/F2837x_bootROM/c
    1949 0000029c 761F!         MOVW      DP,#_DcsmRegsZ2+34    ; [CPU_U] 
         0000029d 0000 
    1950 0000029e 1822!         AND       @_DcsmRegsZ2+34,#0xfffe ; [CPU_] |852| 
         0000029f FFFE 
    1951                      .dwpsn  file "C:/work/grepos/bootrom/Boot_ROM/F2837x_bootROM-REVB/F2837x_bootROM_dev/F2837x_bootROM/c
    1952 000002a0 0200          MOVB      ACC,#0                ; [CPU_] |854| 
    1953 000002a1 1E42          MOVL      *-SP[2],ACC           ; [CPU_] |854| 
    1954                      .dwpsn  file "C:/work/grepos/bootrom/Boot_ROM/F2837x_bootROM-REVB/F2837x_bootROM_dev/F2837x_bootROM/c
    1955 000002a2 1E44          MOVL      *-SP[4],ACC           ; [CPU_] |855| 
    1956                      .dwpsn  file "C:/work/grepos/bootrom/Boot_ROM/F2837x_bootROM-REVB/F2837x_bootROM_dev/F2837x_bootROM/c
    1957 000002a3 1E46          MOVL      *-SP[6],ACC           ; [CPU_] |856| 
    1958                      .dwpsn  file "C:/work/grepos/bootrom/Boot_ROM/F2837x_bootROM-REVB/F2837x_bootROM_dev/F2837x_bootROM/c
    1959 000002a4 1E48          MOVL      *-SP[8],ACC           ; [CPU_] |857| 
    1960                      .dwpsn  file "C:/work/grepos/bootrom/Boot_ROM/F2837x_bootROM-REVB/F2837x_bootROM_dev/F2837x_bootROM/c
    1961 000002a5 2849          MOV       *-SP[9],#65535        ; [CPU_] |858| 
         000002a6 FFFF 
    1962                      .dwpsn  file "C:/work/grepos/bootrom/Boot_ROM/F2837x_bootROM-REVB/F2837x_bootROM_dev/F2837x_bootROM/c
    1963 000002a7 284A          MOV       *-SP[10],#65535       ; [CPU_] |859| 
         000002a8 FFFF 
    1964                      .dwpsn  file "C:/work/grepos/bootrom/Boot_ROM/F2837x_bootROM-REVB/F2837x_bootROM_dev/F2837x_bootROM/c
    1965 000002a9 2B4B          MOV       *-SP[11],#0           ; [CPU_] |860| 
    1966                      .dwpsn  file "C:/work/grepos/bootrom/Boot_ROM/F2837x_bootROM-REVB/F2837x_bootROM_dev/F2837x_bootROM/c
    1967 000002aa 9A00          MOVB      AL,#0                 ; [CPU_] |861| 
    1968 000002ab 6F16          B         $C$L56,UNC            ; [CPU_] |861| 
    1969                      ; branch occurs ; [] |861| 
    1970 000002ac       $C$L54:    
    1971 000002ac       $C$DW$L$_SafeCopyCodeZ2$74$B:
    1972                      .dwpsn  file "C:/work/grepos/bootrom/Boot_ROM/F2837x_bootROM-REVB/F2837x_bootROM_dev/F2837x_bootROM/c
    1973 000002ac 0201          MOVB      ACC,#1                ; [CPU_] |863| 
    1974 000002ad 5641          SUBL      *-SP[2],ACC           ; [CPU_] |863| 
         000002ae 0042 
    1975                      .dwpsn  file "C:/work/grepos/bootrom/Boot_ROM/F2837x_bootROM-REVB/F2837x_bootROM_dev/F2837x_bootROM/c
    1976 000002af 0748          ADDL      ACC,*-SP[8]           ; [CPU_] |864| 
    1977 000002b0 1E48          MOVL      *-SP[8],ACC           ; [CPU_] |864| 
    1978                      .dwpsn  file "C:/work/grepos/bootrom/Boot_ROM/F2837x_bootROM-REVB/F2837x_bootROM_dev/F2837x_bootROM/c
    1979 000002b1 0642          MOVL      ACC,*-SP[2]           ; [CPU_] |838| 
    1980 000002b2 EDDB          BF        $C$L53,NEQ            ; [CPU_] |838| 
    1981                      ; branchcc occurs ; [] |838| 
    1982 000002b3       $C$DW$L$_SafeCopyCodeZ2$74$E:
    1983 000002b3       $C$L55:    
    1984                      .dwpsn  file "C:/work/grepos/bootrom/Boot_ROM/F2837x_bootROM-REVB/F2837x_bootROM_dev/F2837x_bootROM/c
    1985 000002b3 761F!         MOVW      DP,#_DcsmRegsZ2+34    ; [CPU_U] 
         000002b4 0000 
TMS320C2000 Assembler PC v6.1.3 Thu Jan 30 10:33:25 2014

Tools Copyright (c) 1996-2012 Texas Instruments Incorporated
C:\Users\a0272466\AppData\Local\Temp\0939610                         PAGE   43

    1986 000002b5 1822!         AND       @_DcsmRegsZ2+34,#0xfffe ; [CPU_] |868| 
         000002b6 FFFE 
    1987                      .dwpsn  file "C:/work/grepos/bootrom/Boot_ROM/F2837x_bootROM-REVB/F2837x_bootROM_dev/F2837x_bootROM/c
    1988 000002b7 0200          MOVB      ACC,#0                ; [CPU_] |870| 
    1989 000002b8 1E42          MOVL      *-SP[2],ACC           ; [CPU_] |870| 
    1990                      .dwpsn  file "C:/work/grepos/bootrom/Boot_ROM/F2837x_bootROM-REVB/F2837x_bootROM_dev/F2837x_bootROM/c
    1991 000002b9 1E44          MOVL      *-SP[4],ACC           ; [CPU_] |871| 
    1992                      .dwpsn  file "C:/work/grepos/bootrom/Boot_ROM/F2837x_bootROM-REVB/F2837x_bootROM_dev/F2837x_bootROM/c
    1993 000002ba 1E46          MOVL      *-SP[6],ACC           ; [CPU_] |872| 
    1994                      .dwpsn  file "C:/work/grepos/bootrom/Boot_ROM/F2837x_bootROM-REVB/F2837x_bootROM_dev/F2837x_bootROM/c
    1995 000002bb 2849          MOV       *-SP[9],#65535        ; [CPU_] |873| 
         000002bc FFFF 
    1996                      .dwpsn  file "C:/work/grepos/bootrom/Boot_ROM/F2837x_bootROM-REVB/F2837x_bootROM_dev/F2837x_bootROM/c
    1997 000002bd 284A          MOV       *-SP[10],#65535       ; [CPU_] |874| 
         000002be FFFF 
    1998                      .dwpsn  file "C:/work/grepos/bootrom/Boot_ROM/F2837x_bootROM-REVB/F2837x_bootROM_dev/F2837x_bootROM/c
    1999 000002bf 2B4B          MOV       *-SP[11],#0           ; [CPU_] |875| 
    2000                      .dwpsn  file "C:/work/grepos/bootrom/Boot_ROM/F2837x_bootROM-REVB/F2837x_bootROM_dev/F2837x_bootROM/c
    2001 000002c0 9248          MOV       AL,*-SP[8]            ; [CPU_] |876| 
    2002 000002c1       $C$L56:    
    2003                      .dwpsn  file "C:/work/grepos/bootrom/Boot_ROM/F2837x_bootROM-REVB/F2837x_bootROM_dev/F2837x_bootROM/c
    2004 000002c1 FE8C          SUBB      SP,#12                ; [CPU_U] 
    2005                      .dwcfi  cfa_offset, -2
    2006              $C$DW$38        .dwtag  DW_TAG_TI_branch
    2007                      .dwattr $C$DW$38, DW_AT_low_pc(0x00)
    2008                      .dwattr $C$DW$38, DW_AT_TI_return
    2009 000002c2 0006          LRETR     ; [CPU_] 
    2010                      ; return occurs ; [] 
    2011              
    2012              $C$DW$39        .dwtag  DW_TAG_TI_loop
    2013                      .dwattr $C$DW$39, DW_AT_name("C:\\Users\\a0272466\\AppData\\Local\\Temp\\0939610:$C$L53:1:1391099602"
    2014                      .dwattr $C$DW$39, DW_AT_TI_begin_file("C:/work/grepos/bootrom/Boot_ROM/F2837x_bootROM-REVB/F2837x_boo
    2015                      .dwattr $C$DW$39, DW_AT_TI_begin_line(0x346)
    2016                      .dwattr $C$DW$39, DW_AT_TI_end_line(0x361)
    2017              $C$DW$40        .dwtag  DW_TAG_TI_loop_range
    2018                      .dwattr $C$DW$40, DW_AT_low_pc($C$DW$L$_SafeCopyCodeZ2$72$B)
    2019                      .dwattr $C$DW$40, DW_AT_high_pc($C$DW$L$_SafeCopyCodeZ2$72$E)
    2020              $C$DW$41        .dwtag  DW_TAG_TI_loop_range
    2021                      .dwattr $C$DW$41, DW_AT_low_pc($C$DW$L$_SafeCopyCodeZ2$74$B)
    2022                      .dwattr $C$DW$41, DW_AT_high_pc($C$DW$L$_SafeCopyCodeZ2$74$E)
    2023                      .dwendtag $C$DW$39
    2024              
    2025                      .dwattr $C$DW$27, DW_AT_TI_end_file("C:/work/grepos/bootrom/Boot_ROM/F2837x_bootROM-REVB/F2837x_bootR
    2026                      .dwattr $C$DW$27, DW_AT_TI_end_line(0x36d)
    2027                      .dwattr $C$DW$27, DW_AT_TI_end_column(0x01)
    2028                      .dwendentry
    2029                      .dwendtag $C$DW$27
    2030              
    2031 000002c3               .sect   "SCCLZ1"
    2032                      .global _SafeCRCCalcZ1
    2033              
    2034              $C$DW$42        .dwtag  DW_TAG_subprogram, DW_AT_name("SafeCRCCalcZ1")
    2035                      .dwattr $C$DW$42, DW_AT_low_pc(_SafeCRCCalcZ1)
    2036                      .dwattr $C$DW$42, DW_AT_high_pc(0x00)
    2037                      .dwattr $C$DW$42, DW_AT_TI_symbol_name("_SafeCRCCalcZ1")
TMS320C2000 Assembler PC v6.1.3 Thu Jan 30 10:33:25 2014

Tools Copyright (c) 1996-2012 Texas Instruments Incorporated
C:\Users\a0272466\AppData\Local\Temp\0939610                         PAGE   44

    2038                      .dwattr $C$DW$42, DW_AT_external
    2039                      .dwattr $C$DW$42, DW_AT_type(*$C$DW$T$21)
    2040                      .dwattr $C$DW$42, DW_AT_TI_begin_file("C:/work/grepos/bootrom/Boot_ROM/F2837x_bootROM-REVB/F2837x_boo
    2041                      .dwattr $C$DW$42, DW_AT_TI_begin_line(0x370)
    2042                      .dwattr $C$DW$42, DW_AT_TI_begin_column(0x08)
    2043                      .dwattr $C$DW$42, DW_AT_TI_max_frame_size(-14)
    2044                      .dwpsn  file "C:/work/grepos/bootrom/Boot_ROM/F2837x_bootROM-REVB/F2837x_bootROM_dev/F2837x_bootROM/c
    2045              
    2046                      .dwfde $C$DW$CIE, _SafeCRCCalcZ1
    2047              $C$DW$43        .dwtag  DW_TAG_formal_parameter, DW_AT_name("len_id")
    2048                      .dwattr $C$DW$43, DW_AT_TI_symbol_name("_len_id")
    2049                      .dwattr $C$DW$43, DW_AT_type(*$C$DW$T$21)
    2050                      .dwattr $C$DW$43, DW_AT_location[DW_OP_reg0]
    2051              $C$DW$44        .dwtag  DW_TAG_formal_parameter, DW_AT_name("dst")
    2052                      .dwattr $C$DW$44, DW_AT_TI_symbol_name("_dst")
    2053                      .dwattr $C$DW$44, DW_AT_type(*$C$DW$T$91)
    2054                      .dwattr $C$DW$44, DW_AT_location[DW_OP_reg12]
    2055              $C$DW$45        .dwtag  DW_TAG_formal_parameter, DW_AT_name("src")
    2056                      .dwattr $C$DW$45, DW_AT_TI_symbol_name("_src")
    2057                      .dwattr $C$DW$45, DW_AT_type(*$C$DW$T$91)
    2058                      .dwattr $C$DW$45, DW_AT_location[DW_OP_reg14]
    2059              
    2060              ;***************************************************************
    2061              ;* FNAME: _SafeCRCCalcZ1                FR SIZE:  12           *
    2062              ;*                                                             *
    2063              ;* FUNCTION ENVIRONMENT                                        *
    2064              ;*                                                             *
    2065              ;* FUNCTION PROPERTIES                                         *
    2066              ;*                            0 Parameter, 11 Auto,  0 SOE     *
    2067              ;***************************************************************
    2068              
    2069 000002c3       _SafeCRCCalcZ1:
    2070                      .dwcfi  cfa_offset, -2
    2071                      .dwcfi  save_reg_to_mem, 26, 0
    2072                      .dwcfi  save_reg_to_reg, 78, 26
    2073 000002c3 FE0C          ADDB      SP,#12                ; [CPU_U] 
    2074                      .dwcfi  cfa_offset, -14
    2075              $C$DW$46        .dwtag  DW_TAG_variable, DW_AT_name("len_id")
    2076                      .dwattr $C$DW$46, DW_AT_TI_symbol_name("_len_id")
    2077                      .dwattr $C$DW$46, DW_AT_type(*$C$DW$T$21)
    2078                      .dwattr $C$DW$46, DW_AT_location[DW_OP_breg20 -1]
    2079              $C$DW$47        .dwtag  DW_TAG_variable, DW_AT_name("dst")
    2080                      .dwattr $C$DW$47, DW_AT_TI_symbol_name("_dst")
    2081                      .dwattr $C$DW$47, DW_AT_type(*$C$DW$T$91)
    2082                      .dwattr $C$DW$47, DW_AT_location[DW_OP_breg20 -4]
    2083              $C$DW$48        .dwtag  DW_TAG_variable, DW_AT_name("src")
    2084                      .dwattr $C$DW$48, DW_AT_TI_symbol_name("_src")
    2085                      .dwattr $C$DW$48, DW_AT_type(*$C$DW$T$91)
    2086                      .dwattr $C$DW$48, DW_AT_location[DW_OP_breg20 -6]
    2087              $C$DW$49        .dwtag  DW_TAG_variable, DW_AT_name("dst_ram")
    2088                      .dwattr $C$DW$49, DW_AT_TI_symbol_name("_dst_ram")
    2089                      .dwattr $C$DW$49, DW_AT_type(*$C$DW$T$21)
    2090                      .dwattr $C$DW$49, DW_AT_location[DW_OP_breg20 -7]
    2091              $C$DW$50        .dwtag  DW_TAG_variable, DW_AT_name("src_ram")
    2092                      .dwattr $C$DW$50, DW_AT_TI_symbol_name("_src_ram")
TMS320C2000 Assembler PC v6.1.3 Thu Jan 30 10:33:25 2014

Tools Copyright (c) 1996-2012 Texas Instruments Incorporated
C:\Users\a0272466\AppData\Local\Temp\0939610                         PAGE   45

    2093                      .dwattr $C$DW$50, DW_AT_type(*$C$DW$T$21)
    2094                      .dwattr $C$DW$50, DW_AT_location[DW_OP_breg20 -8]
    2095              $C$DW$51        .dwtag  DW_TAG_variable, DW_AT_name("src_sect")
    2096                      .dwattr $C$DW$51, DW_AT_TI_symbol_name("_src_sect")
    2097                      .dwattr $C$DW$51, DW_AT_type(*$C$DW$T$21)
    2098                      .dwattr $C$DW$51, DW_AT_location[DW_OP_breg20 -9]
    2099              $C$DW$52        .dwtag  DW_TAG_variable, DW_AT_name("check_var")
    2100                      .dwattr $C$DW$52, DW_AT_TI_symbol_name("_check_var")
    2101                      .dwattr $C$DW$52, DW_AT_type(*$C$DW$T$21)
    2102                      .dwattr $C$DW$52, DW_AT_location[DW_OP_breg20 -10]
    2103              $C$DW$53        .dwtag  DW_TAG_variable, DW_AT_name("size")
    2104                      .dwattr $C$DW$53, DW_AT_TI_symbol_name("_size")
    2105                      .dwattr $C$DW$53, DW_AT_type(*$C$DW$T$21)
    2106                      .dwattr $C$DW$53, DW_AT_location[DW_OP_breg20 -11]
    2107 000002c4 A046          MOVL      *-SP[6],XAR5          ; [CPU_] |881| 
    2108 000002c5 A844          MOVL      *-SP[4],XAR4          ; [CPU_] |881| 
    2109 000002c6 9641          MOV       *-SP[1],AL            ; [CPU_] |881| 
    2110                      .dwpsn  file "C:/work/grepos/bootrom/Boot_ROM/F2837x_bootROM-REVB/F2837x_bootROM_dev/F2837x_bootROM/c
    2111 000002c7 2847          MOV       *-SP[7],#65535        ; [CPU_] |882| 
         000002c8 FFFF 
    2112                      .dwpsn  file "C:/work/grepos/bootrom/Boot_ROM/F2837x_bootROM-REVB/F2837x_bootROM_dev/F2837x_bootROM/c
    2113 000002c9 2848          MOV       *-SP[8],#65535        ; [CPU_] |883| 
         000002ca FFFF 
    2114                      .dwpsn  file "C:/work/grepos/bootrom/Boot_ROM/F2837x_bootROM-REVB/F2837x_bootROM_dev/F2837x_bootROM/c
    2115 000002cb 2849          MOV       *-SP[9],#65535        ; [CPU_] |884| 
         000002cc FFFF 
    2116                      .dwpsn  file "C:/work/grepos/bootrom/Boot_ROM/F2837x_bootROM-REVB/F2837x_bootROM_dev/F2837x_bootROM/c
    2117 000002cd 284A          MOV       *-SP[10],#62895       ; [CPU_] |885| 
         000002ce F5AF 
    2118                      .dwpsn  file "C:/work/grepos/bootrom/Boot_ROM/F2837x_bootROM-REVB/F2837x_bootROM_dev/F2837x_bootROM/c
    2119 000002cf 2B4B          MOV       *-SP[11],#0           ; [CPU_] |886| 
    2120                      .dwpsn  file "C:/work/grepos/bootrom/Boot_ROM/F2837x_bootROM-REVB/F2837x_bootROM_dev/F2837x_bootROM/c
    2121 000002d0 761F!         MOVW      DP,#_DcsmRegsZ1+34    ; [CPU_U] 
         000002d1 0000 
    2122 000002d2 1A22!         OR        @_DcsmRegsZ1+34,#0x0001 ; [CPU_] |889| 
         000002d3 0001 
    2123                      .dwpsn  file "C:/work/grepos/bootrom/Boot_ROM/F2837x_bootROM-REVB/F2837x_bootROM_dev/F2837x_bootROM/c
    2124 000002d4 0644          MOVL      ACC,*-SP[4]           ; [CPU_] |892| 
    2125 000002d5 EC07          BF        $C$L57,EQ             ; [CPU_] |892| 
    2126                      ; branchcc occurs ; [] |892| 
    2127 000002d6 0646          MOVL      ACC,*-SP[6]           ; [CPU_] |892| 
    2128 000002d7 EC05          BF        $C$L57,EQ             ; [CPU_] |892| 
    2129                      ; branchcc occurs ; [] |892| 
    2130 000002d8 9241          MOV       AL,*-SP[1]            ; [CPU_] |892| 
    2131 000002d9 EC03          BF        $C$L57,EQ             ; [CPU_] |892| 
    2132                      ; branchcc occurs ; [] |892| 
    2133 000002da 5208          CMPB      AL,#8                 ; [CPU_] |892| 
    2134 000002db 6911          B         $C$L58,LOS            ; [CPU_] |892| 
    2135                      ; branchcc occurs ; [] |892| 
    2136 000002dc       $C$L57:    
    2137                      .dwpsn  file "C:/work/grepos/bootrom/Boot_ROM/F2837x_bootROM-REVB/F2837x_bootROM_dev/F2837x_bootROM/c
    2138 000002dc 1822!         AND       @_DcsmRegsZ1+34,#0xfffe ; [CPU_] |894| 
         000002dd FFFE 
    2139                      .dwpsn  file "C:/work/grepos/bootrom/Boot_ROM/F2837x_bootROM-REVB/F2837x_bootROM_dev/F2837x_bootROM/c
    2140 000002de 2B4B          MOV       *-SP[11],#0           ; [CPU_] |896| 
TMS320C2000 Assembler PC v6.1.3 Thu Jan 30 10:33:25 2014

Tools Copyright (c) 1996-2012 Texas Instruments Incorporated
C:\Users\a0272466\AppData\Local\Temp\0939610                         PAGE   46

    2141                      .dwpsn  file "C:/work/grepos/bootrom/Boot_ROM/F2837x_bootROM-REVB/F2837x_bootROM_dev/F2837x_bootROM/c
    2142 000002df 0200          MOVB      ACC,#0                ; [CPU_] |897| 
    2143 000002e0 1E44          MOVL      *-SP[4],ACC           ; [CPU_] |897| 
    2144                      .dwpsn  file "C:/work/grepos/bootrom/Boot_ROM/F2837x_bootROM-REVB/F2837x_bootROM_dev/F2837x_bootROM/c
    2145 000002e1 1E46          MOVL      *-SP[6],ACC           ; [CPU_] |898| 
    2146                      .dwpsn  file "C:/work/grepos/bootrom/Boot_ROM/F2837x_bootROM-REVB/F2837x_bootROM_dev/F2837x_bootROM/c
    2147 000002e2 2847          MOV       *-SP[7],#65535        ; [CPU_] |899| 
         000002e3 FFFF 
    2148                      .dwpsn  file "C:/work/grepos/bootrom/Boot_ROM/F2837x_bootROM-REVB/F2837x_bootROM_dev/F2837x_bootROM/c
    2149 000002e4 2848          MOV       *-SP[8],#65535        ; [CPU_] |900| 
         000002e5 FFFF 
    2150                      .dwpsn  file "C:/work/grepos/bootrom/Boot_ROM/F2837x_bootROM-REVB/F2837x_bootROM_dev/F2837x_bootROM/c
    2151 000002e6 2849          MOV       *-SP[9],#65535        ; [CPU_] |901| 
         000002e7 FFFF 
    2152                      .dwpsn  file "C:/work/grepos/bootrom/Boot_ROM/F2837x_bootROM-REVB/F2837x_bootROM_dev/F2837x_bootROM/c
    2153 000002e8 2B4A          MOV       *-SP[10],#0           ; [CPU_] |902| 
    2154                      .dwpsn  file "C:/work/grepos/bootrom/Boot_ROM/F2837x_bootROM-REVB/F2837x_bootROM_dev/F2837x_bootROM/c
    2155 000002e9 9A00          MOVB      AL,#0                 ; [CPU_] |903| 
    2156 000002ea FFEF          B         $C$L81,UNC            ; [CPU_] |903| 
         000002eb 02D6 
    2157                      ; branch occurs ; [] |903| 
    2158 000002ec       $C$L58:    
    2159                      .dwpsn  file "C:/work/grepos/bootrom/Boot_ROM/F2837x_bootROM-REVB/F2837x_bootROM_dev/F2837x_bootROM/c
    2160 000002ec 28AC          MOV       T,#8                  ; [CPU_] |907| 
         000002ed 0008 
    2161 000002ee 92AC          MOV       AL,T                  ; [CPU_] |907| 
    2162 000002ef 3B01          SETC      SXM                   ; [CPU_] 
    2163 000002f0 9E41          SUB       AL,*-SP[1]            ; [CPU_] |907| 
    2164 000002f1 2DA9          MOV       T,AL                  ; [CPU_] |907| 
    2165 000002f2 28A9          MOV       AL,#2047              ; [CPU_] |907| 
         000002f3 07FF 
    2166 000002f4 FF62          LSR       AL,T                  ; [CPU_] |907| 
    2167 000002f5 85A9          MOV       ACC,AL                ; [CPU_] |907| 
    2168 000002f6 FF5A          MOVL      P,ACC                 ; [CPU_] |907| 
    2169 000002f7 0646          MOVL      ACC,*-SP[6]           ; [CPU_] |907| 
    2170 000002f8 CEAB          AND       AL,PL                 ; [CPU_] |907| 
    2171 000002f9 CFAA          AND       AH,PH                 ; [CPU_] |907| 
    2172 000002fa FF58          TEST      ACC                   ; [CPU_] |907| 
    2173 000002fb EC11          BF        $C$L59,EQ             ; [CPU_] |907| 
    2174                      ; branchcc occurs ; [] |907| 
    2175                      .dwpsn  file "C:/work/grepos/bootrom/Boot_ROM/F2837x_bootROM-REVB/F2837x_bootROM_dev/F2837x_bootROM/c
    2176 000002fc 1822!         AND       @_DcsmRegsZ1+34,#0xfffe ; [CPU_] |909| 
         000002fd FFFE 
    2177                      .dwpsn  file "C:/work/grepos/bootrom/Boot_ROM/F2837x_bootROM-REVB/F2837x_bootROM_dev/F2837x_bootROM/c
    2178 000002fe 2B4B          MOV       *-SP[11],#0           ; [CPU_] |911| 
    2179                      .dwpsn  file "C:/work/grepos/bootrom/Boot_ROM/F2837x_bootROM-REVB/F2837x_bootROM_dev/F2837x_bootROM/c
    2180 000002ff 0200          MOVB      ACC,#0                ; [CPU_] |912| 
    2181 00000300 1E44          MOVL      *-SP[4],ACC           ; [CPU_] |912| 
    2182                      .dwpsn  file "C:/work/grepos/bootrom/Boot_ROM/F2837x_bootROM-REVB/F2837x_bootROM_dev/F2837x_bootROM/c
    2183 00000301 1E46          MOVL      *-SP[6],ACC           ; [CPU_] |913| 
    2184                      .dwpsn  file "C:/work/grepos/bootrom/Boot_ROM/F2837x_bootROM-REVB/F2837x_bootROM_dev/F2837x_bootROM/c
    2185 00000302 2847          MOV       *-SP[7],#65535        ; [CPU_] |914| 
         00000303 FFFF 
    2186                      .dwpsn  file "C:/work/grepos/bootrom/Boot_ROM/F2837x_bootROM-REVB/F2837x_bootROM_dev/F2837x_bootROM/c
    2187 00000304 2848          MOV       *-SP[8],#65535        ; [CPU_] |915| 
TMS320C2000 Assembler PC v6.1.3 Thu Jan 30 10:33:25 2014

Tools Copyright (c) 1996-2012 Texas Instruments Incorporated
C:\Users\a0272466\AppData\Local\Temp\0939610                         PAGE   47

         00000305 FFFF 
    2188                      .dwpsn  file "C:/work/grepos/bootrom/Boot_ROM/F2837x_bootROM-REVB/F2837x_bootROM_dev/F2837x_bootROM/c
    2189 00000306 2849          MOV       *-SP[9],#65535        ; [CPU_] |916| 
         00000307 FFFF 
    2190                      .dwpsn  file "C:/work/grepos/bootrom/Boot_ROM/F2837x_bootROM-REVB/F2837x_bootROM_dev/F2837x_bootROM/c
    2191 00000308 2B4A          MOV       *-SP[10],#0           ; [CPU_] |917| 
    2192                      .dwpsn  file "C:/work/grepos/bootrom/Boot_ROM/F2837x_bootROM-REVB/F2837x_bootROM_dev/F2837x_bootROM/c
    2193 00000309 9A00          MOVB      AL,#0                 ; [CPU_] |918| 
    2194 0000030a FFEF          B         $C$L81,UNC            ; [CPU_] |918| 
         0000030b 02B6 
    2195                      ; branch occurs ; [] |918| 
    2196 0000030c       $C$L59:    
    2197                      .dwpsn  file "C:/work/grepos/bootrom/Boot_ROM/F2837x_bootROM-REVB/F2837x_bootROM_dev/F2837x_bootROM/c
    2198 0000030c 9241          MOV       AL,*-SP[1]            ; [CPU_] |922| 
    2199 0000030d 9C03          ADDB      AL,#3                 ; [CPU_] |922| 
    2200 0000030e 2DA9          MOV       T,AL                  ; [CPU_] |922| 
    2201 0000030f 9A01          MOVB      AL,#1                 ; [CPU_] |922| 
    2202 00000310 FF66          LSL       AL,T                  ; [CPU_] |922| 
    2203 00000311 964B          MOV       *-SP[11],AL           ; [CPU_] |922| 
    2204                      .dwpsn  file "C:/work/grepos/bootrom/Boot_ROM/F2837x_bootROM-REVB/F2837x_bootROM_dev/F2837x_bootROM/c
    2205 00000312 C444          MOVL      XAR6,*-SP[4]          ; [CPU_] |927| 
    2206 00000313 2901          CLRC      SXM                   ; [CPU_] 
    2207 00000314 FF20          MOV       ACC,#49152            ; [CPU_] |927| 
         00000315 C000 
    2208 00000316 0FA6          CMPL      ACC,XAR6              ; [CPU_] |927| 
    2209 00000317 6906          B         $C$L60,LOS            ; [CPU_] |927| 
    2210                      ; branchcc occurs ; [] |927| 
    2211 00000318 C444          MOVL      XAR6,*-SP[4]          ; [CPU_] |927| 
    2212 00000319 FF20          MOV       ACC,#32768            ; [CPU_] |927| 
         0000031a 8000 
    2213 0000031b 0FA6          CMPL      ACC,XAR6              ; [CPU_] |927| 
    2214 0000031c 6911          B         $C$L61,LOS            ; [CPU_] |927| 
    2215                      ; branchcc occurs ; [] |927| 
    2216 0000031d       $C$L60:    
    2217                      .dwpsn  file "C:/work/grepos/bootrom/Boot_ROM/F2837x_bootROM-REVB/F2837x_bootROM_dev/F2837x_bootROM/c
    2218 0000031d 1822!         AND       @_DcsmRegsZ1+34,#0xfffe ; [CPU_] |930| 
         0000031e FFFE 
    2219                      .dwpsn  file "C:/work/grepos/bootrom/Boot_ROM/F2837x_bootROM-REVB/F2837x_bootROM_dev/F2837x_bootROM/c
    2220 0000031f 2B4B          MOV       *-SP[11],#0           ; [CPU_] |932| 
    2221                      .dwpsn  file "C:/work/grepos/bootrom/Boot_ROM/F2837x_bootROM-REVB/F2837x_bootROM_dev/F2837x_bootROM/c
    2222 00000320 0200          MOVB      ACC,#0                ; [CPU_] |933| 
    2223 00000321 1E44          MOVL      *-SP[4],ACC           ; [CPU_] |933| 
    2224                      .dwpsn  file "C:/work/grepos/bootrom/Boot_ROM/F2837x_bootROM-REVB/F2837x_bootROM_dev/F2837x_bootROM/c
    2225 00000322 1E46          MOVL      *-SP[6],ACC           ; [CPU_] |934| 
    2226                      .dwpsn  file "C:/work/grepos/bootrom/Boot_ROM/F2837x_bootROM-REVB/F2837x_bootROM_dev/F2837x_bootROM/c
    2227 00000323 2847          MOV       *-SP[7],#65535        ; [CPU_] |935| 
         00000324 FFFF 
    2228                      .dwpsn  file "C:/work/grepos/bootrom/Boot_ROM/F2837x_bootROM-REVB/F2837x_bootROM_dev/F2837x_bootROM/c
    2229 00000325 2848          MOV       *-SP[8],#65535        ; [CPU_] |936| 
         00000326 FFFF 
    2230                      .dwpsn  file "C:/work/grepos/bootrom/Boot_ROM/F2837x_bootROM-REVB/F2837x_bootROM_dev/F2837x_bootROM/c
    2231 00000327 2849          MOV       *-SP[9],#65535        ; [CPU_] |937| 
         00000328 FFFF 
    2232                      .dwpsn  file "C:/work/grepos/bootrom/Boot_ROM/F2837x_bootROM-REVB/F2837x_bootROM_dev/F2837x_bootROM/c
    2233 00000329 2B4A          MOV       *-SP[10],#0           ; [CPU_] |938| 
TMS320C2000 Assembler PC v6.1.3 Thu Jan 30 10:33:25 2014

Tools Copyright (c) 1996-2012 Texas Instruments Incorporated
C:\Users\a0272466\AppData\Local\Temp\0939610                         PAGE   48

    2234                      .dwpsn  file "C:/work/grepos/bootrom/Boot_ROM/F2837x_bootROM-REVB/F2837x_bootROM_dev/F2837x_bootROM/c
    2235 0000032a 9A00          MOVB      AL,#0                 ; [CPU_] |939| 
    2236 0000032b FFEF          B         $C$L81,UNC            ; [CPU_] |939| 
         0000032c 0295 
    2237                      ; branch occurs ; [] |939| 
    2238 0000032d       $C$L61:    
    2239                      .dwpsn  file "C:/work/grepos/bootrom/Boot_ROM/F2837x_bootROM-REVB/F2837x_bootROM_dev/F2837x_bootROM/c
    2240 0000032d 0644          MOVL      ACC,*-SP[4]           ; [CPU_] |945| 
    2241 0000032e 8F00          MOVL      XAR4,#47104           ; [CPU_U] |945| 
         0000032f B800 
    2242 00000330 9B00          MOVB      AH,#0                 ; [CPU_] |945| 
    2243 00000331 18A9          AND       AL,#0xb800            ; [CPU_] |945| 
         00000332 B800 
    2244 00000333 0FA4          CMPL      ACC,XAR4              ; [CPU_] |945| 
    2245                      .dwpsn  file "C:/work/grepos/bootrom/Boot_ROM/F2837x_bootROM-REVB/F2837x_bootROM_dev/F2837x_bootROM/c
    2246 00000334 56B1          MOVB      *-SP[7],#14,EQ        ; [CPU_] |948| 
         00000335 0E47 
    2247                      .dwpsn  file "C:/work/grepos/bootrom/Boot_ROM/F2837x_bootROM-REVB/F2837x_bootROM_dev/F2837x_bootROM/c
    2248 00000336 EC46          BF        $C$L62,EQ             ; [CPU_] |949| 
    2249                      ; branchcc occurs ; [] |949| 
    2250                      .dwpsn  file "C:/work/grepos/bootrom/Boot_ROM/F2837x_bootROM-REVB/F2837x_bootROM_dev/F2837x_bootROM/c
    2251 00000337 0644          MOVL      ACC,*-SP[4]           ; [CPU_] |950| 
    2252 00000338 8F00          MOVL      XAR4,#45056           ; [CPU_U] |950| 
         00000339 B000 
    2253 0000033a 9B00          MOVB      AH,#0                 ; [CPU_] |950| 
    2254 0000033b 18A9          AND       AL,#0xb000            ; [CPU_] |950| 
         0000033c B000 
    2255 0000033d 0FA4          CMPL      ACC,XAR4              ; [CPU_] |950| 
    2256                      .dwpsn  file "C:/work/grepos/bootrom/Boot_ROM/F2837x_bootROM-REVB/F2837x_bootROM_dev/F2837x_bootROM/c
    2257 0000033e 56B1          MOVB      *-SP[7],#12,EQ        ; [CPU_] |953| 
         0000033f 0C47 
    2258                      .dwpsn  file "C:/work/grepos/bootrom/Boot_ROM/F2837x_bootROM-REVB/F2837x_bootROM_dev/F2837x_bootROM/c
    2259 00000340 EC3C          BF        $C$L62,EQ             ; [CPU_] |954| 
    2260                      ; branchcc occurs ; [] |954| 
    2261                      .dwpsn  file "C:/work/grepos/bootrom/Boot_ROM/F2837x_bootROM-REVB/F2837x_bootROM_dev/F2837x_bootROM/c
    2262 00000341 0644          MOVL      ACC,*-SP[4]           ; [CPU_] |955| 
    2263 00000342 8F00          MOVL      XAR4,#43008           ; [CPU_U] |955| 
         00000343 A800 
    2264 00000344 9B00          MOVB      AH,#0                 ; [CPU_] |955| 
    2265 00000345 18A9          AND       AL,#0xa800            ; [CPU_] |955| 
         00000346 A800 
    2266 00000347 0FA4          CMPL      ACC,XAR4              ; [CPU_] |955| 
    2267                      .dwpsn  file "C:/work/grepos/bootrom/Boot_ROM/F2837x_bootROM-REVB/F2837x_bootROM_dev/F2837x_bootROM/c
    2268 00000348 56B1          MOVB      *-SP[7],#10,EQ        ; [CPU_] |958| 
         00000349 0A47 
    2269                      .dwpsn  file "C:/work/grepos/bootrom/Boot_ROM/F2837x_bootROM-REVB/F2837x_bootROM_dev/F2837x_bootROM/c
    2270 0000034a EC32          BF        $C$L62,EQ             ; [CPU_] |959| 
    2271                      ; branchcc occurs ; [] |959| 
    2272                      .dwpsn  file "C:/work/grepos/bootrom/Boot_ROM/F2837x_bootROM-REVB/F2837x_bootROM_dev/F2837x_bootROM/c
    2273 0000034b 0644          MOVL      ACC,*-SP[4]           ; [CPU_] |960| 
    2274 0000034c 8F00          MOVL      XAR4,#40960           ; [CPU_U] |960| 
         0000034d A000 
    2275 0000034e 9B00          MOVB      AH,#0                 ; [CPU_] |960| 
    2276 0000034f 18A9          AND       AL,#0xa000            ; [CPU_] |960| 
         00000350 A000 
TMS320C2000 Assembler PC v6.1.3 Thu Jan 30 10:33:25 2014

Tools Copyright (c) 1996-2012 Texas Instruments Incorporated
C:\Users\a0272466\AppData\Local\Temp\0939610                         PAGE   49

    2277 00000351 0FA4          CMPL      ACC,XAR4              ; [CPU_] |960| 
    2278                      .dwpsn  file "C:/work/grepos/bootrom/Boot_ROM/F2837x_bootROM-REVB/F2837x_bootROM_dev/F2837x_bootROM/c
    2279 00000352 56B1          MOVB      *-SP[7],#8,EQ         ; [CPU_] |963| 
         00000353 0847 
    2280                      .dwpsn  file "C:/work/grepos/bootrom/Boot_ROM/F2837x_bootROM-REVB/F2837x_bootROM_dev/F2837x_bootROM/c
    2281 00000354 EC28          BF        $C$L62,EQ             ; [CPU_] |964| 
    2282                      ; branchcc occurs ; [] |964| 
    2283                      .dwpsn  file "C:/work/grepos/bootrom/Boot_ROM/F2837x_bootROM-REVB/F2837x_bootROM_dev/F2837x_bootROM/c
    2284 00000355 0644          MOVL      ACC,*-SP[4]           ; [CPU_] |965| 
    2285 00000356 8F00          MOVL      XAR4,#38912           ; [CPU_U] |965| 
         00000357 9800 
    2286 00000358 9B00          MOVB      AH,#0                 ; [CPU_] |965| 
    2287 00000359 18A9          AND       AL,#0x9800            ; [CPU_] |965| 
         0000035a 9800 
    2288 0000035b 0FA4          CMPL      ACC,XAR4              ; [CPU_] |965| 
    2289                      .dwpsn  file "C:/work/grepos/bootrom/Boot_ROM/F2837x_bootROM-REVB/F2837x_bootROM_dev/F2837x_bootROM/c
    2290 0000035c 56B1          MOVB      *-SP[7],#6,EQ         ; [CPU_] |968| 
         0000035d 0647 
    2291                      .dwpsn  file "C:/work/grepos/bootrom/Boot_ROM/F2837x_bootROM-REVB/F2837x_bootROM_dev/F2837x_bootROM/c
    2292 0000035e EC1E          BF        $C$L62,EQ             ; [CPU_] |969| 
    2293                      ; branchcc occurs ; [] |969| 
    2294                      .dwpsn  file "C:/work/grepos/bootrom/Boot_ROM/F2837x_bootROM-REVB/F2837x_bootROM_dev/F2837x_bootROM/c
    2295 0000035f 0644          MOVL      ACC,*-SP[4]           ; [CPU_] |970| 
    2296 00000360 8F00          MOVL      XAR4,#36864           ; [CPU_U] |970| 
         00000361 9000 
    2297 00000362 9B00          MOVB      AH,#0                 ; [CPU_] |970| 
    2298 00000363 18A9          AND       AL,#0x9000            ; [CPU_] |970| 
         00000364 9000 
    2299 00000365 0FA4          CMPL      ACC,XAR4              ; [CPU_] |970| 
    2300                      .dwpsn  file "C:/work/grepos/bootrom/Boot_ROM/F2837x_bootROM-REVB/F2837x_bootROM_dev/F2837x_bootROM/c
    2301 00000366 56B1          MOVB      *-SP[7],#4,EQ         ; [CPU_] |973| 
         00000367 0447 
    2302                      .dwpsn  file "C:/work/grepos/bootrom/Boot_ROM/F2837x_bootROM-REVB/F2837x_bootROM_dev/F2837x_bootROM/c
    2303 00000368 EC14          BF        $C$L62,EQ             ; [CPU_] |974| 
    2304                      ; branchcc occurs ; [] |974| 
    2305                      .dwpsn  file "C:/work/grepos/bootrom/Boot_ROM/F2837x_bootROM-REVB/F2837x_bootROM_dev/F2837x_bootROM/c
    2306 00000369 0644          MOVL      ACC,*-SP[4]           ; [CPU_] |975| 
    2307 0000036a 8F00          MOVL      XAR4,#34816           ; [CPU_U] |975| 
         0000036b 8800 
    2308 0000036c 9B00          MOVB      AH,#0                 ; [CPU_] |975| 
    2309 0000036d 18A9          AND       AL,#0x8800            ; [CPU_] |975| 
         0000036e 8800 
    2310 0000036f 0FA4          CMPL      ACC,XAR4              ; [CPU_] |975| 
    2311                      .dwpsn  file "C:/work/grepos/bootrom/Boot_ROM/F2837x_bootROM-REVB/F2837x_bootROM_dev/F2837x_bootROM/c
    2312 00000370 56B1          MOVB      *-SP[7],#2,EQ         ; [CPU_] |978| 
         00000371 0247 
    2313                      .dwpsn  file "C:/work/grepos/bootrom/Boot_ROM/F2837x_bootROM-REVB/F2837x_bootROM_dev/F2837x_bootROM/c
    2314 00000372 EC0A          BF        $C$L62,EQ             ; [CPU_] |979| 
    2315                      ; branchcc occurs ; [] |979| 
    2316                      .dwpsn  file "C:/work/grepos/bootrom/Boot_ROM/F2837x_bootROM-REVB/F2837x_bootROM_dev/F2837x_bootROM/c
    2317 00000373 0644          MOVL      ACC,*-SP[4]           ; [CPU_] |980| 
    2318 00000374 8F00          MOVL      XAR4,#32768           ; [CPU_U] |980| 
         00000375 8000 
    2319 00000376 9B00          MOVB      AH,#0                 ; [CPU_] |980| 
    2320 00000377 18A9          AND       AL,#0x8000            ; [CPU_] |980| 
TMS320C2000 Assembler PC v6.1.3 Thu Jan 30 10:33:25 2014

Tools Copyright (c) 1996-2012 Texas Instruments Incorporated
C:\Users\a0272466\AppData\Local\Temp\0939610                         PAGE   50

         00000378 8000 
    2321 00000379 0FA4          CMPL      ACC,XAR4              ; [CPU_] |980| 
    2322 0000037a ED02          BF        $C$L62,NEQ            ; [CPU_] |980| 
    2323                      ; branchcc occurs ; [] |980| 
    2324                      .dwpsn  file "C:/work/grepos/bootrom/Boot_ROM/F2837x_bootROM-REVB/F2837x_bootROM_dev/F2837x_bootROM/c
    2325 0000037b 2B47          MOV       *-SP[7],#0            ; [CPU_] |983| 
    2326 0000037c       $C$L62:    
    2327                      .dwpsn  file "C:/work/grepos/bootrom/Boot_ROM/F2837x_bootROM-REVB/F2837x_bootROM_dev/F2837x_bootROM/c
    2328 0000037c 0646          MOVL      ACC,*-SP[6]           ; [CPU_] |989| 
    2329 0000037d 8F0C          MOVL      XAR4,#786432          ; [CPU_U] |989| 
         0000037e 0000 
    2330 0000037f 5608          AND       ACC,#12 << 16         ; [CPU_] |989| 
         00000380 000C 
    2331 00000381 0FA4          CMPL      ACC,XAR4              ; [CPU_] |989| 
    2332 00000382 ED36          BF        $C$L65,NEQ            ; [CPU_] |989| 
    2333                      ; branchcc occurs ; [] |989| 
    2334                      .dwpsn  file "C:/work/grepos/bootrom/Boot_ROM/F2837x_bootROM-REVB/F2837x_bootROM_dev/F2837x_bootROM/c
    2335 00000383 761F!         MOVW      DP,#_DcsmRegsCommon+6 ; [CPU_U] 
         00000384 0000 
    2336 00000385 CC06!         AND       AL,@_DcsmRegsCommon+6,#0x03c0 ; [CPU_] |993| 
         00000386 03C0 
    2337 00000387 FFC5          LSR       AL,6                  ; [CPU_] |993| 
    2338 00000388 520F          CMPB      AL,#15                ; [CPU_] |993| 
    2339 00000389 EC1D          BF        $C$L64,EQ             ; [CPU_] |993| 
    2340                      ; branchcc occurs ; [] |993| 
    2341                      .dwpsn  file "C:/work/grepos/bootrom/Boot_ROM/F2837x_bootROM-REVB/F2837x_bootROM_dev/F2837x_bootROM/c
    2342 0000038a 0646          MOVL      ACC,*-SP[6]           ; [CPU_] |996| 
    2343 0000038b 8F10          MOVL      XAR4,#1048576         ; [CPU_U] |996| 
         0000038c 0000 
    2344 0000038d 0D4B          ADDU      ACC,*-SP[11]          ; [CPU_] |996| 
    2345 0000038e 0FA4          CMPL      ACC,XAR4              ; [CPU_] |996| 
    2346 0000038f 6913          B         $C$L63,LOS            ; [CPU_] |996| 
    2347                      ; branchcc occurs ; [] |996| 
    2348                      .dwpsn  file "C:/work/grepos/bootrom/Boot_ROM/F2837x_bootROM-REVB/F2837x_bootROM_dev/F2837x_bootROM/c
    2349 00000390 761F!         MOVW      DP,#_DcsmRegsZ1+34    ; [CPU_U] 
         00000391 0000 
    2350 00000392 1822!         AND       @_DcsmRegsZ1+34,#0xfffe ; [CPU_] |998| 
         00000393 FFFE 
    2351                      .dwpsn  file "C:/work/grepos/bootrom/Boot_ROM/F2837x_bootROM-REVB/F2837x_bootROM_dev/F2837x_bootROM/c
    2352 00000394 2B4B          MOV       *-SP[11],#0           ; [CPU_] |1000| 
    2353                      .dwpsn  file "C:/work/grepos/bootrom/Boot_ROM/F2837x_bootROM-REVB/F2837x_bootROM_dev/F2837x_bootROM/c
    2354 00000395 0200          MOVB      ACC,#0                ; [CPU_] |1001| 
    2355 00000396 1E44          MOVL      *-SP[4],ACC           ; [CPU_] |1001| 
    2356                      .dwpsn  file "C:/work/grepos/bootrom/Boot_ROM/F2837x_bootROM-REVB/F2837x_bootROM_dev/F2837x_bootROM/c
    2357 00000397 1E46          MOVL      *-SP[6],ACC           ; [CPU_] |1002| 
    2358                      .dwpsn  file "C:/work/grepos/bootrom/Boot_ROM/F2837x_bootROM-REVB/F2837x_bootROM_dev/F2837x_bootROM/c
    2359 00000398 2847          MOV       *-SP[7],#65535        ; [CPU_] |1003| 
         00000399 FFFF 
    2360                      .dwpsn  file "C:/work/grepos/bootrom/Boot_ROM/F2837x_bootROM-REVB/F2837x_bootROM_dev/F2837x_bootROM/c
    2361 0000039a 2848          MOV       *-SP[8],#65535        ; [CPU_] |1004| 
         0000039b FFFF 
    2362                      .dwpsn  file "C:/work/grepos/bootrom/Boot_ROM/F2837x_bootROM-REVB/F2837x_bootROM_dev/F2837x_bootROM/c
    2363 0000039c 2849          MOV       *-SP[9],#65535        ; [CPU_] |1005| 
         0000039d FFFF 
    2364                      .dwpsn  file "C:/work/grepos/bootrom/Boot_ROM/F2837x_bootROM-REVB/F2837x_bootROM_dev/F2837x_bootROM/c
TMS320C2000 Assembler PC v6.1.3 Thu Jan 30 10:33:25 2014

Tools Copyright (c) 1996-2012 Texas Instruments Incorporated
C:\Users\a0272466\AppData\Local\Temp\0939610                         PAGE   51

    2365 0000039e 2B4A          MOV       *-SP[10],#0           ; [CPU_] |1006| 
    2366                      .dwpsn  file "C:/work/grepos/bootrom/Boot_ROM/F2837x_bootROM-REVB/F2837x_bootROM_dev/F2837x_bootROM/c
    2367 0000039f 9A00          MOVB      AL,#0                 ; [CPU_] |1007| 
    2368 000003a0 FFEF          B         $C$L81,UNC            ; [CPU_] |1007| 
         000003a1 0220 
    2369                      ; branch occurs ; [] |1007| 
    2370 000003a2       $C$L63:    
    2371                      .dwpsn  file "C:/work/grepos/bootrom/Boot_ROM/F2837x_bootROM-REVB/F2837x_bootROM_dev/F2837x_bootROM/c
    2372 000003a2 56BF          MOVB      *-SP[9],#28,UNC       ; [CPU_] |1009| 
         000003a3 1C49 
    2373                      .dwpsn  file "C:/work/grepos/bootrom/Boot_ROM/F2837x_bootROM-REVB/F2837x_bootROM_dev/F2837x_bootROM/c
    2374 000003a4 FFEF          B         $C$L73,UNC            ; [CPU_] |1010| 
         000003a5 017E 
    2375                      ; branch occurs ; [] |1010| 
    2376 000003a6       $C$L64:    
    2377                      .dwpsn  file "C:/work/grepos/bootrom/Boot_ROM/F2837x_bootROM-REVB/F2837x_bootROM_dev/F2837x_bootROM/c
    2378 000003a6 761F!         MOVW      DP,#_DcsmRegsZ1+34    ; [CPU_U] 
         000003a7 0000 
    2379 000003a8 1822!         AND       @_DcsmRegsZ1+34,#0xfffe ; [CPU_] |1013| 
         000003a9 FFFE 
    2380                      .dwpsn  file "C:/work/grepos/bootrom/Boot_ROM/F2837x_bootROM-REVB/F2837x_bootROM_dev/F2837x_bootROM/c
    2381 000003aa 2B4B          MOV       *-SP[11],#0           ; [CPU_] |1015| 
    2382                      .dwpsn  file "C:/work/grepos/bootrom/Boot_ROM/F2837x_bootROM-REVB/F2837x_bootROM_dev/F2837x_bootROM/c
    2383 000003ab 0200          MOVB      ACC,#0                ; [CPU_] |1016| 
    2384 000003ac 1E44          MOVL      *-SP[4],ACC           ; [CPU_] |1016| 
    2385                      .dwpsn  file "C:/work/grepos/bootrom/Boot_ROM/F2837x_bootROM-REVB/F2837x_bootROM_dev/F2837x_bootROM/c
    2386 000003ad 1E46          MOVL      *-SP[6],ACC           ; [CPU_] |1017| 
    2387                      .dwpsn  file "C:/work/grepos/bootrom/Boot_ROM/F2837x_bootROM-REVB/F2837x_bootROM_dev/F2837x_bootROM/c
    2388 000003ae 2847          MOV       *-SP[7],#65535        ; [CPU_] |1018| 
         000003af FFFF 
    2389                      .dwpsn  file "C:/work/grepos/bootrom/Boot_ROM/F2837x_bootROM-REVB/F2837x_bootROM_dev/F2837x_bootROM/c
    2390 000003b0 2848          MOV       *-SP[8],#65535        ; [CPU_] |1019| 
         000003b1 FFFF 
    2391                      .dwpsn  file "C:/work/grepos/bootrom/Boot_ROM/F2837x_bootROM-REVB/F2837x_bootROM_dev/F2837x_bootROM/c
    2392 000003b2 2849          MOV       *-SP[9],#65535        ; [CPU_] |1020| 
         000003b3 FFFF 
    2393                      .dwpsn  file "C:/work/grepos/bootrom/Boot_ROM/F2837x_bootROM-REVB/F2837x_bootROM_dev/F2837x_bootROM/c
    2394 000003b4 2B4A          MOV       *-SP[10],#0           ; [CPU_] |1021| 
    2395                      .dwpsn  file "C:/work/grepos/bootrom/Boot_ROM/F2837x_bootROM-REVB/F2837x_bootROM_dev/F2837x_bootROM/c
    2396 000003b5 9A00          MOVB      AL,#0                 ; [CPU_] |1022| 
    2397 000003b6 FFEF          B         $C$L81,UNC            ; [CPU_] |1022| 
         000003b7 020A 
    2398                      ; branch occurs ; [] |1022| 
    2399 000003b8       $C$L65:    
    2400                      .dwpsn  file "C:/work/grepos/bootrom/Boot_ROM/F2837x_bootROM-REVB/F2837x_bootROM_dev/F2837x_bootROM/c
    2401 000003b8 C446          MOVL      XAR6,*-SP[6]          ; [CPU_] |1025| 
    2402 000003b9 8F0B          MOVL      XAR4,#753664          ; [CPU_U] |1025| 
         000003ba 8000 
    2403 000003bb A8A9          MOVL      ACC,XAR4              ; [CPU_] |1025| 
    2404 000003bc 0FA6          CMPL      ACC,XAR6              ; [CPU_] |1025| 
    2405 000003bd 664C          B         $C$L67,HI             ; [CPU_] |1025| 
    2406                      ; branchcc occurs ; [] |1025| 
    2407 000003be C446          MOVL      XAR6,*-SP[6]          ; [CPU_] |1025| 
    2408 000003bf 8F0C          MOVL      XAR4,#786432          ; [CPU_U] |1025| 
         000003c0 0000 
TMS320C2000 Assembler PC v6.1.3 Thu Jan 30 10:33:25 2014

Tools Copyright (c) 1996-2012 Texas Instruments Incorporated
C:\Users\a0272466\AppData\Local\Temp\0939610                         PAGE   52

    2409 000003c1 A8A9          MOVL      ACC,XAR4              ; [CPU_] |1025| 
    2410 000003c2 0FA6          CMPL      ACC,XAR6              ; [CPU_] |1025| 
    2411 000003c3 6946          B         $C$L67,LOS            ; [CPU_] |1025| 
    2412                      ; branchcc occurs ; [] |1025| 
    2413                      .dwpsn  file "C:/work/grepos/bootrom/Boot_ROM/F2837x_bootROM-REVB/F2837x_bootROM_dev/F2837x_bootROM/c
    2414 000003c4 0646          MOVL      ACC,*-SP[6]           ; [CPU_] |1028| 
    2415 000003c5 8F00          MOVL      XAR4,#8192            ; [CPU_U] |1028| 
         000003c6 2000 
    2416 000003c7 9B00          MOVB      AH,#0                 ; [CPU_] |1028| 
    2417 000003c8 18A9          AND       AL,#0x1fff            ; [CPU_] |1028| 
         000003c9 1FFF 
    2418 000003ca 0D4B          ADDU      ACC,*-SP[11]          ; [CPU_] |1028| 
    2419 000003cb 0FA4          CMPL      ACC,XAR4              ; [CPU_] |1028| 
    2420 000003cc 6911          B         $C$L66,LOS            ; [CPU_] |1028| 
    2421                      ; branchcc occurs ; [] |1028| 
    2422                      .dwpsn  file "C:/work/grepos/bootrom/Boot_ROM/F2837x_bootROM-REVB/F2837x_bootROM_dev/F2837x_bootROM/c
    2423 000003cd 1822!         AND       @_DcsmRegsZ1+34,#0xfffe ; [CPU_] |1030| 
         000003ce FFFE 
    2424                      .dwpsn  file "C:/work/grepos/bootrom/Boot_ROM/F2837x_bootROM-REVB/F2837x_bootROM_dev/F2837x_bootROM/c
    2425 000003cf 2B4B          MOV       *-SP[11],#0           ; [CPU_] |1032| 
    2426                      .dwpsn  file "C:/work/grepos/bootrom/Boot_ROM/F2837x_bootROM-REVB/F2837x_bootROM_dev/F2837x_bootROM/c
    2427 000003d0 0200          MOVB      ACC,#0                ; [CPU_] |1033| 
    2428 000003d1 1E44          MOVL      *-SP[4],ACC           ; [CPU_] |1033| 
    2429                      .dwpsn  file "C:/work/grepos/bootrom/Boot_ROM/F2837x_bootROM-REVB/F2837x_bootROM_dev/F2837x_bootROM/c
    2430 000003d2 1E46          MOVL      *-SP[6],ACC           ; [CPU_] |1034| 
    2431                      .dwpsn  file "C:/work/grepos/bootrom/Boot_ROM/F2837x_bootROM-REVB/F2837x_bootROM_dev/F2837x_bootROM/c
    2432 000003d3 2847          MOV       *-SP[7],#65535        ; [CPU_] |1035| 
         000003d4 FFFF 
    2433                      .dwpsn  file "C:/work/grepos/bootrom/Boot_ROM/F2837x_bootROM-REVB/F2837x_bootROM_dev/F2837x_bootROM/c
    2434 000003d5 2848          MOV       *-SP[8],#65535        ; [CPU_] |1036| 
         000003d6 FFFF 
    2435                      .dwpsn  file "C:/work/grepos/bootrom/Boot_ROM/F2837x_bootROM-REVB/F2837x_bootROM_dev/F2837x_bootROM/c
    2436 000003d7 2849          MOV       *-SP[9],#65535        ; [CPU_] |1037| 
         000003d8 FFFF 
    2437                      .dwpsn  file "C:/work/grepos/bootrom/Boot_ROM/F2837x_bootROM-REVB/F2837x_bootROM_dev/F2837x_bootROM/c
    2438 000003d9 2B4A          MOV       *-SP[10],#0           ; [CPU_] |1038| 
    2439                      .dwpsn  file "C:/work/grepos/bootrom/Boot_ROM/F2837x_bootROM-REVB/F2837x_bootROM_dev/F2837x_bootROM/c
    2440 000003da 9A00          MOVB      AL,#0                 ; [CPU_] |1039| 
    2441 000003db FFEF          B         $C$L81,UNC            ; [CPU_] |1039| 
         000003dc 01E5 
    2442                      ; branch occurs ; [] |1039| 
    2443 000003dd       $C$L66:    
    2444                      .dwpsn  file "C:/work/grepos/bootrom/Boot_ROM/F2837x_bootROM-REVB/F2837x_bootROM_dev/F2837x_bootROM/c
    2445 000003dd 8F0B          MOVL      XAR4,#778240          ; [CPU_U] |1041| 
         000003de E000 
    2446 000003df 0646          MOVL      ACC,*-SP[6]           ; [CPU_] |1041| 
    2447 000003e0 A8AB          MOVL      P,XAR4                ; [CPU_] |1041| 
    2448 000003e1 CEAB          AND       AL,PL                 ; [CPU_] |1041| 
    2449 000003e2 CFAA          AND       AH,PH                 ; [CPU_] |1041| 
    2450 000003e3 0FA4          CMPL      ACC,XAR4              ; [CPU_] |1041| 
    2451                      .dwpsn  file "C:/work/grepos/bootrom/Boot_ROM/F2837x_bootROM-REVB/F2837x_bootROM_dev/F2837x_bootROM/c
    2452 000003e4 56B1          MOVB      *-SP[9],#26,EQ        ; [CPU_] |1044| 
         000003e5 1A49 
    2453                      .dwpsn  file "C:/work/grepos/bootrom/Boot_ROM/F2837x_bootROM-REVB/F2837x_bootROM_dev/F2837x_bootROM/c
    2454 000003e6 56C1          BF        $C$L73,EQ             ; [CPU_] |1045| 
TMS320C2000 Assembler PC v6.1.3 Thu Jan 30 10:33:25 2014

Tools Copyright (c) 1996-2012 Texas Instruments Incorporated
C:\Users\a0272466\AppData\Local\Temp\0939610                         PAGE   53

         000003e7 013C 
    2455                      ; branchcc occurs ; [] |1045| 
    2456                      .dwpsn  file "C:/work/grepos/bootrom/Boot_ROM/F2837x_bootROM-REVB/F2837x_bootROM_dev/F2837x_bootROM/c
    2457 000003e8 8F0B          MOVL      XAR4,#770048          ; [CPU_U] |1046| 
         000003e9 C000 
    2458 000003ea 0646          MOVL      ACC,*-SP[6]           ; [CPU_] |1046| 
    2459 000003eb A8AB          MOVL      P,XAR4                ; [CPU_] |1046| 
    2460 000003ec CEAB          AND       AL,PL                 ; [CPU_] |1046| 
    2461 000003ed CFAA          AND       AH,PH                 ; [CPU_] |1046| 
    2462 000003ee 0FA4          CMPL      ACC,XAR4              ; [CPU_] |1046| 
    2463                      .dwpsn  file "C:/work/grepos/bootrom/Boot_ROM/F2837x_bootROM-REVB/F2837x_bootROM_dev/F2837x_bootROM/c
    2464 000003ef 56B1          MOVB      *-SP[9],#24,EQ        ; [CPU_] |1049| 
         000003f0 1849 
    2465                      .dwpsn  file "C:/work/grepos/bootrom/Boot_ROM/F2837x_bootROM-REVB/F2837x_bootROM_dev/F2837x_bootROM/c
    2466 000003f1 56C1          BF        $C$L73,EQ             ; [CPU_] |1050| 
         000003f2 0131 
    2467                      ; branchcc occurs ; [] |1050| 
    2468                      .dwpsn  file "C:/work/grepos/bootrom/Boot_ROM/F2837x_bootROM-REVB/F2837x_bootROM_dev/F2837x_bootROM/c
    2469 000003f3 8F0B          MOVL      XAR4,#761856          ; [CPU_U] |1051| 
         000003f4 A000 
    2470 000003f5 0646          MOVL      ACC,*-SP[6]           ; [CPU_] |1051| 
    2471 000003f6 A8AB          MOVL      P,XAR4                ; [CPU_] |1051| 
    2472 000003f7 CEAB          AND       AL,PL                 ; [CPU_] |1051| 
    2473 000003f8 CFAA          AND       AH,PH                 ; [CPU_] |1051| 
    2474 000003f9 0FA4          CMPL      ACC,XAR4              ; [CPU_] |1051| 
    2475                      .dwpsn  file "C:/work/grepos/bootrom/Boot_ROM/F2837x_bootROM-REVB/F2837x_bootROM_dev/F2837x_bootROM/c
    2476 000003fa 56B1          MOVB      *-SP[9],#22,EQ        ; [CPU_] |1054| 
         000003fb 1649 
    2477                      .dwpsn  file "C:/work/grepos/bootrom/Boot_ROM/F2837x_bootROM-REVB/F2837x_bootROM_dev/F2837x_bootROM/c
    2478 000003fc 56C1          BF        $C$L73,EQ             ; [CPU_] |1055| 
         000003fd 0126 
    2479                      ; branchcc occurs ; [] |1055| 
    2480                      .dwpsn  file "C:/work/grepos/bootrom/Boot_ROM/F2837x_bootROM-REVB/F2837x_bootROM_dev/F2837x_bootROM/c
    2481 000003fe 8F0B          MOVL      XAR4,#753664          ; [CPU_U] |1056| 
         000003ff 8000 
    2482 00000400 0646          MOVL      ACC,*-SP[6]           ; [CPU_] |1056| 
    2483 00000401 A8AB          MOVL      P,XAR4                ; [CPU_] |1056| 
    2484 00000402 CEAB          AND       AL,PL                 ; [CPU_] |1056| 
    2485 00000403 CFAA          AND       AH,PH                 ; [CPU_] |1056| 
    2486 00000404 0FA4          CMPL      ACC,XAR4              ; [CPU_] |1056| 
    2487                      .dwpsn  file "C:/work/grepos/bootrom/Boot_ROM/F2837x_bootROM-REVB/F2837x_bootROM_dev/F2837x_bootROM/c
    2488 00000405 56B1          MOVB      *-SP[9],#20,EQ        ; [CPU_] |1059| 
         00000406 1449 
    2489                      .dwpsn  file "C:/work/grepos/bootrom/Boot_ROM/F2837x_bootROM-REVB/F2837x_bootROM_dev/F2837x_bootROM/c
    2490 00000407 FFEF          B         $C$L73,UNC            ; [CPU_] |1061| 
         00000408 011B 
    2491                      ; branch occurs ; [] |1061| 
    2492 00000409       $C$L67:    
    2493                      .dwpsn  file "C:/work/grepos/bootrom/Boot_ROM/F2837x_bootROM-REVB/F2837x_bootROM_dev/F2837x_bootROM/c
    2494 00000409 C446          MOVL      XAR6,*-SP[6]          ; [CPU_] |1062| 
    2495 0000040a 8F08          MOVL      XAR4,#557056          ; [CPU_U] |1062| 
         0000040b 8000 
    2496 0000040c A8A9          MOVL      ACC,XAR4              ; [CPU_] |1062| 
    2497 0000040d 0FA6          CMPL      ACC,XAR6              ; [CPU_] |1062| 
    2498 0000040e 6661          B         $C$L69,HI             ; [CPU_] |1062| 
TMS320C2000 Assembler PC v6.1.3 Thu Jan 30 10:33:25 2014

Tools Copyright (c) 1996-2012 Texas Instruments Incorporated
C:\Users\a0272466\AppData\Local\Temp\0939610                         PAGE   54

    2499                      ; branchcc occurs ; [] |1062| 
    2500 0000040f C446          MOVL      XAR6,*-SP[6]          ; [CPU_] |1062| 
    2501 00000410 8F0B          MOVL      XAR4,#753664          ; [CPU_U] |1062| 
         00000411 8000 
    2502 00000412 A8A9          MOVL      ACC,XAR4              ; [CPU_] |1062| 
    2503 00000413 0FA6          CMPL      ACC,XAR6              ; [CPU_] |1062| 
    2504 00000414 695B          B         $C$L69,LOS            ; [CPU_] |1062| 
    2505                      ; branchcc occurs ; [] |1062| 
    2506                      .dwpsn  file "C:/work/grepos/bootrom/Boot_ROM/F2837x_bootROM-REVB/F2837x_bootROM_dev/F2837x_bootROM/c
    2507 00000415 0646          MOVL      ACC,*-SP[6]           ; [CPU_] |1065| 
    2508 00000416 8F00          MOVL      XAR4,#32768           ; [CPU_U] |1065| 
         00000417 8000 
    2509 00000418 9B00          MOVB      AH,#0                 ; [CPU_] |1065| 
    2510 00000419 18A9          AND       AL,#0x7fff            ; [CPU_] |1065| 
         0000041a 7FFF 
    2511 0000041b 0D4B          ADDU      ACC,*-SP[11]          ; [CPU_] |1065| 
    2512 0000041c 0FA4          CMPL      ACC,XAR4              ; [CPU_] |1065| 
    2513 0000041d 6911          B         $C$L68,LOS            ; [CPU_] |1065| 
    2514                      ; branchcc occurs ; [] |1065| 
    2515                      .dwpsn  file "C:/work/grepos/bootrom/Boot_ROM/F2837x_bootROM-REVB/F2837x_bootROM_dev/F2837x_bootROM/c
    2516 0000041e 1822!         AND       @_DcsmRegsZ1+34,#0xfffe ; [CPU_] |1067| 
         0000041f FFFE 
    2517                      .dwpsn  file "C:/work/grepos/bootrom/Boot_ROM/F2837x_bootROM-REVB/F2837x_bootROM_dev/F2837x_bootROM/c
    2518 00000420 2B4B          MOV       *-SP[11],#0           ; [CPU_] |1069| 
    2519                      .dwpsn  file "C:/work/grepos/bootrom/Boot_ROM/F2837x_bootROM-REVB/F2837x_bootROM_dev/F2837x_bootROM/c
    2520 00000421 0200          MOVB      ACC,#0                ; [CPU_] |1070| 
    2521 00000422 1E44          MOVL      *-SP[4],ACC           ; [CPU_] |1070| 
    2522                      .dwpsn  file "C:/work/grepos/bootrom/Boot_ROM/F2837x_bootROM-REVB/F2837x_bootROM_dev/F2837x_bootROM/c
    2523 00000423 1E46          MOVL      *-SP[6],ACC           ; [CPU_] |1071| 
    2524                      .dwpsn  file "C:/work/grepos/bootrom/Boot_ROM/F2837x_bootROM-REVB/F2837x_bootROM_dev/F2837x_bootROM/c
    2525 00000424 2847          MOV       *-SP[7],#65535        ; [CPU_] |1072| 
         00000425 FFFF 
    2526                      .dwpsn  file "C:/work/grepos/bootrom/Boot_ROM/F2837x_bootROM-REVB/F2837x_bootROM_dev/F2837x_bootROM/c
    2527 00000426 2848          MOV       *-SP[8],#65535        ; [CPU_] |1073| 
         00000427 FFFF 
    2528                      .dwpsn  file "C:/work/grepos/bootrom/Boot_ROM/F2837x_bootROM-REVB/F2837x_bootROM_dev/F2837x_bootROM/c
    2529 00000428 2849          MOV       *-SP[9],#65535        ; [CPU_] |1074| 
         00000429 FFFF 
    2530                      .dwpsn  file "C:/work/grepos/bootrom/Boot_ROM/F2837x_bootROM-REVB/F2837x_bootROM_dev/F2837x_bootROM/c
    2531 0000042a 2B4A          MOV       *-SP[10],#0           ; [CPU_] |1075| 
    2532                      .dwpsn  file "C:/work/grepos/bootrom/Boot_ROM/F2837x_bootROM-REVB/F2837x_bootROM_dev/F2837x_bootROM/c
    2533 0000042b 9A00          MOVB      AL,#0                 ; [CPU_] |1076| 
    2534 0000042c FFEF          B         $C$L81,UNC            ; [CPU_] |1076| 
         0000042d 0194 
    2535                      ; branch occurs ; [] |1076| 
    2536 0000042e       $C$L68:    
    2537                      .dwpsn  file "C:/work/grepos/bootrom/Boot_ROM/F2837x_bootROM-REVB/F2837x_bootROM_dev/F2837x_bootROM/c
    2538 0000042e 8F0B          MOVL      XAR4,#720896          ; [CPU_U] |1078| 
         0000042f 0000 
    2539 00000430 0646          MOVL      ACC,*-SP[6]           ; [CPU_] |1078| 
    2540 00000431 A8AB          MOVL      P,XAR4                ; [CPU_] |1078| 
    2541 00000432 CEAB          AND       AL,PL                 ; [CPU_] |1078| 
    2542 00000433 CFAA          AND       AH,PH                 ; [CPU_] |1078| 
    2543 00000434 0FA4          CMPL      ACC,XAR4              ; [CPU_] |1078| 
    2544                      .dwpsn  file "C:/work/grepos/bootrom/Boot_ROM/F2837x_bootROM-REVB/F2837x_bootROM_dev/F2837x_bootROM/c
TMS320C2000 Assembler PC v6.1.3 Thu Jan 30 10:33:25 2014

Tools Copyright (c) 1996-2012 Texas Instruments Incorporated
C:\Users\a0272466\AppData\Local\Temp\0939610                         PAGE   55

    2545 00000435 56B1          MOVB      *-SP[9],#18,EQ        ; [CPU_] |1081| 
         00000436 1249 
    2546                      .dwpsn  file "C:/work/grepos/bootrom/Boot_ROM/F2837x_bootROM-REVB/F2837x_bootROM_dev/F2837x_bootROM/c
    2547 00000437 56C1          BF        $C$L73,EQ             ; [CPU_] |1082| 
         00000438 00EB 
    2548                      ; branchcc occurs ; [] |1082| 
    2549                      .dwpsn  file "C:/work/grepos/bootrom/Boot_ROM/F2837x_bootROM-REVB/F2837x_bootROM_dev/F2837x_bootROM/c
    2550 00000439 8F0A          MOVL      XAR4,#688128          ; [CPU_U] |1083| 
         0000043a 8000 
    2551 0000043b 0646          MOVL      ACC,*-SP[6]           ; [CPU_] |1083| 
    2552 0000043c A8AB          MOVL      P,XAR4                ; [CPU_] |1083| 
    2553 0000043d CEAB          AND       AL,PL                 ; [CPU_] |1083| 
    2554 0000043e CFAA          AND       AH,PH                 ; [CPU_] |1083| 
    2555 0000043f 0FA4          CMPL      ACC,XAR4              ; [CPU_] |1083| 
    2556                      .dwpsn  file "C:/work/grepos/bootrom/Boot_ROM/F2837x_bootROM-REVB/F2837x_bootROM_dev/F2837x_bootROM/c
    2557 00000440 56B1          MOVB      *-SP[9],#16,EQ        ; [CPU_] |1086| 
         00000441 1049 
    2558                      .dwpsn  file "C:/work/grepos/bootrom/Boot_ROM/F2837x_bootROM-REVB/F2837x_bootROM_dev/F2837x_bootROM/c
    2559 00000442 56C1          BF        $C$L73,EQ             ; [CPU_] |1087| 
         00000443 00E0 
    2560                      ; branchcc occurs ; [] |1087| 
    2561                      .dwpsn  file "C:/work/grepos/bootrom/Boot_ROM/F2837x_bootROM-REVB/F2837x_bootROM_dev/F2837x_bootROM/c
    2562 00000444 0646          MOVL      ACC,*-SP[6]           ; [CPU_] |1088| 
