TMS320C2000 Assembler PC v6.1.3 Thu Jan 30 10:33:25 2014

Tools Copyright (c) 1996-2012 Texas Instruments Incorporated
C:\Users\a0272466\AppData\Local\Temp\0939610                         PAGE    1

       1              ;***************************************************************
       2              ;* TMS320C2000 C/C++ Codegen                         PC v6.1.3 *
       3              ;* Date/Time created: Thu Jan 30 10:33:21 2014                 *
       4              ;***************************************************************
       5                      .compiler_opts --float_support=fpu32 --hll_source=on --mem_model:code=flat --mem_model:data=large --o
       6        0002  FP      .set    XAR2
       7              
       8              $C$DW$CU        .dwtag  DW_TAG_compile_unit
       9                      .dwattr $C$DW$CU, DW_AT_name("C:/work/grepos/bootrom/Boot_ROM/F2837x_bootROM-REVB/F2837x_bootROM_dev/
      10                      .dwattr $C$DW$CU, DW_AT_producer("TMS320C2000 C/C++ Codegen PC v6.1.3 Copyright (c) 1996-2012 Texas I
      11                      .dwattr $C$DW$CU, DW_AT_TI_version(0x01)
      12                      .dwattr $C$DW$CU, DW_AT_comp_dir("C:\work\grepos\bootrom\Boot_ROM\F2837x_bootROM-REVB\F2837x_bootROM_
      13              
      14              $C$DW$1 .dwtag  DW_TAG_subprogram, DW_AT_name("CRCCalcZ2")
      15                      .dwattr $C$DW$1, DW_AT_TI_symbol_name("_CRCCalcZ2")
      16                      .dwattr $C$DW$1, DW_AT_type(*$C$DW$T$10)
      17                      .dwattr $C$DW$1, DW_AT_declaration
      18                      .dwattr $C$DW$1, DW_AT_external
      19              $C$DW$2 .dwtag  DW_TAG_formal_parameter
      20                      .dwattr $C$DW$2, DW_AT_type(*$C$DW$T$88)
      21              $C$DW$3 .dwtag  DW_TAG_formal_parameter
      22                      .dwattr $C$DW$3, DW_AT_type(*$C$DW$T$88)
      23              $C$DW$4 .dwtag  DW_TAG_formal_parameter
      24                      .dwattr $C$DW$4, DW_AT_type(*$C$DW$T$11)
      25                      .dwendtag $C$DW$1
      26              
      27              
      28              $C$DW$5 .dwtag  DW_TAG_subprogram, DW_AT_name("CRCCalcZ1")
      29                      .dwattr $C$DW$5, DW_AT_TI_symbol_name("_CRCCalcZ1")
      30                      .dwattr $C$DW$5, DW_AT_type(*$C$DW$T$10)
      31                      .dwattr $C$DW$5, DW_AT_declaration
      32                      .dwattr $C$DW$5, DW_AT_external
      33              $C$DW$6 .dwtag  DW_TAG_formal_parameter
      34                      .dwattr $C$DW$6, DW_AT_type(*$C$DW$T$88)
      35              $C$DW$7 .dwtag  DW_TAG_formal_parameter
      36                      .dwattr $C$DW$7, DW_AT_type(*$C$DW$T$88)
      37              $C$DW$8 .dwtag  DW_TAG_formal_parameter
      38                      .dwattr $C$DW$8, DW_AT_type(*$C$DW$T$11)
      39                      .dwendtag $C$DW$5
      40              
      41              $C$DW$9 .dwtag  DW_TAG_variable, DW_AT_name("DcsmRegsCommon")
      42                      .dwattr $C$DW$9, DW_AT_TI_symbol_name("_DcsmRegsCommon")
      43                      .dwattr $C$DW$9, DW_AT_type(*$C$DW$T$73)
      44                      .dwattr $C$DW$9, DW_AT_declaration
      45                      .dwattr $C$DW$9, DW_AT_external
      46              $C$DW$10        .dwtag  DW_TAG_variable, DW_AT_name("DcsmRegsZ1")
      47                      .dwattr $C$DW$10, DW_AT_TI_symbol_name("_DcsmRegsZ1")
      48                      .dwattr $C$DW$10, DW_AT_type(*$C$DW$T$74)
      49                      .dwattr $C$DW$10, DW_AT_declaration
      50                      .dwattr $C$DW$10, DW_AT_external
      51              $C$DW$11        .dwtag  DW_TAG_variable, DW_AT_name("DcsmRegsZ2")
      52                      .dwattr $C$DW$11, DW_AT_TI_symbol_name("_DcsmRegsZ2")
      53                      .dwattr $C$DW$11, DW_AT_type(*$C$DW$T$75)
      54                      .dwattr $C$DW$11, DW_AT_declaration
      55                      .dwattr $C$DW$11, DW_AT_external
TMS320C2000 Assembler PC v6.1.3 Thu Jan 30 10:33:25 2014

Tools Copyright (c) 1996-2012 Texas Instruments Incorporated
C:\Users\a0272466\AppData\Local\Temp\0939610                         PAGE    2

      56              ;       C:\ti\ccsv5\tools\compiler\c2000_6.1.3\bin\ac2000.exe -@C:\\Users\\a0272466\\AppData\\Local\\Temp\\09
      57 00000000               .sect   "SCCLZ1"
      58                      .global _SafeCopyCodeZ1
      59              
      60              $C$DW$12        .dwtag  DW_TAG_subprogram, DW_AT_name("SafeCopyCodeZ1")
      61                      .dwattr $C$DW$12, DW_AT_low_pc(_SafeCopyCodeZ1)
      62                      .dwattr $C$DW$12, DW_AT_high_pc(0x00)
      63                      .dwattr $C$DW$12, DW_AT_TI_symbol_name("_SafeCopyCodeZ1")
      64                      .dwattr $C$DW$12, DW_AT_external
      65                      .dwattr $C$DW$12, DW_AT_type(*$C$DW$T$21)
      66                      .dwattr $C$DW$12, DW_AT_TI_begin_file("C:/work/grepos/bootrom/Boot_ROM/F2837x_bootROM-REVB/F2837x_boo
      67                      .dwattr $C$DW$12, DW_AT_TI_begin_line(0x2f)
      68                      .dwattr $C$DW$12, DW_AT_TI_begin_column(0x08)
      69                      .dwattr $C$DW$12, DW_AT_TI_max_frame_size(-14)
      70                      .dwpsn  file "C:/work/grepos/bootrom/Boot_ROM/F2837x_bootROM-REVB/F2837x_bootROM_dev/F2837x_bootROM/c
      71              
      72                      .dwfde $C$DW$CIE, _SafeCopyCodeZ1
      73              $C$DW$13        .dwtag  DW_TAG_formal_parameter, DW_AT_name("size")
      74                      .dwattr $C$DW$13, DW_AT_TI_symbol_name("_size")
      75                      .dwattr $C$DW$13, DW_AT_type(*$C$DW$T$20)
      76                      .dwattr $C$DW$13, DW_AT_location[DW_OP_reg0]
      77              $C$DW$14        .dwtag  DW_TAG_formal_parameter, DW_AT_name("dst")
      78                      .dwattr $C$DW$14, DW_AT_TI_symbol_name("_dst")
      79                      .dwattr $C$DW$14, DW_AT_type(*$C$DW$T$91)
      80                      .dwattr $C$DW$14, DW_AT_location[DW_OP_reg12]
      81              $C$DW$15        .dwtag  DW_TAG_formal_parameter, DW_AT_name("src")
      82                      .dwattr $C$DW$15, DW_AT_TI_symbol_name("_src")
      83                      .dwattr $C$DW$15, DW_AT_type(*$C$DW$T$91)
      84                      .dwattr $C$DW$15, DW_AT_location[DW_OP_reg14]
      85              
      86              ;***************************************************************
      87              ;* FNAME: _SafeCopyCodeZ1               FR SIZE:  12           *
      88              ;*                                                             *
      89              ;* FUNCTION ENVIRONMENT                                        *
      90              ;*                                                             *
      91              ;* FUNCTION PROPERTIES                                         *
      92              ;*                            0 Parameter, 11 Auto,  0 SOE     *
      93              ;***************************************************************
      94              
      95 00000000       _SafeCopyCodeZ1:
      96                      .dwcfi  cfa_offset, -2
      97                      .dwcfi  save_reg_to_mem, 26, 0
      98                      .dwcfi  save_reg_to_reg, 78, 26
      99 00000000 FE0C          ADDB      SP,#12                ; [CPU_U] 
     100                      .dwcfi  cfa_offset, -14
     101              $C$DW$16        .dwtag  DW_TAG_variable, DW_AT_name("size")
     102                      .dwattr $C$DW$16, DW_AT_TI_symbol_name("_size")
     103                      .dwattr $C$DW$16, DW_AT_type(*$C$DW$T$20)
     104                      .dwattr $C$DW$16, DW_AT_location[DW_OP_breg20 -2]
     105              $C$DW$17        .dwtag  DW_TAG_variable, DW_AT_name("dst")
     106                      .dwattr $C$DW$17, DW_AT_TI_symbol_name("_dst")
     107                      .dwattr $C$DW$17, DW_AT_type(*$C$DW$T$91)
     108                      .dwattr $C$DW$17, DW_AT_location[DW_OP_breg20 -4]
     109              $C$DW$18        .dwtag  DW_TAG_variable, DW_AT_name("src")
     110                      .dwattr $C$DW$18, DW_AT_TI_symbol_name("_src")
TMS320C2000 Assembler PC v6.1.3 Thu Jan 30 10:33:25 2014

Tools Copyright (c) 1996-2012 Texas Instruments Incorporated
C:\Users\a0272466\AppData\Local\Temp\0939610                         PAGE    3

     111                      .dwattr $C$DW$18, DW_AT_type(*$C$DW$T$91)
     112                      .dwattr $C$DW$18, DW_AT_location[DW_OP_breg20 -6]
     113              $C$DW$19        .dwtag  DW_TAG_variable, DW_AT_name("copied")
     114                      .dwattr $C$DW$19, DW_AT_TI_symbol_name("_copied")
     115                      .dwattr $C$DW$19, DW_AT_type(*$C$DW$T$20)
     116                      .dwattr $C$DW$19, DW_AT_location[DW_OP_breg20 -8]
     117              $C$DW$20        .dwtag  DW_TAG_variable, DW_AT_name("dst_ram")
     118                      .dwattr $C$DW$20, DW_AT_TI_symbol_name("_dst_ram")
     119                      .dwattr $C$DW$20, DW_AT_type(*$C$DW$T$21)
     120                      .dwattr $C$DW$20, DW_AT_location[DW_OP_breg20 -9]
     121              $C$DW$21        .dwtag  DW_TAG_variable, DW_AT_name("src_sect")
     122                      .dwattr $C$DW$21, DW_AT_TI_symbol_name("_src_sect")
     123                      .dwattr $C$DW$21, DW_AT_type(*$C$DW$T$21)
     124                      .dwattr $C$DW$21, DW_AT_location[DW_OP_breg20 -10]
     125              $C$DW$22        .dwtag  DW_TAG_variable, DW_AT_name("check_var")
     126                      .dwattr $C$DW$22, DW_AT_TI_symbol_name("_check_var")
     127                      .dwattr $C$DW$22, DW_AT_type(*$C$DW$T$21)
     128                      .dwattr $C$DW$22, DW_AT_location[DW_OP_breg20 -11]
     129 00000001 A046          MOVL      *-SP[6],XAR5          ; [CPU_] |48| 
     130 00000002 A844          MOVL      *-SP[4],XAR4          ; [CPU_] |48| 
     131 00000003 1E42          MOVL      *-SP[2],ACC           ; [CPU_] |48| 
     132                      .dwpsn  file "C:/work/grepos/bootrom/Boot_ROM/F2837x_bootROM-REVB/F2837x_bootROM_dev/F2837x_bootROM/c
     133 00000004 0200          MOVB      ACC,#0                ; [CPU_] |49| 
     134 00000005 1E48          MOVL      *-SP[8],ACC           ; [CPU_] |49| 
     135                      .dwpsn  file "C:/work/grepos/bootrom/Boot_ROM/F2837x_bootROM-REVB/F2837x_bootROM_dev/F2837x_bootROM/c
     136 00000006 2849          MOV       *-SP[9],#65535        ; [CPU_] |50| 
         00000007 FFFF 
     137                      .dwpsn  file "C:/work/grepos/bootrom/Boot_ROM/F2837x_bootROM-REVB/F2837x_bootROM_dev/F2837x_bootROM/c
     138 00000008 284A          MOV       *-SP[10],#65535       ; [CPU_] |51| 
         00000009 FFFF 
     139                      .dwpsn  file "C:/work/grepos/bootrom/Boot_ROM/F2837x_bootROM-REVB/F2837x_bootROM_dev/F2837x_bootROM/c
     140 0000000a 284B          MOV       *-SP[11],#64095       ; [CPU_] |52| 
         0000000b FA5F 
     141                      .dwpsn  file "C:/work/grepos/bootrom/Boot_ROM/F2837x_bootROM-REVB/F2837x_bootROM_dev/F2837x_bootROM/c
     142 0000000c 761F!         MOVW      DP,#_DcsmRegsZ1+34    ; [CPU_U] 
         0000000d 0000 
     143 0000000e 1A22!         OR        @_DcsmRegsZ1+34,#0x0001 ; [CPU_] |55| 
         0000000f 0001 
     144                      .dwpsn  file "C:/work/grepos/bootrom/Boot_ROM/F2837x_bootROM-REVB/F2837x_bootROM_dev/F2837x_bootROM/c
     145 00000010 0642          MOVL      ACC,*-SP[2]           ; [CPU_] |58| 
     146 00000011 EC05          BF        $C$L1,EQ              ; [CPU_] |58| 
     147                      ; branchcc occurs ; [] |58| 
     148 00000012 0644          MOVL      ACC,*-SP[4]           ; [CPU_] |58| 
     149 00000013 EC03          BF        $C$L1,EQ              ; [CPU_] |58| 
     150                      ; branchcc occurs ; [] |58| 
     151 00000014 0646          MOVL      ACC,*-SP[6]           ; [CPU_] |58| 
     152 00000015 ED10          BF        $C$L2,NEQ             ; [CPU_] |58| 
     153                      ; branchcc occurs ; [] |58| 
     154 00000016       $C$L1:    
     155                      .dwpsn  file "C:/work/grepos/bootrom/Boot_ROM/F2837x_bootROM-REVB/F2837x_bootROM_dev/F2837x_bootROM/c
     156 00000016 1822!         AND       @_DcsmRegsZ1+34,#0xfffe ; [CPU_] |60| 
         00000017 FFFE 
     157                      .dwpsn  file "C:/work/grepos/bootrom/Boot_ROM/F2837x_bootROM-REVB/F2837x_bootROM_dev/F2837x_bootROM/c
     158 00000018 0200          MOVB      ACC,#0                ; [CPU_] |62| 
     159 00000019 1E42          MOVL      *-SP[2],ACC           ; [CPU_] |62| 
TMS320C2000 Assembler PC v6.1.3 Thu Jan 30 10:33:25 2014

Tools Copyright (c) 1996-2012 Texas Instruments Incorporated
C:\Users\a0272466\AppData\Local\Temp\0939610                         PAGE    4

     160                      .dwpsn  file "C:/work/grepos/bootrom/Boot_ROM/F2837x_bootROM-REVB/F2837x_bootROM_dev/F2837x_bootROM/c
     161 0000001a 1E44          MOVL      *-SP[4],ACC           ; [CPU_] |63| 
     162                      .dwpsn  file "C:/work/grepos/bootrom/Boot_ROM/F2837x_bootROM-REVB/F2837x_bootROM_dev/F2837x_bootROM/c
     163 0000001b 1E46          MOVL      *-SP[6],ACC           ; [CPU_] |64| 
     164                      .dwpsn  file "C:/work/grepos/bootrom/Boot_ROM/F2837x_bootROM-REVB/F2837x_bootROM_dev/F2837x_bootROM/c
     165 0000001c 1E48          MOVL      *-SP[8],ACC           ; [CPU_] |65| 
     166                      .dwpsn  file "C:/work/grepos/bootrom/Boot_ROM/F2837x_bootROM-REVB/F2837x_bootROM_dev/F2837x_bootROM/c
     167 0000001d 2849          MOV       *-SP[9],#65535        ; [CPU_] |66| 
         0000001e FFFF 
     168                      .dwpsn  file "C:/work/grepos/bootrom/Boot_ROM/F2837x_bootROM-REVB/F2837x_bootROM_dev/F2837x_bootROM/c
     169 0000001f 284A          MOV       *-SP[10],#65535       ; [CPU_] |67| 
         00000020 FFFF 
     170                      .dwpsn  file "C:/work/grepos/bootrom/Boot_ROM/F2837x_bootROM-REVB/F2837x_bootROM_dev/F2837x_bootROM/c
     171 00000021 2B4B          MOV       *-SP[11],#0           ; [CPU_] |68| 
     172                      .dwpsn  file "C:/work/grepos/bootrom/Boot_ROM/F2837x_bootROM-REVB/F2837x_bootROM_dev/F2837x_bootROM/c
     173 00000022 9A00          MOVB      AL,#0                 ; [CPU_] |69| 
     174 00000023 FFEF          B         $C$L28,UNC            ; [CPU_] |69| 
         00000024 029E 
     175                      ; branch occurs ; [] |69| 
     176 00000025       $C$L2:    
     177                      .dwpsn  file "C:/work/grepos/bootrom/Boot_ROM/F2837x_bootROM-REVB/F2837x_bootROM_dev/F2837x_bootROM/c
     178 00000025 C446          MOVL      XAR6,*-SP[6]          ; [CPU_] |73| 
     179 00000026 8F10          MOVL      XAR4,#1048576         ; [CPU_U] |73| 
         00000027 0000 
     180 00000028 A8A9          MOVL      ACC,XAR4              ; [CPU_] |73| 
     181 00000029 0FA6          CMPL      ACC,XAR6              ; [CPU_] |73| 
     182 0000002a 6907          B         $C$L3,LOS             ; [CPU_] |73| 
     183                      ; branchcc occurs ; [] |73| 
     184 0000002b C446          MOVL      XAR6,*-SP[6]          ; [CPU_] |73| 
     185 0000002c 8F08          MOVL      XAR4,#524288          ; [CPU_U] |73| 
         0000002d 0000 
     186 0000002e A8A9          MOVL      ACC,XAR4              ; [CPU_] |73| 
     187 0000002f 0FA6          CMPL      ACC,XAR6              ; [CPU_] |73| 
     188 00000030 6910          B         $C$L4,LOS             ; [CPU_] |73| 
     189                      ; branchcc occurs ; [] |73| 
     190 00000031       $C$L3:    
     191                      .dwpsn  file "C:/work/grepos/bootrom/Boot_ROM/F2837x_bootROM-REVB/F2837x_bootROM_dev/F2837x_bootROM/c
     192 00000031 1822!         AND       @_DcsmRegsZ1+34,#0xfffe ; [CPU_] |76| 
         00000032 FFFE 
     193                      .dwpsn  file "C:/work/grepos/bootrom/Boot_ROM/F2837x_bootROM-REVB/F2837x_bootROM_dev/F2837x_bootROM/c
     194 00000033 0200          MOVB      ACC,#0                ; [CPU_] |78| 
     195 00000034 1E42          MOVL      *-SP[2],ACC           ; [CPU_] |78| 
     196                      .dwpsn  file "C:/work/grepos/bootrom/Boot_ROM/F2837x_bootROM-REVB/F2837x_bootROM_dev/F2837x_bootROM/c
     197 00000035 1E44          MOVL      *-SP[4],ACC           ; [CPU_] |79| 
     198                      .dwpsn  file "C:/work/grepos/bootrom/Boot_ROM/F2837x_bootROM-REVB/F2837x_bootROM_dev/F2837x_bootROM/c
     199 00000036 1E46          MOVL      *-SP[6],ACC           ; [CPU_] |80| 
     200                      .dwpsn  file "C:/work/grepos/bootrom/Boot_ROM/F2837x_bootROM-REVB/F2837x_bootROM_dev/F2837x_bootROM/c
     201 00000037 1E48          MOVL      *-SP[8],ACC           ; [CPU_] |81| 
     202                      .dwpsn  file "C:/work/grepos/bootrom/Boot_ROM/F2837x_bootROM-REVB/F2837x_bootROM_dev/F2837x_bootROM/c
     203 00000038 2849          MOV       *-SP[9],#65535        ; [CPU_] |82| 
         00000039 FFFF 
     204                      .dwpsn  file "C:/work/grepos/bootrom/Boot_ROM/F2837x_bootROM-REVB/F2837x_bootROM_dev/F2837x_bootROM/c
     205 0000003a 284A          MOV       *-SP[10],#65535       ; [CPU_] |83| 
         0000003b FFFF 
     206                      .dwpsn  file "C:/work/grepos/bootrom/Boot_ROM/F2837x_bootROM-REVB/F2837x_bootROM_dev/F2837x_bootROM/c
TMS320C2000 Assembler PC v6.1.3 Thu Jan 30 10:33:25 2014

Tools Copyright (c) 1996-2012 Texas Instruments Incorporated
C:\Users\a0272466\AppData\Local\Temp\0939610                         PAGE    5

     207 0000003c 2B4B          MOV       *-SP[11],#0           ; [CPU_] |84| 
     208                      .dwpsn  file "C:/work/grepos/bootrom/Boot_ROM/F2837x_bootROM-REVB/F2837x_bootROM_dev/F2837x_bootROM/c
     209 0000003d 9A00          MOVB      AL,#0                 ; [CPU_] |85| 
     210 0000003e FFEF          B         $C$L28,UNC            ; [CPU_] |85| 
         0000003f 0283 
     211                      ; branch occurs ; [] |85| 
     212 00000040       $C$L4:    
     213                      .dwpsn  file "C:/work/grepos/bootrom/Boot_ROM/F2837x_bootROM-REVB/F2837x_bootROM_dev/F2837x_bootROM/c
     214 00000040 C444          MOVL      XAR6,*-SP[4]          ; [CPU_] |91| 
     215 00000041 2901          CLRC      SXM                   ; [CPU_] 
     216 00000042 FF20          MOV       ACC,#49152            ; [CPU_] |91| 
         00000043 C000 
     217 00000044 0FA6          CMPL      ACC,XAR6              ; [CPU_] |91| 
     218 00000045 6906          B         $C$L5,LOS             ; [CPU_] |91| 
     219                      ; branchcc occurs ; [] |91| 
     220 00000046 C444          MOVL      XAR6,*-SP[4]          ; [CPU_] |91| 
     221 00000047 FF20          MOV       ACC,#32768            ; [CPU_] |91| 
         00000048 8000 
     222 00000049 0FA6          CMPL      ACC,XAR6              ; [CPU_] |91| 
     223 0000004a 6910          B         $C$L6,LOS             ; [CPU_] |91| 
     224                      ; branchcc occurs ; [] |91| 
     225 0000004b       $C$L5:    
     226                      .dwpsn  file "C:/work/grepos/bootrom/Boot_ROM/F2837x_bootROM-REVB/F2837x_bootROM_dev/F2837x_bootROM/c
     227 0000004b 1822!         AND       @_DcsmRegsZ1+34,#0xfffe ; [CPU_] |94| 
         0000004c FFFE 
     228                      .dwpsn  file "C:/work/grepos/bootrom/Boot_ROM/F2837x_bootROM-REVB/F2837x_bootROM_dev/F2837x_bootROM/c
     229 0000004d 0200          MOVB      ACC,#0                ; [CPU_] |96| 
     230 0000004e 1E42          MOVL      *-SP[2],ACC           ; [CPU_] |96| 
     231                      .dwpsn  file "C:/work/grepos/bootrom/Boot_ROM/F2837x_bootROM-REVB/F2837x_bootROM_dev/F2837x_bootROM/c
     232 0000004f 1E44          MOVL      *-SP[4],ACC           ; [CPU_] |97| 
     233                      .dwpsn  file "C:/work/grepos/bootrom/Boot_ROM/F2837x_bootROM-REVB/F2837x_bootROM_dev/F2837x_bootROM/c
     234 00000050 1E46          MOVL      *-SP[6],ACC           ; [CPU_] |98| 
     235                      .dwpsn  file "C:/work/grepos/bootrom/Boot_ROM/F2837x_bootROM-REVB/F2837x_bootROM_dev/F2837x_bootROM/c
     236 00000051 1E48          MOVL      *-SP[8],ACC           ; [CPU_] |99| 
     237                      .dwpsn  file "C:/work/grepos/bootrom/Boot_ROM/F2837x_bootROM-REVB/F2837x_bootROM_dev/F2837x_bootROM/c
     238 00000052 2849          MOV       *-SP[9],#65535        ; [CPU_] |100| 
         00000053 FFFF 
     239                      .dwpsn  file "C:/work/grepos/bootrom/Boot_ROM/F2837x_bootROM-REVB/F2837x_bootROM_dev/F2837x_bootROM/c
     240 00000054 284A          MOV       *-SP[10],#65535       ; [CPU_] |101| 
         00000055 FFFF 
     241                      .dwpsn  file "C:/work/grepos/bootrom/Boot_ROM/F2837x_bootROM-REVB/F2837x_bootROM_dev/F2837x_bootROM/c
     242 00000056 2B4B          MOV       *-SP[11],#0           ; [CPU_] |102| 
     243                      .dwpsn  file "C:/work/grepos/bootrom/Boot_ROM/F2837x_bootROM-REVB/F2837x_bootROM_dev/F2837x_bootROM/c
     244 00000057 9A00          MOVB      AL,#0                 ; [CPU_] |103| 
     245 00000058 FFEF          B         $C$L28,UNC            ; [CPU_] |103| 
         00000059 0269 
     246                      ; branch occurs ; [] |103| 
     247 0000005a       $C$L6:    
     248                      .dwpsn  file "C:/work/grepos/bootrom/Boot_ROM/F2837x_bootROM-REVB/F2837x_bootROM_dev/F2837x_bootROM/c
     249 0000005a 0644          MOVL      ACC,*-SP[4]           ; [CPU_] |109| 
     250 0000005b 8F00          MOVL      XAR4,#2048            ; [CPU_U] |109| 
         0000005c 0800 
     251 0000005d 9B00          MOVB      AH,#0                 ; [CPU_] |109| 
     252 0000005e 18A9          AND       AL,#0x07ff            ; [CPU_] |109| 
         0000005f 07FF 
TMS320C2000 Assembler PC v6.1.3 Thu Jan 30 10:33:25 2014

Tools Copyright (c) 1996-2012 Texas Instruments Incorporated
C:\Users\a0272466\AppData\Local\Temp\0939610                         PAGE    6

     253 00000060 0742          ADDL      ACC,*-SP[2]           ; [CPU_] |109| 
     254 00000061 0FA4          CMPL      ACC,XAR4              ; [CPU_] |109| 
     255 00000062 6910          B         $C$L7,LOS             ; [CPU_] |109| 
     256                      ; branchcc occurs ; [] |109| 
     257                      .dwpsn  file "C:/work/grepos/bootrom/Boot_ROM/F2837x_bootROM-REVB/F2837x_bootROM_dev/F2837x_bootROM/c
     258 00000063 1822!         AND       @_DcsmRegsZ1+34,#0xfffe ; [CPU_] |111| 
         00000064 FFFE 
     259                      .dwpsn  file "C:/work/grepos/bootrom/Boot_ROM/F2837x_bootROM-REVB/F2837x_bootROM_dev/F2837x_bootROM/c
     260 00000065 0200          MOVB      ACC,#0                ; [CPU_] |113| 
     261 00000066 1E42          MOVL      *-SP[2],ACC           ; [CPU_] |113| 
     262                      .dwpsn  file "C:/work/grepos/bootrom/Boot_ROM/F2837x_bootROM-REVB/F2837x_bootROM_dev/F2837x_bootROM/c
     263 00000067 1E44          MOVL      *-SP[4],ACC           ; [CPU_] |114| 
     264                      .dwpsn  file "C:/work/grepos/bootrom/Boot_ROM/F2837x_bootROM-REVB/F2837x_bootROM_dev/F2837x_bootROM/c
     265 00000068 1E46          MOVL      *-SP[6],ACC           ; [CPU_] |115| 
     266                      .dwpsn  file "C:/work/grepos/bootrom/Boot_ROM/F2837x_bootROM-REVB/F2837x_bootROM_dev/F2837x_bootROM/c
     267 00000069 1E48          MOVL      *-SP[8],ACC           ; [CPU_] |116| 
     268                      .dwpsn  file "C:/work/grepos/bootrom/Boot_ROM/F2837x_bootROM-REVB/F2837x_bootROM_dev/F2837x_bootROM/c
     269 0000006a 2849          MOV       *-SP[9],#65535        ; [CPU_] |117| 
         0000006b FFFF 
     270                      .dwpsn  file "C:/work/grepos/bootrom/Boot_ROM/F2837x_bootROM-REVB/F2837x_bootROM_dev/F2837x_bootROM/c
     271 0000006c 284A          MOV       *-SP[10],#65535       ; [CPU_] |118| 
         0000006d FFFF 
     272                      .dwpsn  file "C:/work/grepos/bootrom/Boot_ROM/F2837x_bootROM-REVB/F2837x_bootROM_dev/F2837x_bootROM/c
     273 0000006e 2B4B          MOV       *-SP[11],#0           ; [CPU_] |119| 
     274                      .dwpsn  file "C:/work/grepos/bootrom/Boot_ROM/F2837x_bootROM-REVB/F2837x_bootROM_dev/F2837x_bootROM/c
     275 0000006f 9A00          MOVB      AL,#0                 ; [CPU_] |120| 
     276 00000070 FFEF          B         $C$L28,UNC            ; [CPU_] |120| 
         00000071 0251 
     277                      ; branch occurs ; [] |120| 
     278 00000072       $C$L7:    
     279                      .dwpsn  file "C:/work/grepos/bootrom/Boot_ROM/F2837x_bootROM-REVB/F2837x_bootROM_dev/F2837x_bootROM/c
     280 00000072 0644          MOVL      ACC,*-SP[4]           ; [CPU_] |124| 
     281 00000073 8F00          MOVL      XAR4,#47104           ; [CPU_U] |124| 
         00000074 B800 
     282 00000075 9B00          MOVB      AH,#0                 ; [CPU_] |124| 
     283 00000076 18A9          AND       AL,#0xb800            ; [CPU_] |124| 
         00000077 B800 
     284 00000078 0FA4          CMPL      ACC,XAR4              ; [CPU_] |124| 
     285                      .dwpsn  file "C:/work/grepos/bootrom/Boot_ROM/F2837x_bootROM-REVB/F2837x_bootROM_dev/F2837x_bootROM/c
     286 00000079 56B1          MOVB      *-SP[9],#14,EQ        ; [CPU_] |127| 
         0000007a 0E49 
     287                      .dwpsn  file "C:/work/grepos/bootrom/Boot_ROM/F2837x_bootROM-REVB/F2837x_bootROM_dev/F2837x_bootROM/c
     288 0000007b EC46          BF        $C$L8,EQ              ; [CPU_] |128| 
     289                      ; branchcc occurs ; [] |128| 
     290                      .dwpsn  file "C:/work/grepos/bootrom/Boot_ROM/F2837x_bootROM-REVB/F2837x_bootROM_dev/F2837x_bootROM/c
     291 0000007c 0644          MOVL      ACC,*-SP[4]           ; [CPU_] |129| 
     292 0000007d 8F00          MOVL      XAR4,#45056           ; [CPU_U] |129| 
         0000007e B000 
     293 0000007f 9B00          MOVB      AH,#0                 ; [CPU_] |129| 
     294 00000080 18A9          AND       AL,#0xb000            ; [CPU_] |129| 
         00000081 B000 
     295 00000082 0FA4          CMPL      ACC,XAR4              ; [CPU_] |129| 
     296                      .dwpsn  file "C:/work/grepos/bootrom/Boot_ROM/F2837x_bootROM-REVB/F2837x_bootROM_dev/F2837x_bootROM/c
     297 00000083 56B1          MOVB      *-SP[9],#12,EQ        ; [CPU_] |132| 
         00000084 0C49 
TMS320C2000 Assembler PC v6.1.3 Thu Jan 30 10:33:25 2014

Tools Copyright (c) 1996-2012 Texas Instruments Incorporated
C:\Users\a0272466\AppData\Local\Temp\0939610                         PAGE    7

     298                      .dwpsn  file "C:/work/grepos/bootrom/Boot_ROM/F2837x_bootROM-REVB/F2837x_bootROM_dev/F2837x_bootROM/c
     299 00000085 EC3C          BF        $C$L8,EQ              ; [CPU_] |133| 
     300                      ; branchcc occurs ; [] |133| 
     301                      .dwpsn  file "C:/work/grepos/bootrom/Boot_ROM/F2837x_bootROM-REVB/F2837x_bootROM_dev/F2837x_bootROM/c
     302 00000086 0644          MOVL      ACC,*-SP[4]           ; [CPU_] |134| 
     303 00000087 8F00          MOVL      XAR4,#43008           ; [CPU_U] |134| 
         00000088 A800 
     304 00000089 9B00          MOVB      AH,#0                 ; [CPU_] |134| 
     305 0000008a 18A9          AND       AL,#0xa800            ; [CPU_] |134| 
         0000008b A800 
     306 0000008c 0FA4          CMPL      ACC,XAR4              ; [CPU_] |134| 
     307                      .dwpsn  file "C:/work/grepos/bootrom/Boot_ROM/F2837x_bootROM-REVB/F2837x_bootROM_dev/F2837x_bootROM/c
     308 0000008d 56B1          MOVB      *-SP[9],#10,EQ        ; [CPU_] |137| 
         0000008e 0A49 
     309                      .dwpsn  file "C:/work/grepos/bootrom/Boot_ROM/F2837x_bootROM-REVB/F2837x_bootROM_dev/F2837x_bootROM/c
     310 0000008f EC32          BF        $C$L8,EQ              ; [CPU_] |138| 
     311                      ; branchcc occurs ; [] |138| 
     312                      .dwpsn  file "C:/work/grepos/bootrom/Boot_ROM/F2837x_bootROM-REVB/F2837x_bootROM_dev/F2837x_bootROM/c
     313 00000090 0644          MOVL      ACC,*-SP[4]           ; [CPU_] |139| 
     314 00000091 8F00          MOVL      XAR4,#40960           ; [CPU_U] |139| 
         00000092 A000 
     315 00000093 9B00          MOVB      AH,#0                 ; [CPU_] |139| 
     316 00000094 18A9          AND       AL,#0xa000            ; [CPU_] |139| 
         00000095 A000 
     317 00000096 0FA4          CMPL      ACC,XAR4              ; [CPU_] |139| 
     318                      .dwpsn  file "C:/work/grepos/bootrom/Boot_ROM/F2837x_bootROM-REVB/F2837x_bootROM_dev/F2837x_bootROM/c
     319 00000097 56B1          MOVB      *-SP[9],#8,EQ         ; [CPU_] |142| 
         00000098 0849 
     320                      .dwpsn  file "C:/work/grepos/bootrom/Boot_ROM/F2837x_bootROM-REVB/F2837x_bootROM_dev/F2837x_bootROM/c
     321 00000099 EC28          BF        $C$L8,EQ              ; [CPU_] |143| 
     322                      ; branchcc occurs ; [] |143| 
     323                      .dwpsn  file "C:/work/grepos/bootrom/Boot_ROM/F2837x_bootROM-REVB/F2837x_bootROM_dev/F2837x_bootROM/c
     324 0000009a 0644          MOVL      ACC,*-SP[4]           ; [CPU_] |144| 
     325 0000009b 8F00          MOVL      XAR4,#38912           ; [CPU_U] |144| 
         0000009c 9800 
     326 0000009d 9B00          MOVB      AH,#0                 ; [CPU_] |144| 
     327 0000009e 18A9          AND       AL,#0x9800            ; [CPU_] |144| 
         0000009f 9800 
     328 000000a0 0FA4          CMPL      ACC,XAR4              ; [CPU_] |144| 
     329                      .dwpsn  file "C:/work/grepos/bootrom/Boot_ROM/F2837x_bootROM-REVB/F2837x_bootROM_dev/F2837x_bootROM/c
     330 000000a1 56B1          MOVB      *-SP[9],#6,EQ         ; [CPU_] |147| 
         000000a2 0649 
     331                      .dwpsn  file "C:/work/grepos/bootrom/Boot_ROM/F2837x_bootROM-REVB/F2837x_bootROM_dev/F2837x_bootROM/c
     332 000000a3 EC1E          BF        $C$L8,EQ              ; [CPU_] |148| 
     333                      ; branchcc occurs ; [] |148| 
     334                      .dwpsn  file "C:/work/grepos/bootrom/Boot_ROM/F2837x_bootROM-REVB/F2837x_bootROM_dev/F2837x_bootROM/c
     335 000000a4 0644          MOVL      ACC,*-SP[4]           ; [CPU_] |149| 
     336 000000a5 8F00          MOVL      XAR4,#36864           ; [CPU_U] |149| 
         000000a6 9000 
     337 000000a7 9B00          MOVB      AH,#0                 ; [CPU_] |149| 
     338 000000a8 18A9          AND       AL,#0x9000            ; [CPU_] |149| 
         000000a9 9000 
     339 000000aa 0FA4          CMPL      ACC,XAR4              ; [CPU_] |149| 
     340                      .dwpsn  file "C:/work/grepos/bootrom/Boot_ROM/F2837x_bootROM-REVB/F2837x_bootROM_dev/F2837x_bootROM/c
     341 000000ab 56B1          MOVB      *-SP[9],#4,EQ         ; [CPU_] |152| 
TMS320C2000 Assembler PC v6.1.3 Thu Jan 30 10:33:25 2014

Tools Copyright (c) 1996-2012 Texas Instruments Incorporated
C:\Users\a0272466\AppData\Local\Temp\0939610                         PAGE    8

         000000ac 0449 
     342                      .dwpsn  file "C:/work/grepos/bootrom/Boot_ROM/F2837x_bootROM-REVB/F2837x_bootROM_dev/F2837x_bootROM/c
     343 000000ad EC14          BF        $C$L8,EQ              ; [CPU_] |153| 
     344                      ; branchcc occurs ; [] |153| 
     345                      .dwpsn  file "C:/work/grepos/bootrom/Boot_ROM/F2837x_bootROM-REVB/F2837x_bootROM_dev/F2837x_bootROM/c
     346 000000ae 0644          MOVL      ACC,*-SP[4]           ; [CPU_] |154| 
     347 000000af 8F00          MOVL      XAR4,#34816           ; [CPU_U] |154| 
         000000b0 8800 
     348 000000b1 9B00          MOVB      AH,#0                 ; [CPU_] |154| 
     349 000000b2 18A9          AND       AL,#0x8800            ; [CPU_] |154| 
         000000b3 8800 
     350 000000b4 0FA4          CMPL      ACC,XAR4              ; [CPU_] |154| 
     351                      .dwpsn  file "C:/work/grepos/bootrom/Boot_ROM/F2837x_bootROM-REVB/F2837x_bootROM_dev/F2837x_bootROM/c
     352 000000b5 56B1          MOVB      *-SP[9],#2,EQ         ; [CPU_] |157| 
         000000b6 0249 
     353                      .dwpsn  file "C:/work/grepos/bootrom/Boot_ROM/F2837x_bootROM-REVB/F2837x_bootROM_dev/F2837x_bootROM/c
     354 000000b7 EC0A          BF        $C$L8,EQ              ; [CPU_] |158| 
     355                      ; branchcc occurs ; [] |158| 
     356                      .dwpsn  file "C:/work/grepos/bootrom/Boot_ROM/F2837x_bootROM-REVB/F2837x_bootROM_dev/F2837x_bootROM/c
     357 000000b8 0644          MOVL      ACC,*-SP[4]           ; [CPU_] |159| 
     358 000000b9 8F00          MOVL      XAR4,#32768           ; [CPU_U] |159| 
         000000ba 8000 
     359 000000bb 9B00          MOVB      AH,#0                 ; [CPU_] |159| 
     360 000000bc 18A9          AND       AL,#0x8000            ; [CPU_] |159| 
         000000bd 8000 
     361 000000be 0FA4          CMPL      ACC,XAR4              ; [CPU_] |159| 
     362 000000bf ED02          BF        $C$L8,NEQ             ; [CPU_] |159| 
     363                      ; branchcc occurs ; [] |159| 
     364                      .dwpsn  file "C:/work/grepos/bootrom/Boot_ROM/F2837x_bootROM-REVB/F2837x_bootROM_dev/F2837x_bootROM/c
     365 000000c0 2B49          MOV       *-SP[9],#0            ; [CPU_] |162| 
     366 000000c1       $C$L8:    
     367                      .dwpsn  file "C:/work/grepos/bootrom/Boot_ROM/F2837x_bootROM-REVB/F2837x_bootROM_dev/F2837x_bootROM/c
     368 000000c1 0644          MOVL      ACC,*-SP[4]           ; [CPU_] |170| 
     369 000000c2 8F00          MOVL      XAR4,#2048            ; [CPU_U] |170| 
         000000c3 0800 
     370 000000c4 9B00          MOVB      AH,#0                 ; [CPU_] |170| 
     371 000000c5 18A9          AND       AL,#0x07ff            ; [CPU_] |170| 
         000000c6 07FF 
     372 000000c7 0742          ADDL      ACC,*-SP[2]           ; [CPU_] |170| 
     373 000000c8 0FA4          CMPL      ACC,XAR4              ; [CPU_] |170| 
     374 000000c9 6910          B         $C$L9,LOS             ; [CPU_] |170| 
     375                      ; branchcc occurs ; [] |170| 
     376                      .dwpsn  file "C:/work/grepos/bootrom/Boot_ROM/F2837x_bootROM-REVB/F2837x_bootROM_dev/F2837x_bootROM/c
     377 000000ca 1822!         AND       @_DcsmRegsZ1+34,#0xfffe ; [CPU_] |172| 
         000000cb FFFE 
     378                      .dwpsn  file "C:/work/grepos/bootrom/Boot_ROM/F2837x_bootROM-REVB/F2837x_bootROM_dev/F2837x_bootROM/c
     379 000000cc 0200          MOVB      ACC,#0                ; [CPU_] |174| 
     380 000000cd 1E42          MOVL      *-SP[2],ACC           ; [CPU_] |174| 
     381                      .dwpsn  file "C:/work/grepos/bootrom/Boot_ROM/F2837x_bootROM-REVB/F2837x_bootROM_dev/F2837x_bootROM/c
     382 000000ce 1E44          MOVL      *-SP[4],ACC           ; [CPU_] |175| 
     383                      .dwpsn  file "C:/work/grepos/bootrom/Boot_ROM/F2837x_bootROM-REVB/F2837x_bootROM_dev/F2837x_bootROM/c
     384 000000cf 1E46          MOVL      *-SP[6],ACC           ; [CPU_] |176| 
     385                      .dwpsn  file "C:/work/grepos/bootrom/Boot_ROM/F2837x_bootROM-REVB/F2837x_bootROM_dev/F2837x_bootROM/c
     386 000000d0 1E48          MOVL      *-SP[8],ACC           ; [CPU_] |177| 
     387                      .dwpsn  file "C:/work/grepos/bootrom/Boot_ROM/F2837x_bootROM-REVB/F2837x_bootROM_dev/F2837x_bootROM/c
TMS320C2000 Assembler PC v6.1.3 Thu Jan 30 10:33:25 2014

Tools Copyright (c) 1996-2012 Texas Instruments Incorporated
C:\Users\a0272466\AppData\Local\Temp\0939610                         PAGE    9

     388 000000d1 2849          MOV       *-SP[9],#65535        ; [CPU_] |178| 
         000000d2 FFFF 
     389                      .dwpsn  file "C:/work/grepos/bootrom/Boot_ROM/F2837x_bootROM-REVB/F2837x_bootROM_dev/F2837x_bootROM/c
     390 000000d3 284A          MOV       *-SP[10],#65535       ; [CPU_] |179| 
         000000d4 FFFF 
     391                      .dwpsn  file "C:/work/grepos/bootrom/Boot_ROM/F2837x_bootROM-REVB/F2837x_bootROM_dev/F2837x_bootROM/c
     392 000000d5 2B4B          MOV       *-SP[11],#0           ; [CPU_] |180| 
     393                      .dwpsn  file "C:/work/grepos/bootrom/Boot_ROM/F2837x_bootROM-REVB/F2837x_bootROM_dev/F2837x_bootROM/c
     394 000000d6 9A00          MOVB      AL,#0                 ; [CPU_] |181| 
     395 000000d7 FFEF          B         $C$L28,UNC            ; [CPU_] |181| 
         000000d8 01EA 
     396                      ; branch occurs ; [] |181| 
     397 000000d9       $C$L9:    
     398                      .dwpsn  file "C:/work/grepos/bootrom/Boot_ROM/F2837x_bootROM-REVB/F2837x_bootROM_dev/F2837x_bootROM/c
     399 000000d9 0646          MOVL      ACC,*-SP[6]           ; [CPU_] |187| 
     400 000000da 8F0C          MOVL      XAR4,#786432          ; [CPU_U] |187| 
         000000db 0000 
     401 000000dc 5608          AND       ACC,#12 << 16         ; [CPU_] |187| 
         000000dd 000C 
     402 000000de 0FA4          CMPL      ACC,XAR4              ; [CPU_] |187| 
     403 000000df ED34          BF        $C$L12,NEQ            ; [CPU_] |187| 
     404                      ; branchcc occurs ; [] |187| 
     405                      .dwpsn  file "C:/work/grepos/bootrom/Boot_ROM/F2837x_bootROM-REVB/F2837x_bootROM_dev/F2837x_bootROM/c
     406 000000e0 761F!         MOVW      DP,#_DcsmRegsCommon+6 ; [CPU_U] 
         000000e1 0000 
     407 000000e2 CC06!         AND       AL,@_DcsmRegsCommon+6,#0x03c0 ; [CPU_] |191| 
         000000e3 03C0 
     408 000000e4 FFC5          LSR       AL,6                  ; [CPU_] |191| 
     409 000000e5 520F          CMPB      AL,#15                ; [CPU_] |191| 
     410 000000e6 EC1C          BF        $C$L11,EQ             ; [CPU_] |191| 
     411                      ; branchcc occurs ; [] |191| 
     412                      .dwpsn  file "C:/work/grepos/bootrom/Boot_ROM/F2837x_bootROM-REVB/F2837x_bootROM_dev/F2837x_bootROM/c
     413 000000e7 0646          MOVL      ACC,*-SP[6]           ; [CPU_] |194| 
     414 000000e8 8F10          MOVL      XAR4,#1048576         ; [CPU_U] |194| 
         000000e9 0000 
     415 000000ea 0742          ADDL      ACC,*-SP[2]           ; [CPU_] |194| 
     416 000000eb 0FA4          CMPL      ACC,XAR4              ; [CPU_] |194| 
     417 000000ec 6912          B         $C$L10,LOS            ; [CPU_] |194| 
     418                      ; branchcc occurs ; [] |194| 
     419                      .dwpsn  file "C:/work/grepos/bootrom/Boot_ROM/F2837x_bootROM-REVB/F2837x_bootROM_dev/F2837x_bootROM/c
     420 000000ed 761F!         MOVW      DP,#_DcsmRegsZ1+34    ; [CPU_U] 
         000000ee 0000 
     421 000000ef 1822!         AND       @_DcsmRegsZ1+34,#0xfffe ; [CPU_] |196| 
         000000f0 FFFE 
     422                      .dwpsn  file "C:/work/grepos/bootrom/Boot_ROM/F2837x_bootROM-REVB/F2837x_bootROM_dev/F2837x_bootROM/c
     423 000000f1 0200          MOVB      ACC,#0                ; [CPU_] |198| 
     424 000000f2 1E42          MOVL      *-SP[2],ACC           ; [CPU_] |198| 
     425                      .dwpsn  file "C:/work/grepos/bootrom/Boot_ROM/F2837x_bootROM-REVB/F2837x_bootROM_dev/F2837x_bootROM/c
     426 000000f3 1E44          MOVL      *-SP[4],ACC           ; [CPU_] |199| 
     427                      .dwpsn  file "C:/work/grepos/bootrom/Boot_ROM/F2837x_bootROM-REVB/F2837x_bootROM_dev/F2837x_bootROM/c
     428 000000f4 1E46          MOVL      *-SP[6],ACC           ; [CPU_] |200| 
     429                      .dwpsn  file "C:/work/grepos/bootrom/Boot_ROM/F2837x_bootROM-REVB/F2837x_bootROM_dev/F2837x_bootROM/c
     430 000000f5 1E48          MOVL      *-SP[8],ACC           ; [CPU_] |201| 
     431                      .dwpsn  file "C:/work/grepos/bootrom/Boot_ROM/F2837x_bootROM-REVB/F2837x_bootROM_dev/F2837x_bootROM/c
     432 000000f6 2849          MOV       *-SP[9],#65535        ; [CPU_] |202| 
TMS320C2000 Assembler PC v6.1.3 Thu Jan 30 10:33:25 2014

Tools Copyright (c) 1996-2012 Texas Instruments Incorporated
C:\Users\a0272466\AppData\Local\Temp\0939610                         PAGE   10

         000000f7 FFFF 
     433                      .dwpsn  file "C:/work/grepos/bootrom/Boot_ROM/F2837x_bootROM-REVB/F2837x_bootROM_dev/F2837x_bootROM/c
     434 000000f8 284A          MOV       *-SP[10],#65535       ; [CPU_] |203| 
         000000f9 FFFF 
     435                      .dwpsn  file "C:/work/grepos/bootrom/Boot_ROM/F2837x_bootROM-REVB/F2837x_bootROM_dev/F2837x_bootROM/c
     436 000000fa 2B4B          MOV       *-SP[11],#0           ; [CPU_] |204| 
     437                      .dwpsn  file "C:/work/grepos/bootrom/Boot_ROM/F2837x_bootROM-REVB/F2837x_bootROM_dev/F2837x_bootROM/c
     438 000000fb 9A00          MOVB      AL,#0                 ; [CPU_] |205| 
     439 000000fc FFEF          B         $C$L28,UNC            ; [CPU_] |205| 
         000000fd 01C5 
     440                      ; branch occurs ; [] |205| 
     441 000000fe       $C$L10:    
     442                      .dwpsn  file "C:/work/grepos/bootrom/Boot_ROM/F2837x_bootROM-REVB/F2837x_bootROM_dev/F2837x_bootROM/c
     443 000000fe 56BF          MOVB      *-SP[10],#28,UNC      ; [CPU_] |207| 
         000000ff 1C4A 
     444                      .dwpsn  file "C:/work/grepos/bootrom/Boot_ROM/F2837x_bootROM-REVB/F2837x_bootROM_dev/F2837x_bootROM/c
     445 00000100 FFEF          B         $C$L18,UNC            ; [CPU_] |208| 
         00000101 0100 
     446                      ; branch occurs ; [] |208| 
     447 00000102       $C$L11:    
     448                      .dwpsn  file "C:/work/grepos/bootrom/Boot_ROM/F2837x_bootROM-REVB/F2837x_bootROM_dev/F2837x_bootROM/c
     449 00000102 761F!         MOVW      DP,#_DcsmRegsZ1+34    ; [CPU_U] 
         00000103 0000 
     450 00000104 1822!         AND       @_DcsmRegsZ1+34,#0xfffe ; [CPU_] |211| 
         00000105 FFFE 
     451                      .dwpsn  file "C:/work/grepos/bootrom/Boot_ROM/F2837x_bootROM-REVB/F2837x_bootROM_dev/F2837x_bootROM/c
     452 00000106 0200          MOVB      ACC,#0                ; [CPU_] |213| 
     453 00000107 1E42          MOVL      *-SP[2],ACC           ; [CPU_] |213| 
     454                      .dwpsn  file "C:/work/grepos/bootrom/Boot_ROM/F2837x_bootROM-REVB/F2837x_bootROM_dev/F2837x_bootROM/c
     455 00000108 1E44          MOVL      *-SP[4],ACC           ; [CPU_] |214| 
     456                      .dwpsn  file "C:/work/grepos/bootrom/Boot_ROM/F2837x_bootROM-REVB/F2837x_bootROM_dev/F2837x_bootROM/c
     457 00000109 1E46          MOVL      *-SP[6],ACC           ; [CPU_] |215| 
     458                      .dwpsn  file "C:/work/grepos/bootrom/Boot_ROM/F2837x_bootROM-REVB/F2837x_bootROM_dev/F2837x_bootROM/c
     459 0000010a 1E48          MOVL      *-SP[8],ACC           ; [CPU_] |216| 
     460                      .dwpsn  file "C:/work/grepos/bootrom/Boot_ROM/F2837x_bootROM-REVB/F2837x_bootROM_dev/F2837x_bootROM/c
     461 0000010b 2849          MOV       *-SP[9],#65535        ; [CPU_] |217| 
         0000010c FFFF 
     462                      .dwpsn  file "C:/work/grepos/bootrom/Boot_ROM/F2837x_bootROM-REVB/F2837x_bootROM_dev/F2837x_bootROM/c
     463 0000010d 284A          MOV       *-SP[10],#65535       ; [CPU_] |218| 
         0000010e FFFF 
     464                      .dwpsn  file "C:/work/grepos/bootrom/Boot_ROM/F2837x_bootROM-REVB/F2837x_bootROM_dev/F2837x_bootROM/c
     465 0000010f 2B4B          MOV       *-SP[11],#0           ; [CPU_] |219| 
     466                      .dwpsn  file "C:/work/grepos/bootrom/Boot_ROM/F2837x_bootROM-REVB/F2837x_bootROM_dev/F2837x_bootROM/c
     467 00000110 9A00          MOVB      AL,#0                 ; [CPU_] |220| 
     468 00000111 FFEF          B         $C$L28,UNC            ; [CPU_] |220| 
         00000112 01B0 
     469                      ; branch occurs ; [] |220| 
     470 00000113       $C$L12:    
     471                      .dwpsn  file "C:/work/grepos/bootrom/Boot_ROM/F2837x_bootROM-REVB/F2837x_bootROM_dev/F2837x_bootROM/c
     472 00000113 C446          MOVL      XAR6,*-SP[6]          ; [CPU_] |223| 
     473 00000114 8F0B          MOVL      XAR4,#753664          ; [CPU_U] |223| 
         00000115 8000 
     474 00000116 A8A9          MOVL      ACC,XAR4              ; [CPU_] |223| 
     475 00000117 0FA6          CMPL      ACC,XAR6              ; [CPU_] |223| 
     476 00000118 664B          B         $C$L14,HI             ; [CPU_] |223| 
TMS320C2000 Assembler PC v6.1.3 Thu Jan 30 10:33:25 2014

Tools Copyright (c) 1996-2012 Texas Instruments Incorporated
C:\Users\a0272466\AppData\Local\Temp\0939610                         PAGE   11

     477                      ; branchcc occurs ; [] |223| 
     478 00000119 C446          MOVL      XAR6,*-SP[6]          ; [CPU_] |223| 
     479 0000011a 8F0C          MOVL      XAR4,#786432          ; [CPU_U] |223| 
         0000011b 0000 
     480 0000011c A8A9          MOVL      ACC,XAR4              ; [CPU_] |223| 
     481 0000011d 0FA6          CMPL      ACC,XAR6              ; [CPU_] |223| 
     482 0000011e 6945          B         $C$L14,LOS            ; [CPU_] |223| 
     483                      ; branchcc occurs ; [] |223| 
     484                      .dwpsn  file "C:/work/grepos/bootrom/Boot_ROM/F2837x_bootROM-REVB/F2837x_bootROM_dev/F2837x_bootROM/c
     485 0000011f 0646          MOVL      ACC,*-SP[6]           ; [CPU_] |226| 
     486 00000120 8F00          MOVL      XAR4,#8192            ; [CPU_U] |226| 
         00000121 2000 
     487 00000122 9B00          MOVB      AH,#0                 ; [CPU_] |226| 
     488 00000123 18A9          AND       AL,#0x1fff            ; [CPU_] |226| 
         00000124 1FFF 
     489 00000125 0742          ADDL      ACC,*-SP[2]           ; [CPU_] |226| 
     490 00000126 0FA4          CMPL      ACC,XAR4              ; [CPU_] |226| 
     491 00000127 6910          B         $C$L13,LOS            ; [CPU_] |226| 
     492                      ; branchcc occurs ; [] |226| 
     493                      .dwpsn  file "C:/work/grepos/bootrom/Boot_ROM/F2837x_bootROM-REVB/F2837x_bootROM_dev/F2837x_bootROM/c
     494 00000128 1822!         AND       @_DcsmRegsZ1+34,#0xfffe ; [CPU_] |228| 
         00000129 FFFE 
     495                      .dwpsn  file "C:/work/grepos/bootrom/Boot_ROM/F2837x_bootROM-REVB/F2837x_bootROM_dev/F2837x_bootROM/c
     496 0000012a 0200          MOVB      ACC,#0                ; [CPU_] |230| 
     497 0000012b 1E42          MOVL      *-SP[2],ACC           ; [CPU_] |230| 
     498                      .dwpsn  file "C:/work/grepos/bootrom/Boot_ROM/F2837x_bootROM-REVB/F2837x_bootROM_dev/F2837x_bootROM/c
     499 0000012c 1E44          MOVL      *-SP[4],ACC           ; [CPU_] |231| 
     500                      .dwpsn  file "C:/work/grepos/bootrom/Boot_ROM/F2837x_bootROM-REVB/F2837x_bootROM_dev/F2837x_bootROM/c
     501 0000012d 1E46          MOVL      *-SP[6],ACC           ; [CPU_] |232| 
     502                      .dwpsn  file "C:/work/grepos/bootrom/Boot_ROM/F2837x_bootROM-REVB/F2837x_bootROM_dev/F2837x_bootROM/c
     503 0000012e 1E48          MOVL      *-SP[8],ACC           ; [CPU_] |233| 
     504                      .dwpsn  file "C:/work/grepos/bootrom/Boot_ROM/F2837x_bootROM-REVB/F2837x_bootROM_dev/F2837x_bootROM/c
     505 0000012f 2849          MOV       *-SP[9],#65535        ; [CPU_] |234| 
         00000130 FFFF 
     506                      .dwpsn  file "C:/work/grepos/bootrom/Boot_ROM/F2837x_bootROM-REVB/F2837x_bootROM_dev/F2837x_bootROM/c
     507 00000131 284A          MOV       *-SP[10],#65535       ; [CPU_] |235| 
         00000132 FFFF 
     508                      .dwpsn  file "C:/work/grepos/bootrom/Boot_ROM/F2837x_bootROM-REVB/F2837x_bootROM_dev/F2837x_bootROM/c
     509 00000133 2B4B          MOV       *-SP[11],#0           ; [CPU_] |236| 
     510                      .dwpsn  file "C:/work/grepos/bootrom/Boot_ROM/F2837x_bootROM-REVB/F2837x_bootROM_dev/F2837x_bootROM/c
     511 00000134 9A00          MOVB      AL,#0                 ; [CPU_] |237| 
     512 00000135 FFEF          B         $C$L28,UNC            ; [CPU_] |237| 
         00000136 018C 
     513                      ; branch occurs ; [] |237| 
     514 00000137       $C$L13:    
     515                      .dwpsn  file "C:/work/grepos/bootrom/Boot_ROM/F2837x_bootROM-REVB/F2837x_bootROM_dev/F2837x_bootROM/c
     516 00000137 8F0B          MOVL      XAR4,#778240          ; [CPU_U] |239| 
         00000138 E000 
     517 00000139 0646          MOVL      ACC,*-SP[6]           ; [CPU_] |239| 
     518 0000013a A8AB          MOVL      P,XAR4                ; [CPU_] |239| 
     519 0000013b CEAB          AND       AL,PL                 ; [CPU_] |239| 
     520 0000013c CFAA          AND       AH,PH                 ; [CPU_] |239| 
     521 0000013d 0FA4          CMPL      ACC,XAR4              ; [CPU_] |239| 
     522                      .dwpsn  file "C:/work/grepos/bootrom/Boot_ROM/F2837x_bootROM-REVB/F2837x_bootROM_dev/F2837x_bootROM/c
     523 0000013e 56B1          MOVB      *-SP[10],#26,EQ       ; [CPU_] |242| 
TMS320C2000 Assembler PC v6.1.3 Thu Jan 30 10:33:25 2014

Tools Copyright (c) 1996-2012 Texas Instruments Incorporated
C:\Users\a0272466\AppData\Local\Temp\0939610                         PAGE   12

         0000013f 1A4A 
     524                      .dwpsn  file "C:/work/grepos/bootrom/Boot_ROM/F2837x_bootROM-REVB/F2837x_bootROM_dev/F2837x_bootROM/c
     525 00000140 56C1          BF        $C$L18,EQ             ; [CPU_] |243| 
         00000141 00C0 
     526                      ; branchcc occurs ; [] |243| 
     527                      .dwpsn  file "C:/work/grepos/bootrom/Boot_ROM/F2837x_bootROM-REVB/F2837x_bootROM_dev/F2837x_bootROM/c
     528 00000142 8F0B          MOVL      XAR4,#770048          ; [CPU_U] |244| 
         00000143 C000 
     529 00000144 0646          MOVL      ACC,*-SP[6]           ; [CPU_] |244| 
     530 00000145 A8AB          MOVL      P,XAR4                ; [CPU_] |244| 
     531 00000146 CEAB          AND       AL,PL                 ; [CPU_] |244| 
     532 00000147 CFAA          AND       AH,PH                 ; [CPU_] |244| 
     533 00000148 0FA4          CMPL      ACC,XAR4              ; [CPU_] |244| 
     534                      .dwpsn  file "C:/work/grepos/bootrom/Boot_ROM/F2837x_bootROM-REVB/F2837x_bootROM_dev/F2837x_bootROM/c
     535 00000149 56B1          MOVB      *-SP[10],#24,EQ       ; [CPU_] |247| 
         0000014a 184A 
     536                      .dwpsn  file "C:/work/grepos/bootrom/Boot_ROM/F2837x_bootROM-REVB/F2837x_bootROM_dev/F2837x_bootROM/c
     537 0000014b 56C1          BF        $C$L18,EQ             ; [CPU_] |248| 
         0000014c 00B5 
     538                      ; branchcc occurs ; [] |248| 
     539                      .dwpsn  file "C:/work/grepos/bootrom/Boot_ROM/F2837x_bootROM-REVB/F2837x_bootROM_dev/F2837x_bootROM/c
     540 0000014d 8F0B          MOVL      XAR4,#761856          ; [CPU_U] |249| 
         0000014e A000 
     541 0000014f 0646          MOVL      ACC,*-SP[6]           ; [CPU_] |249| 
     542 00000150 A8AB          MOVL      P,XAR4                ; [CPU_] |249| 
     543 00000151 CEAB          AND       AL,PL                 ; [CPU_] |249| 
     544 00000152 CFAA          AND       AH,PH                 ; [CPU_] |249| 
     545 00000153 0FA4          CMPL      ACC,XAR4              ; [CPU_] |249| 
     546                      .dwpsn  file "C:/work/grepos/bootrom/Boot_ROM/F2837x_bootROM-REVB/F2837x_bootROM_dev/F2837x_bootROM/c
     547 00000154 56B1          MOVB      *-SP[10],#22,EQ       ; [CPU_] |252| 
         00000155 164A 
     548                      .dwpsn  file "C:/work/grepos/bootrom/Boot_ROM/F2837x_bootROM-REVB/F2837x_bootROM_dev/F2837x_bootROM/c
     549 00000156 56C1          BF        $C$L18,EQ             ; [CPU_] |253| 
         00000157 00AA 
     550                      ; branchcc occurs ; [] |253| 
     551                      .dwpsn  file "C:/work/grepos/bootrom/Boot_ROM/F2837x_bootROM-REVB/F2837x_bootROM_dev/F2837x_bootROM/c
     552 00000158 8F0B          MOVL      XAR4,#753664          ; [CPU_U] |254| 
         00000159 8000 
     553 0000015a 0646          MOVL      ACC,*-SP[6]           ; [CPU_] |254| 
     554 0000015b A8AB          MOVL      P,XAR4                ; [CPU_] |254| 
     555 0000015c CEAB          AND       AL,PL                 ; [CPU_] |254| 
     556 0000015d CFAA          AND       AH,PH                 ; [CPU_] |254| 
     557 0000015e 0FA4          CMPL      ACC,XAR4              ; [CPU_] |254| 
     558                      .dwpsn  file "C:/work/grepos/bootrom/Boot_ROM/F2837x_bootROM-REVB/F2837x_bootROM_dev/F2837x_bootROM/c
     559 0000015f 56B1          MOVB      *-SP[10],#20,EQ       ; [CPU_] |257| 
         00000160 144A 
     560                      .dwpsn  file "C:/work/grepos/bootrom/Boot_ROM/F2837x_bootROM-REVB/F2837x_bootROM_dev/F2837x_bootROM/c
     561 00000161 FFEF          B         $C$L18,UNC            ; [CPU_] |259| 
         00000162 009F 
     562                      ; branch occurs ; [] |259| 
     563 00000163       $C$L14:    
     564                      .dwpsn  file "C:/work/grepos/bootrom/Boot_ROM/F2837x_bootROM-REVB/F2837x_bootROM_dev/F2837x_bootROM/c
     565 00000163 C446          MOVL      XAR6,*-SP[6]          ; [CPU_] |260| 
     566 00000164 8F08          MOVL      XAR4,#557056          ; [CPU_U] |260| 
         00000165 8000 
TMS320C2000 Assembler PC v6.1.3 Thu Jan 30 10:33:25 2014

Tools Copyright (c) 1996-2012 Texas Instruments Incorporated
C:\Users\a0272466\AppData\Local\Temp\0939610                         PAGE   13

     567 00000166 A8A9          MOVL      ACC,XAR4              ; [CPU_] |260| 
     568 00000167 0FA6          CMPL      ACC,XAR6              ; [CPU_] |260| 
     569 00000168 665A          B         $C$L16,HI             ; [CPU_] |260| 
     570                      ; branchcc occurs ; [] |260| 
     571 00000169 C446          MOVL      XAR6,*-SP[6]          ; [CPU_] |260| 
     572 0000016a 8F0B          MOVL      XAR4,#753664          ; [CPU_U] |260| 
         0000016b 8000 
     573 0000016c A8A9          MOVL      ACC,XAR4              ; [CPU_] |260| 
     574 0000016d 0FA6          CMPL      ACC,XAR6              ; [CPU_] |260| 
     575 0000016e 6954          B         $C$L16,LOS            ; [CPU_] |260| 
     576                      ; branchcc occurs ; [] |260| 
     577                      .dwpsn  file "C:/work/grepos/bootrom/Boot_ROM/F2837x_bootROM-REVB/F2837x_bootROM_dev/F2837x_bootROM/c
     578 0000016f 0646          MOVL      ACC,*-SP[6]           ; [CPU_] |263| 
     579 00000170 8F00          MOVL      XAR4,#32768           ; [CPU_U] |263| 
         00000171 8000 
     580 00000172 9B00          MOVB      AH,#0                 ; [CPU_] |263| 
     581 00000173 18A9          AND       AL,#0x7fff            ; [CPU_] |263| 
         00000174 7FFF 
     582 00000175 0742          ADDL      ACC,*-SP[2]           ; [CPU_] |263| 
     583 00000176 0FA4          CMPL      ACC,XAR4              ; [CPU_] |263| 
     584 00000177 6910          B         $C$L15,LOS            ; [CPU_] |263| 
     585                      ; branchcc occurs ; [] |263| 
     586                      .dwpsn  file "C:/work/grepos/bootrom/Boot_ROM/F2837x_bootROM-REVB/F2837x_bootROM_dev/F2837x_bootROM/c
     587 00000178 1822!         AND       @_DcsmRegsZ1+34,#0xfffe ; [CPU_] |265| 
         00000179 FFFE 
     588                      .dwpsn  file "C:/work/grepos/bootrom/Boot_ROM/F2837x_bootROM-REVB/F2837x_bootROM_dev/F2837x_bootROM/c
     589 0000017a 0200          MOVB      ACC,#0                ; [CPU_] |267| 
     590 0000017b 1E42          MOVL      *-SP[2],ACC           ; [CPU_] |267| 
     591                      .dwpsn  file "C:/work/grepos/bootrom/Boot_ROM/F2837x_bootROM-REVB/F2837x_bootROM_dev/F2837x_bootROM/c
     592 0000017c 1E44          MOVL      *-SP[4],ACC           ; [CPU_] |268| 
     593                      .dwpsn  file "C:/work/grepos/bootrom/Boot_ROM/F2837x_bootROM-REVB/F2837x_bootROM_dev/F2837x_bootROM/c
     594 0000017d 1E46          MOVL      *-SP[6],ACC           ; [CPU_] |269| 
     595                      .dwpsn  file "C:/work/grepos/bootrom/Boot_ROM/F2837x_bootROM-REVB/F2837x_bootROM_dev/F2837x_bootROM/c
     596 0000017e 1E48          MOVL      *-SP[8],ACC           ; [CPU_] |270| 
     597                      .dwpsn  file "C:/work/grepos/bootrom/Boot_ROM/F2837x_bootROM-REVB/F2837x_bootROM_dev/F2837x_bootROM/c
     598 0000017f 2849          MOV       *-SP[9],#65535        ; [CPU_] |271| 
         00000180 FFFF 
     599                      .dwpsn  file "C:/work/grepos/bootrom/Boot_ROM/F2837x_bootROM-REVB/F2837x_bootROM_dev/F2837x_bootROM/c
     600 00000181 284A          MOV       *-SP[10],#65535       ; [CPU_] |272| 
         00000182 FFFF 
     601                      .dwpsn  file "C:/work/grepos/bootrom/Boot_ROM/F2837x_bootROM-REVB/F2837x_bootROM_dev/F2837x_bootROM/c
     602 00000183 2B4B          MOV       *-SP[11],#0           ; [CPU_] |273| 
     603                      .dwpsn  file "C:/work/grepos/bootrom/Boot_ROM/F2837x_bootROM-REVB/F2837x_bootROM_dev/F2837x_bootROM/c
     604 00000184 9A00          MOVB      AL,#0                 ; [CPU_] |274| 
     605 00000185 FFEF          B         $C$L28,UNC            ; [CPU_] |274| 
         00000186 013C 
     606                      ; branch occurs ; [] |274| 
     607 00000187       $C$L15:    
     608                      .dwpsn  file "C:/work/grepos/bootrom/Boot_ROM/F2837x_bootROM-REVB/F2837x_bootROM_dev/F2837x_bootROM/c
     609 00000187 8F0B          MOVL      XAR4,#720896          ; [CPU_U] |276| 
         00000188 0000 
     610 00000189 0646          MOVL      ACC,*-SP[6]           ; [CPU_] |276| 
     611 0000018a A8AB          MOVL      P,XAR4                ; [CPU_] |276| 
     612 0000018b CEAB          AND       AL,PL                 ; [CPU_] |276| 
     613 0000018c CFAA          AND       AH,PH                 ; [CPU_] |276| 
TMS320C2000 Assembler PC v6.1.3 Thu Jan 30 10:33:25 2014

Tools Copyright (c) 1996-2012 Texas Instruments Incorporated
C:\Users\a0272466\AppData\Local\Temp\0939610                         PAGE   14

     614 0000018d 0FA4          CMPL      ACC,XAR4              ; [CPU_] |276| 
     615                      .dwpsn  file "C:/work/grepos/bootrom/Boot_ROM/F2837x_bootROM-REVB/F2837x_bootROM_dev/F2837x_bootROM/c
     616 0000018e 56B1          MOVB      *-SP[10],#18,EQ       ; [CPU_] |279| 
         0000018f 124A 
     617                      .dwpsn  file "C:/work/grepos/bootrom/Boot_ROM/F2837x_bootROM-REVB/F2837x_bootROM_dev/F2837x_bootROM/c
     618 00000190 EC70          BF        $C$L18,EQ             ; [CPU_] |280| 
     619                      ; branchcc occurs ; [] |280| 
     620                      .dwpsn  file "C:/work/grepos/bootrom/Boot_ROM/F2837x_bootROM-REVB/F2837x_bootROM_dev/F2837x_bootROM/c
     621 00000191 8F0A          MOVL      XAR4,#688128          ; [CPU_U] |281| 
         00000192 8000 
     622 00000193 0646          MOVL      ACC,*-SP[6]           ; [CPU_] |281| 
     623 00000194 A8AB          MOVL      P,XAR4                ; [CPU_] |281| 
     624 00000195 CEAB          AND       AL,PL                 ; [CPU_] |281| 
     625 00000196 CFAA          AND       AH,PH                 ; [CPU_] |281| 
     626 00000197 0FA4          CMPL      ACC,XAR4              ; [CPU_] |281| 
     627                      .dwpsn  file "C:/work/grepos/bootrom/Boot_ROM/F2837x_bootROM-REVB/F2837x_bootROM_dev/F2837x_bootROM/c
     628 00000198 56B1          MOVB      *-SP[10],#16,EQ       ; [CPU_] |284| 
         00000199 104A 
     629                      .dwpsn  file "C:/work/grepos/bootrom/Boot_ROM/F2837x_bootROM-REVB/F2837x_bootROM_dev/F2837x_bootROM/c
     630 0000019a EC66          BF        $C$L18,EQ             ; [CPU_] |285| 
     631                      ; branchcc occurs ; [] |285| 
     632                      .dwpsn  file "C:/work/grepos/bootrom/Boot_ROM/F2837x_bootROM-REVB/F2837x_bootROM_dev/F2837x_bootROM/c
     633 0000019b 0646          MOVL      ACC,*-SP[6]           ; [CPU_] |286| 
     634 0000019c 8F0A          MOVL      XAR4,#655360          ; [CPU_U] |286| 
         0000019d 0000 
     635 0000019e 5608          AND       ACC,#10 << 16         ; [CPU_] |286| 
         0000019f 000A 
     636 000001a0 0FA4          CMPL      ACC,XAR4              ; [CPU_] |286| 
     637                      .dwpsn  file "C:/work/grepos/bootrom/Boot_ROM/F2837x_bootROM-REVB/F2837x_bootROM_dev/F2837x_bootROM/c
     638 000001a1 56B1          MOVB      *-SP[10],#14,EQ       ; [CPU_] |289| 
         000001a2 0E4A 
     639                      .dwpsn  file "C:/work/grepos/bootrom/Boot_ROM/F2837x_bootROM-REVB/F2837x_bootROM_dev/F2837x_bootROM/c
     640 000001a3 EC5D          BF        $C$L18,EQ             ; [CPU_] |290| 
     641                      ; branchcc occurs ; [] |290| 
     642                      .dwpsn  file "C:/work/grepos/bootrom/Boot_ROM/F2837x_bootROM-REVB/F2837x_bootROM_dev/F2837x_bootROM/c
     643 000001a4 8F09          MOVL      XAR4,#622592          ; [CPU_U] |291| 
         000001a5 8000 
     644 000001a6 0646          MOVL      ACC,*-SP[6]           ; [CPU_] |291| 
     645 000001a7 A8AB          MOVL      P,XAR4                ; [CPU_] |291| 
     646 000001a8 CEAB          AND       AL,PL                 ; [CPU_] |291| 
     647 000001a9 CFAA          AND       AH,PH                 ; [CPU_] |291| 
     648 000001aa 0FA4          CMPL      ACC,XAR4              ; [CPU_] |291| 
     649                      .dwpsn  file "C:/work/grepos/bootrom/Boot_ROM/F2837x_bootROM-REVB/F2837x_bootROM_dev/F2837x_bootROM/c
     650 000001ab 56B1          MOVB      *-SP[10],#12,EQ       ; [CPU_] |294| 
         000001ac 0C4A 
     651                      .dwpsn  file "C:/work/grepos/bootrom/Boot_ROM/F2837x_bootROM-REVB/F2837x_bootROM_dev/F2837x_bootROM/c
     652 000001ad EC53          BF        $C$L18,EQ             ; [CPU_] |295| 
     653                      ; branchcc occurs ; [] |295| 
     654                      .dwpsn  file "C:/work/grepos/bootrom/Boot_ROM/F2837x_bootROM-REVB/F2837x_bootROM_dev/F2837x_bootROM/c
     655 000001ae 8F09          MOVL      XAR4,#589824          ; [CPU_U] |296| 
         000001af 0000 
     656 000001b0 0646          MOVL      ACC,*-SP[6]           ; [CPU_] |296| 
     657 000001b1 A8AB          MOVL      P,XAR4                ; [CPU_] |296| 
     658 000001b2 CEAB          AND       AL,PL                 ; [CPU_] |296| 
     659 000001b3 CFAA          AND       AH,PH                 ; [CPU_] |296| 
TMS320C2000 Assembler PC v6.1.3 Thu Jan 30 10:33:25 2014

Tools Copyright (c) 1996-2012 Texas Instruments Incorporated
C:\Users\a0272466\AppData\Local\Temp\0939610                         PAGE   15

     660 000001b4 0FA4          CMPL      ACC,XAR4              ; [CPU_] |296| 
     661                      .dwpsn  file "C:/work/grepos/bootrom/Boot_ROM/F2837x_bootROM-REVB/F2837x_bootROM_dev/F2837x_bootROM/c
     662 000001b5 56B1          MOVB      *-SP[10],#10,EQ       ; [CPU_] |299| 
         000001b6 0A4A 
     663                      .dwpsn  file "C:/work/grepos/bootrom/Boot_ROM/F2837x_bootROM-REVB/F2837x_bootROM_dev/F2837x_bootROM/c
     664 000001b7 EC49          BF        $C$L18,EQ             ; [CPU_] |300| 
     665                      ; branchcc occurs ; [] |300| 
     666                      .dwpsn  file "C:/work/grepos/bootrom/Boot_ROM/F2837x_bootROM-REVB/F2837x_bootROM_dev/F2837x_bootROM/c
     667 000001b8 8F08          MOVL      XAR4,#557056          ; [CPU_U] |301| 
         000001b9 8000 
     668 000001ba 0646          MOVL      ACC,*-SP[6]           ; [CPU_] |301| 
     669 000001bb A8AB          MOVL      P,XAR4                ; [CPU_] |301| 
     670 000001bc CEAB          AND       AL,PL                 ; [CPU_] |301| 
     671 000001bd CFAA          AND       AH,PH                 ; [CPU_] |301| 
     672 000001be 0FA4          CMPL      ACC,XAR4              ; [CPU_] |301| 
     673                      .dwpsn  file "C:/work/grepos/bootrom/Boot_ROM/F2837x_bootROM-REVB/F2837x_bootROM_dev/F2837x_bootROM/c
     674 000001bf 56B1          MOVB      *-SP[10],#8,EQ        ; [CPU_] |304| 
         000001c0 084A 
     675                      .dwpsn  file "C:/work/grepos/bootrom/Boot_ROM/F2837x_bootROM-REVB/F2837x_bootROM_dev/F2837x_bootROM/c
     676 000001c1 6F3F          B         $C$L18,UNC            ; [CPU_] |306| 
     677                      ; branch occurs ; [] |306| 
     678 000001c2       $C$L16:    
     679                      .dwpsn  file "C:/work/grepos/bootrom/Boot_ROM/F2837x_bootROM-REVB/F2837x_bootROM_dev/F2837x_bootROM/c
     680 000001c2 0646          MOVL      ACC,*-SP[6]           ; [CPU_] |309| 
     681 000001c3 8F00          MOVL      XAR4,#8192            ; [CPU_U] |309| 
         000001c4 2000 
     682 000001c5 9B00          MOVB      AH,#0                 ; [CPU_] |309| 
     683 000001c6 18A9          AND       AL,#0x1fff            ; [CPU_] |309| 
         000001c7 1FFF 
     684 000001c8 0742          ADDL      ACC,*-SP[2]           ; [CPU_] |309| 
     685 000001c9 0FA4          CMPL      ACC,XAR4              ; [CPU_] |309| 
     686 000001ca 6910          B         $C$L17,LOS            ; [CPU_] |309| 
     687                      ; branchcc occurs ; [] |309| 
     688                      .dwpsn  file "C:/work/grepos/bootrom/Boot_ROM/F2837x_bootROM-REVB/F2837x_bootROM_dev/F2837x_bootROM/c
     689 000001cb 1822!         AND       @_DcsmRegsZ1+34,#0xfffe ; [CPU_] |311| 
         000001cc FFFE 
     690                      .dwpsn  file "C:/work/grepos/bootrom/Boot_ROM/F2837x_bootROM-REVB/F2837x_bootROM_dev/F2837x_bootROM/c
     691 000001cd 0200          MOVB      ACC,#0                ; [CPU_] |313| 
     692 000001ce 1E42          MOVL      *-SP[2],ACC           ; [CPU_] |313| 
     693                      .dwpsn  file "C:/work/grepos/bootrom/Boot_ROM/F2837x_bootROM-REVB/F2837x_bootROM_dev/F2837x_bootROM/c
     694 000001cf 1E44          MOVL      *-SP[4],ACC           ; [CPU_] |314| 
     695                      .dwpsn  file "C:/work/grepos/bootrom/Boot_ROM/F2837x_bootROM-REVB/F2837x_bootROM_dev/F2837x_bootROM/c
     696 000001d0 1E46          MOVL      *-SP[6],ACC           ; [CPU_] |315| 
     697                      .dwpsn  file "C:/work/grepos/bootrom/Boot_ROM/F2837x_bootROM-REVB/F2837x_bootROM_dev/F2837x_bootROM/c
     698 000001d1 1E48          MOVL      *-SP[8],ACC           ; [CPU_] |316| 
     699                      .dwpsn  file "C:/work/grepos/bootrom/Boot_ROM/F2837x_bootROM-REVB/F2837x_bootROM_dev/F2837x_bootROM/c
     700 000001d2 2849          MOV       *-SP[9],#65535        ; [CPU_] |317| 
         000001d3 FFFF 
     701                      .dwpsn  file "C:/work/grepos/bootrom/Boot_ROM/F2837x_bootROM-REVB/F2837x_bootROM_dev/F2837x_bootROM/c
     702 000001d4 284A          MOV       *-SP[10],#65535       ; [CPU_] |318| 
         000001d5 FFFF 
     703                      .dwpsn  file "C:/work/grepos/bootrom/Boot_ROM/F2837x_bootROM-REVB/F2837x_bootROM_dev/F2837x_bootROM/c
     704 000001d6 2B4B          MOV       *-SP[11],#0           ; [CPU_] |319| 
     705                      .dwpsn  file "C:/work/grepos/bootrom/Boot_ROM/F2837x_bootROM-REVB/F2837x_bootROM_dev/F2837x_bootROM/c
     706 000001d7 9A00          MOVB      AL,#0                 ; [CPU_] |320| 
TMS320C2000 Assembler PC v6.1.3 Thu Jan 30 10:33:25 2014

Tools Copyright (c) 1996-2012 Texas Instruments Incorporated
C:\Users\a0272466\AppData\Local\Temp\0939610                         PAGE   16

     707 000001d8 FFEF          B         $C$L28,UNC            ; [CPU_] |320| 
         000001d9 00E9 
     708                      ; branch occurs ; [] |320| 
     709 000001da       $C$L17:    
     710                      .dwpsn  file "C:/work/grepos/bootrom/Boot_ROM/F2837x_bootROM-REVB/F2837x_bootROM_dev/F2837x_bootROM/c
     711 000001da 8F08          MOVL      XAR4,#548864          ; [CPU_U] |322| 
         000001db 6000 
     712 000001dc 0646          MOVL      ACC,*-SP[6]           ; [CPU_] |322| 
     713 000001dd A8AB          MOVL      P,XAR4                ; [CPU_] |322| 
     714 000001de CEAB          AND       AL,PL                 ; [CPU_] |322| 
     715 000001df CFAA          AND       AH,PH                 ; [CPU_] |322| 
     716 000001e0 0FA4          CMPL      ACC,XAR4              ; [CPU_] |322| 
     717                      .dwpsn  file "C:/work/grepos/bootrom/Boot_ROM/F2837x_bootROM-REVB/F2837x_bootROM_dev/F2837x_bootROM/c
     718 000001e1 56B1          MOVB      *-SP[10],#6,EQ        ; [CPU_] |325| 
         000001e2 064A 
     719                      .dwpsn  file "C:/work/grepos/bootrom/Boot_ROM/F2837x_bootROM-REVB/F2837x_bootROM_dev/F2837x_bootROM/c
     720 000001e3 EC1D          BF        $C$L18,EQ             ; [CPU_] |326| 
     721                      ; branchcc occurs ; [] |326| 
     722                      .dwpsn  file "C:/work/grepos/bootrom/Boot_ROM/F2837x_bootROM-REVB/F2837x_bootROM_dev/F2837x_bootROM/c
     723 000001e4 8F08          MOVL      XAR4,#540672          ; [CPU_U] |327| 
         000001e5 4000 
     724 000001e6 0646          MOVL      ACC,*-SP[6]           ; [CPU_] |327| 
     725 000001e7 A8AB          MOVL      P,XAR4                ; [CPU_] |327| 
     726 000001e8 CEAB          AND       AL,PL                 ; [CPU_] |327| 
     727 000001e9 CFAA          AND       AH,PH                 ; [CPU_] |327| 
     728 000001ea 0FA4          CMPL      ACC,XAR4              ; [CPU_] |327| 
     729                      .dwpsn  file "C:/work/grepos/bootrom/Boot_ROM/F2837x_bootROM-REVB/F2837x_bootROM_dev/F2837x_bootROM/c
     730 000001eb 56B1          MOVB      *-SP[10],#4,EQ        ; [CPU_] |330| 
         000001ec 044A 
     731                      .dwpsn  file "C:/work/grepos/bootrom/Boot_ROM/F2837x_bootROM-REVB/F2837x_bootROM_dev/F2837x_bootROM/c
     732 000001ed EC13          BF        $C$L18,EQ             ; [CPU_] |331| 
     733                      ; branchcc occurs ; [] |331| 
     734                      .dwpsn  file "C:/work/grepos/bootrom/Boot_ROM/F2837x_bootROM-REVB/F2837x_bootROM_dev/F2837x_bootROM/c
     735 000001ee 8F08          MOVL      XAR4,#532480          ; [CPU_U] |332| 
         000001ef 2000 
     736 000001f0 0646          MOVL      ACC,*-SP[6]           ; [CPU_] |332| 
     737 000001f1 A8AB          MOVL      P,XAR4                ; [CPU_] |332| 
     738 000001f2 CEAB          AND       AL,PL                 ; [CPU_] |332| 
     739 000001f3 CFAA          AND       AH,PH                 ; [CPU_] |332| 
     740 000001f4 0FA4          CMPL      ACC,XAR4              ; [CPU_] |332| 
     741                      .dwpsn  file "C:/work/grepos/bootrom/Boot_ROM/F2837x_bootROM-REVB/F2837x_bootROM_dev/F2837x_bootROM/c
     742 000001f5 56B1          MOVB      *-SP[10],#2,EQ        ; [CPU_] |335| 
         000001f6 024A 
     743                      .dwpsn  file "C:/work/grepos/bootrom/Boot_ROM/F2837x_bootROM-REVB/F2837x_bootROM_dev/F2837x_bootROM/c
     744 000001f7 EC09          BF        $C$L18,EQ             ; [CPU_] |336| 
     745                      ; branchcc occurs ; [] |336| 
     746                      .dwpsn  file "C:/work/grepos/bootrom/Boot_ROM/F2837x_bootROM-REVB/F2837x_bootROM_dev/F2837x_bootROM/c
     747 000001f8 0646          MOVL      ACC,*-SP[6]           ; [CPU_] |337| 
     748 000001f9 8F08          MOVL      XAR4,#524288          ; [CPU_U] |337| 
         000001fa 0000 
     749 000001fb 5608          AND       ACC,#8 << 16          ; [CPU_] |337| 
         000001fc 0008 
     750 000001fd 0FA4          CMPL      ACC,XAR4              ; [CPU_] |337| 
     751 000001fe ED02          BF        $C$L18,NEQ            ; [CPU_] |337| 
     752                      ; branchcc occurs ; [] |337| 
TMS320C2000 Assembler PC v6.1.3 Thu Jan 30 10:33:25 2014

Tools Copyright (c) 1996-2012 Texas Instruments Incorporated
C:\Users\a0272466\AppData\Local\Temp\0939610                         PAGE   17

     753                      .dwpsn  file "C:/work/grepos/bootrom/Boot_ROM/F2837x_bootROM-REVB/F2837x_bootROM_dev/F2837x_bootROM/c
     754 000001ff 2B4A          MOV       *-SP[10],#0           ; [CPU_] |340| 
     755 00000200       $C$L18:    
     756                      .dwpsn  file "C:/work/grepos/bootrom/Boot_ROM/F2837x_bootROM-REVB/F2837x_bootROM_dev/F2837x_bootROM/c
     757 00000200 1B4A          CMP       *-SP[10],#65535       ; [CPU_] |344| 
         00000201 FFFF 
     758 00000202 EC04          BF        $C$L19,EQ             ; [CPU_] |344| 
     759                      ; branchcc occurs ; [] |344| 
     760 00000203 1B49          CMP       *-SP[9],#65535        ; [CPU_] |344| 
         00000204 FFFF 
     761 00000205 ED12          BF        $C$L20,NEQ            ; [CPU_] |344| 
     762                      ; branchcc occurs ; [] |344| 
     763 00000206       $C$L19:    
     764                      .dwpsn  file "C:/work/grepos/bootrom/Boot_ROM/F2837x_bootROM-REVB/F2837x_bootROM_dev/F2837x_bootROM/c
     765 00000206 761F!         MOVW      DP,#_DcsmRegsZ1+34    ; [CPU_U] 
         00000207 0000 
     766 00000208 1822!         AND       @_DcsmRegsZ1+34,#0xfffe ; [CPU_] |346| 
         00000209 FFFE 
     767                      .dwpsn  file "C:/work/grepos/bootrom/Boot_ROM/F2837x_bootROM-REVB/F2837x_bootROM_dev/F2837x_bootROM/c
     768 0000020a 0200          MOVB      ACC,#0                ; [CPU_] |348| 
     769 0000020b 1E42          MOVL      *-SP[2],ACC           ; [CPU_] |348| 
     770                      .dwpsn  file "C:/work/grepos/bootrom/Boot_ROM/F2837x_bootROM-REVB/F2837x_bootROM_dev/F2837x_bootROM/c
     771 0000020c 1E44          MOVL      *-SP[4],ACC           ; [CPU_] |349| 
     772                      .dwpsn  file "C:/work/grepos/bootrom/Boot_ROM/F2837x_bootROM-REVB/F2837x_bootROM_dev/F2837x_bootROM/c
     773 0000020d 1E46          MOVL      *-SP[6],ACC           ; [CPU_] |350| 
     774                      .dwpsn  file "C:/work/grepos/bootrom/Boot_ROM/F2837x_bootROM-REVB/F2837x_bootROM_dev/F2837x_bootROM/c
     775 0000020e 1E48          MOVL      *-SP[8],ACC           ; [CPU_] |351| 
     776                      .dwpsn  file "C:/work/grepos/bootrom/Boot_ROM/F2837x_bootROM-REVB/F2837x_bootROM_dev/F2837x_bootROM/c
     777 0000020f 2849          MOV       *-SP[9],#65535        ; [CPU_] |352| 
         00000210 FFFF 
     778                      .dwpsn  file "C:/work/grepos/bootrom/Boot_ROM/F2837x_bootROM-REVB/F2837x_bootROM_dev/F2837x_bootROM/c
     779 00000211 284A          MOV       *-SP[10],#65535       ; [CPU_] |353| 
         00000212 FFFF 
     780                      .dwpsn  file "C:/work/grepos/bootrom/Boot_ROM/F2837x_bootROM-REVB/F2837x_bootROM_dev/F2837x_bootROM/c
     781 00000213 2B4B          MOV       *-SP[11],#0           ; [CPU_] |354| 
     782                      .dwpsn  file "C:/work/grepos/bootrom/Boot_ROM/F2837x_bootROM-REVB/F2837x_bootROM_dev/F2837x_bootROM/c
     783 00000214 9A00          MOVB      AL,#0                 ; [CPU_] |355| 
     784 00000215 FFEF          B         $C$L28,UNC            ; [CPU_] |355| 
         00000216 00AC 
     785                      ; branch occurs ; [] |355| 
     786 00000217       $C$L20:    
     787                      .dwpsn  file "C:/work/grepos/bootrom/Boot_ROM/F2837x_bootROM-REVB/F2837x_bootROM_dev/F2837x_bootROM/c
     788 00000217 0203          MOVB      ACC,#3                ; [CPU_] |359| 
     789 00000218 2D4A          MOV       T,*-SP[10]            ; [CPU_] |359| 
     790 00000219 761F!         MOVW      DP,#_DcsmRegsCommon+2 ; [CPU_U] 
         0000021a 0000 
     791 0000021b BE01          MOVB      XAR6,#1               ; [CPU_] |359| 
     792 0000021c 563B          LSLL      ACC,T                 ; [CPU_] |359| 
     793 0000021d CE02!         AND       AL,@_DcsmRegsCommon+2 ; [CPU_] |359| 
     794 0000021e CF03!         AND       AH,@_DcsmRegsCommon+3 ; [CPU_] |359| 
     795 0000021f 5622          LSRL      ACC,T                 ; [CPU_] |359| 
     796 00000220 0FA6          CMPL      ACC,XAR6              ; [CPU_] |359| 
     797 00000221 EC12          BF        $C$L21,EQ             ; [CPU_] |359| 
     798                      ; branchcc occurs ; [] |359| 
     799                      .dwpsn  file "C:/work/grepos/bootrom/Boot_ROM/F2837x_bootROM-REVB/F2837x_bootROM_dev/F2837x_bootROM/c
TMS320C2000 Assembler PC v6.1.3 Thu Jan 30 10:33:25 2014

Tools Copyright (c) 1996-2012 Texas Instruments Incorporated
C:\Users\a0272466\AppData\Local\Temp\0939610                         PAGE   18

     800 00000222 761F!         MOVW      DP,#_DcsmRegsZ1+34    ; [CPU_U] 
         00000223 0000 
     801 00000224 1822!         AND       @_DcsmRegsZ1+34,#0xfffe ; [CPU_] |361| 
         00000225 FFFE 
     802                      .dwpsn  file "C:/work/grepos/bootrom/Boot_ROM/F2837x_bootROM-REVB/F2837x_bootROM_dev/F2837x_bootROM/c
     803 00000226 0200          MOVB      ACC,#0                ; [CPU_] |363| 
     804 00000227 1E42          MOVL      *-SP[2],ACC           ; [CPU_] |363| 
     805                      .dwpsn  file "C:/work/grepos/bootrom/Boot_ROM/F2837x_bootROM-REVB/F2837x_bootROM_dev/F2837x_bootROM/c
     806 00000228 1E44          MOVL      *-SP[4],ACC           ; [CPU_] |364| 
     807                      .dwpsn  file "C:/work/grepos/bootrom/Boot_ROM/F2837x_bootROM-REVB/F2837x_bootROM_dev/F2837x_bootROM/c
     808 00000229 1E46          MOVL      *-SP[6],ACC           ; [CPU_] |365| 
     809                      .dwpsn  file "C:/work/grepos/bootrom/Boot_ROM/F2837x_bootROM-REVB/F2837x_bootROM_dev/F2837x_bootROM/c
     810 0000022a 1E48          MOVL      *-SP[8],ACC           ; [CPU_] |366| 
     811                      .dwpsn  file "C:/work/grepos/bootrom/Boot_ROM/F2837x_bootROM-REVB/F2837x_bootROM_dev/F2837x_bootROM/c
     812 0000022b 2849          MOV       *-SP[9],#65535        ; [CPU_] |367| 
         0000022c FFFF 
     813                      .dwpsn  file "C:/work/grepos/bootrom/Boot_ROM/F2837x_bootROM-REVB/F2837x_bootROM_dev/F2837x_bootROM/c
     814 0000022d 284A          MOV       *-SP[10],#65535       ; [CPU_] |368| 
         0000022e FFFF 
     815                      .dwpsn  file "C:/work/grepos/bootrom/Boot_ROM/F2837x_bootROM-REVB/F2837x_bootROM_dev/F2837x_bootROM/c
     816 0000022f 2B4B          MOV       *-SP[11],#0           ; [CPU_] |369| 
     817                      .dwpsn  file "C:/work/grepos/bootrom/Boot_ROM/F2837x_bootROM-REVB/F2837x_bootROM_dev/F2837x_bootROM/c
     818 00000230 9A00          MOVB      AL,#0                 ; [CPU_] |370| 
     819 00000231 FFEF          B         $C$L28,UNC            ; [CPU_] |370| 
         00000232 0090 
     820                      ; branch occurs ; [] |370| 
     821 00000233       $C$L21:    
     822                      .dwpsn  file "C:/work/grepos/bootrom/Boot_ROM/F2837x_bootROM-REVB/F2837x_bootROM_dev/F2837x_bootROM/c
     823 00000233 0203          MOVB      ACC,#3                ; [CPU_] |373| 
     824 00000234 2D49          MOV       T,*-SP[9]             ; [CPU_] |373| 
     825 00000235 563B          LSLL      ACC,T                 ; [CPU_] |373| 
     826 00000236 CE04!         AND       AL,@_DcsmRegsCommon+4 ; [CPU_] |373| 
     827 00000237 CF05!         AND       AH,@_DcsmRegsCommon+5 ; [CPU_] |373| 
     828 00000238 5622          LSRL      ACC,T                 ; [CPU_] |373| 
     829 00000239 0FA6          CMPL      ACC,XAR6              ; [CPU_] |373| 
     830 0000023a EC11          BF        $C$L22,EQ             ; [CPU_] |373| 
     831                      ; branchcc occurs ; [] |373| 
     832                      .dwpsn  file "C:/work/grepos/bootrom/Boot_ROM/F2837x_bootROM-REVB/F2837x_bootROM_dev/F2837x_bootROM/c
     833 0000023b 761F!         MOVW      DP,#_DcsmRegsZ1+34    ; [CPU_U] 
         0000023c 0000 
     834 0000023d 1822!         AND       @_DcsmRegsZ1+34,#0xfffe ; [CPU_] |375| 
         0000023e FFFE 
     835                      .dwpsn  file "C:/work/grepos/bootrom/Boot_ROM/F2837x_bootROM-REVB/F2837x_bootROM_dev/F2837x_bootROM/c
     836 0000023f 0200          MOVB      ACC,#0                ; [CPU_] |377| 
     837 00000240 1E42          MOVL      *-SP[2],ACC           ; [CPU_] |377| 
     838                      .dwpsn  file "C:/work/grepos/bootrom/Boot_ROM/F2837x_bootROM-REVB/F2837x_bootROM_dev/F2837x_bootROM/c
     839 00000241 1E44          MOVL      *-SP[4],ACC           ; [CPU_] |378| 
     840                      .dwpsn  file "C:/work/grepos/bootrom/Boot_ROM/F2837x_bootROM-REVB/F2837x_bootROM_dev/F2837x_bootROM/c
     841 00000242 1E46          MOVL      *-SP[6],ACC           ; [CPU_] |379| 
     842                      .dwpsn  file "C:/work/grepos/bootrom/Boot_ROM/F2837x_bootROM-REVB/F2837x_bootROM_dev/F2837x_bootROM/c
     843 00000243 1E48          MOVL      *-SP[8],ACC           ; [CPU_] |380| 
     844                      .dwpsn  file "C:/work/grepos/bootrom/Boot_ROM/F2837x_bootROM-REVB/F2837x_bootROM_dev/F2837x_bootROM/c
     845 00000244 2849          MOV       *-SP[9],#65535        ; [CPU_] |381| 
         00000245 FFFF 
     846                      .dwpsn  file "C:/work/grepos/bootrom/Boot_ROM/F2837x_bootROM-REVB/F2837x_bootROM_dev/F2837x_bootROM/c
TMS320C2000 Assembler PC v6.1.3 Thu Jan 30 10:33:25 2014

Tools Copyright (c) 1996-2012 Texas Instruments Incorporated
C:\Users\a0272466\AppData\Local\Temp\0939610                         PAGE   19

     847 00000246 284A          MOV       *-SP[10],#65535       ; [CPU_] |382| 
         00000247 FFFF 
     848                      .dwpsn  file "C:/work/grepos/bootrom/Boot_ROM/F2837x_bootROM-REVB/F2837x_bootROM_dev/F2837x_bootROM/c
     849 00000248 2B4B          MOV       *-SP[11],#0           ; [CPU_] |383| 
     850                      .dwpsn  file "C:/work/grepos/bootrom/Boot_ROM/F2837x_bootROM-REVB/F2837x_bootROM_dev/F2837x_bootROM/c
     851 00000249 9A00          MOVB      AL,#0                 ; [CPU_] |384| 
     852 0000024a 6F77          B         $C$L28,UNC            ; [CPU_] |384| 
     853                      ; branch occurs ; [] |384| 
     854 0000024b       $C$L22:    
     855                      .dwpsn  file "C:/work/grepos/bootrom/Boot_ROM/F2837x_bootROM-REVB/F2837x_bootROM_dev/F2837x_bootROM/c
     856 0000024b 924A          MOV       AL,*-SP[10]           ; [CPU_] |390| 
     857 0000024c 28AB          MOV       PL,#1                 ; [CPU_] |390| 
         0000024d 0001 
     858 0000024e 2BAA          MOV       PH,#0                 ; [CPU_] |390| 
     859 0000024f FFC0          LSR       AL,1                  ; [CPU_] |390| 
     860 00000250 761F!         MOVW      DP,#_DcsmRegsZ1+30    ; [CPU_U] 
         00000251 0000 
     861 00000252 2DA9          MOV       T,AL                  ; [CPU_] |390| 
     862 00000253 A9A9          MOVL      ACC,P                 ; [CPU_] |390| 
     863 00000254 563B          LSLL      ACC,T                 ; [CPU_] |390| 
     864 00000255 FF5A          MOVL      P,ACC                 ; [CPU_] |390| 
     865 00000256 92AB          MOV       AL,PL                 ; [CPU_] |390| 
     866 00000257 93AA          MOV       AH,PH                 ; [CPU_] |390| 
     867 00000258 CE1E!         AND       AL,@_DcsmRegsZ1+30    ; [CPU_] |390| 
     868 00000259 27A9          MOV       PL,AL                 ; [CPU_] |390| 
     869 0000025a CF1F!         AND       AH,@_DcsmRegsZ1+31    ; [CPU_] |390| 
     870 0000025b 2FA8          MOV       PH,AH                 ; [CPU_] |390| 
     871 0000025c A9A9          MOVL      ACC,P                 ; [CPU_] |390| 
     872 0000025d EC0F          BF        $C$L23,EQ             ; [CPU_] |390| 
     873                      ; branchcc occurs ; [] |390| 
     874                      .dwpsn  file "C:/work/grepos/bootrom/Boot_ROM/F2837x_bootROM-REVB/F2837x_bootROM_dev/F2837x_bootROM/c
     875 0000025e 1822!         AND       @_DcsmRegsZ1+34,#0xfffe ; [CPU_] |392| 
         0000025f FFFE 
     876                      .dwpsn  file "C:/work/grepos/bootrom/Boot_ROM/F2837x_bootROM-REVB/F2837x_bootROM_dev/F2837x_bootROM/c
     877 00000260 0200          MOVB      ACC,#0                ; [CPU_] |394| 
     878 00000261 1E42          MOVL      *-SP[2],ACC           ; [CPU_] |394| 
     879                      .dwpsn  file "C:/work/grepos/bootrom/Boot_ROM/F2837x_bootROM-REVB/F2837x_bootROM_dev/F2837x_bootROM/c
     880 00000262 1E44          MOVL      *-SP[4],ACC           ; [CPU_] |395| 
     881                      .dwpsn  file "C:/work/grepos/bootrom/Boot_ROM/F2837x_bootROM-REVB/F2837x_bootROM_dev/F2837x_bootROM/c
     882 00000263 1E46          MOVL      *-SP[6],ACC           ; [CPU_] |396| 
     883                      .dwpsn  file "C:/work/grepos/bootrom/Boot_ROM/F2837x_bootROM-REVB/F2837x_bootROM_dev/F2837x_bootROM/c
     884 00000264 1E48          MOVL      *-SP[8],ACC           ; [CPU_] |397| 
     885                      .dwpsn  file "C:/work/grepos/bootrom/Boot_ROM/F2837x_bootROM-REVB/F2837x_bootROM_dev/F2837x_bootROM/c
     886 00000265 2849          MOV       *-SP[9],#65535        ; [CPU_] |398| 
         00000266 FFFF 
     887                      .dwpsn  file "C:/work/grepos/bootrom/Boot_ROM/F2837x_bootROM-REVB/F2837x_bootROM_dev/F2837x_bootROM/c
     888 00000267 284A          MOV       *-SP[10],#65535       ; [CPU_] |399| 
         00000268 FFFF 
     889                      .dwpsn  file "C:/work/grepos/bootrom/Boot_ROM/F2837x_bootROM-REVB/F2837x_bootROM_dev/F2837x_bootROM/c
     890 00000269 2B4B          MOV       *-SP[11],#0           ; [CPU_] |400| 
     891                      .dwpsn  file "C:/work/grepos/bootrom/Boot_ROM/F2837x_bootROM-REVB/F2837x_bootROM_dev/F2837x_bootROM/c
     892 0000026a 9A00          MOVB      AL,#0                 ; [CPU_] |401| 
     893 0000026b 6F56          B         $C$L28,UNC            ; [CPU_] |401| 
     894                      ; branch occurs ; [] |401| 
     895 0000026c       $C$L23:    
TMS320C2000 Assembler PC v6.1.3 Thu Jan 30 10:33:25 2014

Tools Copyright (c) 1996-2012 Texas Instruments Incorporated
C:\Users\a0272466\AppData\Local\Temp\0939610                         PAGE   20

     896                      .dwpsn  file "C:/work/grepos/bootrom/Boot_ROM/F2837x_bootROM-REVB/F2837x_bootROM_dev/F2837x_bootROM/c
     897 0000026c 9249          MOV       AL,*-SP[9]            ; [CPU_] |405| 
     898 0000026d 28AB          MOV       PL,#1                 ; [CPU_] |405| 
         0000026e 0001 
     899 0000026f 2BAA          MOV       PH,#0                 ; [CPU_] |405| 
     900 00000270 FFC0          LSR       AL,1                  ; [CPU_] |405| 
     901 00000271 2DA9          MOV       T,AL                  ; [CPU_] |405| 
     902 00000272 A9A9          MOVL      ACC,P                 ; [CPU_] |405| 
     903 00000273 563B          LSLL      ACC,T                 ; [CPU_] |405| 
     904 00000274 FF5A          MOVL      P,ACC                 ; [CPU_] |405| 
     905 00000275 92AB          MOV       AL,PL                 ; [CPU_] |405| 
     906 00000276 93AA          MOV       AH,PH                 ; [CPU_] |405| 
     907 00000277 CE20!         AND       AL,@_DcsmRegsZ1+32    ; [CPU_] |405| 
     908 00000278 27A9          MOV       PL,AL                 ; [CPU_] |405| 
     909 00000279 CF21!         AND       AH,@_DcsmRegsZ1+33    ; [CPU_] |405| 
     910 0000027a 2FA8          MOV       PH,AH                 ; [CPU_] |405| 
     911 0000027b A9A9          MOVL      ACC,P                 ; [CPU_] |405| 
     912 0000027c EC0F          BF        $C$L24,EQ             ; [CPU_] |405| 
     913                      ; branchcc occurs ; [] |405| 
     914                      .dwpsn  file "C:/work/grepos/bootrom/Boot_ROM/F2837x_bootROM-REVB/F2837x_bootROM_dev/F2837x_bootROM/c
     915 0000027d 1822!         AND       @_DcsmRegsZ1+34,#0xfffe ; [CPU_] |407| 
         0000027e FFFE 
     916                      .dwpsn  file "C:/work/grepos/bootrom/Boot_ROM/F2837x_bootROM-REVB/F2837x_bootROM_dev/F2837x_bootROM/c
     917 0000027f 0200          MOVB      ACC,#0                ; [CPU_] |409| 
     918 00000280 1E42          MOVL      *-SP[2],ACC           ; [CPU_] |409| 
     919                      .dwpsn  file "C:/work/grepos/bootrom/Boot_ROM/F2837x_bootROM-REVB/F2837x_bootROM_dev/F2837x_bootROM/c
     920 00000281 1E44          MOVL      *-SP[4],ACC           ; [CPU_] |410| 
     921                      .dwpsn  file "C:/work/grepos/bootrom/Boot_ROM/F2837x_bootROM-REVB/F2837x_bootROM_dev/F2837x_bootROM/c
     922 00000282 1E46          MOVL      *-SP[6],ACC           ; [CPU_] |411| 
     923                      .dwpsn  file "C:/work/grepos/bootrom/Boot_ROM/F2837x_bootROM-REVB/F2837x_bootROM_dev/F2837x_bootROM/c
     924 00000283 1E48          MOVL      *-SP[8],ACC           ; [CPU_] |412| 
     925                      .dwpsn  file "C:/work/grepos/bootrom/Boot_ROM/F2837x_bootROM-REVB/F2837x_bootROM_dev/F2837x_bootROM/c
     926 00000284 2849          MOV       *-SP[9],#65535        ; [CPU_] |413| 
         00000285 FFFF 
     927                      .dwpsn  file "C:/work/grepos/bootrom/Boot_ROM/F2837x_bootROM-REVB/F2837x_bootROM_dev/F2837x_bootROM/c
     928 00000286 284A          MOV       *-SP[10],#65535       ; [CPU_] |414| 
         00000287 FFFF 
     929                      .dwpsn  file "C:/work/grepos/bootrom/Boot_ROM/F2837x_bootROM-REVB/F2837x_bootROM_dev/F2837x_bootROM/c
     930 00000288 2B4B          MOV       *-SP[11],#0           ; [CPU_] |415| 
     931                      .dwpsn  file "C:/work/grepos/bootrom/Boot_ROM/F2837x_bootROM-REVB/F2837x_bootROM_dev/F2837x_bootROM/c
     932 00000289 9A00          MOVB      AL,#0                 ; [CPU_] |416| 
     933 0000028a 6F37          B         $C$L28,UNC            ; [CPU_] |416| 
     934                      ; branch occurs ; [] |416| 
     935 0000028b       $C$L24:    
     936                      .dwpsn  file "C:/work/grepos/bootrom/Boot_ROM/F2837x_bootROM-REVB/F2837x_bootROM_dev/F2837x_bootROM/c
     937 0000028b 0642          MOVL      ACC,*-SP[2]           ; [CPU_] |419| 
     938 0000028c EC27          BF        $C$L27,EQ             ; [CPU_] |419| 
     939                      ; branchcc occurs ; [] |419| 
     940 0000028d       $C$L25:    
     941 0000028d       $C$DW$L$_SafeCopyCodeZ1$72$B:
     942                      .dwpsn  file "C:/work/grepos/bootrom/Boot_ROM/F2837x_bootROM-REVB/F2837x_bootROM_dev/F2837x_bootROM/c
     943 0000028d 8A46          MOVL      XAR4,*-SP[6]          ; [CPU_] |426| 
     944 0000028e 8344          MOVL      XAR5,*-SP[4]          ; [CPU_] |426| 
     945 0000028f 9284          MOV       AL,*XAR4++            ; [CPU_] |426| 
     946 00000290 C4A5          MOVL      XAR6,XAR5             ; [CPU_] |426| 
TMS320C2000 Assembler PC v6.1.3 Thu Jan 30 10:33:25 2014

Tools Copyright (c) 1996-2012 Texas Instruments Incorporated
C:\Users\a0272466\AppData\Local\Temp\0939610                         PAGE   21

     947 00000291 DE01          ADDB      XAR6,#1               ; [CPU_U] |426| 
     948 00000292 C244          MOVL      *-SP[4],XAR6          ; [CPU_] |426| 
     949 00000293 A846          MOVL      *-SP[6],XAR4          ; [CPU_] |426| 
     950 00000294 96C5          MOV       *+XAR5[0],AL          ; [CPU_] |426| 
     951                      .dwpsn  file "C:/work/grepos/bootrom/Boot_ROM/F2837x_bootROM-REVB/F2837x_bootROM_dev/F2837x_bootROM/c
     952 00000295 1B4B          CMP       *-SP[11],#64095       ; [CPU_] |428| 
         00000296 FA5F 
     953 00000297 EC15          BF        $C$L26,EQ             ; [CPU_] |428| 
     954                      ; branchcc occurs ; [] |428| 
     955 00000298       $C$DW$L$_SafeCopyCodeZ1$72$E:
     956                      .dwpsn  file "C:/work/grepos/bootrom/Boot_ROM/F2837x_bootROM-REVB/F2837x_bootROM_dev/F2837x_bootROM/c
     957 00000298 8A44          MOVL      XAR4,*-SP[4]          ; [CPU_] |431| 
     958 00000299 DC81          SUBB      XAR4,#1               ; [CPU_U] |431| 
     959 0000029a A844          MOVL      *-SP[4],XAR4          ; [CPU_] |431| 
     960 0000029b 2BC4          MOV       *+XAR4[0],#0          ; [CPU_] |431| 
     961                      .dwpsn  file "C:/work/grepos/bootrom/Boot_ROM/F2837x_bootROM-REVB/F2837x_bootROM_dev/F2837x_bootROM/c
     962 0000029c 761F!         MOVW      DP,#_DcsmRegsZ1+34    ; [CPU_U] 
         0000029d 0000 
     963 0000029e 1822!         AND       @_DcsmRegsZ1+34,#0xfffe ; [CPU_] |433| 
         0000029f FFFE 
     964                      .dwpsn  file "C:/work/grepos/bootrom/Boot_ROM/F2837x_bootROM-REVB/F2837x_bootROM_dev/F2837x_bootROM/c
     965 000002a0 0200          MOVB      ACC,#0                ; [CPU_] |435| 
     966 000002a1 1E42          MOVL      *-SP[2],ACC           ; [CPU_] |435| 
     967                      .dwpsn  file "C:/work/grepos/bootrom/Boot_ROM/F2837x_bootROM-REVB/F2837x_bootROM_dev/F2837x_bootROM/c
     968 000002a2 1E44          MOVL      *-SP[4],ACC           ; [CPU_] |436| 
     969                      .dwpsn  file "C:/work/grepos/bootrom/Boot_ROM/F2837x_bootROM-REVB/F2837x_bootROM_dev/F2837x_bootROM/c
     970 000002a3 1E46          MOVL      *-SP[6],ACC           ; [CPU_] |437| 
     971                      .dwpsn  file "C:/work/grepos/bootrom/Boot_ROM/F2837x_bootROM-REVB/F2837x_bootROM_dev/F2837x_bootROM/c
     972 000002a4 1E48          MOVL      *-SP[8],ACC           ; [CPU_] |438| 
     973                      .dwpsn  file "C:/work/grepos/bootrom/Boot_ROM/F2837x_bootROM-REVB/F2837x_bootROM_dev/F2837x_bootROM/c
     974 000002a5 2849          MOV       *-SP[9],#65535        ; [CPU_] |439| 
         000002a6 FFFF 
     975                      .dwpsn  file "C:/work/grepos/bootrom/Boot_ROM/F2837x_bootROM-REVB/F2837x_bootROM_dev/F2837x_bootROM/c
     976 000002a7 284A          MOV       *-SP[10],#65535       ; [CPU_] |440| 
         000002a8 FFFF 
     977                      .dwpsn  file "C:/work/grepos/bootrom/Boot_ROM/F2837x_bootROM-REVB/F2837x_bootROM_dev/F2837x_bootROM/c
     978 000002a9 2B4B          MOV       *-SP[11],#0           ; [CPU_] |441| 
     979                      .dwpsn  file "C:/work/grepos/bootrom/Boot_ROM/F2837x_bootROM-REVB/F2837x_bootROM_dev/F2837x_bootROM/c
     980 000002aa 9A00          MOVB      AL,#0                 ; [CPU_] |442| 
     981 000002ab 6F16          B         $C$L28,UNC            ; [CPU_] |442| 
     982                      ; branch occurs ; [] |442| 
     983 000002ac       $C$L26:    
     984 000002ac       $C$DW$L$_SafeCopyCodeZ1$74$B:
     985                      .dwpsn  file "C:/work/grepos/bootrom/Boot_ROM/F2837x_bootROM-REVB/F2837x_bootROM_dev/F2837x_bootROM/c
     986 000002ac 0201          MOVB      ACC,#1                ; [CPU_] |444| 
     987 000002ad 5641          SUBL      *-SP[2],ACC           ; [CPU_] |444| 
         000002ae 0042 
     988                      .dwpsn  file "C:/work/grepos/bootrom/Boot_ROM/F2837x_bootROM-REVB/F2837x_bootROM_dev/F2837x_bootROM/c
     989 000002af 0748          ADDL      ACC,*-SP[8]           ; [CPU_] |445| 
     990 000002b0 1E48          MOVL      *-SP[8],ACC           ; [CPU_] |445| 
     991                      .dwpsn  file "C:/work/grepos/bootrom/Boot_ROM/F2837x_bootROM-REVB/F2837x_bootROM_dev/F2837x_bootROM/c
     992 000002b1 0642          MOVL      ACC,*-SP[2]           ; [CPU_] |419| 
     993 000002b2 EDDB          BF        $C$L25,NEQ            ; [CPU_] |419| 
     994                      ; branchcc occurs ; [] |419| 
     995 000002b3       $C$DW$L$_SafeCopyCodeZ1$74$E:
TMS320C2000 Assembler PC v6.1.3 Thu Jan 30 10:33:25 2014

Tools Copyright (c) 1996-2012 Texas Instruments Incorporated
C:\Users\a0272466\AppData\Local\Temp\0939610                         PAGE   22

     996 000002b3       $C$L27:    
     997                      .dwpsn  file "C:/work/grepos/bootrom/Boot_ROM/F2837x_bootROM-REVB/F2837x_bootROM_dev/F2837x_bootROM/c
     998 000002b3 761F!         MOVW      DP,#_DcsmRegsZ1+34    ; [CPU_U] 
         000002b4 0000 
     999 000002b5 1822!         AND       @_DcsmRegsZ1+34,#0xfffe ; [CPU_] |449| 
         000002b6 FFFE 
    1000                      .dwpsn  file "C:/work/grepos/bootrom/Boot_ROM/F2837x_bootROM-REVB/F2837x_bootROM_dev/F2837x_bootROM/c
    1001 000002b7 0200          MOVB      ACC,#0                ; [CPU_] |451| 
    1002 000002b8 1E42          MOVL      *-SP[2],ACC           ; [CPU_] |451| 
    1003                      .dwpsn  file "C:/work/grepos/bootrom/Boot_ROM/F2837x_bootROM-REVB/F2837x_bootROM_dev/F2837x_bootROM/c
    1004 000002b9 1E44          MOVL      *-SP[4],ACC           ; [CPU_] |452| 
    1005                      .dwpsn  file "C:/work/grepos/bootrom/Boot_ROM/F2837x_bootROM-REVB/F2837x_bootROM_dev/F2837x_bootROM/c
    1006 000002ba 1E46          MOVL      *-SP[6],ACC           ; [CPU_] |453| 
    1007                      .dwpsn  file "C:/work/grepos/bootrom/Boot_ROM/F2837x_bootROM-REVB/F2837x_bootROM_dev/F2837x_bootROM/c
    1008 000002bb 2849          MOV       *-SP[9],#65535        ; [CPU_] |454| 
         000002bc FFFF 
    1009                      .dwpsn  file "C:/work/grepos/bootrom/Boot_ROM/F2837x_bootROM-REVB/F2837x_bootROM_dev/F2837x_bootROM/c
    1010 000002bd 284A          MOV       *-SP[10],#65535       ; [CPU_] |455| 
         000002be FFFF 
    1011                      .dwpsn  file "C:/work/grepos/bootrom/Boot_ROM/F2837x_bootROM-REVB/F2837x_bootROM_dev/F2837x_bootROM/c
    1012 000002bf 2B4B          MOV       *-SP[11],#0           ; [CPU_] |456| 
    1013                      .dwpsn  file "C:/work/grepos/bootrom/Boot_ROM/F2837x_bootROM-REVB/F2837x_bootROM_dev/F2837x_bootROM/c
    1014 000002c0 9248          MOV       AL,*-SP[8]            ; [CPU_] |457| 
    1015 000002c1       $C$L28:    
    1016                      .dwpsn  file "C:/work/grepos/bootrom/Boot_ROM/F2837x_bootROM-REVB/F2837x_bootROM_dev/F2837x_bootROM/c
    1017 000002c1 FE8C          SUBB      SP,#12                ; [CPU_U] 
    1018                      .dwcfi  cfa_offset, -2
    1019              $C$DW$23        .dwtag  DW_TAG_TI_branch
    1020                      .dwattr $C$DW$23, DW_AT_low_pc(0x00)
    1021                      .dwattr $C$DW$23, DW_AT_TI_return
    1022 000002c2 0006          LRETR     ; [CPU_] 
    1023                      ; return occurs ; [] 
    1024              
    1025              $C$DW$24        .dwtag  DW_TAG_TI_loop
    1026                      .dwattr $C$DW$24, DW_AT_name("C:\\Users\\a0272466\\AppData\\Local\\Temp\\0939610:$C$L25:1:1391099602"
    1027                      .dwattr $C$DW$24, DW_AT_TI_begin_file("C:/work/grepos/bootrom/Boot_ROM/F2837x_bootROM-REVB/F2837x_boo
    1028                      .dwattr $C$DW$24, DW_AT_TI_begin_line(0x1a3)
    1029                      .dwattr $C$DW$24, DW_AT_TI_end_line(0x1be)
    1030              $C$DW$25        .dwtag  DW_TAG_TI_loop_range
    1031                      .dwattr $C$DW$25, DW_AT_low_pc($C$DW$L$_SafeCopyCodeZ1$72$B)
    1032                      .dwattr $C$DW$25, DW_AT_high_pc($C$DW$L$_SafeCopyCodeZ1$72$E)
    1033              $C$DW$26        .dwtag  DW_TAG_TI_loop_range
    1034                      .dwattr $C$DW$26, DW_AT_low_pc($C$DW$L$_SafeCopyCodeZ1$74$B)
    1035                      .dwattr $C$DW$26, DW_AT_high_pc($C$DW$L$_SafeCopyCodeZ1$74$E)
    1036                      .dwendtag $C$DW$24
    1037              
    1038                      .dwattr $C$DW$12, DW_AT_TI_end_file("C:/work/grepos/bootrom/Boot_ROM/F2837x_bootROM-REVB/F2837x_bootR
    1039                      .dwattr $C$DW$12, DW_AT_TI_end_line(0x1ca)
    1040                      .dwattr $C$DW$12, DW_AT_TI_end_column(0x01)
    1041                      .dwendentry
    1042                      .dwendtag $C$DW$12
    1043              
    1044 00000000               .sect   "SCCLZ2"
    1045                      .global _SafeCopyCodeZ2
    1046              
TMS320C2000 Assembler PC v6.1.3 Thu Jan 30 10:33:25 2014

Tools Copyright (c) 1996-2012 Texas Instruments Incorporated
C:\Users\a0272466\AppData\Local\Temp\0939610                         PAGE   23

    1047              $C$DW$27        .dwtag  DW_TAG_subprogram, DW_AT_name("SafeCopyCodeZ2")
    1048                      .dwattr $C$DW$27, DW_AT_low_pc(_SafeCopyCodeZ2)
    1049                      .dwattr $C$DW$27, DW_AT_high_pc(0x00)
    1050                      .dwattr $C$DW$27, DW_AT_TI_symbol_name("_SafeCopyCodeZ2")
    1051                      .dwattr $C$DW$27, DW_AT_external
    1052                      .dwattr $C$DW$27, DW_AT_type(*$C$DW$T$21)
    1053                      .dwattr $C$DW$27, DW_AT_TI_begin_file("C:/work/grepos/bootrom/Boot_ROM/F2837x_bootROM-REVB/F2837x_boo
    1054                      .dwattr $C$DW$27, DW_AT_TI_begin_line(0x1d2)
    1055                      .dwattr $C$DW$27, DW_AT_TI_begin_column(0x08)
    1056                      .dwattr $C$DW$27, DW_AT_TI_max_frame_size(-14)
    1057                      .dwpsn  file "C:/work/grepos/bootrom/Boot_ROM/F2837x_bootROM-REVB/F2837x_bootROM_dev/F2837x_bootROM/c
    1058              
    1059                      .dwfde $C$DW$CIE, _SafeCopyCodeZ2
    1060              $C$DW$28        .dwtag  DW_TAG_formal_parameter, DW_AT_name("size")
    1061                      .dwattr $C$DW$28, DW_AT_TI_symbol_name("_size")
    1062                      .dwattr $C$DW$28, DW_AT_type(*$C$DW$T$20)
    1063                      .dwattr $C$DW$28, DW_AT_location[DW_OP_reg0]
    1064              $C$DW$29        .dwtag  DW_TAG_formal_parameter, DW_AT_name("dst")
    1065                      .dwattr $C$DW$29, DW_AT_TI_symbol_name("_dst")
    1066                      .dwattr $C$DW$29, DW_AT_type(*$C$DW$T$91)
    1067                      .dwattr $C$DW$29, DW_AT_location[DW_OP_reg12]
    1068              $C$DW$30        .dwtag  DW_TAG_formal_parameter, DW_AT_name("src")
    1069                      .dwattr $C$DW$30, DW_AT_TI_symbol_name("_src")
    1070                      .dwattr $C$DW$30, DW_AT_type(*$C$DW$T$91)
    1071                      .dwattr $C$DW$30, DW_AT_location[DW_OP_reg14]
    1072              
    1073              ;***************************************************************
    1074              ;* FNAME: _SafeCopyCodeZ2               FR SIZE:  12           *
    1075              ;*                                                             *
    1076              ;* FUNCTION ENVIRONMENT                                        *
    1077              ;*                                                             *
    1078              ;* FUNCTION PROPERTIES                                         *
    1079              ;*                            0 Parameter, 11 Auto,  0 SOE     *
    1080              ;***************************************************************
    1081              
    1082 00000000       _SafeCopyCodeZ2:
    1083                      .dwcfi  cfa_offset, -2
    1084                      .dwcfi  save_reg_to_mem, 26, 0
    1085                      .dwcfi  save_reg_to_reg, 78, 26
    1086 00000000 FE0C          ADDB      SP,#12                ; [CPU_U] 
    1087                      .dwcfi  cfa_offset, -14
    1088              $C$DW$31        .dwtag  DW_TAG_variable, DW_AT_name("size")
    1089                      .dwattr $C$DW$31, DW_AT_TI_symbol_name("_size")
    1090                      .dwattr $C$DW$31, DW_AT_type(*$C$DW$T$20)
    1091                      .dwattr $C$DW$31, DW_AT_location[DW_OP_breg20 -2]
    1092              $C$DW$32        .dwtag  DW_TAG_variable, DW_AT_name("dst")
    1093                      .dwattr $C$DW$32, DW_AT_TI_symbol_name("_dst")
    1094                      .dwattr $C$DW$32, DW_AT_type(*$C$DW$T$91)
    1095                      .dwattr $C$DW$32, DW_AT_location[DW_OP_breg20 -4]
    1096              $C$DW$33        .dwtag  DW_TAG_variable, DW_AT_name("src")
    1097                      .dwattr $C$DW$33, DW_AT_TI_symbol_name("_src")
    1098                      .dwattr $C$DW$33, DW_AT_type(*$C$DW$T$91)
    1099                      .dwattr $C$DW$33, DW_AT_location[DW_OP_breg20 -6]
    1100              $C$DW$34        .dwtag  DW_TAG_variable, DW_AT_name("copied")
    1101                      .dwattr $C$DW$34, DW_AT_TI_symbol_name("_copied")
TMS320C2000 Assembler PC v6.1.3 Thu Jan 30 10:33:25 2014

Tools Copyright (c) 1996-2012 Texas Instruments Incorporated
C:\Users\a0272466\AppData\Local\Temp\0939610                         PAGE   24

    1102                      .dwattr $C$DW$34, DW_AT_type(*$C$DW$T$20)
    1103                      .dwattr $C$DW$34, DW_AT_location[DW_OP_breg20 -8]
    1104              $C$DW$35        .dwtag  DW_TAG_variable, DW_AT_name("dst_ram")
    1105                      .dwattr $C$DW$35, DW_AT_TI_symbol_name("_dst_ram")
    1106                      .dwattr $C$DW$35, DW_AT_type(*$C$DW$T$21)
    1107                      .dwattr $C$DW$35, DW_AT_location[DW_OP_breg20 -9]
    1108              $C$DW$36        .dwtag  DW_TAG_variable, DW_AT_name("src_sect")
    1109                      .dwattr $C$DW$36, DW_AT_TI_symbol_name("_src_sect")
    1110                      .dwattr $C$DW$36, DW_AT_type(*$C$DW$T$21)
    1111                      .dwattr $C$DW$36, DW_AT_location[DW_OP_breg20 -10]
    1112              $C$DW$37        .dwtag  DW_TAG_variable, DW_AT_name("check_var")
    1113                      .dwattr $C$DW$37, DW_AT_TI_symbol_name("_check_var")
    1114                      .dwattr $C$DW$37, DW_AT_type(*$C$DW$T$21)
    1115                      .dwattr $C$DW$37, DW_AT_location[DW_OP_breg20 -11]
    1116 00000001 A046          MOVL      *-SP[6],XAR5          ; [CPU_] |467| 
    1117 00000002 A844          MOVL      *-SP[4],XAR4          ; [CPU_] |467| 
    1118 00000003 1E42          MOVL      *-SP[2],ACC           ; [CPU_] |467| 
    1119                      .dwpsn  file "C:/work/grepos/bootrom/Boot_ROM/F2837x_bootROM-REVB/F2837x_bootROM_dev/F2837x_bootROM/c
    1120 00000004 0200          MOVB      ACC,#0                ; [CPU_] |468| 
    1121 00000005 1E48          MOVL      *-SP[8],ACC           ; [CPU_] |468| 
    1122                      .dwpsn  file "C:/work/grepos/bootrom/Boot_ROM/F2837x_bootROM-REVB/F2837x_bootROM_dev/F2837x_bootROM/c
    1123 00000006 2849          MOV       *-SP[9],#65535        ; [CPU_] |469| 
         00000007 FFFF 
    1124                      .dwpsn  file "C:/work/grepos/bootrom/Boot_ROM/F2837x_bootROM-REVB/F2837x_bootROM_dev/F2837x_bootROM/c
    1125 00000008 284A          MOV       *-SP[10],#65535       ; [CPU_] |470| 
         00000009 FFFF 
    1126                      .dwpsn  file "C:/work/grepos/bootrom/Boot_ROM/F2837x_bootROM-REVB/F2837x_bootROM_dev/F2837x_bootROM/c
    1127 0000000a 284B          MOV       *-SP[11],#64095       ; [CPU_] |471| 
         0000000b FA5F 
    1128                      .dwpsn  file "C:/work/grepos/bootrom/Boot_ROM/F2837x_bootROM-REVB/F2837x_bootROM_dev/F2837x_bootROM/c
    1129 0000000c 761F!         MOVW      DP,#_DcsmRegsZ2+34    ; [CPU_U] 
         0000000d 0000 
    1130 0000000e 1A22!         OR        @_DcsmRegsZ2+34,#0x0001 ; [CPU_] |474| 
         0000000f 0001 
    1131                      .dwpsn  file "C:/work/grepos/bootrom/Boot_ROM/F2837x_bootROM-REVB/F2837x_bootROM_dev/F2837x_bootROM/c
    1132 00000010 0642          MOVL      ACC,*-SP[2]           ; [CPU_] |477| 
    1133 00000011 EC05          BF        $C$L29,EQ             ; [CPU_] |477| 
    1134                      ; branchcc occurs ; [] |477| 
    1135 00000012 0644          MOVL      ACC,*-SP[4]           ; [CPU_] |477| 
    1136 00000013 EC03          BF        $C$L29,EQ             ; [CPU_] |477| 
    1137                      ; branchcc occurs ; [] |477| 
    1138 00000014 0646          MOVL      ACC,*-SP[6]           ; [CPU_] |477| 
    1139 00000015 ED10          BF        $C$L30,NEQ            ; [CPU_] |477| 
    1140                      ; branchcc occurs ; [] |477| 
    1141 00000016       $C$L29:    
    1142                      .dwpsn  file "C:/work/grepos/bootrom/Boot_ROM/F2837x_bootROM-REVB/F2837x_bootROM_dev/F2837x_bootROM/c
    1143 00000016 1822!         AND       @_DcsmRegsZ2+34,#0xfffe ; [CPU_] |479| 
         00000017 FFFE 
    1144                      .dwpsn  file "C:/work/grepos/bootrom/Boot_ROM/F2837x_bootROM-REVB/F2837x_bootROM_dev/F2837x_bootROM/c
    1145 00000018 0200          MOVB      ACC,#0                ; [CPU_] |481| 
    1146 00000019 1E42          MOVL      *-SP[2],ACC           ; [CPU_] |481| 
    1147                      .dwpsn  file "C:/work/grepos/bootrom/Boot_ROM/F2837x_bootROM-REVB/F2837x_bootROM_dev/F2837x_bootROM/c
    1148 0000001a 1E44          MOVL      *-SP[4],ACC           ; [CPU_] |482| 
    1149                      .dwpsn  file "C:/work/grepos/bootrom/Boot_ROM/F2837x_bootROM-REVB/F2837x_bootROM_dev/F2837x_bootROM/c
    1150 0000001b 1E46          MOVL      *-SP[6],ACC           ; [CPU_] |483| 
TMS320C2000 Assembler PC v6.1.3 Thu Jan 30 10:33:25 2014

Tools Copyright (c) 1996-2012 Texas Instruments Incorporated
C:\Users\a0272466\AppData\Local\Temp\0939610                         PAGE   25

    1151                      .dwpsn  file "C:/work/grepos/bootrom/Boot_ROM/F2837x_bootROM-REVB/F2837x_bootROM_dev/F2837x_bootROM/c
    1152 0000001c 1E48          MOVL      *-SP[8],ACC           ; [CPU_] |484| 
    1153                      .dwpsn  file "C:/work/grepos/bootrom/Boot_ROM/F2837x_bootROM-REVB/F2837x_bootROM_dev/F2837x_bootROM/c
    1154 0000001d 2849          MOV       *-SP[9],#65535        ; [CPU_] |485| 
         0000001e FFFF 
    1155                      .dwpsn  file "C:/work/grepos/bootrom/Boot_ROM/F2837x_bootROM-REVB/F2837x_bootROM_dev/F2837x_bootROM/c
    1156 0000001f 284A          MOV       *-SP[10],#65535       ; [CPU_] |486| 
         00000020 FFFF 
    1157                      .dwpsn  file "C:/work/grepos/bootrom/Boot_ROM/F2837x_bootROM-REVB/F2837x_bootROM_dev/F2837x_bootROM/c
    1158 00000021 2B4B          MOV       *-SP[11],#0           ; [CPU_] |487| 
    1159                      .dwpsn  file "C:/work/grepos/bootrom/Boot_ROM/F2837x_bootROM-REVB/F2837x_bootROM_dev/F2837x_bootROM/c
    1160 00000022 9A00          MOVB      AL,#0                 ; [CPU_] |488| 
    1161 00000023 FFEF          B         $C$L56,UNC            ; [CPU_] |488| 
         00000024 029E 
    1162                      ; branch occurs ; [] |488| 
    1163 00000025       $C$L30:    
    1164                      .dwpsn  file "C:/work/grepos/bootrom/Boot_ROM/F2837x_bootROM-REVB/F2837x_bootROM_dev/F2837x_bootROM/c
    1165 00000025 C446          MOVL      XAR6,*-SP[6]          ; [CPU_] |492| 
    1166 00000026 8F10          MOVL      XAR4,#1048576         ; [CPU_U] |492| 
         00000027 0000 
    1167 00000028 A8A9          MOVL      ACC,XAR4              ; [CPU_] |492| 
    1168 00000029 0FA6          CMPL      ACC,XAR6              ; [CPU_] |492| 
    1169 0000002a 6907          B         $C$L31,LOS            ; [CPU_] |492| 
    1170                      ; branchcc occurs ; [] |492| 
    1171 0000002b C446          MOVL      XAR6,*-SP[6]          ; [CPU_] |492| 
    1172 0000002c 8F08          MOVL      XAR4,#524288          ; [CPU_U] |492| 
         0000002d 0000 
    1173 0000002e A8A9          MOVL      ACC,XAR4              ; [CPU_] |492| 
    1174 0000002f 0FA6          CMPL      ACC,XAR6              ; [CPU_] |492| 
    1175 00000030 6910          B         $C$L32,LOS            ; [CPU_] |492| 
    1176                      ; branchcc occurs ; [] |492| 
    1177 00000031       $C$L31:    
    1178                      .dwpsn  file "C:/work/grepos/bootrom/Boot_ROM/F2837x_bootROM-REVB/F2837x_bootROM_dev/F2837x_bootROM/c
    1179 00000031 1822!         AND       @_DcsmRegsZ2+34,#0xfffe ; [CPU_] |495| 
         00000032 FFFE 
    1180                      .dwpsn  file "C:/work/grepos/bootrom/Boot_ROM/F2837x_bootROM-REVB/F2837x_bootROM_dev/F2837x_bootROM/c
    1181 00000033 0200          MOVB      ACC,#0                ; [CPU_] |497| 
    1182 00000034 1E42          MOVL      *-SP[2],ACC           ; [CPU_] |497| 
    1183                      .dwpsn  file "C:/work/grepos/bootrom/Boot_ROM/F2837x_bootROM-REVB/F2837x_bootROM_dev/F2837x_bootROM/c
    1184 00000035 1E44          MOVL      *-SP[4],ACC           ; [CPU_] |498| 
    1185                      .dwpsn  file "C:/work/grepos/bootrom/Boot_ROM/F2837x_bootROM-REVB/F2837x_bootROM_dev/F2837x_bootROM/c
    1186 00000036 1E46          MOVL      *-SP[6],ACC           ; [CPU_] |499| 
    1187                      .dwpsn  file "C:/work/grepos/bootrom/Boot_ROM/F2837x_bootROM-REVB/F2837x_bootROM_dev/F2837x_bootROM/c
    1188 00000037 1E48          MOVL      *-SP[8],ACC           ; [CPU_] |500| 
    1189                      .dwpsn  file "C:/work/grepos/bootrom/Boot_ROM/F2837x_bootROM-REVB/F2837x_bootROM_dev/F2837x_bootROM/c
    1190 00000038 2849          MOV       *-SP[9],#65535        ; [CPU_] |501| 
         00000039 FFFF 
    1191                      .dwpsn  file "C:/work/grepos/bootrom/Boot_ROM/F2837x_bootROM-REVB/F2837x_bootROM_dev/F2837x_bootROM/c
    1192 0000003a 284A          MOV       *-SP[10],#65535       ; [CPU_] |502| 
         0000003b FFFF 
    1193                      .dwpsn  file "C:/work/grepos/bootrom/Boot_ROM/F2837x_bootROM-REVB/F2837x_bootROM_dev/F2837x_bootROM/c
    1194 0000003c 2B4B          MOV       *-SP[11],#0           ; [CPU_] |503| 
    1195                      .dwpsn  file "C:/work/grepos/bootrom/Boot_ROM/F2837x_bootROM-REVB/F2837x_bootROM_dev/F2837x_bootROM/c
    1196 0000003d 9A00          MOVB      AL,#0                 ; [CPU_] |504| 
    1197 0000003e FFEF          B         $C$L56,UNC            ; [CPU_] |504| 
TMS320C2000 Assembler PC v6.1.3 Thu Jan 30 10:33:25 2014

Tools Copyright (c) 1996-2012 Texas Instruments Incorporated
C:\Users\a0272466\AppData\Local\Temp\0939610                         PAGE   26

         0000003f 0283 
    1198                      ; branch occurs ; [] |504| 
    1199 00000040       $C$L32:    
    1200                      .dwpsn  file "C:/work/grepos/bootrom/Boot_ROM/F2837x_bootROM-REVB/F2837x_bootROM_dev/F2837x_bootROM/c
    1201 00000040 C444          MOVL      XAR6,*-SP[4]          ; [CPU_] |510| 
    1202 00000041 2901          CLRC      SXM                   ; [CPU_] 
    1203 00000042 FF20          MOV       ACC,#49152            ; [CPU_] |510| 
         00000043 C000 
    1204 00000044 0FA6          CMPL      ACC,XAR6              ; [CPU_] |510| 
    1205 00000045 6906          B         $C$L33,LOS            ; [CPU_] |510| 
    1206                      ; branchcc occurs ; [] |510| 
    1207 00000046 C444          MOVL      XAR6,*-SP[4]          ; [CPU_] |510| 
    1208 00000047 FF20          MOV       ACC,#32768            ; [CPU_] |510| 
         00000048 8000 
    1209 00000049 0FA6          CMPL      ACC,XAR6              ; [CPU_] |510| 
    1210 0000004a 6910          B         $C$L34,LOS            ; [CPU_] |510| 
    1211                      ; branchcc occurs ; [] |510| 
    1212 0000004b       $C$L33:    
    1213                      .dwpsn  file "C:/work/grepos/bootrom/Boot_ROM/F2837x_bootROM-REVB/F2837x_bootROM_dev/F2837x_bootROM/c
    1214 0000004b 1822!         AND       @_DcsmRegsZ2+34,#0xfffe ; [CPU_] |513| 
         0000004c FFFE 
    1215                      .dwpsn  file "C:/work/grepos/bootrom/Boot_ROM/F2837x_bootROM-REVB/F2837x_bootROM_dev/F2837x_bootROM/c
    1216 0000004d 0200          MOVB      ACC,#0                ; [CPU_] |515| 
    1217 0000004e 1E42          MOVL      *-SP[2],ACC           ; [CPU_] |515| 
    1218                      .dwpsn  file "C:/work/grepos/bootrom/Boot_ROM/F2837x_bootROM-REVB/F2837x_bootROM_dev/F2837x_bootROM/c
    1219 0000004f 1E44          MOVL      *-SP[4],ACC           ; [CPU_] |516| 
    1220                      .dwpsn  file "C:/work/grepos/bootrom/Boot_ROM/F2837x_bootROM-REVB/F2837x_bootROM_dev/F2837x_bootROM/c
    1221 00000050 1E46          MOVL      *-SP[6],ACC           ; [CPU_] |517| 
    1222                      .dwpsn  file "C:/work/grepos/bootrom/Boot_ROM/F2837x_bootROM-REVB/F2837x_bootROM_dev/F2837x_bootROM/c
    1223 00000051 1E48          MOVL      *-SP[8],ACC           ; [CPU_] |518| 
    1224                      .dwpsn  file "C:/work/grepos/bootrom/Boot_ROM/F2837x_bootROM-REVB/F2837x_bootROM_dev/F2837x_bootROM/c
    1225 00000052 2849          MOV       *-SP[9],#65535        ; [CPU_] |519| 
         00000053 FFFF 
    1226                      .dwpsn  file "C:/work/grepos/bootrom/Boot_ROM/F2837x_bootROM-REVB/F2837x_bootROM_dev/F2837x_bootROM/c
    1227 00000054 284A          MOV       *-SP[10],#65535       ; [CPU_] |520| 
         00000055 FFFF 
    1228                      .dwpsn  file "C:/work/grepos/bootrom/Boot_ROM/F2837x_bootROM-REVB/F2837x_bootROM_dev/F2837x_bootROM/c
    1229 00000056 2B4B          MOV       *-SP[11],#0           ; [CPU_] |521| 
    1230                      .dwpsn  file "C:/work/grepos/bootrom/Boot_ROM/F2837x_bootROM-REVB/F2837x_bootROM_dev/F2837x_bootROM/c
    1231 00000057 9A00          MOVB      AL,#0                 ; [CPU_] |522| 
    1232 00000058 FFEF          B         $C$L56,UNC            ; [CPU_] |522| 
         00000059 0269 
    1233                      ; branch occurs ; [] |522| 
    1234 0000005a       $C$L34:    
    1235                      .dwpsn  file "C:/work/grepos/bootrom/Boot_ROM/F2837x_bootROM-REVB/F2837x_bootROM_dev/F2837x_bootROM/c
    1236 0000005a 0644          MOVL      ACC,*-SP[4]           ; [CPU_] |528| 
    1237 0000005b 8F00          MOVL      XAR4,#2048            ; [CPU_U] |528| 
         0000005c 0800 
    1238 0000005d 9B00          MOVB      AH,#0                 ; [CPU_] |528| 
    1239 0000005e 18A9          AND       AL,#0x07ff            ; [CPU_] |528| 
         0000005f 07FF 
    1240 00000060 0742          ADDL      ACC,*-SP[2]           ; [CPU_] |528| 
    1241 00000061 0FA4          CMPL      ACC,XAR4              ; [CPU_] |528| 
    1242 00000062 6910          B         $C$L35,LOS            ; [CPU_] |528| 
    1243                      ; branchcc occurs ; [] |528| 
TMS320C2000 Assembler PC v6.1.3 Thu Jan 30 10:33:25 2014

Tools Copyright (c) 1996-2012 Texas Instruments Incorporated
C:\Users\a0272466\AppData\Local\Temp\0939610                         PAGE   27

    1244                      .dwpsn  file "C:/work/grepos/bootrom/Boot_ROM/F2837x_bootROM-REVB/F2837x_bootROM_dev/F2837x_bootROM/c
    1245 00000063 1822!         AND       @_DcsmRegsZ2+34,#0xfffe ; [CPU_] |530| 
         00000064 FFFE 
    1246                      .dwpsn  file "C:/work/grepos/bootrom/Boot_ROM/F2837x_bootROM-REVB/F2837x_bootROM_dev/F2837x_bootROM/c
    1247 00000065 0200          MOVB      ACC,#0                ; [CPU_] |532| 
    1248 00000066 1E42          MOVL      *-SP[2],ACC           ; [CPU_] |532| 
    1249                      .dwpsn  file "C:/work/grepos/bootrom/Boot_ROM/F2837x_bootROM-REVB/F2837x_bootROM_dev/F2837x_bootROM/c
    1250 00000067 1E44          MOVL      *-SP[4],ACC           ; [CPU_] |533| 
    1251                      .dwpsn  file "C:/work/grepos/bootrom/Boot_ROM/F2837x_bootROM-REVB/F2837x_bootROM_dev/F2837x_bootROM/c
    1252 00000068 1E46          MOVL      *-SP[6],ACC           ; [CPU_] |534| 
    1253                      .dwpsn  file "C:/work/grepos/bootrom/Boot_ROM/F2837x_bootROM-REVB/F2837x_bootROM_dev/F2837x_bootROM/c
    1254 00000069 1E48          MOVL      *-SP[8],ACC           ; [CPU_] |535| 
    1255                      .dwpsn  file "C:/work/grepos/bootrom/Boot_ROM/F2837x_bootROM-REVB/F2837x_bootROM_dev/F2837x_bootROM/c
    1256 0000006a 2849          MOV       *-SP[9],#65535        ; [CPU_] |536| 
         0000006b FFFF 
    1257                      .dwpsn  file "C:/work/grepos/bootrom/Boot_ROM/F2837x_bootROM-REVB/F2837x_bootROM_dev/F2837x_bootROM/c
    1258 0000006c 284A          MOV       *-SP[10],#65535       ; [CPU_] |537| 
         0000006d FFFF 
    1259                      .dwpsn  file "C:/work/grepos/bootrom/Boot_ROM/F2837x_bootROM-REVB/F2837x_bootROM_dev/F2837x_bootROM/c
    1260 0000006e 2B4B          MOV       *-SP[11],#0           ; [CPU_] |538| 
    1261                      .dwpsn  file "C:/work/grepos/bootrom/Boot_ROM/F2837x_bootROM-REVB/F2837x_bootROM_dev/F2837x_bootROM/c
    1262 0000006f 9A00          MOVB      AL,#0                 ; [CPU_] |539| 
    1263 00000070 FFEF          B         $C$L56,UNC            ; [CPU_] |539| 
         00000071 0251 
    1264                      ; branch occurs ; [] |539| 
    1265 00000072       $C$L35:    
    1266                      .dwpsn  file "C:/work/grepos/bootrom/Boot_ROM/F2837x_bootROM-REVB/F2837x_bootROM_dev/F2837x_bootROM/c
    1267 00000072 0644          MOVL      ACC,*-SP[4]           ; [CPU_] |543| 
    1268 00000073 8F00          MOVL      XAR4,#47104           ; [CPU_U] |543| 
         00000074 B800 
    1269 00000075 9B00          MOVB      AH,#0                 ; [CPU_] |543| 
    1270 00000076 18A9          AND       AL,#0xb800            ; [CPU_] |543| 
         00000077 B800 
    1271 00000078 0FA4          CMPL      ACC,XAR4              ; [CPU_] |543| 
    1272                      .dwpsn  file "C:/work/grepos/bootrom/Boot_ROM/F2837x_bootROM-REVB/F2837x_bootROM_dev/F2837x_bootROM/c
    1273 00000079 56B1          MOVB      *-SP[9],#14,EQ        ; [CPU_] |546| 
         0000007a 0E49 
    1274                      .dwpsn  file "C:/work/grepos/bootrom/Boot_ROM/F2837x_bootROM-REVB/F2837x_bootROM_dev/F2837x_bootROM/c
    1275 0000007b EC46          BF        $C$L36,EQ             ; [CPU_] |547| 
    1276                      ; branchcc occurs ; [] |547| 
    1277                      .dwpsn  file "C:/work/grepos/bootrom/Boot_ROM/F2837x_bootROM-REVB/F2837x_bootROM_dev/F2837x_bootROM/c
    1278 0000007c 0644          MOVL      ACC,*-SP[4]           ; [CPU_] |548| 
    1279 0000007d 8F00          MOVL      XAR4,#45056           ; [CPU_U] |548| 
         0000007e B000 
    1280 0000007f 9B00          MOVB      AH,#0                 ; [CPU_] |548| 
    1281 00000080 18A9          AND       AL,#0xb000            ; [CPU_] |548| 
         00000081 B000 
    1282 00000082 0FA4          CMPL      ACC,XAR4              ; [CPU_] |548| 
    1283                      .dwpsn  file "C:/work/grepos/bootrom/Boot_ROM/F2837x_bootROM-REVB/F2837x_bootROM_dev/F2837x_bootROM/c
    1284 00000083 56B1          MOVB      *-SP[9],#12,EQ        ; [CPU_] |551| 
         00000084 0C49 
    1285                      .dwpsn  file "C:/work/grepos/bootrom/Boot_ROM/F2837x_bootROM-REVB/F2837x_bootROM_dev/F2837x_bootROM/c
    1286 00000085 EC3C          BF        $C$L36,EQ             ; [CPU_] |552| 
    1287                      ; branchcc occurs ; [] |552| 
    1288                      .dwpsn  file "C:/work/grepos/bootrom/Boot_ROM/F2837x_bootROM-REVB/F2837x_bootROM_dev/F2837x_bootROM/c
TMS320C2000 Assembler PC v6.1.3 Thu Jan 30 10:33:25 2014

Tools Copyright (c) 1996-2012 Texas Instruments Incorporated
C:\Users\a0272466\AppData\Local\Temp\0939610                         PAGE   28

    1289 00000086 0644          MOVL      ACC,*-SP[4]           ; [CPU_] |553| 
    1290 00000087 8F00          MOVL      XAR4,#43008           ; [CPU_U] |553| 
         00000088 A800 
    1291 00000089 9B00          MOVB      AH,#0                 ; [CPU_] |553| 
    1292 0000008a 18A9          AND       AL,#0xa800            ; [CPU_] |553| 
         0000008b A800 
    1293 0000008c 0FA4          CMPL      ACC,XAR4              ; [CPU_] |553| 
    1294                      .dwpsn  file "C:/work/grepos/bootrom/Boot_ROM/F2837x_bootROM-REVB/F2837x_bootROM_dev/F2837x_bootROM/c
    1295 0000008d 56B1          MOVB      *-SP[9],#10,EQ        ; [CPU_] |556| 
         0000008e 0A49 
    1296                      .dwpsn  file "C:/work/grepos/bootrom/Boot_ROM/F2837x_bootROM-REVB/F2837x_bootROM_dev/F2837x_bootROM/c
    1297 0000008f EC32          BF        $C$L36,EQ             ; [CPU_] |557| 
    1298                      ; branchcc occurs ; [] |557| 
    1299                      .dwpsn  file "C:/work/grepos/bootrom/Boot_ROM/F2837x_bootROM-REVB/F2837x_bootROM_dev/F2837x_bootROM/c
    1300 00000090 0644          MOVL      ACC,*-SP[4]           ; [CPU_] |558| 
    1301 00000091 8F00          MOVL      XAR4,#40960           ; [CPU_U] |558| 
         00000092 A000 
    1302 00000093 9B00          MOVB      AH,#0                 ; [CPU_] |558| 
    1303 00000094 18A9          AND       AL,#0xa000            ; [CPU_] |558| 
         00000095 A000 
    1304 00000096 0FA4          CMPL      ACC,XAR4              ; [CPU_] |558| 
    1305                      .dwpsn  file "C:/work/grepos/bootrom/Boot_ROM/F2837x_bootROM-REVB/F2837x_bootROM_dev/F2837x_bootROM/c
    1306 00000097 56B1          MOVB      *-SP[9],#8,EQ         ; [CPU_] |561| 
         00000098 0849 
    1307                      .dwpsn  file "C:/work/grepos/bootrom/Boot_ROM/F2837x_bootROM-REVB/F2837x_bootROM_dev/F2837x_bootROM/c
    1308 00000099 EC28          BF        $C$L36,EQ             ; [CPU_] |562| 
    1309                      ; branchcc occurs ; [] |562| 
    1310                      .dwpsn  file "C:/work/grepos/bootrom/Boot_ROM/F2837x_bootROM-REVB/F2837x_bootROM_dev/F2837x_bootROM/c
    1311 0000009a 0644          MOVL      ACC,*-SP[4]           ; [CPU_] |563| 
    1312 0000009b 8F00          MOVL      XAR4,#38912           ; [CPU_U] |563| 
         0000009c 9800 
    1313 0000009d 9B00          MOVB      AH,#0                 ; [CPU_] |563| 
    1314 0000009e 18A9          AND       AL,#0x9800            ; [CPU_] |563| 
         0000009f 9800 
    1315 000000a0 0FA4          CMPL      ACC,XAR4              ; [CPU_] |563| 
    1316                      .dwpsn  file "C:/work/grepos/bootrom/Boot_ROM/F2837x_bootROM-REVB/F2837x_bootROM_dev/F2837x_bootROM/c
    1317 000000a1 56B1          MOVB      *-SP[9],#6,EQ         ; [CPU_] |566| 
         000000a2 0649 
    1318                      .dwpsn  file "C:/work/grepos/bootrom/Boot_ROM/F2837x_bootROM-REVB/F2837x_bootROM_dev/F2837x_bootROM/c
    1319 000000a3 EC1E          BF        $C$L36,EQ             ; [CPU_] |567| 
    1320                      ; branchcc occurs ; [] |567| 
    1321                      .dwpsn  file "C:/work/grepos/bootrom/Boot_ROM/F2837x_bootROM-REVB/F2837x_bootROM_dev/F2837x_bootROM/c
    1322 000000a4 0644          MOVL      ACC,*-SP[4]           ; [CPU_] |568| 
    1323 000000a5 8F00          MOVL      XAR4,#36864           ; [CPU_U] |568| 
         000000a6 9000 
    1324 000000a7 9B00          MOVB      AH,#0                 ; [CPU_] |568| 
    1325 000000a8 18A9          AND       AL,#0x9000            ; [CPU_] |568| 
         000000a9 9000 
    1326 000000aa 0FA4          CMPL      ACC,XAR4              ; [CPU_] |568| 
    1327                      .dwpsn  file "C:/work/grepos/bootrom/Boot_ROM/F2837x_bootROM-REVB/F2837x_bootROM_dev/F2837x_bootROM/c
    1328 000000ab 56B1          MOVB      *-SP[9],#4,EQ         ; [CPU_] |571| 
         000000ac 0449 
    1329                      .dwpsn  file "C:/work/grepos/bootrom/Boot_ROM/F2837x_bootROM-REVB/F2837x_bootROM_dev/F2837x_bootROM/c
    1330 000000ad EC14          BF        $C$L36,EQ             ; [CPU_] |572| 
    1331                      ; branchcc occurs ; [] |572| 
TMS320C2000 Assembler PC v6.1.3 Thu Jan 30 10:33:25 2014

Tools Copyright (c) 1996-2012 Texas Instruments Incorporated
C:\Users\a0272466\AppData\Local\Temp\0939610                         PAGE   29

    1332                      .dwpsn  file "C:/work/grepos/bootrom/Boot_ROM/F2837x_bootROM-REVB/F2837x_bootROM_dev/F2837x_bootROM/c
    1333 000000ae 0644          MOVL      ACC,*-SP[4]           ; [CPU_] |573| 
    1334 000000af 8F00          MOVL      XAR4,#34816           ; [CPU_U] |573| 
         000000b0 8800 
    1335 000000b1 9B00          MOVB      AH,#0                 ; [CPU_] |573| 
    1336 000000b2 18A9          AND       AL,#0x8800            ; [CPU_] |573| 
         000000b3 8800 
    1337 000000b4 0FA4          CMPL      ACC,XAR4              ; [CPU_] |573| 
    1338                      .dwpsn  file "C:/work/grepos/bootrom/Boot_ROM/F2837x_bootROM-REVB/F2837x_bootROM_dev/F2837x_bootROM/c
    1339 000000b5 56B1          MOVB      *-SP[9],#2,EQ         ; [CPU_] |576| 
         000000b6 0249 
    1340                      .dwpsn  file "C:/work/grepos/bootrom/Boot_ROM/F2837x_bootROM-REVB/F2837x_bootROM_dev/F2837x_bootROM/c
    1341 000000b7 EC0A          BF        $C$L36,EQ             ; [CPU_] |577| 
    1342                      ; branchcc occurs ; [] |577| 
    1343                      .dwpsn  file "C:/work/grepos/bootrom/Boot_ROM/F2837x_bootROM-REVB/F2837x_bootROM_dev/F2837x_bootROM/c
    1344 000000b8 0644          MOVL      ACC,*-SP[4]           ; [CPU_] |578| 
    1345 000000b9 8F00          MOVL      XAR4,#32768           ; [CPU_U] |578| 
         000000ba 8000 
    1346 000000bb 9B00          MOVB      AH,#0                 ; [CPU_] |578| 
    1347 000000bc 18A9          AND       AL,#0x8000            ; [CPU_] |578| 
         000000bd 8000 
    1348 000000be 0FA4          CMPL      ACC,XAR4              ; [CPU_] |578| 
    1349 000000bf ED02          BF        $C$L36,NEQ            ; [CPU_] |578| 
    1350                      ; branchcc occurs ; [] |578| 
    1351                      .dwpsn  file "C:/work/grepos/bootrom/Boot_ROM/F2837x_bootROM-REVB/F2837x_bootROM_dev/F2837x_bootROM/c
    1352 000000c0 2B49          MOV       *-SP[9],#0            ; [CPU_] |581| 
    1353 000000c1       $C$L36:    
    1354                      .dwpsn  file "C:/work/grepos/bootrom/Boot_ROM/F2837x_bootROM-REVB/F2837x_bootROM_dev/F2837x_bootROM/c
    1355 000000c1 0644          MOVL      ACC,*-SP[4]           ; [CPU_] |589| 
    1356 000000c2 8F00          MOVL      XAR4,#2048            ; [CPU_U] |589| 
         000000c3 0800 
    1357 000000c4 9B00          MOVB      AH,#0                 ; [CPU_] |589| 
    1358 000000c5 18A9          AND       AL,#0x07ff            ; [CPU_] |589| 
         000000c6 07FF 
    1359 000000c7 0742          ADDL      ACC,*-SP[2]           ; [CPU_] |589| 
    1360 000000c8 0FA4          CMPL      ACC,XAR4              ; [CPU_] |589| 
    1361 000000c9 6910          B         $C$L37,LOS            ; [CPU_] |589| 
    1362                      ; branchcc occurs ; [] |589| 
    1363                      .dwpsn  file "C:/work/grepos/bootrom/Boot_ROM/F2837x_bootROM-REVB/F2837x_bootROM_dev/F2837x_bootROM/c
    1364 000000ca 1822!         AND       @_DcsmRegsZ2+34,#0xfffe ; [CPU_] |591| 
         000000cb FFFE 
    1365                      .dwpsn  file "C:/work/grepos/bootrom/Boot_ROM/F2837x_bootROM-REVB/F2837x_bootROM_dev/F2837x_bootROM/c
    1366 000000cc 0200          MOVB      ACC,#0                ; [CPU_] |593| 
    1367 000000cd 1E42          MOVL      *-SP[2],ACC           ; [CPU_] |593| 
    1368                      .dwpsn  file "C:/work/grepos/bootrom/Boot_ROM/F2837x_bootROM-REVB/F2837x_bootROM_dev/F2837x_bootROM/c
    1369 000000ce 1E44          MOVL      *-SP[4],ACC           ; [CPU_] |594| 
    1370                      .dwpsn  file "C:/work/grepos/bootrom/Boot_ROM/F2837x_bootROM-REVB/F2837x_bootROM_dev/F2837x_bootROM/c
    1371 000000cf 1E46          MOVL      *-SP[6],ACC           ; [CPU_] |595| 
    1372                      .dwpsn  file "C:/work/grepos/bootrom/Boot_ROM/F2837x_bootROM-REVB/F2837x_bootROM_dev/F2837x_bootROM/c
    1373 000000d0 1E48          MOVL      *-SP[8],ACC           ; [CPU_] |596| 
    1374                      .dwpsn  file "C:/work/grepos/bootrom/Boot_ROM/F2837x_bootROM-REVB/F2837x_bootROM_dev/F2837x_bootROM/c
    1375 000000d1 2849          MOV       *-SP[9],#65535        ; [CPU_] |597| 
         000000d2 FFFF 
    1376                      .dwpsn  file "C:/work/grepos/bootrom/Boot_ROM/F2837x_bootROM-REVB/F2837x_bootROM_dev/F2837x_bootROM/c
    1377 000000d3 284A          MOV       *-SP[10],#65535       ; [CPU_] |598| 
TMS320C2000 Assembler PC v6.1.3 Thu Jan 30 10:33:25 2014

Tools Copyright (c) 1996-2012 Texas Instruments Incorporated
C:\Users\a0272466\AppData\Local\Temp\0939610                         PAGE   30

         000000d4 FFFF 
    1378                      .dwpsn  file "C:/work/grepos/bootrom/Boot_ROM/F2837x_bootROM-REVB/F2837x_bootROM_dev/F2837x_bootROM/c
    1379 000000d5 2B4B          MOV       *-SP[11],#0           ; [CPU_] |599| 
    1380                      .dwpsn  file "C:/work/grepos/bootrom/Boot_ROM/F2837x_bootROM-REVB/F2837x_bootROM_dev/F2837x_bootROM/c
    1381 000000d6 9A00          MOVB      AL,#0                 ; [CPU_] |600| 
    1382 000000d7 FFEF          B         $C$L56,UNC            ; [CPU_] |600| 
         000000d8 01EA 
    1383                      ; branch occurs ; [] |600| 
    1384 000000d9       $C$L37:    
    1385                      .dwpsn  file "C:/work/grepos/bootrom/Boot_ROM/F2837x_bootROM-REVB/F2837x_bootROM_dev/F2837x_bootROM/c
    1386 000000d9 0646          MOVL      ACC,*-SP[6]           ; [CPU_] |606| 
    1387 000000da 8F0C          MOVL      XAR4,#786432          ; [CPU_U] |606| 
         000000db 0000 
    1388 000000dc 5608          AND       ACC,#12 << 16         ; [CPU_] |606| 
         000000dd 000C 
    1389 000000de 0FA4          CMPL      ACC,XAR4              ; [CPU_] |606| 
    1390 000000df ED34          BF        $C$L40,NEQ            ; [CPU_] |606| 
    1391                      ; branchcc occurs ; [] |606| 
    1392                      .dwpsn  file "C:/work/grepos/bootrom/Boot_ROM/F2837x_bootROM-REVB/F2837x_bootROM_dev/F2837x_bootROM/c
    1393 000000e0 761F!         MOVW      DP,#_DcsmRegsCommon+6 ; [CPU_U] 
         000000e1 0000 
    1394 000000e2 CC06!         AND       AL,@_DcsmRegsCommon+6,#0x03c0 ; [CPU_] |610| 
         000000e3 03C0 
    1395 000000e4 FFC5          LSR       AL,6                  ; [CPU_] |610| 
    1396 000000e5 520F          CMPB      AL,#15                ; [CPU_] |610| 
    1397 000000e6 EC1C          BF        $C$L39,EQ             ; [CPU_] |610| 
    1398                      ; branchcc occurs ; [] |610| 
    1399                      .dwpsn  file "C:/work/grepos/bootrom/Boot_ROM/F2837x_bootROM-REVB/F2837x_bootROM_dev/F2837x_bootROM/c
    1400 000000e7 0646          MOVL      ACC,*-SP[6]           ; [CPU_] |613| 
    1401 000000e8 8F10          MOVL      XAR4,#1048576         ; [CPU_U] |613| 
         000000e9 0000 
    1402 000000ea 0742          ADDL      ACC,*-SP[2]           ; [CPU_] |613| 
    1403 000000eb 0FA4          CMPL      ACC,XAR4              ; [CPU_] |613| 
    1404 000000ec 6912          B         $C$L38,LOS            ; [CPU_] |613| 
    1405                      ; branchcc occurs ; [] |613| 
    1406                      .dwpsn  file "C:/work/grepos/bootrom/Boot_ROM/F2837x_bootROM-REVB/F2837x_bootROM_dev/F2837x_bootROM/c
    1407 000000ed 761F!         MOVW      DP,#_DcsmRegsZ2+34    ; [CPU_U] 
         000000ee 0000 
    1408 000000ef 1822!         AND       @_DcsmRegsZ2+34,#0xfffe ; [CPU_] |615| 
         000000f0 FFFE 
    1409                      .dwpsn  file "C:/work/grepos/bootrom/Boot_ROM/F2837x_bootROM-REVB/F2837x_bootROM_dev/F2837x_bootROM/c
    1410 000000f1 0200          MOVB      ACC,#0                ; [CPU_] |617| 
    1411 000000f2 1E42          MOVL      *-SP[2],ACC           ; [CPU_] |617| 
    1412                      .dwpsn  file "C:/work/grepos/bootrom/Boot_ROM/F2837x_bootROM-REVB/F2837x_bootROM_dev/F2837x_bootROM/c
    1413 000000f3 1E44          MOVL      *-SP[4],ACC           ; [CPU_] |618| 
    1414                      .dwpsn  file "C:/work/grepos/bootrom/Boot_ROM/F2837x_bootROM-REVB/F2837x_bootROM_dev/F2837x_bootROM/c
    1415 000000f4 1E46          MOVL      *-SP[6],ACC           ; [CPU_] |619| 
    1416                      .dwpsn  file "C:/work/grepos/bootrom/Boot_ROM/F2837x_bootROM-REVB/F2837x_bootROM_dev/F2837x_bootROM/c
    1417 000000f5 1E48          MOVL      *-SP[8],ACC           ; [CPU_] |620| 
    1418                      .dwpsn  file "C:/work/grepos/bootrom/Boot_ROM/F2837x_bootROM-REVB/F2837x_bootROM_dev/F2837x_bootROM/c
    1419 000000f6 2849          MOV       *-SP[9],#65535        ; [CPU_] |621| 
         000000f7 FFFF 
    1420                      .dwpsn  file "C:/work/grepos/bootrom/Boot_ROM/F2837x_bootROM-REVB/F2837x_bootROM_dev/F2837x_bootROM/c
    1421 000000f8 284A          MOV       *-SP[10],#65535       ; [CPU_] |622| 
         000000f9 FFFF 
TMS320C2000 Assembler PC v6.1.3 Thu Jan 30 10:33:25 2014

Tools Copyright (c) 1996-2012 Texas Instruments Incorporated
C:\Users\a0272466\AppData\Local\Temp\0939610                         PAGE   31

    1422                      .dwpsn  file "C:/work/grepos/bootrom/Boot_ROM/F2837x_bootROM-REVB/F2837x_bootROM_dev/F2837x_bootROM/c
    1423 000000fa 2B4B          MOV       *-SP[11],#0           ; [CPU_] |623| 
    1424                      .dwpsn  file "C:/work/grepos/bootrom/Boot_ROM/F2837x_bootROM-REVB/F2837x_bootROM_dev/F2837x_bootROM/c
    1425 000000fb 9A00          MOVB      AL,#0                 ; [CPU_] |624| 
    1426 000000fc FFEF          B         $C$L56,UNC            ; [CPU_] |624| 
         000000fd 01C5 
    1427                      ; branch occurs ; [] |624| 
    1428 000000fe       $C$L38:    
    1429                      .dwpsn  file "C:/work/grepos/bootrom/Boot_ROM/F2837x_bootROM-REVB/F2837x_bootROM_dev/F2837x_bootROM/c
    1430 000000fe 56BF          MOVB      *-SP[10],#28,UNC      ; [CPU_] |626| 
         000000ff 1C4A 
    1431                      .dwpsn  file "C:/work/grepos/bootrom/Boot_ROM/F2837x_bootROM-REVB/F2837x_bootROM_dev/F2837x_bootROM/c
    1432 00000100 FFEF          B         $C$L46,UNC            ; [CPU_] |627| 
         00000101 0100 
    1433                      ; branch occurs ; [] |627| 
    1434 00000102       $C$L39:    
    1435                      .dwpsn  file "C:/work/grepos/bootrom/Boot_ROM/F2837x_bootROM-REVB/F2837x_bootROM_dev/F2837x_bootROM/c
    1436 00000102 761F!         MOVW      DP,#_DcsmRegsZ2+34    ; [CPU_U] 
         00000103 0000 
    1437 00000104 1822!         AND       @_DcsmRegsZ2+34,#0xfffe ; [CPU_] |630| 
         00000105 FFFE 
    1438                      .dwpsn  file "C:/work/grepos/bootrom/Boot_ROM/F2837x_bootROM-REVB/F2837x_bootROM_dev/F2837x_bootROM/c
    1439 00000106 0200          MOVB      ACC,#0                ; [CPU_] |632| 
    1440 00000107 1E42          MOVL      *-SP[2],ACC           ; [CPU_] |632| 
    1441                      .dwpsn  file "C:/work/grepos/bootrom/Boot_ROM/F2837x_bootROM-REVB/F2837x_bootROM_dev/F2837x_bootROM/c
    1442 00000108 1E44          MOVL      *-SP[4],ACC           ; [CPU_] |633| 
    1443                      .dwpsn  file "C:/work/grepos/bootrom/Boot_ROM/F2837x_bootROM-REVB/F2837x_bootROM_dev/F2837x_bootROM/c
    1444 00000109 1E46          MOVL      *-SP[6],ACC           ; [CPU_] |634| 
    1445                      .dwpsn  file "C:/work/grepos/bootrom/Boot_ROM/F2837x_bootROM-REVB/F2837x_bootROM_dev/F2837x_bootROM/c
    1446 0000010a 1E48          MOVL      *-SP[8],ACC           ; [CPU_] |635| 
    1447                      .dwpsn  file "C:/work/grepos/bootrom/Boot_ROM/F2837x_bootROM-REVB/F2837x_bootROM_dev/F2837x_bootROM/c
    1448 0000010b 2849          MOV       *-SP[9],#65535        ; [CPU_] |636| 
         0000010c FFFF 
    1449                      .dwpsn  file "C:/work/grepos/bootrom/Boot_ROM/F2837x_bootROM-REVB/F2837x_bootROM_dev/F2837x_bootROM/c
    1450 0000010d 284A          MOV       *-SP[10],#65535       ; [CPU_] |637| 
         0000010e FFFF 
    1451                      .dwpsn  file "C:/work/grepos/bootrom/Boot_ROM/F2837x_bootROM-REVB/F2837x_bootROM_dev/F2837x_bootROM/c
    1452 0000010f 2B4B          MOV       *-SP[11],#0           ; [CPU_] |638| 
    1453                      .dwpsn  file "C:/work/grepos/bootrom/Boot_ROM/F2837x_bootROM-REVB/F2837x_bootROM_dev/F2837x_bootROM/c
    1454 00000110 9A00          MOVB      AL,#0                 ; [CPU_] |639| 
    1455 00000111 FFEF          B         $C$L56,UNC            ; [CPU_] |639| 
         00000112 01B0 
    1456                      ; branch occurs ; [] |639| 
    1457 00000113       $C$L40:    
    1458                      .dwpsn  file "C:/work/grepos/bootrom/Boot_ROM/F2837x_bootROM-REVB/F2837x_bootROM_dev/F2837x_bootROM/c
    1459 00000113 C446          MOVL      XAR6,*-SP[6]          ; [CPU_] |642| 
    1460 00000114 8F0B          MOVL      XAR4,#753664          ; [CPU_U] |642| 
         00000115 8000 
    1461 00000116 A8A9          MOVL      ACC,XAR4              ; [CPU_] |642| 
    1462 00000117 0FA6          CMPL      ACC,XAR6              ; [CPU_] |642| 
    1463 00000118 664B          B         $C$L42,HI             ; [CPU_] |642| 
    1464                      ; branchcc occurs ; [] |642| 
    1465 00000119 C446          MOVL      XAR6,*-SP[6]          ; [CPU_] |642| 
    1466 0000011a 8F0C          MOVL      XAR4,#786432          ; [CPU_U] |642| 
         0000011b 0000 
TMS320C2000 Assembler PC v6.1.3 Thu Jan 30 10:33:25 2014

Tools Copyright (c) 1996-2012 Texas Instruments Incorporated
C:\Users\a0272466\AppData\Local\Temp\0939610                         PAGE   32

    1467 0000011c A8A9          MOVL      ACC,XAR4              ; [CPU_] |642| 
    1468 0000011d 0FA6          CMPL      ACC,XAR6              ; [CPU_] |642| 
    1469 0000011e 6945          B         $C$L42,LOS            ; [CPU_] |642| 
    1470                      ; branchcc occurs ; [] |642| 
    1471                      .dwpsn  file "C:/work/grepos/bootrom/Boot_ROM/F2837x_bootROM-REVB/F2837x_bootROM_dev/F2837x_bootROM/c
    1472 0000011f 0646          MOVL      ACC,*-SP[6]           ; [CPU_] |645| 
    1473 00000120 8F00          MOVL      XAR4,#8192            ; [CPU_U] |645| 
         00000121 2000 
    1474 00000122 9B00          MOVB      AH,#0                 ; [CPU_] |645| 
    1475 00000123 18A9          AND       AL,#0x1fff            ; [CPU_] |645| 
         00000124 1FFF 
    1476 00000125 0742          ADDL      ACC,*-SP[2]           ; [CPU_] |645| 
    1477 00000126 0FA4          CMPL      ACC,XAR4              ; [CPU_] |645| 
    1478 00000127 6910          B         $C$L41,LOS            ; [CPU_] |645| 
    1479                      ; branchcc occurs ; [] |645| 
    1480                      .dwpsn  file "C:/work/grepos/bootrom/Boot_ROM/F2837x_bootROM-REVB/F2837x_bootROM_dev/F2837x_bootROM/c
    1481 00000128 1822!         AND       @_DcsmRegsZ2+34,#0xfffe ; [CPU_] |647| 
         00000129 FFFE 
    1482                      .dwpsn  file "C:/work/grepos/bootrom/Boot_ROM/F2837x_bootROM-REVB/F2837x_bootROM_dev/F2837x_bootROM/c
    1483 0000012a 0200          MOVB      ACC,#0                ; [CPU_] |649| 
    1484 0000012b 1E42          MOVL      *-SP[2],ACC           ; [CPU_] |649| 
    1485                      .dwpsn  file "C:/work/grepos/bootrom/Boot_ROM/F2837x_bootROM-REVB/F2837x_bootROM_dev/F2837x_bootROM/c
    1486 0000012c 1E44          MOVL      *-SP[4],ACC           ; [CPU_] |650| 
    1487                      .dwpsn  file "C:/work/grepos/bootrom/Boot_ROM/F2837x_bootROM-REVB/F2837x_bootROM_dev/F2837x_bootROM/c
    1488 0000012d 1E46          MOVL      *-SP[6],ACC           ; [CPU_] |651| 
    1489                      .dwpsn  file "C:/work/grepos/bootrom/Boot_ROM/F2837x_bootROM-REVB/F2837x_bootROM_dev/F2837x_bootROM/c
    1490 0000012e 1E48          MOVL      *-SP[8],ACC           ; [CPU_] |652| 
    1491                      .dwpsn  file "C:/work/grepos/bootrom/Boot_ROM/F2837x_bootROM-REVB/F2837x_bootROM_dev/F2837x_bootROM/c
    1492 0000012f 2849          MOV       *-SP[9],#65535        ; [CPU_] |653| 
         00000130 FFFF 
    1493                      .dwpsn  file "C:/work/grepos/bootrom/Boot_ROM/F2837x_bootROM-REVB/F2837x_bootROM_dev/F2837x_bootROM/c
    1494 00000131 284A          MOV       *-SP[10],#65535       ; [CPU_] |654| 
         00000132 FFFF 
    1495                      .dwpsn  file "C:/work/grepos/bootrom/Boot_ROM/F2837x_bootROM-REVB/F2837x_bootROM_dev/F2837x_bootROM/c
    1496 00000133 2B4B          MOV       *-SP[11],#0           ; [CPU_] |655| 
    1497                      .dwpsn  file "C:/work/grepos/bootrom/Boot_ROM/F2837x_bootROM-REVB/F2837x_bootROM_dev/F2837x_bootROM/c
    1498 00000134 9A00          MOVB      AL,#0                 ; [CPU_] |656| 
    1499 00000135 FFEF          B         $C$L56,UNC            ; [CPU_] |656| 
         00000136 018C 
    1500                      ; branch occurs ; [] |656| 
    1501 00000137       $C$L41:    
    1502                      .dwpsn  file "C:/work/grepos/bootrom/Boot_ROM/F2837x_bootROM-REVB/F2837x_bootROM_dev/F2837x_bootROM/c
    1503 00000137 8F0B          MOVL      XAR4,#778240          ; [CPU_U] |658| 
         00000138 E000 
    1504 00000139 0646          MOVL      ACC,*-SP[6]           ; [CPU_] |658| 
    1505 0000013a A8AB          MOVL      P,XAR4                ; [CPU_] |658| 
    1506 0000013b CEAB          AND       AL,PL                 ; [CPU_] |658| 
    1507 0000013c CFAA          AND       AH,PH                 ; [CPU_] |658| 
    1508 0000013d 0FA4          CMPL      ACC,XAR4              ; [CPU_] |658| 
    1509                      .dwpsn  file "C:/work/grepos/bootrom/Boot_ROM/F2837x_bootROM-REVB/F2837x_bootROM_dev/F2837x_bootROM/c
    1510 0000013e 56B1          MOVB      *-SP[10],#26,EQ       ; [CPU_] |661| 
         0000013f 1A4A 
    1511                      .dwpsn  file "C:/work/grepos/bootrom/Boot_ROM/F2837x_bootROM-REVB/F2837x_bootROM_dev/F2837x_bootROM/c
    1512 00000140 56C1          BF        $C$L46,EQ             ; [CPU_] |662| 
         00000141 00C0 
TMS320C2000 Assembler PC v6.1.3 Thu Jan 30 10:33:25 2014

Tools Copyright (c) 1996-2012 Texas Instruments Incorporated
C:\Users\a0272466\AppData\Local\Temp\0939610                         PAGE   33

    1513                      ; branchcc occurs ; [] |662| 
    1514                      .dwpsn  file "C:/work/grepos/bootrom/Boot_ROM/F2837x_bootROM-REVB/F2837x_bootROM_dev/F2837x_bootROM/c
    1515 00000142 8F0B          MOVL      XAR4,#770048          ; [CPU_U] |663| 
         00000143 C000 
    1516 00000144 0646          MOVL      ACC,*-SP[6]           ; [CPU_] |663| 
    1517 00000145 A8AB          MOVL      P,XAR4                ; [CPU_] |663| 
    1518 00000146 CEAB          AND       AL,PL                 ; [CPU_] |663| 
    1519 00000147 CFAA          AND       AH,PH                 ; [CPU_] |663| 
    1520 00000148 0FA4          CMPL      ACC,XAR4              ; [CPU_] |663| 
    1521                      .dwpsn  file "C:/work/grepos/bootrom/Boot_ROM/F2837x_bootROM-REVB/F2837x_bootROM_dev/F2837x_bootROM/c
    1522 00000149 56B1          MOVB      *-SP[10],#24,EQ       ; [CPU_] |666| 
         0000014a 184A 
    1523                      .dwpsn  file "C:/work/grepos/bootrom/Boot_ROM/F2837x_bootROM-REVB/F2837x_bootROM_dev/F2837x_bootROM/c
    1524 0000014b 56C1          BF        $C$L46,EQ             ; [CPU_] |667| 
         0000014c 00B5 
    1525                      ; branchcc occurs ; [] |667| 
    1526                      .dwpsn  file "C:/work/grepos/bootrom/Boot_ROM/F2837x_bootROM-REVB/F2837x_bootROM_dev/F2837x_bootROM/c
    1527 0000014d 8F0B          MOVL      XAR4,#761856          ; [CPU_U] |668| 
         0000014e A000 
    1528 0000014f 0646          MOVL      ACC,*-SP[6]           ; [CPU_] |668| 
    1529 00000150 A8AB          MOVL      P,XAR4                ; [CPU_] |668| 
    1530 00000151 CEAB          AND       AL,PL                 ; [CPU_] |668| 
    1531 00000152 CFAA          AND       AH,PH                 ; [CPU_] |668| 
    1532 00000153 0FA4          CMPL      ACC,XAR4              ; [CPU_] |668| 
    1533                      .dwpsn  file "C:/work/grepos/bootrom/Boot_ROM/F2837x_bootROM-REVB/F2837x_bootROM_dev/F2837x_bootROM/c
    1534 00000154 56B1          MOVB      *-SP[10],#22,EQ       ; [CPU_] |671| 
         00000155 164A 
    1535                      .dwpsn  file "C:/work/grepos/bootrom/Boot_ROM/F2837x_bootROM-REVB/F2837x_bootROM_dev/F2837x_bootROM/c
    1536 00000156 56C1          BF        $C$L46,EQ             ; [CPU_] |672| 
         00000157 00AA 
    1537                      ; branchcc occurs ; [] |672| 
    1538                      .dwpsn  file "C:/work/grepos/bootrom/Boot_ROM/F2837x_bootROM-REVB/F2837x_bootROM_dev/F2837x_bootROM/c
    1539 00000158 8F0B          MOVL      XAR4,#753664          ; [CPU_U] |673| 
         00000159 8000 
    1540 0000015a 0646          MOVL      ACC,*-SP[6]           ; [CPU_] |673| 
    1541 0000015b A8AB          MOVL      P,XAR4                ; [CPU_] |673| 
    1542 0000015c CEAB          AND       AL,PL                 ; [CPU_] |673| 
    1543 0000015d CFAA          AND       AH,PH                 ; [CPU_] |673| 
    1544 0000015e 0FA4          CMPL      ACC,XAR4              ; [CPU_] |673| 
    1545                      .dwpsn  file "C:/work/grepos/bootrom/Boot_ROM/F2837x_bootROM-REVB/F2837x_bootROM_dev/F2837x_bootROM/c
    1546 0000015f 56B1          MOVB      *-SP[10],#20,EQ       ; [CPU_] |676| 
         00000160 144A 
    1547                      .dwpsn  file "C:/work/grepos/bootrom/Boot_ROM/F2837x_bootROM-REVB/F2837x_bootROM_dev/F2837x_bootROM/c
    1548 00000161 FFEF          B         $C$L46,UNC            ; [CPU_] |678| 
         00000162 009F 
    1549                      ; branch occurs ; [] |678| 
    1550 00000163       $C$L42:    
    1551                      .dwpsn  file "C:/work/grepos/bootrom/Boot_ROM/F2837x_bootROM-REVB/F2837x_bootROM_dev/F2837x_bootROM/c
    1552 00000163 C446          MOVL      XAR6,*-SP[6]          ; [CPU_] |679| 
    1553 00000164 8F08          MOVL      XAR4,#557056          ; [CPU_U] |679| 
         00000165 8000 
    1554 00000166 A8A9          MOVL      ACC,XAR4              ; [CPU_] |679| 
    1555 00000167 0FA6          CMPL      ACC,XAR6              ; [CPU_] |679| 
    1556 00000168 665A          B         $C$L44,HI             ; [CPU_] |679| 
    1557                      ; branchcc occurs ; [] |679| 
TMS320C2000 Assembler PC v6.1.3 Thu Jan 30 10:33:25 2014

Tools Copyright (c) 1996-2012 Texas Instruments Incorporated
C:\Users\a0272466\AppData\Local\Temp\0939610                         PAGE   34

    1558 00000169 C446          MOVL      XAR6,*-SP[6]          ; [CPU_] |679| 
    1559 0000016a 8F0B          MOVL      XAR4,#753664          ; [CPU_U] |679| 
         0000016b 8000 
    1560 0000016c A8A9          MOVL      ACC,XAR4              ; [CPU_] |679| 
    1561 0000016d 0FA6          CMPL      ACC,XAR6              ; [CPU_] |679| 
    1562 0000016e 6954          B         $C$L44,LOS            ; [CPU_] |679| 
    1563                      ; branchcc occurs ; [] |679| 
    1564                      .dwpsn  file "C:/work/grepos/bootrom/Boot_ROM/F2837x_bootROM-REVB/F2837x_bootROM_dev/F2837x_bootROM/c
    1565 0000016f 0646          MOVL      ACC,*-SP[6]           ; [CPU_] |682| 
    1566 00000170 8F00          MOVL      XAR4,#32768           ; [CPU_U] |682| 
         00000171 8000 
    1567 00000172 9B00          MOVB      AH,#0                 ; [CPU_] |682| 
    1568 00000173 18A9          AND       AL,#0x7fff            ; [CPU_] |682| 
         00000174 7FFF 
    1569 00000175 0742          ADDL      ACC,*-SP[2]           ; [CPU_] |682| 
    1570 00000176 0FA4          CMPL      ACC,XAR4              ; [CPU_] |682| 
    1571 00000177 6910          B         $C$L43,LOS            ; [CPU_] |682| 
    1572                      ; branchcc occurs ; [] |682| 
    1573                      .dwpsn  file "C:/work/grepos/bootrom/Boot_ROM/F2837x_bootROM-REVB/F2837x_bootROM_dev/F2837x_bootROM/c
    1574 00000178 1822!         AND       @_DcsmRegsZ2+34,#0xfffe ; [CPU_] |684| 
         00000179 FFFE 
    1575                      .dwpsn  file "C:/work/grepos/bootrom/Boot_ROM/F2837x_bootROM-REVB/F2837x_bootROM_dev/F2837x_bootROM/c
    1576 0000017a 0200          MOVB      ACC,#0                ; [CPU_] |686| 
    1577 0000017b 1E42          MOVL      *-SP[2],ACC           ; [CPU_] |686| 
    1578                      .dwpsn  file "C:/work/grepos/bootrom/Boot_ROM/F2837x_bootROM-REVB/F2837x_bootROM_dev/F2837x_bootROM/c
    1579 0000017c 1E44          MOVL      *-SP[4],ACC           ; [CPU_] |687| 
    1580                      .dwpsn  file "C:/work/grepos/bootrom/Boot_ROM/F2837x_bootROM-REVB/F2837x_bootROM_dev/F2837x_bootROM/c
    1581 0000017d 1E46          MOVL      *-SP[6],ACC           ; [CPU_] |688| 
    1582                      .dwpsn  file "C:/work/grepos/bootrom/Boot_ROM/F2837x_bootROM-REVB/F2837x_bootROM_dev/F2837x_bootROM/c
    1583 0000017e 1E48          MOVL      *-SP[8],ACC           ; [CPU_] |689| 
    1584                      .dwpsn  file "C:/work/grepos/bootrom/Boot_ROM/F2837x_bootROM-REVB/F2837x_bootROM_dev/F2837x_bootROM/c
    1585 0000017f 2849          MOV       *-SP[9],#65535        ; [CPU_] |690| 
         00000180 FFFF 
    1586                      .dwpsn  file "C:/work/grepos/bootrom/Boot_ROM/F2837x_bootROM-REVB/F2837x_bootROM_dev/F2837x_bootROM/c
    1587 00000181 284A          MOV       *-SP[10],#65535       ; [CPU_] |691| 
         00000182 FFFF 
    1588                      .dwpsn  file "C:/work/grepos/bootrom/Boot_ROM/F2837x_bootROM-REVB/F2837x_bootROM_dev/F2837x_bootROM/c
    1589 00000183 2B4B          MOV       *-SP[11],#0           ; [CPU_] |692| 
    1590                      .dwpsn  file "C:/work/grepos/bootrom/Boot_ROM/F2837x_bootROM-REVB/F2837x_bootROM_dev/F2837x_bootROM/c
    1591 00000184 9A00          MOVB      AL,#0                 ; [CPU_] |693| 
    1592 00000185 FFEF          B         $C$L56,UNC            ; [CPU_] |693| 
         00000186 013C 
    1593                      ; branch occurs ; [] |693| 
    1594 00000187       $C$L43:    
    1595                      .dwpsn  file "C:/work/grepos/bootrom/Boot_ROM/F2837x_bootROM-REVB/F2837x_bootROM_dev/F2837x_bootROM/c
    1596 00000187 8F0B          MOVL      XAR4,#720896          ; [CPU_U] |695| 
         00000188 0000 
    1597 00000189 0646          MOVL      ACC,*-SP[6]           ; [CPU_] |695| 
    1598 0000018a A8AB          MOVL      P,XAR4                ; [CPU_] |695| 
    1599 0000018b CEAB          AND       AL,PL                 ; [CPU_] |695| 
    1600 0000018c CFAA          AND       AH,PH                 ; [CPU_] |695| 
    1601 0000018d 0FA4          CMPL      ACC,XAR4              ; [CPU_] |695| 
    1602                      .dwpsn  file "C:/work/grepos/bootrom/Boot_ROM/F2837x_bootROM-REVB/F2837x_bootROM_dev/F2837x_bootROM/c
    1603 0000018e 56B1          MOVB      *-SP[10],#18,EQ       ; [CPU_] |698| 
         0000018f 124A 
TMS320C2000 Assembler PC v6.1.3 Thu Jan 30 10:33:25 2014

Tools Copyright (c) 1996-2012 Texas Instruments Incorporated
C:\Users\a0272466\AppData\Local\Temp\0939610                         PAGE   35

    1604                      .dwpsn  file "C:/work/grepos/bootrom/Boot_ROM/F2837x_bootROM-REVB/F2837x_bootROM_dev/F2837x_bootROM/c
    1605 00000190 EC70          BF        $C$L46,EQ             ; [CPU_] |699| 
    1606                      ; branchcc occurs ; [] |699| 
    1607                      .dwpsn  file "C:/work/grepos/bootrom/Boot_ROM/F2837x_bootROM-REVB/F2837x_bootROM_dev/F2837x_bootROM/c
    1608 00000191 8F0A          MOVL      XAR4,#688128          ; [CPU_U] |700| 
         00000192 8000 
    1609 00000193 0646          MOVL      ACC,*-SP[6]           ; [CPU_] |700| 
    1610 00000194 A8AB          MOVL      P,XAR4                ; [CPU_] |700| 
    1611 00000195 CEAB          AND       AL,PL                 ; [CPU_] |700| 
    1612 00000196 CFAA          AND       AH,PH                 ; [CPU_] |700| 
    1613 00000197 0FA4          CMPL      ACC,XAR4              ; [CPU_] |700| 
    1614                      .dwpsn  file "C:/work/grepos/bootrom/Boot_ROM/F2837x_bootROM-REVB/F2837x_bootROM_dev/F2837x_bootROM/c
    1615 00000198 56B1          MOVB      *-SP[10],#16,EQ       ; [CPU_] |703| 
         00000199 104A 
    1616                      .dwpsn  file "C:/work/grepos/bootrom/Boot_ROM/F2837x_bootROM-REVB/F2837x_bootROM_dev/F2837x_bootROM/c
    1617 0000019a EC66          BF        $C$L46,EQ             ; [CPU_] |704| 
    1618                      ; branchcc occurs ; [] |704| 
    1619                      .dwpsn  file "C:/work/grepos/bootrom/Boot_ROM/F2837x_bootROM-REVB/F2837x_bootROM_dev/F2837x_bootROM/c
    1620 0000019b 0646          MOVL      ACC,*-SP[6]           ; [CPU_] |705| 
    1621 0000019c 8F0A          MOVL      XAR4,#655360          ; [CPU_U] |705| 
         0000019d 0000 
    1622 0000019e 5608          AND       ACC,#10 << 16         ; [CPU_] |705| 
         0000019f 000A 
    1623 000001a0 0FA4          CMPL      ACC,XAR4              ; [CPU_] |705| 
    1624                      .dwpsn  file "C:/work/grepos/bootrom/Boot_ROM/F2837x_bootROM-REVB/F2837x_bootROM_dev/F2837x_bootROM/c
    1625 000001a1 56B1          MOVB      *-SP[10],#14,EQ       ; [CPU_] |708| 
         000001a2 0E4A 
    1626                      .dwpsn  file "C:/work/grepos/bootrom/Boot_ROM/F2837x_bootROM-REVB/F2837x_bootROM_dev/F2837x_bootROM/c
    1627 000001a3 EC5D          BF        $C$L46,EQ             ; [CPU_] |709| 
    1628                      ; branchcc occurs ; [] |709| 
    1629                      .dwpsn  file "C:/work/grepos/bootrom/Boot_ROM/F2837x_bootROM-REVB/F2837x_bootROM_dev/F2837x_bootROM/c
    1630 000001a4 8F09          MOVL      XAR4,#622592          ; [CPU_U] |710| 
         000001a5 8000 
    1631 000001a6 0646          MOVL      ACC,*-SP[6]           ; [CPU_] |710| 
    1632 000001a7 A8AB          MOVL      P,XAR4                ; [CPU_] |710| 
    1633 000001a8 CEAB          AND       AL,PL                 ; [CPU_] |710| 
    1634 000001a9 CFAA          AND       AH,PH                 ; [CPU_] |710| 
    1635 000001aa 0FA4          CMPL      ACC,XAR4              ; [CPU_] |710| 
    1636                      .dwpsn  file "C:/work/grepos/bootrom/Boot_ROM/F2837x_bootROM-REVB/F2837x_bootROM_dev/F2837x_bootROM/c
    1637 000001ab 56B1          MOVB      *-SP[10],#12,EQ       ; [CPU_] |713| 
         000001ac 0C4A 
    1638                      .dwpsn  file "C:/work/grepos/bootrom/Boot_ROM/F2837x_bootROM-REVB/F2837x_bootROM_dev/F2837x_bootROM/c
    1639 000001ad EC53          BF        $C$L46,EQ             ; [CPU_] |714| 
    1640                      ; branchcc occurs ; [] |714| 
    1641                      .dwpsn  file "C:/work/grepos/bootrom/Boot_ROM/F2837x_bootROM-REVB/F2837x_bootROM_dev/F2837x_bootROM/c
    1642 000001ae 8F09          MOVL      XAR4,#589824          ; [CPU_U] |715| 
         000001af 0000 
    1643 000001b0 0646          MOVL      ACC,*-SP[6]           ; [CPU_] |715| 
    1644 000001b1 A8AB          MOVL      P,XAR4                ; [CPU_] |715| 
    1645 000001b2 CEAB          AND       AL,PL                 ; [CPU_] |715| 
    1646 000001b3 CFAA          AND       AH,PH                 ; [CPU_] |715| 
    1647 000001b4 0FA4          CMPL      ACC,XAR4              ; [CPU_] |715| 
    1648                      .dwpsn  file "C:/work/grepos/bootrom/Boot_ROM/F2837x_bootROM-REVB/F2837x_bootROM_dev/F2837x_bootROM/c
    1649 000001b5 56B1          MOVB      *-SP[10],#10,EQ       ; [CPU_] |718| 
         000001b6 0A4A 
TMS320C2000 Assembler PC v6.1.3 Thu Jan 30 10:33:25 2014

Tools Copyright (c) 1996-2012 Texas Instruments Incorporated
C:\Users\a0272466\AppData\Local\Temp\0939610                         PAGE   36

    1650                      .dwpsn  file "C:/work/grepos/bootrom/Boot_ROM/F2837x_bootROM-REVB/F2837x_bootROM_dev/F2837x_bootROM/c
    1651 000001b7 EC49          BF        $C$L46,EQ             ; [CPU_] |719| 
    1652                      ; branchcc occurs ; [] |719| 
    1653                      .dwpsn  file "C:/work/grepos/bootrom/Boot_ROM/F2837x_bootROM-REVB/F2837x_bootROM_dev/F2837x_bootROM/c
    1654 000001b8 8F08          MOVL      XAR4,#557056          ; [CPU_U] |720| 
         000001b9 8000 
    1655 000001ba 0646          MOVL      ACC,*-SP[6]           ; [CPU_] |720| 
    1656 000001bb A8AB          MOVL      P,XAR4                ; [CPU_] |720| 
    1657 000001bc CEAB          AND       AL,PL                 ; [CPU_] |720| 
    1658 000001bd CFAA          AND       AH,PH                 ; [CPU_] |720| 
    1659 000001be 0FA4          CMPL      ACC,XAR4              ; [CPU_] |720| 
    1660                      .dwpsn  file "C:/work/grepos/bootrom/Boot_ROM/F2837x_bootROM-REVB/F2837x_bootROM_dev/F2837x_bootROM/c
    1661 000001bf 56B1          MOVB      *-SP[10],#8,EQ        ; [CPU_] |723| 
         000001c0 084A 
    1662                      .dwpsn  file "C:/work/grepos/bootrom/Boot_ROM/F2837x_bootROM-REVB/F2837x_bootROM_dev/F2837x_bootROM/c
    1663 000001c1 6F3F          B         $C$L46,UNC            ; [CPU_] |725| 
    1664                      ; branch occurs ; [] |725| 
    1665 000001c2       $C$L44:    
    1666                      .dwpsn  file "C:/work/grepos/bootrom/Boot_ROM/F2837x_bootROM-REVB/F2837x_bootROM_dev/F2837x_bootROM/c
    1667 000001c2 0646          MOVL      ACC,*-SP[6]           ; [CPU_] |728| 
    1668 000001c3 8F00          MOVL      XAR4,#8192            ; [CPU_U] |728| 
         000001c4 2000 
    1669 000001c5 9B00          MOVB      AH,#0                 ; [CPU_] |728| 
    1670 000001c6 18A9          AND       AL,#0x1fff            ; [CPU_] |728| 
         000001c7 1FFF 
    1671 000001c8 0742          ADDL      ACC,*-SP[2]           ; [CPU_] |728| 
    1672 000001c9 0FA4          CMPL      ACC,XAR4              ; [CPU_] |728| 
    1673 000001ca 6910          B         $C$L45,LOS            ; [CPU_] |728| 
    1674                      ; branchcc occurs ; [] |728| 
    1675                      .dwpsn  file "C:/work/grepos/bootrom/Boot_ROM/F2837x_bootROM-REVB/F2837x_bootROM_dev/F2837x_bootROM/c
    1676 000001cb 1822!         AND       @_DcsmRegsZ2+34,#0xfffe ; [CPU_] |730| 
         000001cc FFFE 
    1677                      .dwpsn  file "C:/work/grepos/bootrom/Boot_ROM/F2837x_bootROM-REVB/F2837x_bootROM_dev/F2837x_bootROM/c
    1678 000001cd 0200          MOVB      ACC,#0                ; [CPU_] |732| 
    1679 000001ce 1E42          MOVL      *-SP[2],ACC           ; [CPU_] |732| 
    1680                      .dwpsn  file "C:/work/grepos/bootrom/Boot_ROM/F2837x_bootROM-REVB/F2837x_bootROM_dev/F2837x_bootROM/c
    1681 000001cf 1E44          MOVL      *-SP[4],ACC           ; [CPU_] |733| 
    1682                      .dwpsn  file "C:/work/grepos/bootrom/Boot_ROM/F2837x_bootROM-REVB/F2837x_bootROM_dev/F2837x_bootROM/c
    1683 000001d0 1E46          MOVL      *-SP[6],ACC           ; [CPU_] |734| 
    1684                      .dwpsn  file "C:/work/grepos/bootrom/Boot_ROM/F2837x_bootROM-REVB/F2837x_bootROM_dev/F2837x_bootROM/c
    1685 000001d1 1E48          MOVL      *-SP[8],ACC           ; [CPU_] |735| 
    1686                      .dwpsn  file "C:/work/grepos/bootrom/Boot_ROM/F2837x_bootROM-REVB/F2837x_bootROM_dev/F2837x_bootROM/c
    1687 000001d2 2849          MOV       *-SP[9],#65535        ; [CPU_] |736| 
         000001d3 FFFF 
    1688                      .dwpsn  file "C:/work/grepos/bootrom/Boot_ROM/F2837x_bootROM-REVB/F2837x_bootROM_dev/F2837x_bootROM/c
    1689 000001d4 284A          MOV       *-SP[10],#65535       ; [CPU_] |737| 
         000001d5 FFFF 
    1690                      .dwpsn  file "C:/work/grepos/bootrom/Boot_ROM/F2837x_bootROM-REVB/F2837x_bootROM_dev/F2837x_bootROM/c
    1691 000001d6 2B4B          MOV       *-SP[11],#0           ; [CPU_] |738| 
    1692                      .dwpsn  file "C:/work/grepos/bootrom/Boot_ROM/F2837x_bootROM-REVB/F2837x_bootROM_dev/F2837x_bootROM/c
    1693 000001d7 9A00          MOVB      AL,#0                 ; [CPU_] |739| 
    1694 000001d8 FFEF          B         $C$L56,UNC            ; [CPU_] |739| 
         000001d9 00E9 
    1695                      ; branch occurs ; [] |739| 
    1696 000001da       $C$L45:    
TMS320C2000 Assembler PC v6.1.3 Thu Jan 30 10:33:25 2014

Tools Copyright (c) 1996-2012 Texas Instruments Incorporated
C:\Users\a0272466\AppData\Local\Temp\0939610                         PAGE   37

    1697                      .dwpsn  file "C:/work/grepos/bootrom/Boot_ROM/F2837x_bootROM-REVB/F2837x_bootROM_dev/F2837x_bootROM/c
    1698 000001da 8F08          MOVL      XAR4,#548864          ; [CPU_U] |741| 
         000001db 6000 
    1699 000001dc 0646          MOVL      ACC,*-SP[6]           ; [CPU_] |741| 
    1700 000001dd A8AB          MOVL      P,XAR4                ; [CPU_] |741| 
    1701 000001de CEAB          AND       AL,PL                 ; [CPU_] |741| 
    1702 000001df CFAA          AND       AH,PH                 ; [CPU_] |741| 
    1703 000001e0 0FA4          CMPL      ACC,XAR4              ; [CPU_] |741| 
    1704                      .dwpsn  file "C:/work/grepos/bootrom/Boot_ROM/F2837x_bootROM-REVB/F2837x_bootROM_dev/F2837x_bootROM/c
    1705 000001e1 56B1          MOVB      *-SP[10],#6,EQ        ; [CPU_] |744| 
         000001e2 064A 
    1706                      .dwpsn  file "C:/work/grepos/bootrom/Boot_ROM/F2837x_bootROM-REVB/F2837x_bootROM_dev/F2837x_bootROM/c
    1707 000001e3 EC1D          BF        $C$L46,EQ             ; [CPU_] |745| 
    1708                      ; branchcc occurs ; [] |745| 
    1709                      .dwpsn  file "C:/work/grepos/bootrom/Boot_ROM/F2837x_bootROM-REVB/F2837x_bootROM_dev/F2837x_bootROM/c
    1710 000001e4 8F08          MOVL      XAR4,#540672          ; [CPU_U] |746| 
         000001e5 4000 
    1711 000001e6 0646          MOVL      ACC,*-SP[6]           ; [CPU_] |746| 
    1712 000001e7 A8AB          MOVL      P,XAR4                ; [CPU_] |746| 
    1713 000001e8 CEAB          AND       AL,PL                 ; [CPU_] |746| 
    1714 000001e9 CFAA          AND       AH,PH                 ; [CPU_] |746| 
    1715 000001ea 0FA4          CMPL      ACC,XAR4              ; [CPU_] |746| 
    1716                      .dwpsn  file "C:/work/grepos/bootrom/Boot_ROM/F2837x_bootROM-REVB/F2837x_bootROM_dev/F2837x_bootROM/c
    1717 000001eb 56B1          MOVB      *-SP[10],#4,EQ        ; [CPU_] |749| 
         000001ec 044A 
    1718                      .dwpsn  file "C:/work/grepos/bootrom/Boot_ROM/F2837x_bootROM-REVB/F2837x_bootROM_dev/F2837x_bootROM/c
    1719 000001ed EC13          BF        $C$L46,EQ             ; [CPU_] |750| 
    1720                      ; branchcc occurs ; [] |750| 
    1721                      .dwpsn  file "C:/work/grepos/bootrom/Boot_ROM/F2837x_bootROM-REVB/F2837x_bootROM_dev/F2837x_bootROM/c
    1722 000001ee 8F08          MOVL      XAR4,#532480          ; [CPU_U] |751| 
         000001ef 2000 
    1723 000001f0 0646          MOVL      ACC,*-SP[6]           ; [CPU_] |751| 
    1724 000001f1 A8AB          MOVL      P,XAR4                ; [CPU_] |751| 
    1725 000001f2 CEAB          AND       AL,PL                 ; [CPU_] |751| 
    1726 000001f3 CFAA          AND       AH,PH                 ; [CPU_] |751| 
    1727 000001f4 0FA4          CMPL      ACC,XAR4              ; [CPU_] |751| 
    1728                      .dwpsn  file "C:/work/grepos/bootrom/Boot_ROM/F2837x_bootROM-REVB/F2837x_bootROM_dev/F2837x_bootROM/c
    1729 000001f5 56B1          MOVB      *-SP[10],#2,EQ        ; [CPU_] |754| 
         000001f6 024A 
    1730                      .dwpsn  file "C:/work/grepos/bootrom/Boot_ROM/F2837x_bootROM-REVB/F2837x_bootROM_dev/F2837x_bootROM/c
    1731 000001f7 EC09          BF        $C$L46,EQ             ; [CPU_] |755| 
    1732                      ; branchcc occurs ; [] |755| 
    1733                      .dwpsn  file "C:/work/grepos/bootrom/Boot_ROM/F2837x_bootROM-REVB/F2837x_bootROM_dev/F2837x_bootROM/c
    1734 000001f8 0646          MOVL      ACC,*-SP[6]           ; [CPU_] |756| 
    1735 000001f9 8F08          MOVL      XAR4,#524288          ; [CPU_U] |756| 
         000001fa 0000 
    1736 000001fb 5608          AND       ACC,#8 << 16          ; [CPU_] |756| 
         000001fc 0008 
    1737 000001fd 0FA4          CMPL      ACC,XAR4              ; [CPU_] |756| 
    1738 000001fe ED02          BF        $C$L46,NEQ            ; [CPU_] |756| 
    1739                      ; branchcc occurs ; [] |756| 
    1740                      .dwpsn  file "C:/work/grepos/bootrom/Boot_ROM/F2837x_bootROM-REVB/F2837x_bootROM_dev/F2837x_bootROM/c
    1741 000001ff 2B4A          MOV       *-SP[10],#0           ; [CPU_] |759| 
    1742 00000200       $C$L46:    
    1743                      .dwpsn  file "C:/work/grepos/bootrom/Boot_ROM/F2837x_bootROM-REVB/F2837x_bootROM_dev/F2837x_bootROM/c
TMS320C2000 Assembler PC v6.1.3 Thu Jan 30 10:33:25 2014

Tools Copyright (c) 1996-2012 Texas Instruments Incorporated
C:\Users\a0272466\AppData\Local\Temp\0939610                         PAGE   38

    1744 00000200 1B4A          CMP       *-SP[10],#65535       ; [CPU_] |763| 
         00000201 FFFF 
    1745 00000202 EC04          BF        $C$L47,EQ             ; [CPU_] |763| 
    1746                      ; branchcc occurs ; [] |763| 
    1747 00000203 1B49          CMP       *-SP[9],#65535        ; [CPU_] |763| 
         00000204 FFFF 
    1748 00000205 ED12          BF        $C$L48,NEQ            ; [CPU_] |763| 
    1749                      ; branchcc occurs ; [] |763| 
    1750 00000206       $C$L47:    
    1751                      .dwpsn  file "C:/work/grepos/bootrom/Boot_ROM/F2837x_bootROM-REVB/F2837x_bootROM_dev/F2837x_bootROM/c
    1752 00000206 761F!         MOVW      DP,#_DcsmRegsZ2+34    ; [CPU_U] 
         00000207 0000 
    1753 00000208 1822!         AND       @_DcsmRegsZ2+34,#0xfffe ; [CPU_] |765| 
         00000209 FFFE 
    1754                      .dwpsn  file "C:/work/grepos/bootrom/Boot_ROM/F2837x_bootROM-REVB/F2837x_bootROM_dev/F2837x_bootROM/c
    1755 0000020a 0200          MOVB      ACC,#0                ; [CPU_] |767| 
    1756 0000020b 1E42          MOVL      *-SP[2],ACC           ; [CPU_] |767| 
    1757                      .dwpsn  file "C:/work/grepos/bootrom/Boot_ROM/F2837x_bootROM-REVB/F2837x_bootROM_dev/F2837x_bootROM/c
    1758 0000020c 1E44          MOVL      *-SP[4],ACC           ; [CPU_] |768| 
    1759                      .dwpsn  file "C:/work/grepos/bootrom/Boot_ROM/F2837x_bootROM-REVB/F2837x_bootROM_dev/F2837x_bootROM/c
    1760 0000020d 1E46          MOVL      *-SP[6],ACC           ; [CPU_] |769| 
    1761                      .dwpsn  file "C:/work/grepos/bootrom/Boot_ROM/F2837x_bootROM-REVB/F2837x_bootROM_dev/F2837x_bootROM/c
    1762 0000020e 1E48          MOVL      *-SP[8],ACC           ; [CPU_] |770| 
    1763                      .dwpsn  file "C:/work/grepos/bootrom/Boot_ROM/F2837x_bootROM-REVB/F2837x_bootROM_dev/F2837x_bootROM/c
    1764 0000020f 2849          MOV       *-SP[9],#65535        ; [CPU_] |771| 
         00000210 FFFF 
    1765                      .dwpsn  file "C:/work/grepos/bootrom/Boot_ROM/F2837x_bootROM-REVB/F2837x_bootROM_dev/F2837x_bootROM/c
    1766 00000211 284A          MOV       *-SP[10],#65535       ; [CPU_] |772| 
         00000212 FFFF 
    1767                      .dwpsn  file "C:/work/grepos/bootrom/Boot_ROM/F2837x_bootROM-REVB/F2837x_bootROM_dev/F2837x_bootROM/c
    1768 00000213 2B4B          MOV       *-SP[11],#0           ; [CPU_] |773| 
    1769                      .dwpsn  file "C:/work/grepos/bootrom/Boot_ROM/F2837x_bootROM-REVB/F2837x_bootROM_dev/F2837x_bootROM/c
    1770 00000214 9A00          MOVB      AL,#0                 ; [CPU_] |774| 
    1771 00000215 FFEF          B         $C$L56,UNC            ; [CPU_] |774| 
         00000216 00AC 
    1772                      ; branch occurs ; [] |774| 
    1773 00000217       $C$L48:    
    1774                      .dwpsn  file "C:/work/grepos/bootrom/Boot_ROM/F2837x_bootROM-REVB/F2837x_bootROM_dev/F2837x_bootROM/c
    1775 00000217 0203          MOVB      ACC,#3                ; [CPU_] |778| 
    1776 00000218 2D4A          MOV       T,*-SP[10]            ; [CPU_] |778| 
    1777 00000219 761F!         MOVW      DP,#_DcsmRegsCommon+2 ; [CPU_U] 
         0000021a 0000 
    1778 0000021b BE02          MOVB      XAR6,#2               ; [CPU_] |778| 
    1779 0000021c 563B          LSLL      ACC,T                 ; [CPU_] |778| 
    1780 0000021d CE02!         AND       AL,@_DcsmRegsCommon+2 ; [CPU_] |778| 
    1781 0000021e CF03!         AND       AH,@_DcsmRegsCommon+3 ; [CPU_] |778| 
    1782 0000021f 5622          LSRL      ACC,T                 ; [CPU_] |778| 
    1783 00000220 0FA6          CMPL      ACC,XAR6              ; [CPU_] |778| 
    1784 00000221 EC12          BF        $C$L49,EQ             ; [CPU_] |778| 
    1785                      ; branchcc occurs ; [] |778| 
    1786                      .dwpsn  file "C:/work/grepos/bootrom/Boot_ROM/F2837x_bootROM-REVB/F2837x_bootROM_dev/F2837x_bootROM/c
    1787 00000222 761F!         MOVW      DP,#_DcsmRegsZ2+34    ; [CPU_U] 
         00000223 0000 
    1788 00000224 1822!         AND       @_DcsmRegsZ2+34,#0xfffe ; [CPU_] |780| 
         00000225 FFFE 
TMS320C2000 Assembler PC v6.1.3 Thu Jan 30 10:33:25 2014

Tools Copyright (c) 1996-2012 Texas Instruments Incorporated
C:\Users\a0272466\AppData\Local\Temp\0939610                         PAGE   39

    1789                      .dwpsn  file "C:/work/grepos/bootrom/Boot_ROM/F2837x_bootROM-REVB/F2837x_bootROM_dev/F2837x_bootROM/c
    1790 00000226 0200          MOVB      ACC,#0                ; [CPU_] |782| 
    1791 00000227 1E42          MOVL      *-SP[2],ACC           ; [CPU_] |782| 
    1792                      .dwpsn  file "C:/work/grepos/bootrom/Boot_ROM/F2837x_bootROM-REVB/F2837x_bootROM_dev/F2837x_bootROM/c
    1793 00000228 1E44          MOVL      *-SP[4],ACC           ; [CPU_] |783| 
    1794                      .dwpsn  file "C:/work/grepos/bootrom/Boot_ROM/F2837x_bootROM-REVB/F2837x_bootROM_dev/F2837x_bootROM/c
    1795 00000229 1E46          MOVL      *-SP[6],ACC           ; [CPU_] |784| 
    1796                      .dwpsn  file "C:/work/grepos/bootrom/Boot_ROM/F2837x_bootROM-REVB/F2837x_bootROM_dev/F2837x_bootROM/c
    1797 0000022a 1E48          MOVL      *-SP[8],ACC           ; [CPU_] |785| 
    1798                      .dwpsn  file "C:/work/grepos/bootrom/Boot_ROM/F2837x_bootROM-REVB/F2837x_bootROM_dev/F2837x_bootROM/c
    1799 0000022b 2849          MOV       *-SP[9],#65535        ; [CPU_] |786| 
         0000022c FFFF 
    1800                      .dwpsn  file "C:/work/grepos/bootrom/Boot_ROM/F2837x_bootROM-REVB/F2837x_bootROM_dev/F2837x_bootROM/c
    1801 0000022d 284A          MOV       *-SP[10],#65535       ; [CPU_] |787| 
         0000022e FFFF 
    1802                      .dwpsn  file "C:/work/grepos/bootrom/Boot_ROM/F2837x_bootROM-REVB/F2837x_bootROM_dev/F2837x_bootROM/c
    1803 0000022f 2B4B          MOV       *-SP[11],#0           ; [CPU_] |788| 
    1804                      .dwpsn  file "C:/work/grepos/bootrom/Boot_ROM/F2837x_bootROM-REVB/F2837x_bootROM_dev/F2837x_bootROM/c
    1805 00000230 9A00          MOVB      AL,#0                 ; [CPU_] |789| 
    1806 00000231 FFEF          B         $C$L56,UNC            ; [CPU_] |789| 
         00000232 0090 
    1807                      ; branch occurs ; [] |789| 
    1808 00000233       $C$L49:    
    1809                      .dwpsn  file "C:/work/grepos/bootrom/Boot_ROM/F2837x_bootROM-REVB/F2837x_bootROM_dev/F2837x_bootROM/c
    1810 00000233 0203          MOVB      ACC,#3                ; [CPU_] |792| 
    1811 00000234 2D49          MOV       T,*-SP[9]             ; [CPU_] |792| 
    1812 00000235 563B          LSLL      ACC,T                 ; [CPU_] |792| 
    1813 00000236 CE04!         AND       AL,@_DcsmRegsCommon+4 ; [CPU_] |792| 
    1814 00000237 CF05!         AND       AH,@_DcsmRegsCommon+5 ; [CPU_] |792| 
    1815 00000238 5622          LSRL      ACC,T                 ; [CPU_] |792| 
    1816 00000239 0FA6          CMPL      ACC,XAR6              ; [CPU_] |792| 
    1817 0000023a EC11          BF        $C$L50,EQ             ; [CPU_] |792| 
    1818                      ; branchcc occurs ; [] |792| 
    1819                      .dwpsn  file "C:/work/grepos/bootrom/Boot_ROM/F2837x_bootROM-REVB/F2837x_bootROM_dev/F2837x_bootROM/c
    1820 0000023b 761F!         MOVW      DP,#_DcsmRegsZ2+34    ; [CPU_U] 
         0000023c 0000 
    1821 0000023d 1822!         AND       @_DcsmRegsZ2+34,#0xfffe ; [CPU_] |794| 
         0000023e FFFE 
    1822                      .dwpsn  file "C:/work/grepos/bootrom/Boot_ROM/F2837x_bootROM-REVB/F2837x_bootROM_dev/F2837x_bootROM/c
    1823 0000023f 0200          MOVB      ACC,#0                ; [CPU_] |796| 
    1824 00000240 1E42          MOVL      *-SP[2],ACC           ; [CPU_] |796| 
    1825                      .dwpsn  file "C:/work/grepos/bootrom/Boot_ROM/F2837x_bootROM-REVB/F2837x_bootROM_dev/F2837x_bootROM/c
    1826 00000241 1E44          MOVL      *-SP[4],ACC           ; [CPU_] |797| 
    1827                      .dwpsn  file "C:/work/grepos/bootrom/Boot_ROM/F2837x_bootROM-REVB/F2837x_bootROM_dev/F2837x_bootROM/c
    1828 00000242 1E46          MOVL      *-SP[6],ACC           ; [CPU_] |798| 
    1829                      .dwpsn  file "C:/work/grepos/bootrom/Boot_ROM/F2837x_bootROM-REVB/F2837x_bootROM_dev/F2837x_bootROM/c
    1830 00000243 1E48          MOVL      *-SP[8],ACC           ; [CPU_] |799| 
    1831                      .dwpsn  file "C:/work/grepos/bootrom/Boot_ROM/F2837x_bootROM-REVB/F2837x_bootROM_dev/F2837x_bootROM/c
    1832 00000244 2849          MOV       *-SP[9],#65535        ; [CPU_] |800| 
         00000245 FFFF 
    1833                      .dwpsn  file "C:/work/grepos/bootrom/Boot_ROM/F2837x_bootROM-REVB/F2837x_bootROM_dev/F2837x_bootROM/c
    1834 00000246 284A          MOV       *-SP[10],#65535       ; [CPU_] |801| 
         00000247 FFFF 
    1835                      .dwpsn  file "C:/work/grepos/bootrom/Boot_ROM/F2837x_bootROM-REVB/F2837x_bootROM_dev/F2837x_bootROM/c
    1836 00000248 2B4B          MOV       *-SP[11],#0           ; [CPU_] |802| 
TMS320C2000 Assembler PC v6.1.3 Thu Jan 30 10:33:25 2014

Tools Copyright (c) 1996-2012 Texas Instruments Incorporated
C:\Users\a0272466\AppData\Local\Temp\0939610                         PAGE   40

    1837                      .dwpsn  file "C:/work/grepos/bootrom/Boot_ROM/F2837x_bootROM-REVB/F2837x_bootROM_dev/F2837x_bootROM/c
    1838 00000249 9A00          MOVB      AL,#0                 ; [CPU_] |803| 
    1839 0000024a 6F77          B         $C$L56,UNC            ; [CPU_] |803| 
    1840                      ; branch occurs ; [] |803| 
    1841 0000024b       $C$L50:    
    1842                      .dwpsn  file "C:/work/grepos/bootrom/Boot_ROM/F2837x_bootROM-REVB/F2837x_bootROM_dev/F2837x_bootROM/c
    1843 0000024b 924A          MOV       AL,*-SP[10]           ; [CPU_] |809| 
    1844 0000024c 28AB          MOV       PL,#1                 ; [CPU_] |809| 
         0000024d 0001 
    1845 0000024e 2BAA          MOV       PH,#0                 ; [CPU_] |809| 
    1846 0000024f FFC0          LSR       AL,1                  ; [CPU_] |809| 
    1847 00000250 761F!         MOVW      DP,#_DcsmRegsZ2+30    ; [CPU_U] 
         00000251 0000 
    1848 00000252 2DA9          MOV       T,AL                  ; [CPU_] |809| 
    1849 00000253 A9A9          MOVL      ACC,P                 ; [CPU_] |809| 
    1850 00000254 563B          LSLL      ACC,T                 ; [CPU_] |809| 
    1851 00000255 FF5A          MOVL      P,ACC                 ; [CPU_] |809| 
    1852 00000256 92AB          MOV       AL,PL                 ; [CPU_] |809| 
    1853 00000257 93AA          MOV       AH,PH                 ; [CPU_] |809| 
    1854 00000258 CE1E!         AND       AL,@_DcsmRegsZ2+30    ; [CPU_] |809| 
    1855 00000259 27A9          MOV       PL,AL                 ; [CPU_] |809| 
    1856 0000025a CF1F!         AND       AH,@_DcsmRegsZ2+31    ; [CPU_] |809| 
    1857 0000025b 2FA8          MOV       PH,AH                 ; [CPU_] |809| 
    1858 0000025c A9A9          MOVL      ACC,P                 ; [CPU_] |809| 
    1859 0000025d EC0F          BF        $C$L51,EQ             ; [CPU_] |809| 
    1860                      ; branchcc occurs ; [] |809| 
    1861                      .dwpsn  file "C:/work/grepos/bootrom/Boot_ROM/F2837x_bootROM-REVB/F2837x_bootROM_dev/F2837x_bootROM/c
    1862 0000025e 1822!         AND       @_DcsmRegsZ2+34,#0xfffe ; [CPU_] |811| 
         0000025f FFFE 
    1863                      .dwpsn  file "C:/work/grepos/bootrom/Boot_ROM/F2837x_bootROM-REVB/F2837x_bootROM_dev/F2837x_bootROM/c
    1864 00000260 0200          MOVB      ACC,#0                ; [CPU_] |813| 
    1865 00000261 1E42          MOVL      *-SP[2],ACC           ; [CPU_] |813| 
    1866                      .dwpsn  file "C:/work/grepos/bootrom/Boot_ROM/F2837x_bootROM-REVB/F2837x_bootROM_dev/F2837x_bootROM/c
    1867 00000262 1E44          MOVL      *-SP[4],ACC           ; [CPU_] |814| 
    1868                      .dwpsn  file "C:/work/grepos/bootrom/Boot_ROM/F2837x_bootROM-REVB/F2837x_bootROM_dev/F2837x_bootROM/c
    1869 00000263 1E46          MOVL      *-SP[6],ACC           ; [CPU_] |815| 
    1870                      .dwpsn  file "C:/work/grepos/bootrom/Boot_ROM/F2837x_bootROM-REVB/F2837x_bootROM_dev/F2837x_bootROM/c
    1871 00000264 1E48          MOVL      *-SP[8],ACC           ; [CPU_] |816| 
    1872                      .dwpsn  file "C:/work/grepos/bootrom/Boot_ROM/F2837x_bootROM-REVB/F2837x_bootROM_dev/F2837x_bootROM/c
    1873 00000265 2849          MOV       *-SP[9],#65535        ; [CPU_] |817| 
         00000266 FFFF 
    1874                      .dwpsn  file "C:/work/grepos/bootrom/Boot_ROM/F2837x_bootROM-REVB/F2837x_bootROM_dev/F2837x_bootROM/c
    1875 00000267 284A          MOV       *-SP[10],#65535       ; [CPU_] |818| 
         00000268 FFFF 
    1876                      .dwpsn  file "C:/work/grepos/bootrom/Boot_ROM/F2837x_bootROM-REVB/F2837x_bootROM_dev/F2837x_bootROM/c
    1877 00000269 2B4B          MOV       *-SP[11],#0           ; [CPU_] |819| 
    1878                      .dwpsn  file "C:/work/grepos/bootrom/Boot_ROM/F2837x_bootROM-REVB/F2837x_bootROM_dev/F2837x_bootROM/c
    1879 0000026a 9A00          MOVB      AL,#0                 ; [CPU_] |820| 
    1880 0000026b 6F56          B         $C$L56,UNC            ; [CPU_] |820| 
    1881                      ; branch occurs ; [] |820| 
    1882 0000026c       $C$L51:    
    1883                      .dwpsn  file "C:/work/grepos/bootrom/Boot_ROM/F2837x_bootROM-REVB/F2837x_bootROM_dev/F2837x_bootROM/c
    1884 0000026c 9249          MOV       AL,*-SP[9]            ; [CPU_] |824| 
    1885 0000026d 28AB          MOV       PL,#1                 ; [CPU_] |824| 
         0000026e 0001 
TMS320C2000 Assembler PC v6.1.3 Thu Jan 30 10:33:25 2014

Tools Copyright (c) 1996-2012 Texas Instruments Incorporated
C:\Users\a0272466\AppData\Local\Temp\0939610                         PAGE   41

    1886 0000026f 2BAA          MOV       PH,#0                 ; [CPU_] |824| 
    1887 00000270 FFC0          LSR       AL,1                  ; [CPU_] |824| 
    1888 00000271 2DA9          MOV       T,AL                  ; [CPU_] |824| 
    1889 00000272 A9A9          MOVL      ACC,P                 ; [CPU_] |824| 
    1890 00000273 563B          LSLL      ACC,T                 ; [CPU_] |824| 
    1891 00000274 FF5A          MOVL      P,ACC                 ; [CPU_] |824| 
    1892 00000275 92AB          MOV       AL,PL                 ; [CPU_] |824| 
    1893 00000276 93AA          MOV       AH,PH                 ; [CPU_] |824| 
    1894 00000277 CE20!         AND       AL,@_DcsmRegsZ2+32    ; [CPU_] |824| 
    1895 00000278 27A9          MOV       PL,AL                 ; [CPU_] |824| 
    1896 00000279 CF21!         AND       AH,@_DcsmRegsZ2+33    ; [CPU_] |824| 
    1897 0000027a 2FA8          MOV       PH,AH                 ; [CPU_] |824| 
    1898 0000027b A9A9          MOVL      ACC,P                 ; [CPU_] |824| 
    1899 0000027c EC0F          BF        $C$L52,EQ             ; [CPU_] |824| 
    1900                      ; branchcc occurs ; [] |824| 
    1901                      .dwpsn  file "C:/work/grepos/bootrom/Boot_ROM/F2837x_bootROM-REVB/F2837x_bootROM_dev/F2837x_bootROM/c
    1902 0000027d 1822!         AND       @_DcsmRegsZ2+34,#0xfffe ; [CPU_] |826| 
         0000027e FFFE 
    1903                      .dwpsn  file "C:/work/grepos/bootrom/Boot_ROM/F2837x_bootROM-REVB/F2837x_bootROM_dev/F2837x_bootROM/c
    1904 0000027f 0200          MOVB      ACC,#0                ; [CPU_] |828| 
    1905 00000280 1E42          MOVL      *-SP[2],ACC           ; [CPU_] |828| 
    1906                      .dwpsn  file "C:/work/grepos/bootrom/Boot_ROM/F2837x_bootROM-REVB/F2837x_bootROM_dev/F2837x_bootROM/c
    1907 00000281 1E44          MOVL      *-SP[4],ACC           ; [CPU_] |829| 
    1908                      .dwpsn  file "C:/work/grepos/bootrom/Boot_ROM/F2837x_bootROM-REVB/F2837x_bootROM_dev/F2837x_bootROM/c
    1909 00000282 1E46          MOVL      *-SP[6],ACC           ; [CPU_] |830| 
    1910                      .dwpsn  file "C:/work/grepos/bootrom/Boot_ROM/F2837x_bootROM-REVB/F2837x_bootROM_dev/F2837x_bootROM/c
    1911 00000283 1E48          MOVL      *-SP[8],ACC           ; [CPU_] |831| 
    1912                      .dwpsn  file "C:/work/grepos/bootrom/Boot_ROM/F2837x_bootROM-REVB/F2837x_bootROM_dev/F2837x_bootROM/c
    1913 00000284 2849          MOV       *-SP[9],#65535        ; [CPU_] |832| 
         00000285 FFFF 
    1914                      .dwpsn  file "C:/work/grepos/bootrom/Boot_ROM/F2837x_bootROM-REVB/F2837x_bootROM_dev/F2837x_bootROM/c
    1915 00000286 284A          MOV       *-SP[10],#65535       ; [CPU_] |833| 
         00000287 FFFF 
    1916                      .dwpsn  file "C:/work/grepos/bootrom/Boot_ROM/F2837x_bootROM-REVB/F2837x_bootROM_dev/F2837x_bootROM/c
    1917 00000288 2B4B          MOV       *-SP[11],#0           ; [CPU_] |834| 
    1918                      .dwpsn  file "C:/work/grepos/bootrom/Boot_ROM/F2837x_bootROM-REVB/F2837x_bootROM_dev/F2837x_bootROM/c
    1919 00000289 9A00          MOVB      AL,#0                 ; [CPU_] |835| 
    1920 0000028a 6F37          B         $C$L56,UNC            ; [CPU_] |835| 
    1921                      ; branch occurs ; [] |835| 
    1922 0000028b       $C$L52:    
    1923                      .dwpsn  file "C:/work/grepos/bootrom/Boot_ROM/F2837x_bootROM-REVB/F2837x_bootROM_dev/F2837x_bootROM/c
    1924 0000028b 0642          MOVL      ACC,*-SP[2]           ; [CPU_] |838| 
    1925 0000028c EC27          BF        $C$L55,EQ             ; [CPU_] |838| 
    1926                      ; branchcc occurs ; [] |838| 
    1927 0000028d       $C$L53:    
    1928 0000028d       $C$DW$L$_SafeCopyCodeZ2$72$B:
    1929                      .dwpsn  file "C:/work/grepos/bootrom/Boot_ROM/F2837x_bootROM-REVB/F2837x_bootROM_dev/F2837x_bootROM/c
    1930 0000028d 8A46          MOVL      XAR4,*-SP[6]          ; [CPU_] |845| 
    1931 0000028e 8344          MOVL      XAR5,*-SP[4]          ; [CPU_] |845| 
    1932 0000028f 9284          MOV       AL,*XAR4++            ; [CPU_] |845| 
    1933 00000290 C4A5          MOVL      XAR6,XAR5             ; [CPU_] |845| 
    1934 00000291 DE01          ADDB      XAR6,#1               ; [CPU_U] |845| 
    1935 00000292 C244          MOVL      *-SP[4],XAR6          ; [CPU_] |845| 
    1936 00000293 A846          MOVL      *-SP[6],XAR4          ; [CPU_] |845| 
    1937 00000294 96C5          MOV       *+XAR5[0],AL          ; [CPU_] |845| 
TMS320C2000 Assembler PC v6.1.3 Thu Jan 30 10:33:25 2014

Tools Copyright (c) 1996-2012 Texas Instruments Incorporated
C:\Users\a0272466\AppData\Local\Temp\0939610                         PAGE   42

    1938                      .dwpsn  file "C:/work/grepos/bootrom/Boot_ROM/F2837x_bootROM-REVB/F2837x_bootROM_dev/F2837x_bootROM/c
    1939 00000295 1B4B          CMP       *-SP[11],#64095       ; [CPU_] |847| 
         00000296 FA5F 
    1940 00000297 EC15          BF        $C$L54,EQ             ; [CPU_] |847| 
    1941                      ; branchcc occurs ; [] |847| 
    1942 00000298       $C$DW$L$_SafeCopyCodeZ2$72$E:
    1943                      .dwpsn  file "C:/work/grepos/bootrom/Boot_ROM/F2837x_bootROM-REVB/F2837x_bootROM_dev/F2837x_bootROM/c
    1944 00000298 8A44          MOVL      XAR4,*-SP[4]          ; [CPU_] |850| 
    1945 00000299 DC81          SUBB      XAR4,#1               ; [CPU_U] |850| 
    1946 0000029a A844          MOVL      *-SP[4],XAR4          ; [CPU_] |850| 
    1947 0000029b 2BC4          MOV       *+XAR4[0],#0          ; [CPU_] |850| 
    1948                      .dwpsn  file "C:/work/grepos/bootrom/Boot_ROM/F2837x_bootROM-REVB/F2837x_bootROM_dev/F2837x_bootROM/c
    1949 0000029c 761F!         MOVW      DP,#_DcsmRegsZ2+34    ; [CPU_U] 
         0000029d 0000 
    1950 0000029e 1822!         AND       @_DcsmRegsZ2+34,#0xfffe ; [CPU_] |852| 
         0000029f FFFE 
    1951                      .dwpsn  file "C:/work/grepos/bootrom/Boot_ROM/F2837x_bootROM-REVB/F2837x_bootROM_dev/F2837x_bootROM/c
    1952 000002a0 0200          MOVB      ACC,#0                ; [CPU_] |854| 
    1953 000002a1 1E42          MOVL      *-SP[2],ACC           ; [CPU_] |854| 
    1954                      .dwpsn  file "C:/work/grepos/bootrom/Boot_ROM/F2837x_bootROM-REVB/F2837x_bootROM_dev/F2837x_bootROM/c
    1955 000002a2 1E44          MOVL      *-SP[4],ACC           ; [CPU_] |855| 
    1956                      .dwpsn  file "C:/work/grepos/bootrom/Boot_ROM/F2837x_bootROM-REVB/F2837x_bootROM_dev/F2837x_bootROM/c
    1957 000002a3 1E46          MOVL      *-SP[6],ACC           ; [CPU_] |856| 
    1958                      .dwpsn  file "C:/work/grepos/bootrom/Boot_ROM/F2837x_bootROM-REVB/F2837x_bootROM_dev/F2837x_bootROM/c
    1959 000002a4 1E48          MOVL      *-SP[8],ACC           ; [CPU_] |857| 
    1960                      .dwpsn  file "C:/work/grepos/bootrom/Boot_ROM/F2837x_bootROM-REVB/F2837x_bootROM_dev/F2837x_bootROM/c
    1961 000002a5 2849          MOV       *-SP[9],#65535        ; [CPU_] |858| 
         000002a6 FFFF 
    1962                      .dwpsn  file "C:/work/grepos/bootrom/Boot_ROM/F2837x_bootROM-REVB/F2837x_bootROM_dev/F2837x_bootROM/c
    1963 000002a7 284A          MOV       *-SP[10],#65535       ; [CPU_] |859| 
         000002a8 FFFF 
    1964                      .dwpsn  file "C:/work/grepos/bootrom/Boot_ROM/F2837x_bootROM-REVB/F2837x_bootROM_dev/F2837x_bootROM/c
    1965 000002a9 2B4B          MOV       *-SP[11],#0           ; [CPU_] |860| 
    1966                      .dwpsn  file "C:/work/grepos/bootrom/Boot_ROM/F2837x_bootROM-REVB/F2837x_bootROM_dev/F2837x_bootROM/c
    1967 000002aa 9A00          MOVB      AL,#0                 ; [CPU_] |861| 
    1968 000002ab 6F16          B         $C$L56,UNC            ; [CPU_] |861| 
    1969                      ; branch occurs ; [] |861| 
    1970 000002ac       $C$L54:    
    1971 000002ac       $C$DW$L$_SafeCopyCodeZ2$74$B:
    1972                      .dwpsn  file "C:/work/grepos/bootrom/Boot_ROM/F2837x_bootROM-REVB/F2837x_bootROM_dev/F2837x_bootROM/c
    1973 000002ac 0201          MOVB      ACC,#1                ; [CPU_] |863| 
    1974 000002ad 5641          SUBL      *-SP[2],ACC           ; [CPU_] |863| 
         000002ae 0042 
    1975                      .dwpsn  file "C:/work/grepos/bootrom/Boot_ROM/F2837x_bootROM-REVB/F2837x_bootROM_dev/F2837x_bootROM/c
    1976 000002af 0748          ADDL      ACC,*-SP[8]           ; [CPU_] |864| 
    1977 000002b0 1E48          MOVL      *-SP[8],ACC           ; [CPU_] |864| 
    1978                      .dwpsn  file "C:/work/grepos/bootrom/Boot_ROM/F2837x_bootROM-REVB/F2837x_bootROM_dev/F2837x_bootROM/c
    1979 000002b1 0642          MOVL      ACC,*-SP[2]           ; [CPU_] |838| 
    1980 000002b2 EDDB          BF        $C$L53,NEQ            ; [CPU_] |838| 
    1981                      ; branchcc occurs ; [] |838| 
    1982 000002b3       $C$DW$L$_SafeCopyCodeZ2$74$E:
    1983 000002b3       $C$L55:    
    1984                      .dwpsn  file "C:/work/grepos/bootrom/Boot_ROM/F2837x_bootROM-REVB/F2837x_bootROM_dev/F2837x_bootROM/c
    1985 000002b3 761F!         MOVW      DP,#_DcsmRegsZ2+34    ; [CPU_U] 
         000002b4 0000 
TMS320C2000 Assembler PC v6.1.3 Thu Jan 30 10:33:25 2014

Tools Copyright (c) 1996-2012 Texas Instruments Incorporated
C:\Users\a0272466\AppData\Local\Temp\0939610                         PAGE   43

    1986 000002b5 1822!         AND       @_DcsmRegsZ2+34,#0xfffe ; [CPU_] |868| 
         000002b6 FFFE 
    1987                      .dwpsn  file "C:/work/grepos/bootrom/Boot_ROM/F2837x_bootROM-REVB/F2837x_bootROM_dev/F2837x_bootROM/c
    1988 000002b7 0200          MOVB      ACC,#0                ; [CPU_] |870| 
    1989 000002b8 1E42          MOVL      *-SP[2],ACC           ; [CPU_] |870| 
    1990                      .dwpsn  file "C:/work/grepos/bootrom/Boot_ROM/F2837x_bootROM-REVB/F2837x_bootROM_dev/F2837x_bootROM/c
    1991 000002b9 1E44          MOVL      *-SP[4],ACC           ; [CPU_] |871| 
    1992                      .dwpsn  file "C:/work/grepos/bootrom/Boot_ROM/F2837x_bootROM-REVB/F2837x_bootROM_dev/F2837x_bootROM/c
    1993 000002ba 1E46          MOVL      *-SP[6],ACC           ; [CPU_] |872| 
    1994                      .dwpsn  file "C:/work/grepos/bootrom/Boot_ROM/F2837x_bootROM-REVB/F2837x_bootROM_dev/F2837x_bootROM/c
    1995 000002bb 2849          MOV       *-SP[9],#65535        ; [CPU_] |873| 
         000002bc FFFF 
    1996                      .dwpsn  file "C:/work/grepos/bootrom/Boot_ROM/F2837x_bootROM-REVB/F2837x_bootROM_dev/F2837x_bootROM/c
    1997 000002bd 284A          MOV       *-SP[10],#65535       ; [CPU_] |874| 
         000002be FFFF 
    1998                      .dwpsn  file "C:/work/grepos/bootrom/Boot_ROM/F2837x_bootROM-REVB/F2837x_bootROM_dev/F2837x_bootROM/c
    1999 000002bf 2B4B          MOV       *-SP[11],#0           ; [CPU_] |875| 
    2000                      .dwpsn  file "C:/work/grepos/bootrom/Boot_ROM/F2837x_bootROM-REVB/F2837x_bootROM_dev/F2837x_bootROM/c
    2001 000002c0 9248          MOV       AL,*-SP[8]            ; [CPU_] |876| 
    2002 000002c1       $C$L56:    
    2003                      .dwpsn  file "C:/work/grepos/bootrom/Boot_ROM/F2837x_bootROM-REVB/F2837x_bootROM_dev/F2837x_bootROM/c
    2004 000002c1 FE8C          SUBB      SP,#12                ; [CPU_U] 
    2005                      .dwcfi  cfa_offset, -2
    2006              $C$DW$38        .dwtag  DW_TAG_TI_branch
    2007                      .dwattr $C$DW$38, DW_AT_low_pc(0x00)
    2008                      .dwattr $C$DW$38, DW_AT_TI_return
    2009 000002c2 0006          LRETR     ; [CPU_] 
    2010                      ; return occurs ; [] 
    2011              
    2012              $C$DW$39        .dwtag  DW_TAG_TI_loop
    2013                      .dwattr $C$DW$39, DW_AT_name("C:\\Users\\a0272466\\AppData\\Local\\Temp\\0939610:$C$L53:1:1391099602"
    2014                      .dwattr $C$DW$39, DW_AT_TI_begin_file("C:/work/grepos/bootrom/Boot_ROM/F2837x_bootROM-REVB/F2837x_boo
    2015                      .dwattr $C$DW$39, DW_AT_TI_begin_line(0x346)
    2016                      .dwattr $C$DW$39, DW_AT_TI_end_line(0x361)
    2017              $C$DW$40        .dwtag  DW_TAG_TI_loop_range
    2018                      .dwattr $C$DW$40, DW_AT_low_pc($C$DW$L$_SafeCopyCodeZ2$72$B)
    2019                      .dwattr $C$DW$40, DW_AT_high_pc($C$DW$L$_SafeCopyCodeZ2$72$E)
    2020              $C$DW$41        .dwtag  DW_TAG_TI_loop_range
    2021                      .dwattr $C$DW$41, DW_AT_low_pc($C$DW$L$_SafeCopyCodeZ2$74$B)
    2022                      .dwattr $C$DW$41, DW_AT_high_pc($C$DW$L$_SafeCopyCodeZ2$74$E)
    2023                      .dwendtag $C$DW$39
    2024              
    2025                      .dwattr $C$DW$27, DW_AT_TI_end_file("C:/work/grepos/bootrom/Boot_ROM/F2837x_bootROM-REVB/F2837x_bootR
    2026                      .dwattr $C$DW$27, DW_AT_TI_end_line(0x36d)
    2027                      .dwattr $C$DW$27, DW_AT_TI_end_column(0x01)
    2028                      .dwendentry
    2029                      .dwendtag $C$DW$27
    2030              
    2031 000002c3               .sect   "SCCLZ1"
    2032                      .global _SafeCRCCalcZ1
    2033              
    2034              $C$DW$42        .dwtag  DW_TAG_subprogram, DW_AT_name("SafeCRCCalcZ1")
    2035                      .dwattr $C$DW$42, DW_AT_low_pc(_SafeCRCCalcZ1)
    2036                      .dwattr $C$DW$42, DW_AT_high_pc(0x00)
    2037                      .dwattr $C$DW$42, DW_AT_TI_symbol_name("_SafeCRCCalcZ1")
TMS320C2000 Assembler PC v6.1.3 Thu Jan 30 10:33:25 2014

Tools Copyright (c) 1996-2012 Texas Instruments Incorporated
C:\Users\a0272466\AppData\Local\Temp\0939610                         PAGE   44

    2038                      .dwattr $C$DW$42, DW_AT_external
    2039                      .dwattr $C$DW$42, DW_AT_type(*$C$DW$T$21)
    2040                      .dwattr $C$DW$42, DW_AT_TI_begin_file("C:/work/grepos/bootrom/Boot_ROM/F2837x_bootROM-REVB/F2837x_boo
    2041                      .dwattr $C$DW$42, DW_AT_TI_begin_line(0x370)
    2042                      .dwattr $C$DW$42, DW_AT_TI_begin_column(0x08)
    2043                      .dwattr $C$DW$42, DW_AT_TI_max_frame_size(-14)
    2044                      .dwpsn  file "C:/work/grepos/bootrom/Boot_ROM/F2837x_bootROM-REVB/F2837x_bootROM_dev/F2837x_bootROM/c
    2045              
    2046                      .dwfde $C$DW$CIE, _SafeCRCCalcZ1
    2047              $C$DW$43        .dwtag  DW_TAG_formal_parameter, DW_AT_name("len_id")
    2048                      .dwattr $C$DW$43, DW_AT_TI_symbol_name("_len_id")
    2049                      .dwattr $C$DW$43, DW_AT_type(*$C$DW$T$21)
    2050                      .dwattr $C$DW$43, DW_AT_location[DW_OP_reg0]
    2051              $C$DW$44        .dwtag  DW_TAG_formal_parameter, DW_AT_name("dst")
    2052                      .dwattr $C$DW$44, DW_AT_TI_symbol_name("_dst")
    2053                      .dwattr $C$DW$44, DW_AT_type(*$C$DW$T$91)
    2054                      .dwattr $C$DW$44, DW_AT_location[DW_OP_reg12]
    2055              $C$DW$45        .dwtag  DW_TAG_formal_parameter, DW_AT_name("src")
    2056                      .dwattr $C$DW$45, DW_AT_TI_symbol_name("_src")
    2057                      .dwattr $C$DW$45, DW_AT_type(*$C$DW$T$91)
    2058                      .dwattr $C$DW$45, DW_AT_location[DW_OP_reg14]
    2059              
    2060              ;***************************************************************
    2061              ;* FNAME: _SafeCRCCalcZ1                FR SIZE:  12           *
    2062              ;*                                                             *
    2063              ;* FUNCTION ENVIRONMENT                                        *
    2064              ;*                                                             *
    2065              ;* FUNCTION PROPERTIES                                         *
    2066              ;*                            0 Parameter, 11 Auto,  0 SOE     *
    2067              ;***************************************************************
    2068              
    2069 000002c3       _SafeCRCCalcZ1:
    2070                      .dwcfi  cfa_offset, -2
    2071                      .dwcfi  save_reg_to_mem, 26, 0
    2072                      .dwcfi  save_reg_to_reg, 78, 26
    2073 000002c3 FE0C          ADDB      SP,#12                ; [CPU_U] 
    2074                      .dwcfi  cfa_offset, -14
    2075              $C$DW$46        .dwtag  DW_TAG_variable, DW_AT_name("len_id")
    2076                      .dwattr $C$DW$46, DW_AT_TI_symbol_name("_len_id")
    2077                      .dwattr $C$DW$46, DW_AT_type(*$C$DW$T$21)
    2078                      .dwattr $C$DW$46, DW_AT_location[DW_OP_breg20 -1]
    2079              $C$DW$47        .dwtag  DW_TAG_variable, DW_AT_name("dst")
    2080                      .dwattr $C$DW$47, DW_AT_TI_symbol_name("_dst")
    2081                      .dwattr $C$DW$47, DW_AT_type(*$C$DW$T$91)
    2082                      .dwattr $C$DW$47, DW_AT_location[DW_OP_breg20 -4]
    2083              $C$DW$48        .dwtag  DW_TAG_variable, DW_AT_name("src")
    2084                      .dwattr $C$DW$48, DW_AT_TI_symbol_name("_src")
    2085                      .dwattr $C$DW$48, DW_AT_type(*$C$DW$T$91)
    2086                      .dwattr $C$DW$48, DW_AT_location[DW_OP_breg20 -6]
    2087              $C$DW$49        .dwtag  DW_TAG_variable, DW_AT_name("dst_ram")
    2088                      .dwattr $C$DW$49, DW_AT_TI_symbol_name("_dst_ram")
    2089                      .dwattr $C$DW$49, DW_AT_type(*$C$DW$T$21)
    2090                      .dwattr $C$DW$49, DW_AT_location[DW_OP_breg20 -7]
    2091              $C$DW$50        .dwtag  DW_TAG_variable, DW_AT_name("src_ram")
    2092                      .dwattr $C$DW$50, DW_AT_TI_symbol_name("_src_ram")
TMS320C2000 Assembler PC v6.1.3 Thu Jan 30 10:33:25 2014

Tools Copyright (c) 1996-2012 Texas Instruments Incorporated
C:\Users\a0272466\AppData\Local\Temp\0939610                         PAGE   45

    2093                      .dwattr $C$DW$50, DW_AT_type(*$C$DW$T$21)
    2094                      .dwattr $C$DW$50, DW_AT_location[DW_OP_breg20 -8]
    2095              $C$DW$51        .dwtag  DW_TAG_variable, DW_AT_name("src_sect")
    2096                      .dwattr $C$DW$51, DW_AT_TI_symbol_name("_src_sect")
    2097                      .dwattr $C$DW$51, DW_AT_type(*$C$DW$T$21)
    2098                      .dwattr $C$DW$51, DW_AT_location[DW_OP_breg20 -9]
    2099              $C$DW$52        .dwtag  DW_TAG_variable, DW_AT_name("check_var")
    2100                      .dwattr $C$DW$52, DW_AT_TI_symbol_name("_check_var")
    2101                      .dwattr $C$DW$52, DW_AT_type(*$C$DW$T$21)
    2102                      .dwattr $C$DW$52, DW_AT_location[DW_OP_breg20 -10]
    2103              $C$DW$53        .dwtag  DW_TAG_variable, DW_AT_name("size")
    2104                      .dwattr $C$DW$53, DW_AT_TI_symbol_name("_size")
    2105                      .dwattr $C$DW$53, DW_AT_type(*$C$DW$T$21)
    2106                      .dwattr $C$DW$53, DW_AT_location[DW_OP_breg20 -11]
    2107 000002c4 A046          MOVL      *-SP[6],XAR5          ; [CPU_] |881| 
    2108 000002c5 A844          MOVL      *-SP[4],XAR4          ; [CPU_] |881| 
    2109 000002c6 9641          MOV       *-SP[1],AL            ; [CPU_] |881| 
    2110                      .dwpsn  file "C:/work/grepos/bootrom/Boot_ROM/F2837x_bootROM-REVB/F2837x_bootROM_dev/F2837x_bootROM/c
    2111 000002c7 2847          MOV       *-SP[7],#65535        ; [CPU_] |882| 
         000002c8 FFFF 
    2112                      .dwpsn  file "C:/work/grepos/bootrom/Boot_ROM/F2837x_bootROM-REVB/F2837x_bootROM_dev/F2837x_bootROM/c
    2113 000002c9 2848          MOV       *-SP[8],#65535        ; [CPU_] |883| 
         000002ca FFFF 
    2114                      .dwpsn  file "C:/work/grepos/bootrom/Boot_ROM/F2837x_bootROM-REVB/F2837x_bootROM_dev/F2837x_bootROM/c
    2115 000002cb 2849          MOV       *-SP[9],#65535        ; [CPU_] |884| 
         000002cc FFFF 
    2116                      .dwpsn  file "C:/work/grepos/bootrom/Boot_ROM/F2837x_bootROM-REVB/F2837x_bootROM_dev/F2837x_bootROM/c
    2117 000002cd 284A          MOV       *-SP[10],#62895       ; [CPU_] |885| 
         000002ce F5AF 
    2118                      .dwpsn  file "C:/work/grepos/bootrom/Boot_ROM/F2837x_bootROM-REVB/F2837x_bootROM_dev/F2837x_bootROM/c
    2119 000002cf 2B4B          MOV       *-SP[11],#0           ; [CPU_] |886| 
    2120                      .dwpsn  file "C:/work/grepos/bootrom/Boot_ROM/F2837x_bootROM-REVB/F2837x_bootROM_dev/F2837x_bootROM/c
    2121 000002d0 761F!         MOVW      DP,#_DcsmRegsZ1+34    ; [CPU_U] 
         000002d1 0000 
    2122 000002d2 1A22!         OR        @_DcsmRegsZ1+34,#0x0001 ; [CPU_] |889| 
         000002d3 0001 
    2123                      .dwpsn  file "C:/work/grepos/bootrom/Boot_ROM/F2837x_bootROM-REVB/F2837x_bootROM_dev/F2837x_bootROM/c
    2124 000002d4 0644          MOVL      ACC,*-SP[4]           ; [CPU_] |892| 
    2125 000002d5 EC07          BF        $C$L57,EQ             ; [CPU_] |892| 
    2126                      ; branchcc occurs ; [] |892| 
    2127 000002d6 0646          MOVL      ACC,*-SP[6]           ; [CPU_] |892| 
    2128 000002d7 EC05          BF        $C$L57,EQ             ; [CPU_] |892| 
    2129                      ; branchcc occurs ; [] |892| 
    2130 000002d8 9241          MOV       AL,*-SP[1]            ; [CPU_] |892| 
    2131 000002d9 EC03          BF        $C$L57,EQ             ; [CPU_] |892| 
    2132                      ; branchcc occurs ; [] |892| 
    2133 000002da 5208          CMPB      AL,#8                 ; [CPU_] |892| 
    2134 000002db 6911          B         $C$L58,LOS            ; [CPU_] |892| 
    2135                      ; branchcc occurs ; [] |892| 
    2136 000002dc       $C$L57:    
    2137                      .dwpsn  file "C:/work/grepos/bootrom/Boot_ROM/F2837x_bootROM-REVB/F2837x_bootROM_dev/F2837x_bootROM/c
    2138 000002dc 1822!         AND       @_DcsmRegsZ1+34,#0xfffe ; [CPU_] |894| 
         000002dd FFFE 
    2139                      .dwpsn  file "C:/work/grepos/bootrom/Boot_ROM/F2837x_bootROM-REVB/F2837x_bootROM_dev/F2837x_bootROM/c
    2140 000002de 2B4B          MOV       *-SP[11],#0           ; [CPU_] |896| 
TMS320C2000 Assembler PC v6.1.3 Thu Jan 30 10:33:25 2014

Tools Copyright (c) 1996-2012 Texas Instruments Incorporated
C:\Users\a0272466\AppData\Local\Temp\0939610                         PAGE   46

    2141                      .dwpsn  file "C:/work/grepos/bootrom/Boot_ROM/F2837x_bootROM-REVB/F2837x_bootROM_dev/F2837x_bootROM/c
    2142 000002df 0200          MOVB      ACC,#0                ; [CPU_] |897| 
    2143 000002e0 1E44          MOVL      *-SP[4],ACC           ; [CPU_] |897| 
    2144                      .dwpsn  file "C:/work/grepos/bootrom/Boot_ROM/F2837x_bootROM-REVB/F2837x_bootROM_dev/F2837x_bootROM/c
    2145 000002e1 1E46          MOVL      *-SP[6],ACC           ; [CPU_] |898| 
    2146                      .dwpsn  file "C:/work/grepos/bootrom/Boot_ROM/F2837x_bootROM-REVB/F2837x_bootROM_dev/F2837x_bootROM/c
    2147 000002e2 2847          MOV       *-SP[7],#65535        ; [CPU_] |899| 
         000002e3 FFFF 
    2148                      .dwpsn  file "C:/work/grepos/bootrom/Boot_ROM/F2837x_bootROM-REVB/F2837x_bootROM_dev/F2837x_bootROM/c
    2149 000002e4 2848          MOV       *-SP[8],#65535        ; [CPU_] |900| 
         000002e5 FFFF 
    2150                      .dwpsn  file "C:/work/grepos/bootrom/Boot_ROM/F2837x_bootROM-REVB/F2837x_bootROM_dev/F2837x_bootROM/c
    2151 000002e6 2849          MOV       *-SP[9],#65535        ; [CPU_] |901| 
         000002e7 FFFF 
    2152                      .dwpsn  file "C:/work/grepos/bootrom/Boot_ROM/F2837x_bootROM-REVB/F2837x_bootROM_dev/F2837x_bootROM/c
    2153 000002e8 2B4A          MOV       *-SP[10],#0           ; [CPU_] |902| 
    2154                      .dwpsn  file "C:/work/grepos/bootrom/Boot_ROM/F2837x_bootROM-REVB/F2837x_bootROM_dev/F2837x_bootROM/c
    2155 000002e9 9A00          MOVB      AL,#0                 ; [CPU_] |903| 
    2156 000002ea FFEF          B         $C$L81,UNC            ; [CPU_] |903| 
         000002eb 02D6 
    2157                      ; branch occurs ; [] |903| 
    2158 000002ec       $C$L58:    
    2159                      .dwpsn  file "C:/work/grepos/bootrom/Boot_ROM/F2837x_bootROM-REVB/F2837x_bootROM_dev/F2837x_bootROM/c
    2160 000002ec 28AC          MOV       T,#8                  ; [CPU_] |907| 
         000002ed 0008 
    2161 000002ee 92AC          MOV       AL,T                  ; [CPU_] |907| 
    2162 000002ef 3B01          SETC      SXM                   ; [CPU_] 
    2163 000002f0 9E41          SUB       AL,*-SP[1]            ; [CPU_] |907| 
    2164 000002f1 2DA9          MOV       T,AL                  ; [CPU_] |907| 
    2165 000002f2 28A9          MOV       AL,#2047              ; [CPU_] |907| 
         000002f3 07FF 
    2166 000002f4 FF62          LSR       AL,T                  ; [CPU_] |907| 
    2167 000002f5 85A9          MOV       ACC,AL                ; [CPU_] |907| 
    2168 000002f6 FF5A          MOVL      P,ACC                 ; [CPU_] |907| 
    2169 000002f7 0646          MOVL      ACC,*-SP[6]           ; [CPU_] |907| 
    2170 000002f8 CEAB          AND       AL,PL                 ; [CPU_] |907| 
    2171 000002f9 CFAA          AND       AH,PH                 ; [CPU_] |907| 
    2172 000002fa FF58          TEST      ACC                   ; [CPU_] |907| 
    2173 000002fb EC11          BF        $C$L59,EQ             ; [CPU_] |907| 
    2174                      ; branchcc occurs ; [] |907| 
    2175                      .dwpsn  file "C:/work/grepos/bootrom/Boot_ROM/F2837x_bootROM-REVB/F2837x_bootROM_dev/F2837x_bootROM/c
    2176 000002fc 1822!         AND       @_DcsmRegsZ1+34,#0xfffe ; [CPU_] |909| 
         000002fd FFFE 
    2177                      .dwpsn  file "C:/work/grepos/bootrom/Boot_ROM/F2837x_bootROM-REVB/F2837x_bootROM_dev/F2837x_bootROM/c
    2178 000002fe 2B4B          MOV       *-SP[11],#0           ; [CPU_] |911| 
    2179                      .dwpsn  file "C:/work/grepos/bootrom/Boot_ROM/F2837x_bootROM-REVB/F2837x_bootROM_dev/F2837x_bootROM/c
    2180 000002ff 0200          MOVB      ACC,#0                ; [CPU_] |912| 
    2181 00000300 1E44          MOVL      *-SP[4],ACC           ; [CPU_] |912| 
    2182                      .dwpsn  file "C:/work/grepos/bootrom/Boot_ROM/F2837x_bootROM-REVB/F2837x_bootROM_dev/F2837x_bootROM/c
    2183 00000301 1E46          MOVL      *-SP[6],ACC           ; [CPU_] |913| 
    2184                      .dwpsn  file "C:/work/grepos/bootrom/Boot_ROM/F2837x_bootROM-REVB/F2837x_bootROM_dev/F2837x_bootROM/c
    2185 00000302 2847          MOV       *-SP[7],#65535        ; [CPU_] |914| 
         00000303 FFFF 
    2186                      .dwpsn  file "C:/work/grepos/bootrom/Boot_ROM/F2837x_bootROM-REVB/F2837x_bootROM_dev/F2837x_bootROM/c
    2187 00000304 2848          MOV       *-SP[8],#65535        ; [CPU_] |915| 
TMS320C2000 Assembler PC v6.1.3 Thu Jan 30 10:33:25 2014

Tools Copyright (c) 1996-2012 Texas Instruments Incorporated
C:\Users\a0272466\AppData\Local\Temp\0939610                         PAGE   47

         00000305 FFFF 
    2188                      .dwpsn  file "C:/work/grepos/bootrom/Boot_ROM/F2837x_bootROM-REVB/F2837x_bootROM_dev/F2837x_bootROM/c
    2189 00000306 2849          MOV       *-SP[9],#65535        ; [CPU_] |916| 
         00000307 FFFF 
    2190                      .dwpsn  file "C:/work/grepos/bootrom/Boot_ROM/F2837x_bootROM-REVB/F2837x_bootROM_dev/F2837x_bootROM/c
    2191 00000308 2B4A          MOV       *-SP[10],#0           ; [CPU_] |917| 
    2192                      .dwpsn  file "C:/work/grepos/bootrom/Boot_ROM/F2837x_bootROM-REVB/F2837x_bootROM_dev/F2837x_bootROM/c
    2193 00000309 9A00          MOVB      AL,#0                 ; [CPU_] |918| 
    2194 0000030a FFEF          B         $C$L81,UNC            ; [CPU_] |918| 
         0000030b 02B6 
    2195                      ; branch occurs ; [] |918| 
    2196 0000030c       $C$L59:    
    2197                      .dwpsn  file "C:/work/grepos/bootrom/Boot_ROM/F2837x_bootROM-REVB/F2837x_bootROM_dev/F2837x_bootROM/c
    2198 0000030c 9241          MOV       AL,*-SP[1]            ; [CPU_] |922| 
    2199 0000030d 9C03          ADDB      AL,#3                 ; [CPU_] |922| 
    2200 0000030e 2DA9          MOV       T,AL                  ; [CPU_] |922| 
    2201 0000030f 9A01          MOVB      AL,#1                 ; [CPU_] |922| 
    2202 00000310 FF66          LSL       AL,T                  ; [CPU_] |922| 
    2203 00000311 964B          MOV       *-SP[11],AL           ; [CPU_] |922| 
    2204                      .dwpsn  file "C:/work/grepos/bootrom/Boot_ROM/F2837x_bootROM-REVB/F2837x_bootROM_dev/F2837x_bootROM/c
    2205 00000312 C444          MOVL      XAR6,*-SP[4]          ; [CPU_] |927| 
    2206 00000313 2901          CLRC      SXM                   ; [CPU_] 
    2207 00000314 FF20          MOV       ACC,#49152            ; [CPU_] |927| 
         00000315 C000 
    2208 00000316 0FA6          CMPL      ACC,XAR6              ; [CPU_] |927| 
    2209 00000317 6906          B         $C$L60,LOS            ; [CPU_] |927| 
    2210                      ; branchcc occurs ; [] |927| 
    2211 00000318 C444          MOVL      XAR6,*-SP[4]          ; [CPU_] |927| 
    2212 00000319 FF20          MOV       ACC,#32768            ; [CPU_] |927| 
         0000031a 8000 
    2213 0000031b 0FA6          CMPL      ACC,XAR6              ; [CPU_] |927| 
    2214 0000031c 6911          B         $C$L61,LOS            ; [CPU_] |927| 
    2215                      ; branchcc occurs ; [] |927| 
    2216 0000031d       $C$L60:    
    2217                      .dwpsn  file "C:/work/grepos/bootrom/Boot_ROM/F2837x_bootROM-REVB/F2837x_bootROM_dev/F2837x_bootROM/c
    2218 0000031d 1822!         AND       @_DcsmRegsZ1+34,#0xfffe ; [CPU_] |930| 
         0000031e FFFE 
    2219                      .dwpsn  file "C:/work/grepos/bootrom/Boot_ROM/F2837x_bootROM-REVB/F2837x_bootROM_dev/F2837x_bootROM/c
    2220 0000031f 2B4B          MOV       *-SP[11],#0           ; [CPU_] |932| 
    2221                      .dwpsn  file "C:/work/grepos/bootrom/Boot_ROM/F2837x_bootROM-REVB/F2837x_bootROM_dev/F2837x_bootROM/c
    2222 00000320 0200          MOVB      ACC,#0                ; [CPU_] |933| 
    2223 00000321 1E44          MOVL      *-SP[4],ACC           ; [CPU_] |933| 
    2224                      .dwpsn  file "C:/work/grepos/bootrom/Boot_ROM/F2837x_bootROM-REVB/F2837x_bootROM_dev/F2837x_bootROM/c
    2225 00000322 1E46          MOVL      *-SP[6],ACC           ; [CPU_] |934| 
    2226                      .dwpsn  file "C:/work/grepos/bootrom/Boot_ROM/F2837x_bootROM-REVB/F2837x_bootROM_dev/F2837x_bootROM/c
    2227 00000323 2847          MOV       *-SP[7],#65535        ; [CPU_] |935| 
         00000324 FFFF 
    2228                      .dwpsn  file "C:/work/grepos/bootrom/Boot_ROM/F2837x_bootROM-REVB/F2837x_bootROM_dev/F2837x_bootROM/c
    2229 00000325 2848          MOV       *-SP[8],#65535        ; [CPU_] |936| 
         00000326 FFFF 
    2230                      .dwpsn  file "C:/work/grepos/bootrom/Boot_ROM/F2837x_bootROM-REVB/F2837x_bootROM_dev/F2837x_bootROM/c
    2231 00000327 2849          MOV       *-SP[9],#65535        ; [CPU_] |937| 
         00000328 FFFF 
    2232                      .dwpsn  file "C:/work/grepos/bootrom/Boot_ROM/F2837x_bootROM-REVB/F2837x_bootROM_dev/F2837x_bootROM/c
    2233 00000329 2B4A          MOV       *-SP[10],#0           ; [CPU_] |938| 
TMS320C2000 Assembler PC v6.1.3 Thu Jan 30 10:33:25 2014

Tools Copyright (c) 1996-2012 Texas Instruments Incorporated
C:\Users\a0272466\AppData\Local\Temp\0939610                         PAGE   48

    2234                      .dwpsn  file "C:/work/grepos/bootrom/Boot_ROM/F2837x_bootROM-REVB/F2837x_bootROM_dev/F2837x_bootROM/c
    2235 0000032a 9A00          MOVB      AL,#0                 ; [CPU_] |939| 
    2236 0000032b FFEF          B         $C$L81,UNC            ; [CPU_] |939| 
         0000032c 0295 
    2237                      ; branch occurs ; [] |939| 
    2238 0000032d       $C$L61:    
    2239                      .dwpsn  file "C:/work/grepos/bootrom/Boot_ROM/F2837x_bootROM-REVB/F2837x_bootROM_dev/F2837x_bootROM/c
    2240 0000032d 0644          MOVL      ACC,*-SP[4]           ; [CPU_] |945| 
    2241 0000032e 8F00          MOVL      XAR4,#47104           ; [CPU_U] |945| 
         0000032f B800 
    2242 00000330 9B00          MOVB      AH,#0                 ; [CPU_] |945| 
    2243 00000331 18A9          AND       AL,#0xb800            ; [CPU_] |945| 
         00000332 B800 
    2244 00000333 0FA4          CMPL      ACC,XAR4              ; [CPU_] |945| 
    2245                      .dwpsn  file "C:/work/grepos/bootrom/Boot_ROM/F2837x_bootROM-REVB/F2837x_bootROM_dev/F2837x_bootROM/c
    2246 00000334 56B1          MOVB      *-SP[7],#14,EQ        ; [CPU_] |948| 
         00000335 0E47 
    2247                      .dwpsn  file "C:/work/grepos/bootrom/Boot_ROM/F2837x_bootROM-REVB/F2837x_bootROM_dev/F2837x_bootROM/c
    2248 00000336 EC46          BF        $C$L62,EQ             ; [CPU_] |949| 
    2249                      ; branchcc occurs ; [] |949| 
    2250                      .dwpsn  file "C:/work/grepos/bootrom/Boot_ROM/F2837x_bootROM-REVB/F2837x_bootROM_dev/F2837x_bootROM/c
    2251 00000337 0644          MOVL      ACC,*-SP[4]           ; [CPU_] |950| 
    2252 00000338 8F00          MOVL      XAR4,#45056           ; [CPU_U] |950| 
         00000339 B000 
    2253 0000033a 9B00          MOVB      AH,#0                 ; [CPU_] |950| 
    2254 0000033b 18A9          AND       AL,#0xb000            ; [CPU_] |950| 
         0000033c B000 
    2255 0000033d 0FA4          CMPL      ACC,XAR4              ; [CPU_] |950| 
    2256                      .dwpsn  file "C:/work/grepos/bootrom/Boot_ROM/F2837x_bootROM-REVB/F2837x_bootROM_dev/F2837x_bootROM/c
    2257 0000033e 56B1          MOVB      *-SP[7],#12,EQ        ; [CPU_] |953| 
         0000033f 0C47 
    2258                      .dwpsn  file "C:/work/grepos/bootrom/Boot_ROM/F2837x_bootROM-REVB/F2837x_bootROM_dev/F2837x_bootROM/c
    2259 00000340 EC3C          BF        $C$L62,EQ             ; [CPU_] |954| 
    2260                      ; branchcc occurs ; [] |954| 
    2261                      .dwpsn  file "C:/work/grepos/bootrom/Boot_ROM/F2837x_bootROM-REVB/F2837x_bootROM_dev/F2837x_bootROM/c
    2262 00000341 0644          MOVL      ACC,*-SP[4]           ; [CPU_] |955| 
    2263 00000342 8F00          MOVL      XAR4,#43008           ; [CPU_U] |955| 
         00000343 A800 
    2264 00000344 9B00          MOVB      AH,#0                 ; [CPU_] |955| 
    2265 00000345 18A9          AND       AL,#0xa800            ; [CPU_] |955| 
         00000346 A800 
    2266 00000347 0FA4          CMPL      ACC,XAR4              ; [CPU_] |955| 
    2267                      .dwpsn  file "C:/work/grepos/bootrom/Boot_ROM/F2837x_bootROM-REVB/F2837x_bootROM_dev/F2837x_bootROM/c
    2268 00000348 56B1          MOVB      *-SP[7],#10,EQ        ; [CPU_] |958| 
         00000349 0A47 
    2269                      .dwpsn  file "C:/work/grepos/bootrom/Boot_ROM/F2837x_bootROM-REVB/F2837x_bootROM_dev/F2837x_bootROM/c
    2270 0000034a EC32          BF        $C$L62,EQ             ; [CPU_] |959| 
    2271                      ; branchcc occurs ; [] |959| 
    2272                      .dwpsn  file "C:/work/grepos/bootrom/Boot_ROM/F2837x_bootROM-REVB/F2837x_bootROM_dev/F2837x_bootROM/c
    2273 0000034b 0644          MOVL      ACC,*-SP[4]           ; [CPU_] |960| 
    2274 0000034c 8F00          MOVL      XAR4,#40960           ; [CPU_U] |960| 
         0000034d A000 
    2275 0000034e 9B00          MOVB      AH,#0                 ; [CPU_] |960| 
    2276 0000034f 18A9          AND       AL,#0xa000            ; [CPU_] |960| 
         00000350 A000 
TMS320C2000 Assembler PC v6.1.3 Thu Jan 30 10:33:25 2014

Tools Copyright (c) 1996-2012 Texas Instruments Incorporated
C:\Users\a0272466\AppData\Local\Temp\0939610                         PAGE   49

    2277 00000351 0FA4          CMPL      ACC,XAR4              ; [CPU_] |960| 
    2278                      .dwpsn  file "C:/work/grepos/bootrom/Boot_ROM/F2837x_bootROM-REVB/F2837x_bootROM_dev/F2837x_bootROM/c
    2279 00000352 56B1          MOVB      *-SP[7],#8,EQ         ; [CPU_] |963| 
         00000353 0847 
    2280                      .dwpsn  file "C:/work/grepos/bootrom/Boot_ROM/F2837x_bootROM-REVB/F2837x_bootROM_dev/F2837x_bootROM/c
    2281 00000354 EC28          BF        $C$L62,EQ             ; [CPU_] |964| 
    2282                      ; branchcc occurs ; [] |964| 
    2283                      .dwpsn  file "C:/work/grepos/bootrom/Boot_ROM/F2837x_bootROM-REVB/F2837x_bootROM_dev/F2837x_bootROM/c
    2284 00000355 0644          MOVL      ACC,*-SP[4]           ; [CPU_] |965| 
    2285 00000356 8F00          MOVL      XAR4,#38912           ; [CPU_U] |965| 
         00000357 9800 
    2286 00000358 9B00          MOVB      AH,#0                 ; [CPU_] |965| 
    2287 00000359 18A9          AND       AL,#0x9800            ; [CPU_] |965| 
         0000035a 9800 
    2288 0000035b 0FA4          CMPL      ACC,XAR4              ; [CPU_] |965| 
    2289                      .dwpsn  file "C:/work/grepos/bootrom/Boot_ROM/F2837x_bootROM-REVB/F2837x_bootROM_dev/F2837x_bootROM/c
    2290 0000035c 56B1          MOVB      *-SP[7],#6,EQ         ; [CPU_] |968| 
         0000035d 0647 
    2291                      .dwpsn  file "C:/work/grepos/bootrom/Boot_ROM/F2837x_bootROM-REVB/F2837x_bootROM_dev/F2837x_bootROM/c
    2292 0000035e EC1E          BF        $C$L62,EQ             ; [CPU_] |969| 
    2293                      ; branchcc occurs ; [] |969| 
    2294                      .dwpsn  file "C:/work/grepos/bootrom/Boot_ROM/F2837x_bootROM-REVB/F2837x_bootROM_dev/F2837x_bootROM/c
    2295 0000035f 0644          MOVL      ACC,*-SP[4]           ; [CPU_] |970| 
    2296 00000360 8F00          MOVL      XAR4,#36864           ; [CPU_U] |970| 
         00000361 9000 
    2297 00000362 9B00          MOVB      AH,#0                 ; [CPU_] |970| 
    2298 00000363 18A9          AND       AL,#0x9000            ; [CPU_] |970| 
         00000364 9000 
    2299 00000365 0FA4          CMPL      ACC,XAR4              ; [CPU_] |970| 
    2300                      .dwpsn  file "C:/work/grepos/bootrom/Boot_ROM/F2837x_bootROM-REVB/F2837x_bootROM_dev/F2837x_bootROM/c
    2301 00000366 56B1          MOVB      *-SP[7],#4,EQ         ; [CPU_] |973| 
         00000367 0447 
    2302                      .dwpsn  file "C:/work/grepos/bootrom/Boot_ROM/F2837x_bootROM-REVB/F2837x_bootROM_dev/F2837x_bootROM/c
    2303 00000368 EC14          BF        $C$L62,EQ             ; [CPU_] |974| 
    2304                      ; branchcc occurs ; [] |974| 
    2305                      .dwpsn  file "C:/work/grepos/bootrom/Boot_ROM/F2837x_bootROM-REVB/F2837x_bootROM_dev/F2837x_bootROM/c
    2306 00000369 0644          MOVL      ACC,*-SP[4]           ; [CPU_] |975| 
    2307 0000036a 8F00          MOVL      XAR4,#34816           ; [CPU_U] |975| 
         0000036b 8800 
    2308 0000036c 9B00          MOVB      AH,#0                 ; [CPU_] |975| 
    2309 0000036d 18A9          AND       AL,#0x8800            ; [CPU_] |975| 
         0000036e 8800 
    2310 0000036f 0FA4          CMPL      ACC,XAR4              ; [CPU_] |975| 
    2311                      .dwpsn  file "C:/work/grepos/bootrom/Boot_ROM/F2837x_bootROM-REVB/F2837x_bootROM_dev/F2837x_bootROM/c
    2312 00000370 56B1          MOVB      *-SP[7],#2,EQ         ; [CPU_] |978| 
         00000371 0247 
    2313                      .dwpsn  file "C:/work/grepos/bootrom/Boot_ROM/F2837x_bootROM-REVB/F2837x_bootROM_dev/F2837x_bootROM/c
    2314 00000372 EC0A          BF        $C$L62,EQ             ; [CPU_] |979| 
    2315                      ; branchcc occurs ; [] |979| 
    2316                      .dwpsn  file "C:/work/grepos/bootrom/Boot_ROM/F2837x_bootROM-REVB/F2837x_bootROM_dev/F2837x_bootROM/c
    2317 00000373 0644          MOVL      ACC,*-SP[4]           ; [CPU_] |980| 
    2318 00000374 8F00          MOVL      XAR4,#32768           ; [CPU_U] |980| 
         00000375 8000 
    2319 00000376 9B00          MOVB      AH,#0                 ; [CPU_] |980| 
    2320 00000377 18A9          AND       AL,#0x8000            ; [CPU_] |980| 
TMS320C2000 Assembler PC v6.1.3 Thu Jan 30 10:33:25 2014

Tools Copyright (c) 1996-2012 Texas Instruments Incorporated
C:\Users\a0272466\AppData\Local\Temp\0939610                         PAGE   50

         00000378 8000 
    2321 00000379 0FA4          CMPL      ACC,XAR4              ; [CPU_] |980| 
    2322 0000037a ED02          BF        $C$L62,NEQ            ; [CPU_] |980| 
    2323                      ; branchcc occurs ; [] |980| 
    2324                      .dwpsn  file "C:/work/grepos/bootrom/Boot_ROM/F2837x_bootROM-REVB/F2837x_bootROM_dev/F2837x_bootROM/c
    2325 0000037b 2B47          MOV       *-SP[7],#0            ; [CPU_] |983| 
    2326 0000037c       $C$L62:    
    2327                      .dwpsn  file "C:/work/grepos/bootrom/Boot_ROM/F2837x_bootROM-REVB/F2837x_bootROM_dev/F2837x_bootROM/c
    2328 0000037c 0646          MOVL      ACC,*-SP[6]           ; [CPU_] |989| 
    2329 0000037d 8F0C          MOVL      XAR4,#786432          ; [CPU_U] |989| 
         0000037e 0000 
    2330 0000037f 5608          AND       ACC,#12 << 16         ; [CPU_] |989| 
         00000380 000C 
    2331 00000381 0FA4          CMPL      ACC,XAR4              ; [CPU_] |989| 
    2332 00000382 ED36          BF        $C$L65,NEQ            ; [CPU_] |989| 
    2333                      ; branchcc occurs ; [] |989| 
    2334                      .dwpsn  file "C:/work/grepos/bootrom/Boot_ROM/F2837x_bootROM-REVB/F2837x_bootROM_dev/F2837x_bootROM/c
    2335 00000383 761F!         MOVW      DP,#_DcsmRegsCommon+6 ; [CPU_U] 
         00000384 0000 
    2336 00000385 CC06!         AND       AL,@_DcsmRegsCommon+6,#0x03c0 ; [CPU_] |993| 
         00000386 03C0 
    2337 00000387 FFC5          LSR       AL,6                  ; [CPU_] |993| 
    2338 00000388 520F          CMPB      AL,#15                ; [CPU_] |993| 
    2339 00000389 EC1D          BF        $C$L64,EQ             ; [CPU_] |993| 
    2340                      ; branchcc occurs ; [] |993| 
    2341                      .dwpsn  file "C:/work/grepos/bootrom/Boot_ROM/F2837x_bootROM-REVB/F2837x_bootROM_dev/F2837x_bootROM/c
    2342 0000038a 0646          MOVL      ACC,*-SP[6]           ; [CPU_] |996| 
    2343 0000038b 8F10          MOVL      XAR4,#1048576         ; [CPU_U] |996| 
         0000038c 0000 
    2344 0000038d 0D4B          ADDU      ACC,*-SP[11]          ; [CPU_] |996| 
    2345 0000038e 0FA4          CMPL      ACC,XAR4              ; [CPU_] |996| 
    2346 0000038f 6913          B         $C$L63,LOS            ; [CPU_] |996| 
    2347                      ; branchcc occurs ; [] |996| 
    2348                      .dwpsn  file "C:/work/grepos/bootrom/Boot_ROM/F2837x_bootROM-REVB/F2837x_bootROM_dev/F2837x_bootROM/c
    2349 00000390 761F!         MOVW      DP,#_DcsmRegsZ1+34    ; [CPU_U] 
         00000391 0000 
    2350 00000392 1822!         AND       @_DcsmRegsZ1+34,#0xfffe ; [CPU_] |998| 
         00000393 FFFE 
    2351                      .dwpsn  file "C:/work/grepos/bootrom/Boot_ROM/F2837x_bootROM-REVB/F2837x_bootROM_dev/F2837x_bootROM/c
    2352 00000394 2B4B          MOV       *-SP[11],#0           ; [CPU_] |1000| 
    2353                      .dwpsn  file "C:/work/grepos/bootrom/Boot_ROM/F2837x_bootROM-REVB/F2837x_bootROM_dev/F2837x_bootROM/c
    2354 00000395 0200          MOVB      ACC,#0                ; [CPU_] |1001| 
    2355 00000396 1E44          MOVL      *-SP[4],ACC           ; [CPU_] |1001| 
    2356                      .dwpsn  file "C:/work/grepos/bootrom/Boot_ROM/F2837x_bootROM-REVB/F2837x_bootROM_dev/F2837x_bootROM/c
    2357 00000397 1E46          MOVL      *-SP[6],ACC           ; [CPU_] |1002| 
    2358                      .dwpsn  file "C:/work/grepos/bootrom/Boot_ROM/F2837x_bootROM-REVB/F2837x_bootROM_dev/F2837x_bootROM/c
    2359 00000398 2847          MOV       *-SP[7],#65535        ; [CPU_] |1003| 
         00000399 FFFF 
    2360                      .dwpsn  file "C:/work/grepos/bootrom/Boot_ROM/F2837x_bootROM-REVB/F2837x_bootROM_dev/F2837x_bootROM/c
    2361 0000039a 2848          MOV       *-SP[8],#65535        ; [CPU_] |1004| 
         0000039b FFFF 
    2362                      .dwpsn  file "C:/work/grepos/bootrom/Boot_ROM/F2837x_bootROM-REVB/F2837x_bootROM_dev/F2837x_bootROM/c
    2363 0000039c 2849          MOV       *-SP[9],#65535        ; [CPU_] |1005| 
         0000039d FFFF 
    2364                      .dwpsn  file "C:/work/grepos/bootrom/Boot_ROM/F2837x_bootROM-REVB/F2837x_bootROM_dev/F2837x_bootROM/c
TMS320C2000 Assembler PC v6.1.3 Thu Jan 30 10:33:25 2014

Tools Copyright (c) 1996-2012 Texas Instruments Incorporated
C:\Users\a0272466\AppData\Local\Temp\0939610                         PAGE   51

    2365 0000039e 2B4A          MOV       *-SP[10],#0           ; [CPU_] |1006| 
    2366                      .dwpsn  file "C:/work/grepos/bootrom/Boot_ROM/F2837x_bootROM-REVB/F2837x_bootROM_dev/F2837x_bootROM/c
    2367 0000039f 9A00          MOVB      AL,#0                 ; [CPU_] |1007| 
    2368 000003a0 FFEF          B         $C$L81,UNC            ; [CPU_] |1007| 
         000003a1 0220 
    2369                      ; branch occurs ; [] |1007| 
    2370 000003a2       $C$L63:    
    2371                      .dwpsn  file "C:/work/grepos/bootrom/Boot_ROM/F2837x_bootROM-REVB/F2837x_bootROM_dev/F2837x_bootROM/c
    2372 000003a2 56BF          MOVB      *-SP[9],#28,UNC       ; [CPU_] |1009| 
         000003a3 1C49 
    2373                      .dwpsn  file "C:/work/grepos/bootrom/Boot_ROM/F2837x_bootROM-REVB/F2837x_bootROM_dev/F2837x_bootROM/c
    2374 000003a4 FFEF          B         $C$L73,UNC            ; [CPU_] |1010| 
         000003a5 017E 
    2375                      ; branch occurs ; [] |1010| 
    2376 000003a6       $C$L64:    
    2377                      .dwpsn  file "C:/work/grepos/bootrom/Boot_ROM/F2837x_bootROM-REVB/F2837x_bootROM_dev/F2837x_bootROM/c
    2378 000003a6 761F!         MOVW      DP,#_DcsmRegsZ1+34    ; [CPU_U] 
         000003a7 0000 
    2379 000003a8 1822!         AND       @_DcsmRegsZ1+34,#0xfffe ; [CPU_] |1013| 
         000003a9 FFFE 
    2380                      .dwpsn  file "C:/work/grepos/bootrom/Boot_ROM/F2837x_bootROM-REVB/F2837x_bootROM_dev/F2837x_bootROM/c
    2381 000003aa 2B4B          MOV       *-SP[11],#0           ; [CPU_] |1015| 
    2382                      .dwpsn  file "C:/work/grepos/bootrom/Boot_ROM/F2837x_bootROM-REVB/F2837x_bootROM_dev/F2837x_bootROM/c
    2383 000003ab 0200          MOVB      ACC,#0                ; [CPU_] |1016| 
    2384 000003ac 1E44          MOVL      *-SP[4],ACC           ; [CPU_] |1016| 
    2385                      .dwpsn  file "C:/work/grepos/bootrom/Boot_ROM/F2837x_bootROM-REVB/F2837x_bootROM_dev/F2837x_bootROM/c
    2386 000003ad 1E46          MOVL      *-SP[6],ACC           ; [CPU_] |1017| 
    2387                      .dwpsn  file "C:/work/grepos/bootrom/Boot_ROM/F2837x_bootROM-REVB/F2837x_bootROM_dev/F2837x_bootROM/c
    2388 000003ae 2847          MOV       *-SP[7],#65535        ; [CPU_] |1018| 
         000003af FFFF 
    2389                      .dwpsn  file "C:/work/grepos/bootrom/Boot_ROM/F2837x_bootROM-REVB/F2837x_bootROM_dev/F2837x_bootROM/c
    2390 000003b0 2848          MOV       *-SP[8],#65535        ; [CPU_] |1019| 
         000003b1 FFFF 
    2391                      .dwpsn  file "C:/work/grepos/bootrom/Boot_ROM/F2837x_bootROM-REVB/F2837x_bootROM_dev/F2837x_bootROM/c
    2392 000003b2 2849          MOV       *-SP[9],#65535        ; [CPU_] |1020| 
         000003b3 FFFF 
    2393                      .dwpsn  file "C:/work/grepos/bootrom/Boot_ROM/F2837x_bootROM-REVB/F2837x_bootROM_dev/F2837x_bootROM/c
    2394 000003b4 2B4A          MOV       *-SP[10],#0           ; [CPU_] |1021| 
    2395                      .dwpsn  file "C:/work/grepos/bootrom/Boot_ROM/F2837x_bootROM-REVB/F2837x_bootROM_dev/F2837x_bootROM/c
    2396 000003b5 9A00          MOVB      AL,#0                 ; [CPU_] |1022| 
    2397 000003b6 FFEF          B         $C$L81,UNC            ; [CPU_] |1022| 
         000003b7 020A 
    2398                      ; branch occurs ; [] |1022| 
    2399 000003b8       $C$L65:    
    2400                      .dwpsn  file "C:/work/grepos/bootrom/Boot_ROM/F2837x_bootROM-REVB/F2837x_bootROM_dev/F2837x_bootROM/c
    2401 000003b8 C446          MOVL      XAR6,*-SP[6]          ; [CPU_] |1025| 
    2402 000003b9 8F0B          MOVL      XAR4,#753664          ; [CPU_U] |1025| 
         000003ba 8000 
    2403 000003bb A8A9          MOVL      ACC,XAR4              ; [CPU_] |1025| 
    2404 000003bc 0FA6          CMPL      ACC,XAR6              ; [CPU_] |1025| 
    2405 000003bd 664C          B         $C$L67,HI             ; [CPU_] |1025| 
    2406                      ; branchcc occurs ; [] |1025| 
    2407 000003be C446          MOVL      XAR6,*-SP[6]          ; [CPU_] |1025| 
    2408 000003bf 8F0C          MOVL      XAR4,#786432          ; [CPU_U] |1025| 
         000003c0 0000 
TMS320C2000 Assembler PC v6.1.3 Thu Jan 30 10:33:25 2014

Tools Copyright (c) 1996-2012 Texas Instruments Incorporated
C:\Users\a0272466\AppData\Local\Temp\0939610                         PAGE   52

    2409 000003c1 A8A9          MOVL      ACC,XAR4              ; [CPU_] |1025| 
    2410 000003c2 0FA6          CMPL      ACC,XAR6              ; [CPU_] |1025| 
    2411 000003c3 6946          B         $C$L67,LOS            ; [CPU_] |1025| 
    2412                      ; branchcc occurs ; [] |1025| 
    2413                      .dwpsn  file "C:/work/grepos/bootrom/Boot_ROM/F2837x_bootROM-REVB/F2837x_bootROM_dev/F2837x_bootROM/c
    2414 000003c4 0646          MOVL      ACC,*-SP[6]           ; [CPU_] |1028| 
    2415 000003c5 8F00          MOVL      XAR4,#8192            ; [CPU_U] |1028| 
         000003c6 2000 
    2416 000003c7 9B00          MOVB      AH,#0                 ; [CPU_] |1028| 
    2417 000003c8 18A9          AND       AL,#0x1fff            ; [CPU_] |1028| 
         000003c9 1FFF 
    2418 000003ca 0D4B          ADDU      ACC,*-SP[11]          ; [CPU_] |1028| 
    2419 000003cb 0FA4          CMPL      ACC,XAR4              ; [CPU_] |1028| 
    2420 000003cc 6911          B         $C$L66,LOS            ; [CPU_] |1028| 
    2421                      ; branchcc occurs ; [] |1028| 
    2422                      .dwpsn  file "C:/work/grepos/bootrom/Boot_ROM/F2837x_bootROM-REVB/F2837x_bootROM_dev/F2837x_bootROM/c
    2423 000003cd 1822!         AND       @_DcsmRegsZ1+34,#0xfffe ; [CPU_] |1030| 
         000003ce FFFE 
    2424                      .dwpsn  file "C:/work/grepos/bootrom/Boot_ROM/F2837x_bootROM-REVB/F2837x_bootROM_dev/F2837x_bootROM/c
    2425 000003cf 2B4B          MOV       *-SP[11],#0           ; [CPU_] |1032| 
    2426                      .dwpsn  file "C:/work/grepos/bootrom/Boot_ROM/F2837x_bootROM-REVB/F2837x_bootROM_dev/F2837x_bootROM/c
    2427 000003d0 0200          MOVB      ACC,#0                ; [CPU_] |1033| 
    2428 000003d1 1E44          MOVL      *-SP[4],ACC           ; [CPU_] |1033| 
    2429                      .dwpsn  file "C:/work/grepos/bootrom/Boot_ROM/F2837x_bootROM-REVB/F2837x_bootROM_dev/F2837x_bootROM/c
    2430 000003d2 1E46          MOVL      *-SP[6],ACC           ; [CPU_] |1034| 
    2431                      .dwpsn  file "C:/work/grepos/bootrom/Boot_ROM/F2837x_bootROM-REVB/F2837x_bootROM_dev/F2837x_bootROM/c
    2432 000003d3 2847          MOV       *-SP[7],#65535        ; [CPU_] |1035| 
         000003d4 FFFF 
    2433                      .dwpsn  file "C:/work/grepos/bootrom/Boot_ROM/F2837x_bootROM-REVB/F2837x_bootROM_dev/F2837x_bootROM/c
    2434 000003d5 2848          MOV       *-SP[8],#65535        ; [CPU_] |1036| 
         000003d6 FFFF 
    2435                      .dwpsn  file "C:/work/grepos/bootrom/Boot_ROM/F2837x_bootROM-REVB/F2837x_bootROM_dev/F2837x_bootROM/c
    2436 000003d7 2849          MOV       *-SP[9],#65535        ; [CPU_] |1037| 
         000003d8 FFFF 
    2437                      .dwpsn  file "C:/work/grepos/bootrom/Boot_ROM/F2837x_bootROM-REVB/F2837x_bootROM_dev/F2837x_bootROM/c
    2438 000003d9 2B4A          MOV       *-SP[10],#0           ; [CPU_] |1038| 
    2439                      .dwpsn  file "C:/work/grepos/bootrom/Boot_ROM/F2837x_bootROM-REVB/F2837x_bootROM_dev/F2837x_bootROM/c
    2440 000003da 9A00          MOVB      AL,#0                 ; [CPU_] |1039| 
    2441 000003db FFEF          B         $C$L81,UNC            ; [CPU_] |1039| 
         000003dc 01E5 
    2442                      ; branch occurs ; [] |1039| 
    2443 000003dd       $C$L66:    
    2444                      .dwpsn  file "C:/work/grepos/bootrom/Boot_ROM/F2837x_bootROM-REVB/F2837x_bootROM_dev/F2837x_bootROM/c
    2445 000003dd 8F0B          MOVL      XAR4,#778240          ; [CPU_U] |1041| 
         000003de E000 
    2446 000003df 0646          MOVL      ACC,*-SP[6]           ; [CPU_] |1041| 
    2447 000003e0 A8AB          MOVL      P,XAR4                ; [CPU_] |1041| 
    2448 000003e1 CEAB          AND       AL,PL                 ; [CPU_] |1041| 
    2449 000003e2 CFAA          AND       AH,PH                 ; [CPU_] |1041| 
    2450 000003e3 0FA4          CMPL      ACC,XAR4              ; [CPU_] |1041| 
    2451                      .dwpsn  file "C:/work/grepos/bootrom/Boot_ROM/F2837x_bootROM-REVB/F2837x_bootROM_dev/F2837x_bootROM/c
    2452 000003e4 56B1          MOVB      *-SP[9],#26,EQ        ; [CPU_] |1044| 
         000003e5 1A49 
    2453                      .dwpsn  file "C:/work/grepos/bootrom/Boot_ROM/F2837x_bootROM-REVB/F2837x_bootROM_dev/F2837x_bootROM/c
    2454 000003e6 56C1          BF        $C$L73,EQ             ; [CPU_] |1045| 
TMS320C2000 Assembler PC v6.1.3 Thu Jan 30 10:33:25 2014

Tools Copyright (c) 1996-2012 Texas Instruments Incorporated
C:\Users\a0272466\AppData\Local\Temp\0939610                         PAGE   53

         000003e7 013C 
    2455                      ; branchcc occurs ; [] |1045| 
    2456                      .dwpsn  file "C:/work/grepos/bootrom/Boot_ROM/F2837x_bootROM-REVB/F2837x_bootROM_dev/F2837x_bootROM/c
    2457 000003e8 8F0B          MOVL      XAR4,#770048          ; [CPU_U] |1046| 
         000003e9 C000 
    2458 000003ea 0646          MOVL      ACC,*-SP[6]           ; [CPU_] |1046| 
    2459 000003eb A8AB          MOVL      P,XAR4                ; [CPU_] |1046| 
    2460 000003ec CEAB          AND       AL,PL                 ; [CPU_] |1046| 
    2461 000003ed CFAA          AND       AH,PH                 ; [CPU_] |1046| 
    2462 000003ee 0FA4          CMPL      ACC,XAR4              ; [CPU_] |1046| 
    2463                      .dwpsn  file "C:/work/grepos/bootrom/Boot_ROM/F2837x_bootROM-REVB/F2837x_bootROM_dev/F2837x_bootROM/c
    2464 000003ef 56B1          MOVB      *-SP[9],#24,EQ        ; [CPU_] |1049| 
         000003f0 1849 
    2465                      .dwpsn  file "C:/work/grepos/bootrom/Boot_ROM/F2837x_bootROM-REVB/F2837x_bootROM_dev/F2837x_bootROM/c
    2466 000003f1 56C1          BF        $C$L73,EQ             ; [CPU_] |1050| 
         000003f2 0131 
    2467                      ; branchcc occurs ; [] |1050| 
    2468                      .dwpsn  file "C:/work/grepos/bootrom/Boot_ROM/F2837x_bootROM-REVB/F2837x_bootROM_dev/F2837x_bootROM/c
    2469 000003f3 8F0B          MOVL      XAR4,#761856          ; [CPU_U] |1051| 
         000003f4 A000 
    2470 000003f5 0646          MOVL      ACC,*-SP[6]           ; [CPU_] |1051| 
    2471 000003f6 A8AB          MOVL      P,XAR4                ; [CPU_] |1051| 
    2472 000003f7 CEAB          AND       AL,PL                 ; [CPU_] |1051| 
    2473 000003f8 CFAA          AND       AH,PH                 ; [CPU_] |1051| 
    2474 000003f9 0FA4          CMPL      ACC,XAR4              ; [CPU_] |1051| 
    2475                      .dwpsn  file "C:/work/grepos/bootrom/Boot_ROM/F2837x_bootROM-REVB/F2837x_bootROM_dev/F2837x_bootROM/c
    2476 000003fa 56B1          MOVB      *-SP[9],#22,EQ        ; [CPU_] |1054| 
         000003fb 1649 
    2477                      .dwpsn  file "C:/work/grepos/bootrom/Boot_ROM/F2837x_bootROM-REVB/F2837x_bootROM_dev/F2837x_bootROM/c
    2478 000003fc 56C1          BF        $C$L73,EQ             ; [CPU_] |1055| 
         000003fd 0126 
    2479                      ; branchcc occurs ; [] |1055| 
    2480                      .dwpsn  file "C:/work/grepos/bootrom/Boot_ROM/F2837x_bootROM-REVB/F2837x_bootROM_dev/F2837x_bootROM/c
    2481 000003fe 8F0B          MOVL      XAR4,#753664          ; [CPU_U] |1056| 
         000003ff 8000 
    2482 00000400 0646          MOVL      ACC,*-SP[6]           ; [CPU_] |1056| 
    2483 00000401 A8AB          MOVL      P,XAR4                ; [CPU_] |1056| 
    2484 00000402 CEAB          AND       AL,PL                 ; [CPU_] |1056| 
    2485 00000403 CFAA          AND       AH,PH                 ; [CPU_] |1056| 
    2486 00000404 0FA4          CMPL      ACC,XAR4              ; [CPU_] |1056| 
    2487                      .dwpsn  file "C:/work/grepos/bootrom/Boot_ROM/F2837x_bootROM-REVB/F2837x_bootROM_dev/F2837x_bootROM/c
    2488 00000405 56B1          MOVB      *-SP[9],#20,EQ        ; [CPU_] |1059| 
         00000406 1449 
    2489                      .dwpsn  file "C:/work/grepos/bootrom/Boot_ROM/F2837x_bootROM-REVB/F2837x_bootROM_dev/F2837x_bootROM/c
    2490 00000407 FFEF          B         $C$L73,UNC            ; [CPU_] |1061| 
         00000408 011B 
    2491                      ; branch occurs ; [] |1061| 
    2492 00000409       $C$L67:    
    2493                      .dwpsn  file "C:/work/grepos/bootrom/Boot_ROM/F2837x_bootROM-REVB/F2837x_bootROM_dev/F2837x_bootROM/c
    2494 00000409 C446          MOVL      XAR6,*-SP[6]          ; [CPU_] |1062| 
    2495 0000040a 8F08          MOVL      XAR4,#557056          ; [CPU_U] |1062| 
         0000040b 8000 
    2496 0000040c A8A9          MOVL      ACC,XAR4              ; [CPU_] |1062| 
    2497 0000040d 0FA6          CMPL      ACC,XAR6              ; [CPU_] |1062| 
    2498 0000040e 6661          B         $C$L69,HI             ; [CPU_] |1062| 
TMS320C2000 Assembler PC v6.1.3 Thu Jan 30 10:33:25 2014

Tools Copyright (c) 1996-2012 Texas Instruments Incorporated
C:\Users\a0272466\AppData\Local\Temp\0939610                         PAGE   54

    2499                      ; branchcc occurs ; [] |1062| 
    2500 0000040f C446          MOVL      XAR6,*-SP[6]          ; [CPU_] |1062| 
    2501 00000410 8F0B          MOVL      XAR4,#753664          ; [CPU_U] |1062| 
         00000411 8000 
    2502 00000412 A8A9          MOVL      ACC,XAR4              ; [CPU_] |1062| 
    2503 00000413 0FA6          CMPL      ACC,XAR6              ; [CPU_] |1062| 
    2504 00000414 695B          B         $C$L69,LOS            ; [CPU_] |1062| 
    2505                      ; branchcc occurs ; [] |1062| 
    2506                      .dwpsn  file "C:/work/grepos/bootrom/Boot_ROM/F2837x_bootROM-REVB/F2837x_bootROM_dev/F2837x_bootROM/c
    2507 00000415 0646          MOVL      ACC,*-SP[6]           ; [CPU_] |1065| 
    2508 00000416 8F00          MOVL      XAR4,#32768           ; [CPU_U] |1065| 
         00000417 8000 
    2509 00000418 9B00          MOVB      AH,#0                 ; [CPU_] |1065| 
    2510 00000419 18A9          AND       AL,#0x7fff            ; [CPU_] |1065| 
         0000041a 7FFF 
    2511 0000041b 0D4B          ADDU      ACC,*-SP[11]          ; [CPU_] |1065| 
    2512 0000041c 0FA4          CMPL      ACC,XAR4              ; [CPU_] |1065| 
    2513 0000041d 6911          B         $C$L68,LOS            ; [CPU_] |1065| 
    2514                      ; branchcc occurs ; [] |1065| 
    2515                      .dwpsn  file "C:/work/grepos/bootrom/Boot_ROM/F2837x_bootROM-REVB/F2837x_bootROM_dev/F2837x_bootROM/c
    2516 0000041e 1822!         AND       @_DcsmRegsZ1+34,#0xfffe ; [CPU_] |1067| 
         0000041f FFFE 
    2517                      .dwpsn  file "C:/work/grepos/bootrom/Boot_ROM/F2837x_bootROM-REVB/F2837x_bootROM_dev/F2837x_bootROM/c
    2518 00000420 2B4B          MOV       *-SP[11],#0           ; [CPU_] |1069| 
    2519                      .dwpsn  file "C:/work/grepos/bootrom/Boot_ROM/F2837x_bootROM-REVB/F2837x_bootROM_dev/F2837x_bootROM/c
    2520 00000421 0200          MOVB      ACC,#0                ; [CPU_] |1070| 
    2521 00000422 1E44          MOVL      *-SP[4],ACC           ; [CPU_] |1070| 
    2522                      .dwpsn  file "C:/work/grepos/bootrom/Boot_ROM/F2837x_bootROM-REVB/F2837x_bootROM_dev/F2837x_bootROM/c
    2523 00000423 1E46          MOVL      *-SP[6],ACC           ; [CPU_] |1071| 
    2524                      .dwpsn  file "C:/work/grepos/bootrom/Boot_ROM/F2837x_bootROM-REVB/F2837x_bootROM_dev/F2837x_bootROM/c
    2525 00000424 2847          MOV       *-SP[7],#65535        ; [CPU_] |1072| 
         00000425 FFFF 
    2526                      .dwpsn  file "C:/work/grepos/bootrom/Boot_ROM/F2837x_bootROM-REVB/F2837x_bootROM_dev/F2837x_bootROM/c
    2527 00000426 2848          MOV       *-SP[8],#65535        ; [CPU_] |1073| 
         00000427 FFFF 
    2528                      .dwpsn  file "C:/work/grepos/bootrom/Boot_ROM/F2837x_bootROM-REVB/F2837x_bootROM_dev/F2837x_bootROM/c
    2529 00000428 2849          MOV       *-SP[9],#65535        ; [CPU_] |1074| 
         00000429 FFFF 
    2530                      .dwpsn  file "C:/work/grepos/bootrom/Boot_ROM/F2837x_bootROM-REVB/F2837x_bootROM_dev/F2837x_bootROM/c
    2531 0000042a 2B4A          MOV       *-SP[10],#0           ; [CPU_] |1075| 
    2532                      .dwpsn  file "C:/work/grepos/bootrom/Boot_ROM/F2837x_bootROM-REVB/F2837x_bootROM_dev/F2837x_bootROM/c
    2533 0000042b 9A00          MOVB      AL,#0                 ; [CPU_] |1076| 
    2534 0000042c FFEF          B         $C$L81,UNC            ; [CPU_] |1076| 
         0000042d 0194 
    2535                      ; branch occurs ; [] |1076| 
    2536 0000042e       $C$L68:    
    2537                      .dwpsn  file "C:/work/grepos/bootrom/Boot_ROM/F2837x_bootROM-REVB/F2837x_bootROM_dev/F2837x_bootROM/c
    2538 0000042e 8F0B          MOVL      XAR4,#720896          ; [CPU_U] |1078| 
         0000042f 0000 
    2539 00000430 0646          MOVL      ACC,*-SP[6]           ; [CPU_] |1078| 
    2540 00000431 A8AB          MOVL      P,XAR4                ; [CPU_] |1078| 
    2541 00000432 CEAB          AND       AL,PL                 ; [CPU_] |1078| 
    2542 00000433 CFAA          AND       AH,PH                 ; [CPU_] |1078| 
    2543 00000434 0FA4          CMPL      ACC,XAR4              ; [CPU_] |1078| 
    2544                      .dwpsn  file "C:/work/grepos/bootrom/Boot_ROM/F2837x_bootROM-REVB/F2837x_bootROM_dev/F2837x_bootROM/c
TMS320C2000 Assembler PC v6.1.3 Thu Jan 30 10:33:25 2014

Tools Copyright (c) 1996-2012 Texas Instruments Incorporated
C:\Users\a0272466\AppData\Local\Temp\0939610                         PAGE   55

    2545 00000435 56B1          MOVB      *-SP[9],#18,EQ        ; [CPU_] |1081| 
         00000436 1249 
    2546                      .dwpsn  file "C:/work/grepos/bootrom/Boot_ROM/F2837x_bootROM-REVB/F2837x_bootROM_dev/F2837x_bootROM/c
    2547 00000437 56C1          BF        $C$L73,EQ             ; [CPU_] |1082| 
         00000438 00EB 
    2548                      ; branchcc occurs ; [] |1082| 
    2549                      .dwpsn  file "C:/work/grepos/bootrom/Boot_ROM/F2837x_bootROM-REVB/F2837x_bootROM_dev/F2837x_bootROM/c
    2550 00000439 8F0A          MOVL      XAR4,#688128          ; [CPU_U] |1083| 
         0000043a 8000 
    2551 0000043b 0646          MOVL      ACC,*-SP[6]           ; [CPU_] |1083| 
    2552 0000043c A8AB          MOVL      P,XAR4                ; [CPU_] |1083| 
    2553 0000043d CEAB          AND       AL,PL                 ; [CPU_] |1083| 
    2554 0000043e CFAA          AND       AH,PH                 ; [CPU_] |1083| 
    2555 0000043f 0FA4          CMPL      ACC,XAR4              ; [CPU_] |1083| 
    2556                      .dwpsn  file "C:/work/grepos/bootrom/Boot_ROM/F2837x_bootROM-REVB/F2837x_bootROM_dev/F2837x_bootROM/c
    2557 00000440 56B1          MOVB      *-SP[9],#16,EQ        ; [CPU_] |1086| 
         00000441 1049 
    2558                      .dwpsn  file "C:/work/grepos/bootrom/Boot_ROM/F2837x_bootROM-REVB/F2837x_bootROM_dev/F2837x_bootROM/c
    2559 00000442 56C1          BF        $C$L73,EQ             ; [CPU_] |1087| 
         00000443 00E0 
    2560                      ; branchcc occurs ; [] |1087| 
    2561                      .dwpsn  file "C:/work/grepos/bootrom/Boot_ROM/F2837x_bootROM-REVB/F2837x_bootROM_dev/F2837x_bootROM/c
    2562 00000444 0646          MOVL      ACC,*-SP[6]           ; [CPU_] |1088| 
    2563 00000445 8F0A          MOVL      XAR4,#655360          ; [CPU_U] |1088| 
         00000446 0000 
    2564 00000447 5608          AND       ACC,#10 << 16         ; [CPU_] |1088| 
         00000448 000A 
    2565 00000449 0FA4          CMPL      ACC,XAR4              ; [CPU_] |1088| 
    2566                      .dwpsn  file "C:/work/grepos/bootrom/Boot_ROM/F2837x_bootROM-REVB/F2837x_bootROM_dev/F2837x_bootROM/c
    2567 0000044a 56B1          MOVB      *-SP[9],#14,EQ        ; [CPU_] |1091| 
         0000044b 0E49 
    2568                      .dwpsn  file "C:/work/grepos/bootrom/Boot_ROM/F2837x_bootROM-REVB/F2837x_bootROM_dev/F2837x_bootROM/c
    2569 0000044c 56C1          BF        $C$L73,EQ             ; [CPU_] |1092| 
         0000044d 00D6 
    2570                      ; branchcc occurs ; [] |1092| 
    2571                      .dwpsn  file "C:/work/grepos/bootrom/Boot_ROM/F2837x_bootROM-REVB/F2837x_bootROM_dev/F2837x_bootROM/c
    2572 0000044e 8F09          MOVL      XAR4,#622592          ; [CPU_U] |1093| 
         0000044f 8000 
    2573 00000450 0646          MOVL      ACC,*-SP[6]           ; [CPU_] |1093| 
    2574 00000451 A8AB          MOVL      P,XAR4                ; [CPU_] |1093| 
    2575 00000452 CEAB          AND       AL,PL                 ; [CPU_] |1093| 
    2576 00000453 CFAA          AND       AH,PH                 ; [CPU_] |1093| 
    2577 00000454 0FA4          CMPL      ACC,XAR4              ; [CPU_] |1093| 
    2578                      .dwpsn  file "C:/work/grepos/bootrom/Boot_ROM/F2837x_bootROM-REVB/F2837x_bootROM_dev/F2837x_bootROM/c
    2579 00000455 56B1          MOVB      *-SP[9],#12,EQ        ; [CPU_] |1096| 
         00000456 0C49 
    2580                      .dwpsn  file "C:/work/grepos/bootrom/Boot_ROM/F2837x_bootROM-REVB/F2837x_bootROM_dev/F2837x_bootROM/c
    2581 00000457 56C1          BF        $C$L73,EQ             ; [CPU_] |1097| 
         00000458 00CB 
    2582                      ; branchcc occurs ; [] |1097| 
    2583                      .dwpsn  file "C:/work/grepos/bootrom/Boot_ROM/F2837x_bootROM-REVB/F2837x_bootROM_dev/F2837x_bootROM/c
    2584 00000459 8F09          MOVL      XAR4,#589824          ; [CPU_U] |1098| 
         0000045a 0000 
    2585 0000045b 0646          MOVL      ACC,*-SP[6]           ; [CPU_] |1098| 
    2586 0000045c A8AB          MOVL      P,XAR4                ; [CPU_] |1098| 
TMS320C2000 Assembler PC v6.1.3 Thu Jan 30 10:33:25 2014

Tools Copyright (c) 1996-2012 Texas Instruments Incorporated
C:\Users\a0272466\AppData\Local\Temp\0939610                         PAGE   56

    2587 0000045d CEAB          AND       AL,PL                 ; [CPU_] |1098| 
    2588 0000045e CFAA          AND       AH,PH                 ; [CPU_] |1098| 
    2589 0000045f 0FA4          CMPL      ACC,XAR4              ; [CPU_] |1098| 
    2590                      .dwpsn  file "C:/work/grepos/bootrom/Boot_ROM/F2837x_bootROM-REVB/F2837x_bootROM_dev/F2837x_bootROM/c
    2591 00000460 56B1          MOVB      *-SP[9],#10,EQ        ; [CPU_] |1101| 
         00000461 0A49 
    2592                      .dwpsn  file "C:/work/grepos/bootrom/Boot_ROM/F2837x_bootROM-REVB/F2837x_bootROM_dev/F2837x_bootROM/c
    2593 00000462 56C1          BF        $C$L73,EQ             ; [CPU_] |1102| 
         00000463 00C0 
    2594                      ; branchcc occurs ; [] |1102| 
    2595                      .dwpsn  file "C:/work/grepos/bootrom/Boot_ROM/F2837x_bootROM-REVB/F2837x_bootROM_dev/F2837x_bootROM/c
    2596 00000464 8F08          MOVL      XAR4,#557056          ; [CPU_U] |1103| 
         00000465 8000 
    2597 00000466 0646          MOVL      ACC,*-SP[6]           ; [CPU_] |1103| 
    2598 00000467 A8AB          MOVL      P,XAR4                ; [CPU_] |1103| 
    2599 00000468 CEAB          AND       AL,PL                 ; [CPU_] |1103| 
    2600 00000469 CFAA          AND       AH,PH                 ; [CPU_] |1103| 
    2601 0000046a 0FA4          CMPL      ACC,XAR4              ; [CPU_] |1103| 
    2602                      .dwpsn  file "C:/work/grepos/bootrom/Boot_ROM/F2837x_bootROM-REVB/F2837x_bootROM_dev/F2837x_bootROM/c
    2603 0000046b 56B1          MOVB      *-SP[9],#8,EQ         ; [CPU_] |1106| 
         0000046c 0849 
    2604                      .dwpsn  file "C:/work/grepos/bootrom/Boot_ROM/F2837x_bootROM-REVB/F2837x_bootROM_dev/F2837x_bootROM/c
    2605 0000046d FFEF          B         $C$L73,UNC            ; [CPU_] |1108| 
         0000046e 00B5 
    2606                      ; branch occurs ; [] |1108| 
    2607 0000046f       $C$L69:    
    2608                      .dwpsn  file "C:/work/grepos/bootrom/Boot_ROM/F2837x_bootROM-REVB/F2837x_bootROM_dev/F2837x_bootROM/c
    2609 0000046f C446          MOVL      XAR6,*-SP[6]          ; [CPU_] |1109| 
    2610 00000470 8F08          MOVL      XAR4,#524288          ; [CPU_U] |1109| 
         00000471 0000 
    2611 00000472 A8A9          MOVL      ACC,XAR4              ; [CPU_] |1109| 
    2612 00000473 0FA6          CMPL      ACC,XAR6              ; [CPU_] |1109| 
    2613 00000474 6648          B         $C$L71,HI             ; [CPU_] |1109| 
    2614                      ; branchcc occurs ; [] |1109| 
    2615 00000475 C446          MOVL      XAR6,*-SP[6]          ; [CPU_] |1109| 
    2616 00000476 8F08          MOVL      XAR4,#557056          ; [CPU_U] |1109| 
         00000477 8000 
    2617 00000478 A8A9          MOVL      ACC,XAR4              ; [CPU_] |1109| 
    2618 00000479 0FA6          CMPL      ACC,XAR6              ; [CPU_] |1109| 
    2619 0000047a 6942          B         $C$L71,LOS            ; [CPU_] |1109| 
    2620                      ; branchcc occurs ; [] |1109| 
    2621                      .dwpsn  file "C:/work/grepos/bootrom/Boot_ROM/F2837x_bootROM-REVB/F2837x_bootROM_dev/F2837x_bootROM/c
    2622 0000047b 0646          MOVL      ACC,*-SP[6]           ; [CPU_] |1112| 
    2623 0000047c 8F00          MOVL      XAR4,#8192            ; [CPU_U] |1112| 
         0000047d 2000 
    2624 0000047e 9B00          MOVB      AH,#0                 ; [CPU_] |1112| 
    2625 0000047f 18A9          AND       AL,#0x1fff            ; [CPU_] |1112| 
         00000480 1FFF 
    2626 00000481 0D4B          ADDU      ACC,*-SP[11]          ; [CPU_] |1112| 
    2627 00000482 0FA4          CMPL      ACC,XAR4              ; [CPU_] |1112| 
    2628 00000483 6911          B         $C$L70,LOS            ; [CPU_] |1112| 
    2629                      ; branchcc occurs ; [] |1112| 
    2630                      .dwpsn  file "C:/work/grepos/bootrom/Boot_ROM/F2837x_bootROM-REVB/F2837x_bootROM_dev/F2837x_bootROM/c
    2631 00000484 1822!         AND       @_DcsmRegsZ1+34,#0xfffe ; [CPU_] |1114| 
         00000485 FFFE 
TMS320C2000 Assembler PC v6.1.3 Thu Jan 30 10:33:25 2014

Tools Copyright (c) 1996-2012 Texas Instruments Incorporated
C:\Users\a0272466\AppData\Local\Temp\0939610                         PAGE   57

    2632                      .dwpsn  file "C:/work/grepos/bootrom/Boot_ROM/F2837x_bootROM-REVB/F2837x_bootROM_dev/F2837x_bootROM/c
    2633 00000486 2B4B          MOV       *-SP[11],#0           ; [CPU_] |1116| 
    2634                      .dwpsn  file "C:/work/grepos/bootrom/Boot_ROM/F2837x_bootROM-REVB/F2837x_bootROM_dev/F2837x_bootROM/c
    2635 00000487 0200          MOVB      ACC,#0                ; [CPU_] |1117| 
    2636 00000488 1E44          MOVL      *-SP[4],ACC           ; [CPU_] |1117| 
    2637                      .dwpsn  file "C:/work/grepos/bootrom/Boot_ROM/F2837x_bootROM-REVB/F2837x_bootROM_dev/F2837x_bootROM/c
    2638 00000489 1E46          MOVL      *-SP[6],ACC           ; [CPU_] |1118| 
    2639                      .dwpsn  file "C:/work/grepos/bootrom/Boot_ROM/F2837x_bootROM-REVB/F2837x_bootROM_dev/F2837x_bootROM/c
    2640 0000048a 2847          MOV       *-SP[7],#65535        ; [CPU_] |1119| 
         0000048b FFFF 
    2641                      .dwpsn  file "C:/work/grepos/bootrom/Boot_ROM/F2837x_bootROM-REVB/F2837x_bootROM_dev/F2837x_bootROM/c
    2642 0000048c 2848          MOV       *-SP[8],#65535        ; [CPU_] |1120| 
         0000048d FFFF 
    2643                      .dwpsn  file "C:/work/grepos/bootrom/Boot_ROM/F2837x_bootROM-REVB/F2837x_bootROM_dev/F2837x_bootROM/c
    2644 0000048e 2849          MOV       *-SP[9],#65535        ; [CPU_] |1121| 
         0000048f FFFF 
    2645                      .dwpsn  file "C:/work/grepos/bootrom/Boot_ROM/F2837x_bootROM-REVB/F2837x_bootROM_dev/F2837x_bootROM/c
    2646 00000490 2B4A          MOV       *-SP[10],#0           ; [CPU_] |1122| 
    2647                      .dwpsn  file "C:/work/grepos/bootrom/Boot_ROM/F2837x_bootROM-REVB/F2837x_bootROM_dev/F2837x_bootROM/c
    2648 00000491 9A00          MOVB      AL,#0                 ; [CPU_] |1123| 
    2649 00000492 FFEF          B         $C$L81,UNC            ; [CPU_] |1123| 
         00000493 012E 
    2650                      ; branch occurs ; [] |1123| 
    2651 00000494       $C$L70:    
    2652                      .dwpsn  file "C:/work/grepos/bootrom/Boot_ROM/F2837x_bootROM-REVB/F2837x_bootROM_dev/F2837x_bootROM/c
    2653 00000494 8F08          MOVL      XAR4,#548864          ; [CPU_U] |1125| 
         00000495 6000 
    2654 00000496 0646          MOVL      ACC,*-SP[6]           ; [CPU_] |1125| 
    2655 00000497 A8AB          MOVL      P,XAR4                ; [CPU_] |1125| 
    2656 00000498 CEAB          AND       AL,PL                 ; [CPU_] |1125| 
    2657 00000499 CFAA          AND       AH,PH                 ; [CPU_] |1125| 
    2658 0000049a 0FA4          CMPL      ACC,XAR4              ; [CPU_] |1125| 
    2659                      .dwpsn  file "C:/work/grepos/bootrom/Boot_ROM/F2837x_bootROM-REVB/F2837x_bootROM_dev/F2837x_bootROM/c
    2660 0000049b 56B1          MOVB      *-SP[9],#6,EQ         ; [CPU_] |1128| 
         0000049c 0649 
    2661                      .dwpsn  file "C:/work/grepos/bootrom/Boot_ROM/F2837x_bootROM-REVB/F2837x_bootROM_dev/F2837x_bootROM/c
    2662 0000049d 56C1          BF        $C$L73,EQ             ; [CPU_] |1129| 
         0000049e 0085 
    2663                      ; branchcc occurs ; [] |1129| 
    2664                      .dwpsn  file "C:/work/grepos/bootrom/Boot_ROM/F2837x_bootROM-REVB/F2837x_bootROM_dev/F2837x_bootROM/c
    2665 0000049f 8F08          MOVL      XAR4,#540672          ; [CPU_U] |1130| 
         000004a0 4000 
    2666 000004a1 0646          MOVL      ACC,*-SP[6]           ; [CPU_] |1130| 
    2667 000004a2 A8AB          MOVL      P,XAR4                ; [CPU_] |1130| 
    2668 000004a3 CEAB          AND       AL,PL                 ; [CPU_] |1130| 
    2669 000004a4 CFAA          AND       AH,PH                 ; [CPU_] |1130| 
    2670 000004a5 0FA4          CMPL      ACC,XAR4              ; [CPU_] |1130| 
    2671                      .dwpsn  file "C:/work/grepos/bootrom/Boot_ROM/F2837x_bootROM-REVB/F2837x_bootROM_dev/F2837x_bootROM/c
    2672 000004a6 56B1          MOVB      *-SP[9],#4,EQ         ; [CPU_] |1133| 
         000004a7 0449 
    2673                      .dwpsn  file "C:/work/grepos/bootrom/Boot_ROM/F2837x_bootROM-REVB/F2837x_bootROM_dev/F2837x_bootROM/c
    2674 000004a8 EC7A          BF        $C$L73,EQ             ; [CPU_] |1134| 
    2675                      ; branchcc occurs ; [] |1134| 
    2676                      .dwpsn  file "C:/work/grepos/bootrom/Boot_ROM/F2837x_bootROM-REVB/F2837x_bootROM_dev/F2837x_bootROM/c
    2677 000004a9 8F08          MOVL      XAR4,#532480          ; [CPU_U] |1135| 
TMS320C2000 Assembler PC v6.1.3 Thu Jan 30 10:33:25 2014

Tools Copyright (c) 1996-2012 Texas Instruments Incorporated
C:\Users\a0272466\AppData\Local\Temp\0939610                         PAGE   58

         000004aa 2000 
    2678 000004ab 0646          MOVL      ACC,*-SP[6]           ; [CPU_] |1135| 
    2679 000004ac A8AB          MOVL      P,XAR4                ; [CPU_] |1135| 
    2680 000004ad CEAB          AND       AL,PL                 ; [CPU_] |1135| 
    2681 000004ae CFAA          AND       AH,PH                 ; [CPU_] |1135| 
    2682 000004af 0FA4          CMPL      ACC,XAR4              ; [CPU_] |1135| 
    2683                      .dwpsn  file "C:/work/grepos/bootrom/Boot_ROM/F2837x_bootROM-REVB/F2837x_bootROM_dev/F2837x_bootROM/c
    2684 000004b0 56B1          MOVB      *-SP[9],#2,EQ         ; [CPU_] |1138| 
         000004b1 0249 
    2685                      .dwpsn  file "C:/work/grepos/bootrom/Boot_ROM/F2837x_bootROM-REVB/F2837x_bootROM_dev/F2837x_bootROM/c
    2686 000004b2 EC70          BF        $C$L73,EQ             ; [CPU_] |1139| 
    2687                      ; branchcc occurs ; [] |1139| 
    2688                      .dwpsn  file "C:/work/grepos/bootrom/Boot_ROM/F2837x_bootROM-REVB/F2837x_bootROM_dev/F2837x_bootROM/c
    2689 000004b3 0646          MOVL      ACC,*-SP[6]           ; [CPU_] |1140| 
    2690 000004b4 8F08          MOVL      XAR4,#524288          ; [CPU_U] |1140| 
         000004b5 0000 
    2691 000004b6 5608          AND       ACC,#8 << 16          ; [CPU_] |1140| 
         000004b7 0008 
    2692 000004b8 0FA4          CMPL      ACC,XAR4              ; [CPU_] |1140| 
    2693 000004b9 ED69          BF        $C$L73,NEQ            ; [CPU_] |1140| 
    2694                      ; branchcc occurs ; [] |1140| 
    2695                      .dwpsn  file "C:/work/grepos/bootrom/Boot_ROM/F2837x_bootROM-REVB/F2837x_bootROM_dev/F2837x_bootROM/c
    2696 000004ba 2B49          MOV       *-SP[9],#0            ; [CPU_] |1143| 
    2697                      .dwpsn  file "C:/work/grepos/bootrom/Boot_ROM/F2837x_bootROM-REVB/F2837x_bootROM_dev/F2837x_bootROM/c
    2698 000004bb 6F67          B         $C$L73,UNC            ; [CPU_] |1145| 
    2699                      ; branch occurs ; [] |1145| 
    2700 000004bc       $C$L71:    
    2701                      .dwpsn  file "C:/work/grepos/bootrom/Boot_ROM/F2837x_bootROM-REVB/F2837x_bootROM_dev/F2837x_bootROM/c
    2702 000004bc 0646          MOVL      ACC,*-SP[6]           ; [CPU_] |1150| 
    2703 000004bd 8F00          MOVL      XAR4,#2048            ; [CPU_U] |1150| 
         000004be 0800 
    2704 000004bf 9B00          MOVB      AH,#0                 ; [CPU_] |1150| 
    2705 000004c0 18A9          AND       AL,#0x07ff            ; [CPU_] |1150| 
         000004c1 07FF 
    2706 000004c2 0D4B          ADDU      ACC,*-SP[11]          ; [CPU_] |1150| 
    2707 000004c3 0FA4          CMPL      ACC,XAR4              ; [CPU_] |1150| 
    2708 000004c4 690F          B         $C$L72,LOS            ; [CPU_] |1150| 
    2709                      ; branchcc occurs ; [] |1150| 
    2710                      .dwpsn  file "C:/work/grepos/bootrom/Boot_ROM/F2837x_bootROM-REVB/F2837x_bootROM_dev/F2837x_bootROM/c
    2711 000004c5 2B4B          MOV       *-SP[11],#0           ; [CPU_] |1153| 
    2712                      .dwpsn  file "C:/work/grepos/bootrom/Boot_ROM/F2837x_bootROM-REVB/F2837x_bootROM_dev/F2837x_bootROM/c
    2713 000004c6 0200          MOVB      ACC,#0                ; [CPU_] |1154| 
    2714 000004c7 1E44          MOVL      *-SP[4],ACC           ; [CPU_] |1154| 
    2715                      .dwpsn  file "C:/work/grepos/bootrom/Boot_ROM/F2837x_bootROM-REVB/F2837x_bootROM_dev/F2837x_bootROM/c
    2716 000004c8 1E46          MOVL      *-SP[6],ACC           ; [CPU_] |1155| 
    2717                      .dwpsn  file "C:/work/grepos/bootrom/Boot_ROM/F2837x_bootROM-REVB/F2837x_bootROM_dev/F2837x_bootROM/c
    2718 000004c9 2847          MOV       *-SP[7],#65535        ; [CPU_] |1156| 
         000004ca FFFF 
    2719                      .dwpsn  file "C:/work/grepos/bootrom/Boot_ROM/F2837x_bootROM-REVB/F2837x_bootROM_dev/F2837x_bootROM/c
    2720 000004cb 2848          MOV       *-SP[8],#65535        ; [CPU_] |1157| 
         000004cc FFFF 
    2721                      .dwpsn  file "C:/work/grepos/bootrom/Boot_ROM/F2837x_bootROM-REVB/F2837x_bootROM_dev/F2837x_bootROM/c
    2722 000004cd 2849          MOV       *-SP[9],#65535        ; [CPU_] |1158| 
         000004ce FFFF 
    2723                      .dwpsn  file "C:/work/grepos/bootrom/Boot_ROM/F2837x_bootROM-REVB/F2837x_bootROM_dev/F2837x_bootROM/c
TMS320C2000 Assembler PC v6.1.3 Thu Jan 30 10:33:25 2014

Tools Copyright (c) 1996-2012 Texas Instruments Incorporated
C:\Users\a0272466\AppData\Local\Temp\0939610                         PAGE   59

    2724 000004cf 2B4A          MOV       *-SP[10],#0           ; [CPU_] |1159| 
    2725                      .dwpsn  file "C:/work/grepos/bootrom/Boot_ROM/F2837x_bootROM-REVB/F2837x_bootROM_dev/F2837x_bootROM/c
    2726 000004d0 9A00          MOVB      AL,#0                 ; [CPU_] |1160| 
    2727 000004d1 FFEF          B         $C$L81,UNC            ; [CPU_] |1160| 
         000004d2 00EF 
    2728                      ; branch occurs ; [] |1160| 
    2729 000004d3       $C$L72:    
    2730                      .dwpsn  file "C:/work/grepos/bootrom/Boot_ROM/F2837x_bootROM-REVB/F2837x_bootROM_dev/F2837x_bootROM/c
    2731 000004d3 0646          MOVL      ACC,*-SP[6]           ; [CPU_] |1164| 
    2732 000004d4 8F00          MOVL      XAR4,#47104           ; [CPU_U] |1164| 
         000004d5 B800 
    2733 000004d6 9B00          MOVB      AH,#0                 ; [CPU_] |1164| 
    2734 000004d7 18A9          AND       AL,#0xb800            ; [CPU_] |1164| 
         000004d8 B800 
    2735 000004d9 0FA4          CMPL      ACC,XAR4              ; [CPU_] |1164| 
    2736                      .dwpsn  file "C:/work/grepos/bootrom/Boot_ROM/F2837x_bootROM-REVB/F2837x_bootROM_dev/F2837x_bootROM/c
    2737 000004da 56B1          MOVB      *-SP[8],#14,EQ        ; [CPU_] |1167| 
         000004db 0E48 
    2738                      .dwpsn  file "C:/work/grepos/bootrom/Boot_ROM/F2837x_bootROM-REVB/F2837x_bootROM_dev/F2837x_bootROM/c
    2739 000004dc EC46          BF        $C$L73,EQ             ; [CPU_] |1168| 
    2740                      ; branchcc occurs ; [] |1168| 
    2741                      .dwpsn  file "C:/work/grepos/bootrom/Boot_ROM/F2837x_bootROM-REVB/F2837x_bootROM_dev/F2837x_bootROM/c
    2742 000004dd 0646          MOVL      ACC,*-SP[6]           ; [CPU_] |1169| 
    2743 000004de 8F00          MOVL      XAR4,#45056           ; [CPU_U] |1169| 
         000004df B000 
    2744 000004e0 9B00          MOVB      AH,#0                 ; [CPU_] |1169| 
    2745 000004e1 18A9          AND       AL,#0xb000            ; [CPU_] |1169| 
         000004e2 B000 
    2746 000004e3 0FA4          CMPL      ACC,XAR4              ; [CPU_] |1169| 
    2747                      .dwpsn  file "C:/work/grepos/bootrom/Boot_ROM/F2837x_bootROM-REVB/F2837x_bootROM_dev/F2837x_bootROM/c
    2748 000004e4 56B1          MOVB      *-SP[8],#12,EQ        ; [CPU_] |1172| 
         000004e5 0C48 
    2749                      .dwpsn  file "C:/work/grepos/bootrom/Boot_ROM/F2837x_bootROM-REVB/F2837x_bootROM_dev/F2837x_bootROM/c
    2750 000004e6 EC3C          BF        $C$L73,EQ             ; [CPU_] |1173| 
    2751                      ; branchcc occurs ; [] |1173| 
    2752                      .dwpsn  file "C:/work/grepos/bootrom/Boot_ROM/F2837x_bootROM-REVB/F2837x_bootROM_dev/F2837x_bootROM/c
    2753 000004e7 0646          MOVL      ACC,*-SP[6]           ; [CPU_] |1174| 
    2754 000004e8 8F00          MOVL      XAR4,#43008           ; [CPU_U] |1174| 
         000004e9 A800 
    2755 000004ea 9B00          MOVB      AH,#0                 ; [CPU_] |1174| 
    2756 000004eb 18A9          AND       AL,#0xa800            ; [CPU_] |1174| 
         000004ec A800 
    2757 000004ed 0FA4          CMPL      ACC,XAR4              ; [CPU_] |1174| 
    2758                      .dwpsn  file "C:/work/grepos/bootrom/Boot_ROM/F2837x_bootROM-REVB/F2837x_bootROM_dev/F2837x_bootROM/c
    2759 000004ee 56B1          MOVB      *-SP[8],#10,EQ        ; [CPU_] |1177| 
         000004ef 0A48 
    2760                      .dwpsn  file "C:/work/grepos/bootrom/Boot_ROM/F2837x_bootROM-REVB/F2837x_bootROM_dev/F2837x_bootROM/c
    2761 000004f0 EC32          BF        $C$L73,EQ             ; [CPU_] |1178| 
    2762                      ; branchcc occurs ; [] |1178| 
    2763                      .dwpsn  file "C:/work/grepos/bootrom/Boot_ROM/F2837x_bootROM-REVB/F2837x_bootROM_dev/F2837x_bootROM/c
    2764 000004f1 0646          MOVL      ACC,*-SP[6]           ; [CPU_] |1179| 
    2765 000004f2 8F00          MOVL      XAR4,#40960           ; [CPU_U] |1179| 
         000004f3 A000 
    2766 000004f4 9B00          MOVB      AH,#0                 ; [CPU_] |1179| 
    2767 000004f5 18A9          AND       AL,#0xa000            ; [CPU_] |1179| 
TMS320C2000 Assembler PC v6.1.3 Thu Jan 30 10:33:25 2014

Tools Copyright (c) 1996-2012 Texas Instruments Incorporated
C:\Users\a0272466\AppData\Local\Temp\0939610                         PAGE   60

         000004f6 A000 
    2768 000004f7 0FA4          CMPL      ACC,XAR4              ; [CPU_] |1179| 
    2769                      .dwpsn  file "C:/work/grepos/bootrom/Boot_ROM/F2837x_bootROM-REVB/F2837x_bootROM_dev/F2837x_bootROM/c
    2770 000004f8 56B1          MOVB      *-SP[8],#8,EQ         ; [CPU_] |1182| 
         000004f9 0848 
    2771                      .dwpsn  file "C:/work/grepos/bootrom/Boot_ROM/F2837x_bootROM-REVB/F2837x_bootROM_dev/F2837x_bootROM/c
    2772 000004fa EC28          BF        $C$L73,EQ             ; [CPU_] |1183| 
    2773                      ; branchcc occurs ; [] |1183| 
    2774                      .dwpsn  file "C:/work/grepos/bootrom/Boot_ROM/F2837x_bootROM-REVB/F2837x_bootROM_dev/F2837x_bootROM/c
    2775 000004fb 0646          MOVL      ACC,*-SP[6]           ; [CPU_] |1184| 
    2776 000004fc 8F00          MOVL      XAR4,#38912           ; [CPU_U] |1184| 
         000004fd 9800 
    2777 000004fe 9B00          MOVB      AH,#0                 ; [CPU_] |1184| 
    2778 000004ff 18A9          AND       AL,#0x9800            ; [CPU_] |1184| 
         00000500 9800 
    2779 00000501 0FA4          CMPL      ACC,XAR4              ; [CPU_] |1184| 
    2780                      .dwpsn  file "C:/work/grepos/bootrom/Boot_ROM/F2837x_bootROM-REVB/F2837x_bootROM_dev/F2837x_bootROM/c
    2781 00000502 56B1          MOVB      *-SP[8],#6,EQ         ; [CPU_] |1187| 
         00000503 0648 
    2782                      .dwpsn  file "C:/work/grepos/bootrom/Boot_ROM/F2837x_bootROM-REVB/F2837x_bootROM_dev/F2837x_bootROM/c
    2783 00000504 EC1E          BF        $C$L73,EQ             ; [CPU_] |1188| 
    2784                      ; branchcc occurs ; [] |1188| 
    2785                      .dwpsn  file "C:/work/grepos/bootrom/Boot_ROM/F2837x_bootROM-REVB/F2837x_bootROM_dev/F2837x_bootROM/c
    2786 00000505 0646          MOVL      ACC,*-SP[6]           ; [CPU_] |1189| 
    2787 00000506 8F00          MOVL      XAR4,#36864           ; [CPU_U] |1189| 
         00000507 9000 
    2788 00000508 9B00          MOVB      AH,#0                 ; [CPU_] |1189| 
    2789 00000509 18A9          AND       AL,#0x9000            ; [CPU_] |1189| 
         0000050a 9000 
    2790 0000050b 0FA4          CMPL      ACC,XAR4              ; [CPU_] |1189| 
    2791                      .dwpsn  file "C:/work/grepos/bootrom/Boot_ROM/F2837x_bootROM-REVB/F2837x_bootROM_dev/F2837x_bootROM/c
    2792 0000050c 56B1          MOVB      *-SP[8],#4,EQ         ; [CPU_] |1192| 
         0000050d 0448 
    2793                      .dwpsn  file "C:/work/grepos/bootrom/Boot_ROM/F2837x_bootROM-REVB/F2837x_bootROM_dev/F2837x_bootROM/c
    2794 0000050e EC14          BF        $C$L73,EQ             ; [CPU_] |1193| 
    2795                      ; branchcc occurs ; [] |1193| 
    2796                      .dwpsn  file "C:/work/grepos/bootrom/Boot_ROM/F2837x_bootROM-REVB/F2837x_bootROM_dev/F2837x_bootROM/c
    2797 0000050f 0646          MOVL      ACC,*-SP[6]           ; [CPU_] |1194| 
    2798 00000510 8F00          MOVL      XAR4,#34816           ; [CPU_U] |1194| 
         00000511 8800 
    2799 00000512 9B00          MOVB      AH,#0                 ; [CPU_] |1194| 
    2800 00000513 18A9          AND       AL,#0x8800            ; [CPU_] |1194| 
         00000514 8800 
    2801 00000515 0FA4          CMPL      ACC,XAR4              ; [CPU_] |1194| 
    2802                      .dwpsn  file "C:/work/grepos/bootrom/Boot_ROM/F2837x_bootROM-REVB/F2837x_bootROM_dev/F2837x_bootROM/c
    2803 00000516 56B1          MOVB      *-SP[8],#2,EQ         ; [CPU_] |1197| 
         00000517 0248 
    2804                      .dwpsn  file "C:/work/grepos/bootrom/Boot_ROM/F2837x_bootROM-REVB/F2837x_bootROM_dev/F2837x_bootROM/c
    2805 00000518 EC0A          BF        $C$L73,EQ             ; [CPU_] |1198| 
    2806                      ; branchcc occurs ; [] |1198| 
    2807                      .dwpsn  file "C:/work/grepos/bootrom/Boot_ROM/F2837x_bootROM-REVB/F2837x_bootROM_dev/F2837x_bootROM/c
    2808 00000519 0646          MOVL      ACC,*-SP[6]           ; [CPU_] |1199| 
    2809 0000051a 8F00          MOVL      XAR4,#32768           ; [CPU_U] |1199| 
         0000051b 8000 
    2810 0000051c 9B00          MOVB      AH,#0                 ; [CPU_] |1199| 
TMS320C2000 Assembler PC v6.1.3 Thu Jan 30 10:33:25 2014

Tools Copyright (c) 1996-2012 Texas Instruments Incorporated
C:\Users\a0272466\AppData\Local\Temp\0939610                         PAGE   61

    2811 0000051d 18A9          AND       AL,#0x8000            ; [CPU_] |1199| 
         0000051e 8000 
    2812 0000051f 0FA4          CMPL      ACC,XAR4              ; [CPU_] |1199| 
    2813 00000520 ED02          BF        $C$L73,NEQ            ; [CPU_] |1199| 
    2814                      ; branchcc occurs ; [] |1199| 
    2815                      .dwpsn  file "C:/work/grepos/bootrom/Boot_ROM/F2837x_bootROM-REVB/F2837x_bootROM_dev/F2837x_bootROM/c
    2816 00000521 2B48          MOV       *-SP[8],#0            ; [CPU_] |1202| 
    2817 00000522       $C$L73:    
    2818                      .dwpsn  file "C:/work/grepos/bootrom/Boot_ROM/F2837x_bootROM-REVB/F2837x_bootROM_dev/F2837x_bootROM/c
    2819 00000522 1B49          CMP       *-SP[9],#65535        ; [CPU_] |1207| 
         00000523 FFFF 
    2820 00000524 ED04          BF        $C$L74,NEQ            ; [CPU_] |1207| 
    2821                      ; branchcc occurs ; [] |1207| 
    2822 00000525 1B48          CMP       *-SP[8],#65535        ; [CPU_] |1207| 
         00000526 FFFF 
    2823 00000527 EC04          BF        $C$L75,EQ             ; [CPU_] |1207| 
    2824                      ; branchcc occurs ; [] |1207| 
    2825 00000528       $C$L74:    
    2826 00000528 1B47          CMP       *-SP[7],#65535        ; [CPU_] |1207| 
         00000529 FFFF 
    2827 0000052a ED13          BF        $C$L76,NEQ            ; [CPU_] |1207| 
    2828                      ; branchcc occurs ; [] |1207| 
    2829 0000052b       $C$L75:    
    2830                      .dwpsn  file "C:/work/grepos/bootrom/Boot_ROM/F2837x_bootROM-REVB/F2837x_bootROM_dev/F2837x_bootROM/c
    2831 0000052b 761F!         MOVW      DP,#_DcsmRegsZ1+34    ; [CPU_U] 
         0000052c 0000 
    2832 0000052d 1822!         AND       @_DcsmRegsZ1+34,#0xfffe ; [CPU_] |1209| 
         0000052e FFFE 
    2833                      .dwpsn  file "C:/work/grepos/bootrom/Boot_ROM/F2837x_bootROM-REVB/F2837x_bootROM_dev/F2837x_bootROM/c
    2834 0000052f 2B4B          MOV       *-SP[11],#0           ; [CPU_] |1211| 
    2835                      .dwpsn  file "C:/work/grepos/bootrom/Boot_ROM/F2837x_bootROM-REVB/F2837x_bootROM_dev/F2837x_bootROM/c
    2836 00000530 0200          MOVB      ACC,#0                ; [CPU_] |1212| 
    2837 00000531 1E44          MOVL      *-SP[4],ACC           ; [CPU_] |1212| 
    2838                      .dwpsn  file "C:/work/grepos/bootrom/Boot_ROM/F2837x_bootROM-REVB/F2837x_bootROM_dev/F2837x_bootROM/c
    2839 00000532 1E46          MOVL      *-SP[6],ACC           ; [CPU_] |1213| 
    2840                      .dwpsn  file "C:/work/grepos/bootrom/Boot_ROM/F2837x_bootROM-REVB/F2837x_bootROM_dev/F2837x_bootROM/c
    2841 00000533 2847          MOV       *-SP[7],#65535        ; [CPU_] |1214| 
         00000534 FFFF 
    2842                      .dwpsn  file "C:/work/grepos/bootrom/Boot_ROM/F2837x_bootROM-REVB/F2837x_bootROM_dev/F2837x_bootROM/c
    2843 00000535 2848          MOV       *-SP[8],#65535        ; [CPU_] |1215| 
         00000536 FFFF 
    2844                      .dwpsn  file "C:/work/grepos/bootrom/Boot_ROM/F2837x_bootROM-REVB/F2837x_bootROM_dev/F2837x_bootROM/c
    2845 00000537 2849          MOV       *-SP[9],#65535        ; [CPU_] |1216| 
         00000538 FFFF 
    2846                      .dwpsn  file "C:/work/grepos/bootrom/Boot_ROM/F2837x_bootROM-REVB/F2837x_bootROM_dev/F2837x_bootROM/c
    2847 00000539 2B4A          MOV       *-SP[10],#0           ; [CPU_] |1217| 
    2848                      .dwpsn  file "C:/work/grepos/bootrom/Boot_ROM/F2837x_bootROM-REVB/F2837x_bootROM_dev/F2837x_bootROM/c
    2849 0000053a 9A00          MOVB      AL,#0                 ; [CPU_] |1218| 
    2850 0000053b FFEF          B         $C$L81,UNC            ; [CPU_] |1218| 
         0000053c 0085 
    2851                      ; branch occurs ; [] |1218| 
    2852 0000053d       $C$L76:    
    2853                      .dwpsn  file "C:/work/grepos/bootrom/Boot_ROM/F2837x_bootROM-REVB/F2837x_bootROM_dev/F2837x_bootROM/c
    2854 0000053d 1B49          CMP       *-SP[9],#65535        ; [CPU_] |1222| 
         0000053e FFFF 
TMS320C2000 Assembler PC v6.1.3 Thu Jan 30 10:33:25 2014

Tools Copyright (c) 1996-2012 Texas Instruments Incorporated
C:\Users\a0272466\AppData\Local\Temp\0939610                         PAGE   62

    2855 0000053f EC1D          BF        $C$L77,EQ             ; [CPU_] |1222| 
    2856                      ; branchcc occurs ; [] |1222| 
    2857                      .dwpsn  file "C:/work/grepos/bootrom/Boot_ROM/F2837x_bootROM-REVB/F2837x_bootROM_dev/F2837x_bootROM/c
    2858 00000540 0203          MOVB      ACC,#3                ; [CPU_] |1224| 
    2859 00000541 2D49          MOV       T,*-SP[9]             ; [CPU_] |1224| 
    2860 00000542 761F!         MOVW      DP,#_DcsmRegsCommon+2 ; [CPU_U] 
         00000543 0000 
    2861 00000544 BE01          MOVB      XAR6,#1               ; [CPU_] |1224| 
    2862 00000545 563B          LSLL      ACC,T                 ; [CPU_] |1224| 
    2863 00000546 CE02!         AND       AL,@_DcsmRegsCommon+2 ; [CPU_] |1224| 
    2864 00000547 CF03!         AND       AH,@_DcsmRegsCommon+3 ; [CPU_] |1224| 
    2865 00000548 5622          LSRL      ACC,T                 ; [CPU_] |1224| 
    2866 00000549 0FA6          CMPL      ACC,XAR6              ; [CPU_] |1224| 
    2867 0000054a EC31          BF        $C$L78,EQ             ; [CPU_] |1224| 
    2868                      ; branchcc occurs ; [] |1224| 
    2869                      .dwpsn  file "C:/work/grepos/bootrom/Boot_ROM/F2837x_bootROM-REVB/F2837x_bootROM_dev/F2837x_bootROM/c
    2870 0000054b 761F!         MOVW      DP,#_DcsmRegsZ1+34    ; [CPU_U] 
         0000054c 0000 
    2871 0000054d 1822!         AND       @_DcsmRegsZ1+34,#0xfffe ; [CPU_] |1226| 
         0000054e FFFE 
    2872                      .dwpsn  file "C:/work/grepos/bootrom/Boot_ROM/F2837x_bootROM-REVB/F2837x_bootROM_dev/F2837x_bootROM/c
    2873 0000054f 2B4B          MOV       *-SP[11],#0           ; [CPU_] |1228| 
    2874                      .dwpsn  file "C:/work/grepos/bootrom/Boot_ROM/F2837x_bootROM-REVB/F2837x_bootROM_dev/F2837x_bootROM/c
    2875 00000550 0200          MOVB      ACC,#0                ; [CPU_] |1229| 
    2876 00000551 1E44          MOVL      *-SP[4],ACC           ; [CPU_] |1229| 
    2877                      .dwpsn  file "C:/work/grepos/bootrom/Boot_ROM/F2837x_bootROM-REVB/F2837x_bootROM_dev/F2837x_bootROM/c
    2878 00000552 1E46          MOVL      *-SP[6],ACC           ; [CPU_] |1230| 
    2879                      .dwpsn  file "C:/work/grepos/bootrom/Boot_ROM/F2837x_bootROM-REVB/F2837x_bootROM_dev/F2837x_bootROM/c
    2880 00000553 2847          MOV       *-SP[7],#65535        ; [CPU_] |1231| 
         00000554 FFFF 
    2881                      .dwpsn  file "C:/work/grepos/bootrom/Boot_ROM/F2837x_bootROM-REVB/F2837x_bootROM_dev/F2837x_bootROM/c
    2882 00000555 2848          MOV       *-SP[8],#65535        ; [CPU_] |1232| 
         00000556 FFFF 
    2883                      .dwpsn  file "C:/work/grepos/bootrom/Boot_ROM/F2837x_bootROM-REVB/F2837x_bootROM_dev/F2837x_bootROM/c
    2884 00000557 2849          MOV       *-SP[9],#65535        ; [CPU_] |1233| 
         00000558 FFFF 
    2885                      .dwpsn  file "C:/work/grepos/bootrom/Boot_ROM/F2837x_bootROM-REVB/F2837x_bootROM_dev/F2837x_bootROM/c
    2886 00000559 2B4A          MOV       *-SP[10],#0           ; [CPU_] |1234| 
    2887                      .dwpsn  file "C:/work/grepos/bootrom/Boot_ROM/F2837x_bootROM-REVB/F2837x_bootROM_dev/F2837x_bootROM/c
    2888 0000055a 9A00          MOVB      AL,#0                 ; [CPU_] |1235| 
    2889 0000055b 6F65          B         $C$L81,UNC            ; [CPU_] |1235| 
    2890                      ; branch occurs ; [] |1235| 
    2891 0000055c       $C$L77:    
    2892                      .dwpsn  file "C:/work/grepos/bootrom/Boot_ROM/F2837x_bootROM-REVB/F2837x_bootROM_dev/F2837x_bootROM/c
    2893 0000055c 1B48          CMP       *-SP[8],#65535        ; [CPU_] |1238| 
         0000055d FFFF 
    2894 0000055e EC1D          BF        $C$L78,EQ             ; [CPU_] |1238| 
    2895                      ; branchcc occurs ; [] |1238| 
    2896                      .dwpsn  file "C:/work/grepos/bootrom/Boot_ROM/F2837x_bootROM-REVB/F2837x_bootROM_dev/F2837x_bootROM/c
    2897 0000055f 0203          MOVB      ACC,#3                ; [CPU_] |1240| 
    2898 00000560 2D48          MOV       T,*-SP[8]             ; [CPU_] |1240| 
    2899 00000561 761F!         MOVW      DP,#_DcsmRegsCommon+4 ; [CPU_U] 
         00000562 0000 
    2900 00000563 BE01          MOVB      XAR6,#1               ; [CPU_] |1240| 
    2901 00000564 563B          LSLL      ACC,T                 ; [CPU_] |1240| 
TMS320C2000 Assembler PC v6.1.3 Thu Jan 30 10:33:25 2014

Tools Copyright (c) 1996-2012 Texas Instruments Incorporated
C:\Users\a0272466\AppData\Local\Temp\0939610                         PAGE   63

    2902 00000565 CE04!         AND       AL,@_DcsmRegsCommon+4 ; [CPU_] |1240| 
    2903 00000566 CF05!         AND       AH,@_DcsmRegsCommon+5 ; [CPU_] |1240| 
    2904 00000567 5622          LSRL      ACC,T                 ; [CPU_] |1240| 
    2905 00000568 0FA6          CMPL      ACC,XAR6              ; [CPU_] |1240| 
    2906 00000569 EC12          BF        $C$L78,EQ             ; [CPU_] |1240| 
    2907                      ; branchcc occurs ; [] |1240| 
    2908                      .dwpsn  file "C:/work/grepos/bootrom/Boot_ROM/F2837x_bootROM-REVB/F2837x_bootROM_dev/F2837x_bootROM/c
    2909 0000056a 761F!         MOVW      DP,#_DcsmRegsZ1+34    ; [CPU_U] 
         0000056b 0000 
    2910 0000056c 1822!         AND       @_DcsmRegsZ1+34,#0xfffe ; [CPU_] |1242| 
         0000056d FFFE 
    2911                      .dwpsn  file "C:/work/grepos/bootrom/Boot_ROM/F2837x_bootROM-REVB/F2837x_bootROM_dev/F2837x_bootROM/c
    2912 0000056e 2B4B          MOV       *-SP[11],#0           ; [CPU_] |1244| 
    2913                      .dwpsn  file "C:/work/grepos/bootrom/Boot_ROM/F2837x_bootROM-REVB/F2837x_bootROM_dev/F2837x_bootROM/c
    2914 0000056f 0200          MOVB      ACC,#0                ; [CPU_] |1245| 
    2915 00000570 1E44          MOVL      *-SP[4],ACC           ; [CPU_] |1245| 
    2916                      .dwpsn  file "C:/work/grepos/bootrom/Boot_ROM/F2837x_bootROM-REVB/F2837x_bootROM_dev/F2837x_bootROM/c
    2917 00000571 1E46          MOVL      *-SP[6],ACC           ; [CPU_] |1246| 
    2918                      .dwpsn  file "C:/work/grepos/bootrom/Boot_ROM/F2837x_bootROM-REVB/F2837x_bootROM_dev/F2837x_bootROM/c
    2919 00000572 2847          MOV       *-SP[7],#65535        ; [CPU_] |1247| 
         00000573 FFFF 
    2920                      .dwpsn  file "C:/work/grepos/bootrom/Boot_ROM/F2837x_bootROM-REVB/F2837x_bootROM_dev/F2837x_bootROM/c
    2921 00000574 2848          MOV       *-SP[8],#65535        ; [CPU_] |1248| 
         00000575 FFFF 
    2922                      .dwpsn  file "C:/work/grepos/bootrom/Boot_ROM/F2837x_bootROM-REVB/F2837x_bootROM_dev/F2837x_bootROM/c
    2923 00000576 2849          MOV       *-SP[9],#65535        ; [CPU_] |1249| 
         00000577 FFFF 
    2924                      .dwpsn  file "C:/work/grepos/bootrom/Boot_ROM/F2837x_bootROM-REVB/F2837x_bootROM_dev/F2837x_bootROM/c
    2925 00000578 2B4A          MOV       *-SP[10],#0           ; [CPU_] |1250| 
    2926                      .dwpsn  file "C:/work/grepos/bootrom/Boot_ROM/F2837x_bootROM-REVB/F2837x_bootROM_dev/F2837x_bootROM/c
    2927 00000579 9A00          MOVB      AL,#0                 ; [CPU_] |1251| 
    2928 0000057a 6F46          B         $C$L81,UNC            ; [CPU_] |1251| 
    2929                      ; branch occurs ; [] |1251| 
    2930 0000057b       $C$L78:    
    2931                      .dwpsn  file "C:/work/grepos/bootrom/Boot_ROM/F2837x_bootROM-REVB/F2837x_bootROM_dev/F2837x_bootROM/c
    2932 0000057b 0203          MOVB      ACC,#3                ; [CPU_] |1255| 
    2933 0000057c 2D47          MOV       T,*-SP[7]             ; [CPU_] |1255| 
    2934 0000057d 761F!         MOVW      DP,#_DcsmRegsCommon+4 ; [CPU_U] 
         0000057e 0000 
    2935 0000057f BE01          MOVB      XAR6,#1               ; [CPU_] |1255| 
    2936 00000580 563B          LSLL      ACC,T                 ; [CPU_] |1255| 
    2937 00000581 CE04!         AND       AL,@_DcsmRegsCommon+4 ; [CPU_] |1255| 
    2938 00000582 CF05!         AND       AH,@_DcsmRegsCommon+5 ; [CPU_] |1255| 
    2939 00000583 5622          LSRL      ACC,T                 ; [CPU_] |1255| 
    2940 00000584 0FA6          CMPL      ACC,XAR6              ; [CPU_] |1255| 
    2941 00000585 EC12          BF        $C$L79,EQ             ; [CPU_] |1255| 
    2942                      ; branchcc occurs ; [] |1255| 
    2943                      .dwpsn  file "C:/work/grepos/bootrom/Boot_ROM/F2837x_bootROM-REVB/F2837x_bootROM_dev/F2837x_bootROM/c
    2944 00000586 761F!         MOVW      DP,#_DcsmRegsZ1+34    ; [CPU_U] 
         00000587 0000 
    2945 00000588 1822!         AND       @_DcsmRegsZ1+34,#0xfffe ; [CPU_] |1257| 
         00000589 FFFE 
    2946                      .dwpsn  file "C:/work/grepos/bootrom/Boot_ROM/F2837x_bootROM-REVB/F2837x_bootROM_dev/F2837x_bootROM/c
    2947 0000058a 2B4B          MOV       *-SP[11],#0           ; [CPU_] |1259| 
    2948                      .dwpsn  file "C:/work/grepos/bootrom/Boot_ROM/F2837x_bootROM-REVB/F2837x_bootROM_dev/F2837x_bootROM/c
TMS320C2000 Assembler PC v6.1.3 Thu Jan 30 10:33:25 2014

Tools Copyright (c) 1996-2012 Texas Instruments Incorporated
C:\Users\a0272466\AppData\Local\Temp\0939610                         PAGE   64

    2949 0000058b 0200          MOVB      ACC,#0                ; [CPU_] |1260| 
    2950 0000058c 1E44          MOVL      *-SP[4],ACC           ; [CPU_] |1260| 
    2951                      .dwpsn  file "C:/work/grepos/bootrom/Boot_ROM/F2837x_bootROM-REVB/F2837x_bootROM_dev/F2837x_bootROM/c
    2952 0000058d 1E46          MOVL      *-SP[6],ACC           ; [CPU_] |1261| 
    2953                      .dwpsn  file "C:/work/grepos/bootrom/Boot_ROM/F2837x_bootROM-REVB/F2837x_bootROM_dev/F2837x_bootROM/c
    2954 0000058e 2847          MOV       *-SP[7],#65535        ; [CPU_] |1262| 
         0000058f FFFF 
    2955                      .dwpsn  file "C:/work/grepos/bootrom/Boot_ROM/F2837x_bootROM-REVB/F2837x_bootROM_dev/F2837x_bootROM/c
    2956 00000590 2848          MOV       *-SP[8],#65535        ; [CPU_] |1263| 
         00000591 FFFF 
    2957                      .dwpsn  file "C:/work/grepos/bootrom/Boot_ROM/F2837x_bootROM-REVB/F2837x_bootROM_dev/F2837x_bootROM/c
    2958 00000592 2849          MOV       *-SP[9],#65535        ; [CPU_] |1264| 
         00000593 FFFF 
    2959                      .dwpsn  file "C:/work/grepos/bootrom/Boot_ROM/F2837x_bootROM-REVB/F2837x_bootROM_dev/F2837x_bootROM/c
    2960 00000594 2B4A          MOV       *-SP[10],#0           ; [CPU_] |1265| 
    2961                      .dwpsn  file "C:/work/grepos/bootrom/Boot_ROM/F2837x_bootROM-REVB/F2837x_bootROM_dev/F2837x_bootROM/c
    2962 00000595 9A00          MOVB      AL,#0                 ; [CPU_] |1266| 
    2963 00000596 6F2A          B         $C$L81,UNC            ; [CPU_] |1266| 
    2964                      ; branch occurs ; [] |1266| 
    2965 00000597       $C$L79:    
    2966                      .dwpsn  file "C:/work/grepos/bootrom/Boot_ROM/F2837x_bootROM-REVB/F2837x_bootROM_dev/F2837x_bootROM/c
    2967 00000597 1B4A          CMP       *-SP[10],#62895       ; [CPU_] |1269| 
         00000598 F5AF 
    2968 00000599 EC12          BF        $C$L80,EQ             ; [CPU_] |1269| 
    2969                      ; branchcc occurs ; [] |1269| 
    2970                      .dwpsn  file "C:/work/grepos/bootrom/Boot_ROM/F2837x_bootROM-REVB/F2837x_bootROM_dev/F2837x_bootROM/c
    2971 0000059a 761F!         MOVW      DP,#_DcsmRegsZ1+34    ; [CPU_U] 
         0000059b 0000 
    2972 0000059c 1822!         AND       @_DcsmRegsZ1+34,#0xfffe ; [CPU_] |1271| 
         0000059d FFFE 
    2973                      .dwpsn  file "C:/work/grepos/bootrom/Boot_ROM/F2837x_bootROM-REVB/F2837x_bootROM_dev/F2837x_bootROM/c
    2974 0000059e 2B4B          MOV       *-SP[11],#0           ; [CPU_] |1273| 
    2975                      .dwpsn  file "C:/work/grepos/bootrom/Boot_ROM/F2837x_bootROM-REVB/F2837x_bootROM_dev/F2837x_bootROM/c
    2976 0000059f 0200          MOVB      ACC,#0                ; [CPU_] |1274| 
    2977 000005a0 1E44          MOVL      *-SP[4],ACC           ; [CPU_] |1274| 
    2978                      .dwpsn  file "C:/work/grepos/bootrom/Boot_ROM/F2837x_bootROM-REVB/F2837x_bootROM_dev/F2837x_bootROM/c
    2979 000005a1 1E46          MOVL      *-SP[6],ACC           ; [CPU_] |1275| 
    2980                      .dwpsn  file "C:/work/grepos/bootrom/Boot_ROM/F2837x_bootROM-REVB/F2837x_bootROM_dev/F2837x_bootROM/c
    2981 000005a2 2847          MOV       *-SP[7],#65535        ; [CPU_] |1276| 
         000005a3 FFFF 
    2982                      .dwpsn  file "C:/work/grepos/bootrom/Boot_ROM/F2837x_bootROM-REVB/F2837x_bootROM_dev/F2837x_bootROM/c
    2983 000005a4 2848          MOV       *-SP[8],#65535        ; [CPU_] |1277| 
         000005a5 FFFF 
    2984                      .dwpsn  file "C:/work/grepos/bootrom/Boot_ROM/F2837x_bootROM-REVB/F2837x_bootROM_dev/F2837x_bootROM/c
    2985 000005a6 2849          MOV       *-SP[9],#65535        ; [CPU_] |1278| 
         000005a7 FFFF 
    2986                      .dwpsn  file "C:/work/grepos/bootrom/Boot_ROM/F2837x_bootROM-REVB/F2837x_bootROM_dev/F2837x_bootROM/c
    2987 000005a8 2B4A          MOV       *-SP[10],#0           ; [CPU_] |1279| 
    2988                      .dwpsn  file "C:/work/grepos/bootrom/Boot_ROM/F2837x_bootROM-REVB/F2837x_bootROM_dev/F2837x_bootROM/c
    2989 000005a9 9A00          MOVB      AL,#0                 ; [CPU_] |1280| 
    2990 000005aa 6F16          B         $C$L81,UNC            ; [CPU_] |1280| 
    2991                      ; branch occurs ; [] |1280| 
    2992 000005ab       $C$L80:    
    2993                      .dwpsn  file "C:/work/grepos/bootrom/Boot_ROM/F2837x_bootROM-REVB/F2837x_bootROM_dev/F2837x_bootROM/c
    2994 000005ab 8A46          MOVL      XAR4,*-SP[6]          ; [CPU_] |1283| 
TMS320C2000 Assembler PC v6.1.3 Thu Jan 30 10:33:25 2014

Tools Copyright (c) 1996-2012 Texas Instruments Incorporated
C:\Users\a0272466\AppData\Local\Temp\0939610                         PAGE   65

    2995 000005ac 8344          MOVL      XAR5,*-SP[4]          ; [CPU_] |1283| 
    2996 000005ad 9241          MOV       AL,*-SP[1]            ; [CPU_] |1283| 
    2997              $C$DW$54        .dwtag  DW_TAG_TI_branch
    2998                      .dwattr $C$DW$54, DW_AT_low_pc(0x00)
    2999                      .dwattr $C$DW$54, DW_AT_name("_CRCCalcZ1")
    3000                      .dwattr $C$DW$54, DW_AT_TI_call
    3001 000005ae 7640!         LCR       #_CRCCalcZ1           ; [CPU_] |1283| 
         000005af 0000 
    3002                      ; call occurs [#_CRCCalcZ1] ; [] |1283| 
    3003 000005b0 964B          MOV       *-SP[11],AL           ; [CPU_] |1283| 
    3004                      .dwpsn  file "C:/work/grepos/bootrom/Boot_ROM/F2837x_bootROM-REVB/F2837x_bootROM_dev/F2837x_bootROM/c
    3005 000005b1 761F!         MOVW      DP,#_DcsmRegsZ1+34    ; [CPU_U] 
         000005b2 0000 
    3006 000005b3 1822!         AND       @_DcsmRegsZ1+34,#0xfffe ; [CPU_] |1285| 
         000005b4 FFFE 
    3007                      .dwpsn  file "C:/work/grepos/bootrom/Boot_ROM/F2837x_bootROM-REVB/F2837x_bootROM_dev/F2837x_bootROM/c
    3008 000005b5 0200          MOVB      ACC,#0                ; [CPU_] |1287| 
    3009 000005b6 1E44          MOVL      *-SP[4],ACC           ; [CPU_] |1287| 
    3010                      .dwpsn  file "C:/work/grepos/bootrom/Boot_ROM/F2837x_bootROM-REVB/F2837x_bootROM_dev/F2837x_bootROM/c
    3011 000005b7 1E46          MOVL      *-SP[6],ACC           ; [CPU_] |1288| 
    3012                      .dwpsn  file "C:/work/grepos/bootrom/Boot_ROM/F2837x_bootROM-REVB/F2837x_bootROM_dev/F2837x_bootROM/c
    3013 000005b8 2847          MOV       *-SP[7],#65535        ; [CPU_] |1289| 
         000005b9 FFFF 
    3014                      .dwpsn  file "C:/work/grepos/bootrom/Boot_ROM/F2837x_bootROM-REVB/F2837x_bootROM_dev/F2837x_bootROM/c
    3015 000005ba 2848          MOV       *-SP[8],#65535        ; [CPU_] |1290| 
         000005bb FFFF 
    3016                      .dwpsn  file "C:/work/grepos/bootrom/Boot_ROM/F2837x_bootROM-REVB/F2837x_bootROM_dev/F2837x_bootROM/c
    3017 000005bc 2849          MOV       *-SP[9],#65535        ; [CPU_] |1291| 
         000005bd FFFF 
    3018                      .dwpsn  file "C:/work/grepos/bootrom/Boot_ROM/F2837x_bootROM-REVB/F2837x_bootROM_dev/F2837x_bootROM/c
    3019 000005be 2B4A          MOV       *-SP[10],#0           ; [CPU_] |1292| 
    3020                      .dwpsn  file "C:/work/grepos/bootrom/Boot_ROM/F2837x_bootROM-REVB/F2837x_bootROM_dev/F2837x_bootROM/c
    3021 000005bf 924B          MOV       AL,*-SP[11]           ; [CPU_] |1294| 
    3022 000005c0       $C$L81:    
    3023                      .dwpsn  file "C:/work/grepos/bootrom/Boot_ROM/F2837x_bootROM-REVB/F2837x_bootROM_dev/F2837x_bootROM/c
    3024 000005c0 FE8C          SUBB      SP,#12                ; [CPU_U] 
    3025                      .dwcfi  cfa_offset, -2
    3026              $C$DW$55        .dwtag  DW_TAG_TI_branch
    3027                      .dwattr $C$DW$55, DW_AT_low_pc(0x00)
    3028                      .dwattr $C$DW$55, DW_AT_TI_return
    3029 000005c1 0006          LRETR     ; [CPU_] 
    3030                      ; return occurs ; [] 
    3031                      .dwattr $C$DW$42, DW_AT_TI_end_file("C:/work/grepos/bootrom/Boot_ROM/F2837x_bootROM-REVB/F2837x_bootR
    3032                      .dwattr $C$DW$42, DW_AT_TI_end_line(0x510)
    3033                      .dwattr $C$DW$42, DW_AT_TI_end_column(0x01)
    3034                      .dwendentry
    3035                      .dwendtag $C$DW$42
    3036              
    3037 000002c3               .sect   "SCCLZ2"
    3038                      .global _SafeCRCCalcZ2
    3039              
    3040              $C$DW$56        .dwtag  DW_TAG_subprogram, DW_AT_name("SafeCRCCalcZ2")
    3041                      .dwattr $C$DW$56, DW_AT_low_pc(_SafeCRCCalcZ2)
    3042                      .dwattr $C$DW$56, DW_AT_high_pc(0x00)
    3043                      .dwattr $C$DW$56, DW_AT_TI_symbol_name("_SafeCRCCalcZ2")
TMS320C2000 Assembler PC v6.1.3 Thu Jan 30 10:33:25 2014

Tools Copyright (c) 1996-2012 Texas Instruments Incorporated
C:\Users\a0272466\AppData\Local\Temp\0939610                         PAGE   66

    3044                      .dwattr $C$DW$56, DW_AT_external
    3045                      .dwattr $C$DW$56, DW_AT_type(*$C$DW$T$21)
    3046                      .dwattr $C$DW$56, DW_AT_TI_begin_file("C:/work/grepos/bootrom/Boot_ROM/F2837x_bootROM-REVB/F2837x_boo
    3047                      .dwattr $C$DW$56, DW_AT_TI_begin_line(0x513)
    3048                      .dwattr $C$DW$56, DW_AT_TI_begin_column(0x08)
    3049                      .dwattr $C$DW$56, DW_AT_TI_max_frame_size(-14)
    3050                      .dwpsn  file "C:/work/grepos/bootrom/Boot_ROM/F2837x_bootROM-REVB/F2837x_bootROM_dev/F2837x_bootROM/c
    3051              
    3052                      .dwfde $C$DW$CIE, _SafeCRCCalcZ2
    3053              $C$DW$57        .dwtag  DW_TAG_formal_parameter, DW_AT_name("len_id")
    3054                      .dwattr $C$DW$57, DW_AT_TI_symbol_name("_len_id")
    3055                      .dwattr $C$DW$57, DW_AT_type(*$C$DW$T$21)
    3056                      .dwattr $C$DW$57, DW_AT_location[DW_OP_reg0]
    3057              $C$DW$58        .dwtag  DW_TAG_formal_parameter, DW_AT_name("dst")
    3058                      .dwattr $C$DW$58, DW_AT_TI_symbol_name("_dst")
    3059                      .dwattr $C$DW$58, DW_AT_type(*$C$DW$T$91)
    3060                      .dwattr $C$DW$58, DW_AT_location[DW_OP_reg12]
    3061              $C$DW$59        .dwtag  DW_TAG_formal_parameter, DW_AT_name("src")
    3062                      .dwattr $C$DW$59, DW_AT_TI_symbol_name("_src")
    3063                      .dwattr $C$DW$59, DW_AT_type(*$C$DW$T$91)
    3064                      .dwattr $C$DW$59, DW_AT_location[DW_OP_reg14]
    3065              
    3066              ;***************************************************************
    3067              ;* FNAME: _SafeCRCCalcZ2                FR SIZE:  12           *
    3068              ;*                                                             *
    3069              ;* FUNCTION ENVIRONMENT                                        *
    3070              ;*                                                             *
    3071              ;* FUNCTION PROPERTIES                                         *
    3072              ;*                            0 Parameter, 11 Auto,  0 SOE     *
    3073              ;***************************************************************
    3074              
    3075 000002c3       _SafeCRCCalcZ2:
    3076                      .dwcfi  cfa_offset, -2
    3077                      .dwcfi  save_reg_to_mem, 26, 0
    3078                      .dwcfi  save_reg_to_reg, 78, 26
    3079 000002c3 FE0C          ADDB      SP,#12                ; [CPU_U] 
    3080                      .dwcfi  cfa_offset, -14
    3081              $C$DW$60        .dwtag  DW_TAG_variable, DW_AT_name("len_id")
    3082                      .dwattr $C$DW$60, DW_AT_TI_symbol_name("_len_id")
    3083                      .dwattr $C$DW$60, DW_AT_type(*$C$DW$T$21)
    3084                      .dwattr $C$DW$60, DW_AT_location[DW_OP_breg20 -1]
    3085              $C$DW$61        .dwtag  DW_TAG_variable, DW_AT_name("dst")
    3086                      .dwattr $C$DW$61, DW_AT_TI_symbol_name("_dst")
    3087                      .dwattr $C$DW$61, DW_AT_type(*$C$DW$T$91)
    3088                      .dwattr $C$DW$61, DW_AT_location[DW_OP_breg20 -4]
    3089              $C$DW$62        .dwtag  DW_TAG_variable, DW_AT_name("src")
    3090                      .dwattr $C$DW$62, DW_AT_TI_symbol_name("_src")
    3091                      .dwattr $C$DW$62, DW_AT_type(*$C$DW$T$91)
    3092                      .dwattr $C$DW$62, DW_AT_location[DW_OP_breg20 -6]
    3093              $C$DW$63        .dwtag  DW_TAG_variable, DW_AT_name("dst_ram")
    3094                      .dwattr $C$DW$63, DW_AT_TI_symbol_name("_dst_ram")
    3095                      .dwattr $C$DW$63, DW_AT_type(*$C$DW$T$21)
    3096                      .dwattr $C$DW$63, DW_AT_location[DW_OP_breg20 -7]
    3097              $C$DW$64        .dwtag  DW_TAG_variable, DW_AT_name("src_ram")
    3098                      .dwattr $C$DW$64, DW_AT_TI_symbol_name("_src_ram")
TMS320C2000 Assembler PC v6.1.3 Thu Jan 30 10:33:25 2014

Tools Copyright (c) 1996-2012 Texas Instruments Incorporated
C:\Users\a0272466\AppData\Local\Temp\0939610                         PAGE   67

    3099                      .dwattr $C$DW$64, DW_AT_type(*$C$DW$T$21)
    3100                      .dwattr $C$DW$64, DW_AT_location[DW_OP_breg20 -8]
    3101              $C$DW$65        .dwtag  DW_TAG_variable, DW_AT_name("src_sect")
    3102                      .dwattr $C$DW$65, DW_AT_TI_symbol_name("_src_sect")
    3103                      .dwattr $C$DW$65, DW_AT_type(*$C$DW$T$21)
    3104                      .dwattr $C$DW$65, DW_AT_location[DW_OP_breg20 -9]
    3105              $C$DW$66        .dwtag  DW_TAG_variable, DW_AT_name("check_var")
    3106                      .dwattr $C$DW$66, DW_AT_TI_symbol_name("_check_var")
    3107                      .dwattr $C$DW$66, DW_AT_type(*$C$DW$T$21)
    3108                      .dwattr $C$DW$66, DW_AT_location[DW_OP_breg20 -10]
    3109              $C$DW$67        .dwtag  DW_TAG_variable, DW_AT_name("size")
    3110                      .dwattr $C$DW$67, DW_AT_TI_symbol_name("_size")
    3111                      .dwattr $C$DW$67, DW_AT_type(*$C$DW$T$21)
    3112                      .dwattr $C$DW$67, DW_AT_location[DW_OP_breg20 -11]
    3113 000002c4 A046          MOVL      *-SP[6],XAR5          ; [CPU_] |1300| 
    3114 000002c5 A844          MOVL      *-SP[4],XAR4          ; [CPU_] |1300| 
    3115 000002c6 9641          MOV       *-SP[1],AL            ; [CPU_] |1300| 
    3116                      .dwpsn  file "C:/work/grepos/bootrom/Boot_ROM/F2837x_bootROM-REVB/F2837x_bootROM_dev/F2837x_bootROM/c
    3117 000002c7 2847          MOV       *-SP[7],#65535        ; [CPU_] |1301| 
         000002c8 FFFF 
    3118                      .dwpsn  file "C:/work/grepos/bootrom/Boot_ROM/F2837x_bootROM-REVB/F2837x_bootROM_dev/F2837x_bootROM/c
    3119 000002c9 2848          MOV       *-SP[8],#65535        ; [CPU_] |1302| 
         000002ca FFFF 
    3120                      .dwpsn  file "C:/work/grepos/bootrom/Boot_ROM/F2837x_bootROM-REVB/F2837x_bootROM_dev/F2837x_bootROM/c
    3121 000002cb 2849          MOV       *-SP[9],#65535        ; [CPU_] |1303| 
         000002cc FFFF 
    3122                      .dwpsn  file "C:/work/grepos/bootrom/Boot_ROM/F2837x_bootROM-REVB/F2837x_bootROM_dev/F2837x_bootROM/c
    3123 000002cd 284A          MOV       *-SP[10],#62895       ; [CPU_] |1304| 
         000002ce F5AF 
    3124                      .dwpsn  file "C:/work/grepos/bootrom/Boot_ROM/F2837x_bootROM-REVB/F2837x_bootROM_dev/F2837x_bootROM/c
    3125 000002cf 2B4B          MOV       *-SP[11],#0           ; [CPU_] |1305| 
    3126                      .dwpsn  file "C:/work/grepos/bootrom/Boot_ROM/F2837x_bootROM-REVB/F2837x_bootROM_dev/F2837x_bootROM/c
    3127 000002d0 761F!         MOVW      DP,#_DcsmRegsZ2+34    ; [CPU_U] 
         000002d1 0000 
    3128 000002d2 1A22!         OR        @_DcsmRegsZ2+34,#0x0001 ; [CPU_] |1308| 
         000002d3 0001 
    3129                      .dwpsn  file "C:/work/grepos/bootrom/Boot_ROM/F2837x_bootROM-REVB/F2837x_bootROM_dev/F2837x_bootROM/c
    3130 000002d4 0644          MOVL      ACC,*-SP[4]           ; [CPU_] |1311| 
    3131 000002d5 EC07          BF        $C$L82,EQ             ; [CPU_] |1311| 
    3132                      ; branchcc occurs ; [] |1311| 
    3133 000002d6 0646          MOVL      ACC,*-SP[6]           ; [CPU_] |1311| 
    3134 000002d7 EC05          BF        $C$L82,EQ             ; [CPU_] |1311| 
    3135                      ; branchcc occurs ; [] |1311| 
    3136 000002d8 9241          MOV       AL,*-SP[1]            ; [CPU_] |1311| 
    3137 000002d9 EC03          BF        $C$L82,EQ             ; [CPU_] |1311| 
    3138                      ; branchcc occurs ; [] |1311| 
    3139 000002da 5208          CMPB      AL,#8                 ; [CPU_] |1311| 
    3140 000002db 6911          B         $C$L83,LOS            ; [CPU_] |1311| 
    3141                      ; branchcc occurs ; [] |1311| 
    3142 000002dc       $C$L82:    
    3143                      .dwpsn  file "C:/work/grepos/bootrom/Boot_ROM/F2837x_bootROM-REVB/F2837x_bootROM_dev/F2837x_bootROM/c
    3144 000002dc 1822!         AND       @_DcsmRegsZ2+34,#0xfffe ; [CPU_] |1313| 
         000002dd FFFE 
    3145                      .dwpsn  file "C:/work/grepos/bootrom/Boot_ROM/F2837x_bootROM-REVB/F2837x_bootROM_dev/F2837x_bootROM/c
    3146 000002de 2B4B          MOV       *-SP[11],#0           ; [CPU_] |1315| 
TMS320C2000 Assembler PC v6.1.3 Thu Jan 30 10:33:25 2014

Tools Copyright (c) 1996-2012 Texas Instruments Incorporated
C:\Users\a0272466\AppData\Local\Temp\0939610                         PAGE   68

    3147                      .dwpsn  file "C:/work/grepos/bootrom/Boot_ROM/F2837x_bootROM-REVB/F2837x_bootROM_dev/F2837x_bootROM/c
    3148 000002df 0200          MOVB      ACC,#0                ; [CPU_] |1316| 
    3149 000002e0 1E44          MOVL      *-SP[4],ACC           ; [CPU_] |1316| 
    3150                      .dwpsn  file "C:/work/grepos/bootrom/Boot_ROM/F2837x_bootROM-REVB/F2837x_bootROM_dev/F2837x_bootROM/c
    3151 000002e1 1E46          MOVL      *-SP[6],ACC           ; [CPU_] |1317| 
    3152                      .dwpsn  file "C:/work/grepos/bootrom/Boot_ROM/F2837x_bootROM-REVB/F2837x_bootROM_dev/F2837x_bootROM/c
    3153 000002e2 2847          MOV       *-SP[7],#65535        ; [CPU_] |1318| 
         000002e3 FFFF 
    3154                      .dwpsn  file "C:/work/grepos/bootrom/Boot_ROM/F2837x_bootROM-REVB/F2837x_bootROM_dev/F2837x_bootROM/c
    3155 000002e4 2848          MOV       *-SP[8],#65535        ; [CPU_] |1319| 
         000002e5 FFFF 
    3156                      .dwpsn  file "C:/work/grepos/bootrom/Boot_ROM/F2837x_bootROM-REVB/F2837x_bootROM_dev/F2837x_bootROM/c
    3157 000002e6 2849          MOV       *-SP[9],#65535        ; [CPU_] |1320| 
         000002e7 FFFF 
    3158                      .dwpsn  file "C:/work/grepos/bootrom/Boot_ROM/F2837x_bootROM-REVB/F2837x_bootROM_dev/F2837x_bootROM/c
    3159 000002e8 2B4A          MOV       *-SP[10],#0           ; [CPU_] |1321| 
    3160                      .dwpsn  file "C:/work/grepos/bootrom/Boot_ROM/F2837x_bootROM-REVB/F2837x_bootROM_dev/F2837x_bootROM/c
    3161 000002e9 9A00          MOVB      AL,#0                 ; [CPU_] |1322| 
    3162 000002ea FFEF          B         $C$L106,UNC           ; [CPU_] |1322| 
         000002eb 02D6 
    3163                      ; branch occurs ; [] |1322| 
    3164 000002ec       $C$L83:    
    3165                      .dwpsn  file "C:/work/grepos/bootrom/Boot_ROM/F2837x_bootROM-REVB/F2837x_bootROM_dev/F2837x_bootROM/c
    3166 000002ec 28AC          MOV       T,#8                  ; [CPU_] |1326| 
         000002ed 0008 
    3167 000002ee 92AC          MOV       AL,T                  ; [CPU_] |1326| 
    3168 000002ef 3B01          SETC      SXM                   ; [CPU_] 
    3169 000002f0 9E41          SUB       AL,*-SP[1]            ; [CPU_] |1326| 
    3170 000002f1 2DA9          MOV       T,AL                  ; [CPU_] |1326| 
    3171 000002f2 28A9          MOV       AL,#2047              ; [CPU_] |1326| 
         000002f3 07FF 
    3172 000002f4 FF62          LSR       AL,T                  ; [CPU_] |1326| 
    3173 000002f5 85A9          MOV       ACC,AL                ; [CPU_] |1326| 
    3174 000002f6 FF5A          MOVL      P,ACC                 ; [CPU_] |1326| 
    3175 000002f7 0646          MOVL      ACC,*-SP[6]           ; [CPU_] |1326| 
    3176 000002f8 CEAB          AND       AL,PL                 ; [CPU_] |1326| 
    3177 000002f9 CFAA          AND       AH,PH                 ; [CPU_] |1326| 
    3178 000002fa FF58          TEST      ACC                   ; [CPU_] |1326| 
    3179 000002fb EC11          BF        $C$L84,EQ             ; [CPU_] |1326| 
    3180                      ; branchcc occurs ; [] |1326| 
    3181                      .dwpsn  file "C:/work/grepos/bootrom/Boot_ROM/F2837x_bootROM-REVB/F2837x_bootROM_dev/F2837x_bootROM/c
    3182 000002fc 1822!         AND       @_DcsmRegsZ2+34,#0xfffe ; [CPU_] |1328| 
         000002fd FFFE 
    3183                      .dwpsn  file "C:/work/grepos/bootrom/Boot_ROM/F2837x_bootROM-REVB/F2837x_bootROM_dev/F2837x_bootROM/c
    3184 000002fe 2B4B          MOV       *-SP[11],#0           ; [CPU_] |1330| 
    3185                      .dwpsn  file "C:/work/grepos/bootrom/Boot_ROM/F2837x_bootROM-REVB/F2837x_bootROM_dev/F2837x_bootROM/c
    3186 000002ff 0200          MOVB      ACC,#0                ; [CPU_] |1331| 
    3187 00000300 1E44          MOVL      *-SP[4],ACC           ; [CPU_] |1331| 
    3188                      .dwpsn  file "C:/work/grepos/bootrom/Boot_ROM/F2837x_bootROM-REVB/F2837x_bootROM_dev/F2837x_bootROM/c
    3189 00000301 1E46          MOVL      *-SP[6],ACC           ; [CPU_] |1332| 
    3190                      .dwpsn  file "C:/work/grepos/bootrom/Boot_ROM/F2837x_bootROM-REVB/F2837x_bootROM_dev/F2837x_bootROM/c
    3191 00000302 2847          MOV       *-SP[7],#65535        ; [CPU_] |1333| 
         00000303 FFFF 
    3192                      .dwpsn  file "C:/work/grepos/bootrom/Boot_ROM/F2837x_bootROM-REVB/F2837x_bootROM_dev/F2837x_bootROM/c
    3193 00000304 2848          MOV       *-SP[8],#65535        ; [CPU_] |1334| 
TMS320C2000 Assembler PC v6.1.3 Thu Jan 30 10:33:25 2014

Tools Copyright (c) 1996-2012 Texas Instruments Incorporated
C:\Users\a0272466\AppData\Local\Temp\0939610                         PAGE   69

         00000305 FFFF 
    3194                      .dwpsn  file "C:/work/grepos/bootrom/Boot_ROM/F2837x_bootROM-REVB/F2837x_bootROM_dev/F2837x_bootROM/c
    3195 00000306 2849          MOV       *-SP[9],#65535        ; [CPU_] |1335| 
         00000307 FFFF 
    3196                      .dwpsn  file "C:/work/grepos/bootrom/Boot_ROM/F2837x_bootROM-REVB/F2837x_bootROM_dev/F2837x_bootROM/c
    3197 00000308 2B4A          MOV       *-SP[10],#0           ; [CPU_] |1336| 
    3198                      .dwpsn  file "C:/work/grepos/bootrom/Boot_ROM/F2837x_bootROM-REVB/F2837x_bootROM_dev/F2837x_bootROM/c
    3199 00000309 9A00          MOVB      AL,#0                 ; [CPU_] |1337| 
    3200 0000030a FFEF          B         $C$L106,UNC           ; [CPU_] |1337| 
         0000030b 02B6 
    3201                      ; branch occurs ; [] |1337| 
    3202 0000030c       $C$L84:    
    3203                      .dwpsn  file "C:/work/grepos/bootrom/Boot_ROM/F2837x_bootROM-REVB/F2837x_bootROM_dev/F2837x_bootROM/c
    3204 0000030c 9241          MOV       AL,*-SP[1]            ; [CPU_] |1341| 
    3205 0000030d 9C03          ADDB      AL,#3                 ; [CPU_] |1341| 
    3206 0000030e 2DA9          MOV       T,AL                  ; [CPU_] |1341| 
    3207 0000030f 9A01          MOVB      AL,#1                 ; [CPU_] |1341| 
    3208 00000310 FF66          LSL       AL,T                  ; [CPU_] |1341| 
    3209 00000311 964B          MOV       *-SP[11],AL           ; [CPU_] |1341| 
    3210                      .dwpsn  file "C:/work/grepos/bootrom/Boot_ROM/F2837x_bootROM-REVB/F2837x_bootROM_dev/F2837x_bootROM/c
    3211 00000312 C444          MOVL      XAR6,*-SP[4]          ; [CPU_] |1346| 
    3212 00000313 2901          CLRC      SXM                   ; [CPU_] 
    3213 00000314 FF20          MOV       ACC,#49152            ; [CPU_] |1346| 
         00000315 C000 
    3214 00000316 0FA6          CMPL      ACC,XAR6              ; [CPU_] |1346| 
    3215 00000317 6906          B         $C$L85,LOS            ; [CPU_] |1346| 
    3216                      ; branchcc occurs ; [] |1346| 
    3217 00000318 C444          MOVL      XAR6,*-SP[4]          ; [CPU_] |1346| 
    3218 00000319 FF20          MOV       ACC,#32768            ; [CPU_] |1346| 
         0000031a 8000 
    3219 0000031b 0FA6          CMPL      ACC,XAR6              ; [CPU_] |1346| 
    3220 0000031c 6911          B         $C$L86,LOS            ; [CPU_] |1346| 
    3221                      ; branchcc occurs ; [] |1346| 
    3222 0000031d       $C$L85:    
    3223                      .dwpsn  file "C:/work/grepos/bootrom/Boot_ROM/F2837x_bootROM-REVB/F2837x_bootROM_dev/F2837x_bootROM/c
    3224 0000031d 1822!         AND       @_DcsmRegsZ2+34,#0xfffe ; [CPU_] |1349| 
         0000031e FFFE 
    3225                      .dwpsn  file "C:/work/grepos/bootrom/Boot_ROM/F2837x_bootROM-REVB/F2837x_bootROM_dev/F2837x_bootROM/c
    3226 0000031f 2B4B          MOV       *-SP[11],#0           ; [CPU_] |1351| 
    3227                      .dwpsn  file "C:/work/grepos/bootrom/Boot_ROM/F2837x_bootROM-REVB/F2837x_bootROM_dev/F2837x_bootROM/c
    3228 00000320 0200          MOVB      ACC,#0                ; [CPU_] |1352| 
    3229 00000321 1E44          MOVL      *-SP[4],ACC           ; [CPU_] |1352| 
    3230                      .dwpsn  file "C:/work/grepos/bootrom/Boot_ROM/F2837x_bootROM-REVB/F2837x_bootROM_dev/F2837x_bootROM/c
    3231 00000322 1E46          MOVL      *-SP[6],ACC           ; [CPU_] |1353| 
    3232                      .dwpsn  file "C:/work/grepos/bootrom/Boot_ROM/F2837x_bootROM-REVB/F2837x_bootROM_dev/F2837x_bootROM/c
    3233 00000323 2847          MOV       *-SP[7],#65535        ; [CPU_] |1354| 
         00000324 FFFF 
    3234                      .dwpsn  file "C:/work/grepos/bootrom/Boot_ROM/F2837x_bootROM-REVB/F2837x_bootROM_dev/F2837x_bootROM/c
    3235 00000325 2848          MOV       *-SP[8],#65535        ; [CPU_] |1355| 
         00000326 FFFF 
    3236                      .dwpsn  file "C:/work/grepos/bootrom/Boot_ROM/F2837x_bootROM-REVB/F2837x_bootROM_dev/F2837x_bootROM/c
    3237 00000327 2849          MOV       *-SP[9],#65535        ; [CPU_] |1356| 
         00000328 FFFF 
    3238                      .dwpsn  file "C:/work/grepos/bootrom/Boot_ROM/F2837x_bootROM-REVB/F2837x_bootROM_dev/F2837x_bootROM/c
    3239 00000329 2B4A          MOV       *-SP[10],#0           ; [CPU_] |1357| 
TMS320C2000 Assembler PC v6.1.3 Thu Jan 30 10:33:25 2014

Tools Copyright (c) 1996-2012 Texas Instruments Incorporated
C:\Users\a0272466\AppData\Local\Temp\0939610                         PAGE   70

    3240                      .dwpsn  file "C:/work/grepos/bootrom/Boot_ROM/F2837x_bootROM-REVB/F2837x_bootROM_dev/F2837x_bootROM/c
    3241 0000032a 9A00          MOVB      AL,#0                 ; [CPU_] |1358| 
    3242 0000032b FFEF          B         $C$L106,UNC           ; [CPU_] |1358| 
         0000032c 0295 
    3243                      ; branch occurs ; [] |1358| 
    3244 0000032d       $C$L86:    
    3245                      .dwpsn  file "C:/work/grepos/bootrom/Boot_ROM/F2837x_bootROM-REVB/F2837x_bootROM_dev/F2837x_bootROM/c
    3246 0000032d 0644          MOVL      ACC,*-SP[4]           ; [CPU_] |1364| 
    3247 0000032e 8F00          MOVL      XAR4,#47104           ; [CPU_U] |1364| 
         0000032f B800 
    3248 00000330 9B00          MOVB      AH,#0                 ; [CPU_] |1364| 
    3249 00000331 18A9          AND       AL,#0xb800            ; [CPU_] |1364| 
         00000332 B800 
    3250 00000333 0FA4          CMPL      ACC,XAR4              ; [CPU_] |1364| 
    3251                      .dwpsn  file "C:/work/grepos/bootrom/Boot_ROM/F2837x_bootROM-REVB/F2837x_bootROM_dev/F2837x_bootROM/c
    3252 00000334 56B1          MOVB      *-SP[7],#14,EQ        ; [CPU_] |1367| 
         00000335 0E47 
    3253                      .dwpsn  file "C:/work/grepos/bootrom/Boot_ROM/F2837x_bootROM-REVB/F2837x_bootROM_dev/F2837x_bootROM/c
    3254 00000336 EC46          BF        $C$L87,EQ             ; [CPU_] |1368| 
    3255                      ; branchcc occurs ; [] |1368| 
    3256                      .dwpsn  file "C:/work/grepos/bootrom/Boot_ROM/F2837x_bootROM-REVB/F2837x_bootROM_dev/F2837x_bootROM/c
    3257 00000337 0644          MOVL      ACC,*-SP[4]           ; [CPU_] |1369| 
    3258 00000338 8F00          MOVL      XAR4,#45056           ; [CPU_U] |1369| 
         00000339 B000 
    3259 0000033a 9B00          MOVB      AH,#0                 ; [CPU_] |1369| 
    3260 0000033b 18A9          AND       AL,#0xb000            ; [CPU_] |1369| 
         0000033c B000 
    3261 0000033d 0FA4          CMPL      ACC,XAR4              ; [CPU_] |1369| 
    3262                      .dwpsn  file "C:/work/grepos/bootrom/Boot_ROM/F2837x_bootROM-REVB/F2837x_bootROM_dev/F2837x_bootROM/c
    3263 0000033e 56B1          MOVB      *-SP[7],#12,EQ        ; [CPU_] |1372| 
         0000033f 0C47 
    3264                      .dwpsn  file "C:/work/grepos/bootrom/Boot_ROM/F2837x_bootROM-REVB/F2837x_bootROM_dev/F2837x_bootROM/c
    3265 00000340 EC3C          BF        $C$L87,EQ             ; [CPU_] |1373| 
    3266                      ; branchcc occurs ; [] |1373| 
    3267                      .dwpsn  file "C:/work/grepos/bootrom/Boot_ROM/F2837x_bootROM-REVB/F2837x_bootROM_dev/F2837x_bootROM/c
    3268 00000341 0644          MOVL      ACC,*-SP[4]           ; [CPU_] |1374| 
    3269 00000342 8F00          MOVL      XAR4,#43008           ; [CPU_U] |1374| 
         00000343 A800 
    3270 00000344 9B00          MOVB      AH,#0                 ; [CPU_] |1374| 
    3271 00000345 18A9          AND       AL,#0xa800            ; [CPU_] |1374| 
         00000346 A800 
    3272 00000347 0FA4          CMPL      ACC,XAR4              ; [CPU_] |1374| 
    3273                      .dwpsn  file "C:/work/grepos/bootrom/Boot_ROM/F2837x_bootROM-REVB/F2837x_bootROM_dev/F2837x_bootROM/c
    3274 00000348 56B1          MOVB      *-SP[7],#10,EQ        ; [CPU_] |1377| 
         00000349 0A47 
    3275                      .dwpsn  file "C:/work/grepos/bootrom/Boot_ROM/F2837x_bootROM-REVB/F2837x_bootROM_dev/F2837x_bootROM/c
    3276 0000034a EC32          BF        $C$L87,EQ             ; [CPU_] |1378| 
    3277                      ; branchcc occurs ; [] |1378| 
    3278                      .dwpsn  file "C:/work/grepos/bootrom/Boot_ROM/F2837x_bootROM-REVB/F2837x_bootROM_dev/F2837x_bootROM/c
    3279 0000034b 0644          MOVL      ACC,*-SP[4]           ; [CPU_] |1379| 
    3280 0000034c 8F00          MOVL      XAR4,#40960           ; [CPU_U] |1379| 
         0000034d A000 
    3281 0000034e 9B00          MOVB      AH,#0                 ; [CPU_] |1379| 
    3282 0000034f 18A9          AND       AL,#0xa000            ; [CPU_] |1379| 
         00000350 A000 
TMS320C2000 Assembler PC v6.1.3 Thu Jan 30 10:33:25 2014

Tools Copyright (c) 1996-2012 Texas Instruments Incorporated
C:\Users\a0272466\AppData\Local\Temp\0939610                         PAGE   71

    3283 00000351 0FA4          CMPL      ACC,XAR4              ; [CPU_] |1379| 
    3284                      .dwpsn  file "C:/work/grepos/bootrom/Boot_ROM/F2837x_bootROM-REVB/F2837x_bootROM_dev/F2837x_bootROM/c
    3285 00000352 56B1          MOVB      *-SP[7],#8,EQ         ; [CPU_] |1382| 
         00000353 0847 
    3286                      .dwpsn  file "C:/work/grepos/bootrom/Boot_ROM/F2837x_bootROM-REVB/F2837x_bootROM_dev/F2837x_bootROM/c
    3287 00000354 EC28          BF        $C$L87,EQ             ; [CPU_] |1383| 
    3288                      ; branchcc occurs ; [] |1383| 
    3289                      .dwpsn  file "C:/work/grepos/bootrom/Boot_ROM/F2837x_bootROM-REVB/F2837x_bootROM_dev/F2837x_bootROM/c
    3290 00000355 0644          MOVL      ACC,*-SP[4]           ; [CPU_] |1384| 
    3291 00000356 8F00          MOVL      XAR4,#38912           ; [CPU_U] |1384| 
         00000357 9800 
    3292 00000358 9B00          MOVB      AH,#0                 ; [CPU_] |1384| 
    3293 00000359 18A9          AND       AL,#0x9800            ; [CPU_] |1384| 
         0000035a 9800 
    3294 0000035b 0FA4          CMPL      ACC,XAR4              ; [CPU_] |1384| 
    3295                      .dwpsn  file "C:/work/grepos/bootrom/Boot_ROM/F2837x_bootROM-REVB/F2837x_bootROM_dev/F2837x_bootROM/c
    3296 0000035c 56B1          MOVB      *-SP[7],#6,EQ         ; [CPU_] |1387| 
         0000035d 0647 
    3297                      .dwpsn  file "C:/work/grepos/bootrom/Boot_ROM/F2837x_bootROM-REVB/F2837x_bootROM_dev/F2837x_bootROM/c
    3298 0000035e EC1E          BF        $C$L87,EQ             ; [CPU_] |1388| 
    3299                      ; branchcc occurs ; [] |1388| 
    3300                      .dwpsn  file "C:/work/grepos/bootrom/Boot_ROM/F2837x_bootROM-REVB/F2837x_bootROM_dev/F2837x_bootROM/c
    3301 0000035f 0644          MOVL      ACC,*-SP[4]           ; [CPU_] |1389| 
    3302 00000360 8F00          MOVL      XAR4,#36864           ; [CPU_U] |1389| 
         00000361 9000 
    3303 00000362 9B00          MOVB      AH,#0                 ; [CPU_] |1389| 
    3304 00000363 18A9          AND       AL,#0x9000            ; [CPU_] |1389| 
         00000364 9000 
    3305 00000365 0FA4          CMPL      ACC,XAR4              ; [CPU_] |1389| 
    3306                      .dwpsn  file "C:/work/grepos/bootrom/Boot_ROM/F2837x_bootROM-REVB/F2837x_bootROM_dev/F2837x_bootROM/c
    3307 00000366 56B1          MOVB      *-SP[7],#4,EQ         ; [CPU_] |1392| 
         00000367 0447 
    3308                      .dwpsn  file "C:/work/grepos/bootrom/Boot_ROM/F2837x_bootROM-REVB/F2837x_bootROM_dev/F2837x_bootROM/c
    3309 00000368 EC14          BF        $C$L87,EQ             ; [CPU_] |1393| 
    3310                      ; branchcc occurs ; [] |1393| 
    3311                      .dwpsn  file "C:/work/grepos/bootrom/Boot_ROM/F2837x_bootROM-REVB/F2837x_bootROM_dev/F2837x_bootROM/c
    3312 00000369 0644          MOVL      ACC,*-SP[4]           ; [CPU_] |1394| 
    3313 0000036a 8F00          MOVL      XAR4,#34816           ; [CPU_U] |1394| 
         0000036b 8800 
    3314 0000036c 9B00          MOVB      AH,#0                 ; [CPU_] |1394| 
    3315 0000036d 18A9          AND       AL,#0x8800            ; [CPU_] |1394| 
         0000036e 8800 
    3316 0000036f 0FA4          CMPL      ACC,XAR4              ; [CPU_] |1394| 
    3317                      .dwpsn  file "C:/work/grepos/bootrom/Boot_ROM/F2837x_bootROM-REVB/F2837x_bootROM_dev/F2837x_bootROM/c
    3318 00000370 56B1          MOVB      *-SP[7],#2,EQ         ; [CPU_] |1397| 
         00000371 0247 
    3319                      .dwpsn  file "C:/work/grepos/bootrom/Boot_ROM/F2837x_bootROM-REVB/F2837x_bootROM_dev/F2837x_bootROM/c
    3320 00000372 EC0A          BF        $C$L87,EQ             ; [CPU_] |1398| 
    3321                      ; branchcc occurs ; [] |1398| 
    3322                      .dwpsn  file "C:/work/grepos/bootrom/Boot_ROM/F2837x_bootROM-REVB/F2837x_bootROM_dev/F2837x_bootROM/c
    3323 00000373 0644          MOVL      ACC,*-SP[4]           ; [CPU_] |1399| 
    3324 00000374 8F00          MOVL      XAR4,#32768           ; [CPU_U] |1399| 
         00000375 8000 
    3325 00000376 9B00          MOVB      AH,#0                 ; [CPU_] |1399| 
    3326 00000377 18A9          AND       AL,#0x8000            ; [CPU_] |1399| 
TMS320C2000 Assembler PC v6.1.3 Thu Jan 30 10:33:25 2014

Tools Copyright (c) 1996-2012 Texas Instruments Incorporated
C:\Users\a0272466\AppData\Local\Temp\0939610                         PAGE   72

         00000378 8000 
    3327 00000379 0FA4          CMPL      ACC,XAR4              ; [CPU_] |1399| 
    3328 0000037a ED02          BF        $C$L87,NEQ            ; [CPU_] |1399| 
    3329                      ; branchcc occurs ; [] |1399| 
    3330                      .dwpsn  file "C:/work/grepos/bootrom/Boot_ROM/F2837x_bootROM-REVB/F2837x_bootROM_dev/F2837x_bootROM/c
    3331 0000037b 2B47          MOV       *-SP[7],#0            ; [CPU_] |1402| 
    3332 0000037c       $C$L87:    
    3333                      .dwpsn  file "C:/work/grepos/bootrom/Boot_ROM/F2837x_bootROM-REVB/F2837x_bootROM_dev/F2837x_bootROM/c
    3334 0000037c 0646          MOVL      ACC,*-SP[6]           ; [CPU_] |1408| 
    3335 0000037d 8F0C          MOVL      XAR4,#786432          ; [CPU_U] |1408| 
         0000037e 0000 
    3336 0000037f 5608          AND       ACC,#12 << 16         ; [CPU_] |1408| 
         00000380 000C 
    3337 00000381 0FA4          CMPL      ACC,XAR4              ; [CPU_] |1408| 
    3338 00000382 ED36          BF        $C$L90,NEQ            ; [CPU_] |1408| 
    3339                      ; branchcc occurs ; [] |1408| 
    3340                      .dwpsn  file "C:/work/grepos/bootrom/Boot_ROM/F2837x_bootROM-REVB/F2837x_bootROM_dev/F2837x_bootROM/c
    3341 00000383 761F!         MOVW      DP,#_DcsmRegsCommon+6 ; [CPU_U] 
         00000384 0000 
    3342 00000385 CC06!         AND       AL,@_DcsmRegsCommon+6,#0x03c0 ; [CPU_] |1412| 
         00000386 03C0 
    3343 00000387 FFC5          LSR       AL,6                  ; [CPU_] |1412| 
    3344 00000388 520F          CMPB      AL,#15                ; [CPU_] |1412| 
    3345 00000389 EC1D          BF        $C$L89,EQ             ; [CPU_] |1412| 
    3346                      ; branchcc occurs ; [] |1412| 
    3347                      .dwpsn  file "C:/work/grepos/bootrom/Boot_ROM/F2837x_bootROM-REVB/F2837x_bootROM_dev/F2837x_bootROM/c
    3348 0000038a 0646          MOVL      ACC,*-SP[6]           ; [CPU_] |1415| 
    3349 0000038b 8F10          MOVL      XAR4,#1048576         ; [CPU_U] |1415| 
         0000038c 0000 
    3350 0000038d 0D4B          ADDU      ACC,*-SP[11]          ; [CPU_] |1415| 
    3351 0000038e 0FA4          CMPL      ACC,XAR4              ; [CPU_] |1415| 
    3352 0000038f 6913          B         $C$L88,LOS            ; [CPU_] |1415| 
    3353                      ; branchcc occurs ; [] |1415| 
    3354                      .dwpsn  file "C:/work/grepos/bootrom/Boot_ROM/F2837x_bootROM-REVB/F2837x_bootROM_dev/F2837x_bootROM/c
    3355 00000390 761F!         MOVW      DP,#_DcsmRegsZ2+34    ; [CPU_U] 
         00000391 0000 
    3356 00000392 1822!         AND       @_DcsmRegsZ2+34,#0xfffe ; [CPU_] |1417| 
         00000393 FFFE 
    3357                      .dwpsn  file "C:/work/grepos/bootrom/Boot_ROM/F2837x_bootROM-REVB/F2837x_bootROM_dev/F2837x_bootROM/c
    3358 00000394 2B4B          MOV       *-SP[11],#0           ; [CPU_] |1419| 
    3359                      .dwpsn  file "C:/work/grepos/bootrom/Boot_ROM/F2837x_bootROM-REVB/F2837x_bootROM_dev/F2837x_bootROM/c
    3360 00000395 0200          MOVB      ACC,#0                ; [CPU_] |1420| 
    3361 00000396 1E44          MOVL      *-SP[4],ACC           ; [CPU_] |1420| 
    3362                      .dwpsn  file "C:/work/grepos/bootrom/Boot_ROM/F2837x_bootROM-REVB/F2837x_bootROM_dev/F2837x_bootROM/c
    3363 00000397 1E46          MOVL      *-SP[6],ACC           ; [CPU_] |1421| 
    3364                      .dwpsn  file "C:/work/grepos/bootrom/Boot_ROM/F2837x_bootROM-REVB/F2837x_bootROM_dev/F2837x_bootROM/c
    3365 00000398 2847          MOV       *-SP[7],#65535        ; [CPU_] |1422| 
         00000399 FFFF 
    3366                      .dwpsn  file "C:/work/grepos/bootrom/Boot_ROM/F2837x_bootROM-REVB/F2837x_bootROM_dev/F2837x_bootROM/c
    3367 0000039a 2848          MOV       *-SP[8],#65535        ; [CPU_] |1423| 
         0000039b FFFF 
    3368                      .dwpsn  file "C:/work/grepos/bootrom/Boot_ROM/F2837x_bootROM-REVB/F2837x_bootROM_dev/F2837x_bootROM/c
    3369 0000039c 2849          MOV       *-SP[9],#65535        ; [CPU_] |1424| 
         0000039d FFFF 
    3370                      .dwpsn  file "C:/work/grepos/bootrom/Boot_ROM/F2837x_bootROM-REVB/F2837x_bootROM_dev/F2837x_bootROM/c
TMS320C2000 Assembler PC v6.1.3 Thu Jan 30 10:33:25 2014

Tools Copyright (c) 1996-2012 Texas Instruments Incorporated
C:\Users\a0272466\AppData\Local\Temp\0939610                         PAGE   73

    3371 0000039e 2B4A          MOV       *-SP[10],#0           ; [CPU_] |1425| 
    3372                      .dwpsn  file "C:/work/grepos/bootrom/Boot_ROM/F2837x_bootROM-REVB/F2837x_bootROM_dev/F2837x_bootROM/c
    3373 0000039f 9A00          MOVB      AL,#0                 ; [CPU_] |1426| 
    3374 000003a0 FFEF          B         $C$L106,UNC           ; [CPU_] |1426| 
         000003a1 0220 
    3375                      ; branch occurs ; [] |1426| 
    3376 000003a2       $C$L88:    
    3377                      .dwpsn  file "C:/work/grepos/bootrom/Boot_ROM/F2837x_bootROM-REVB/F2837x_bootROM_dev/F2837x_bootROM/c
    3378 000003a2 56BF          MOVB      *-SP[9],#28,UNC       ; [CPU_] |1428| 
         000003a3 1C49 
    3379                      .dwpsn  file "C:/work/grepos/bootrom/Boot_ROM/F2837x_bootROM-REVB/F2837x_bootROM_dev/F2837x_bootROM/c
    3380 000003a4 FFEF          B         $C$L98,UNC            ; [CPU_] |1429| 
         000003a5 017E 
    3381                      ; branch occurs ; [] |1429| 
    3382 000003a6       $C$L89:    
    3383                      .dwpsn  file "C:/work/grepos/bootrom/Boot_ROM/F2837x_bootROM-REVB/F2837x_bootROM_dev/F2837x_bootROM/c
    3384 000003a6 761F!         MOVW      DP,#_DcsmRegsZ2+34    ; [CPU_U] 
         000003a7 0000 
    3385 000003a8 1822!         AND       @_DcsmRegsZ2+34,#0xfffe ; [CPU_] |1432| 
         000003a9 FFFE 
    3386                      .dwpsn  file "C:/work/grepos/bootrom/Boot_ROM/F2837x_bootROM-REVB/F2837x_bootROM_dev/F2837x_bootROM/c
    3387 000003aa 2B4B          MOV       *-SP[11],#0           ; [CPU_] |1434| 
    3388                      .dwpsn  file "C:/work/grepos/bootrom/Boot_ROM/F2837x_bootROM-REVB/F2837x_bootROM_dev/F2837x_bootROM/c
    3389 000003ab 0200          MOVB      ACC,#0                ; [CPU_] |1435| 
    3390 000003ac 1E44          MOVL      *-SP[4],ACC           ; [CPU_] |1435| 
    3391                      .dwpsn  file "C:/work/grepos/bootrom/Boot_ROM/F2837x_bootROM-REVB/F2837x_bootROM_dev/F2837x_bootROM/c
    3392 000003ad 1E46          MOVL      *-SP[6],ACC           ; [CPU_] |1436| 
    3393                      .dwpsn  file "C:/work/grepos/bootrom/Boot_ROM/F2837x_bootROM-REVB/F2837x_bootROM_dev/F2837x_bootROM/c
    3394 000003ae 2847          MOV       *-SP[7],#65535        ; [CPU_] |1437| 
         000003af FFFF 
    3395                      .dwpsn  file "C:/work/grepos/bootrom/Boot_ROM/F2837x_bootROM-REVB/F2837x_bootROM_dev/F2837x_bootROM/c
    3396 000003b0 2848          MOV       *-SP[8],#65535        ; [CPU_] |1438| 
         000003b1 FFFF 
    3397                      .dwpsn  file "C:/work/grepos/bootrom/Boot_ROM/F2837x_bootROM-REVB/F2837x_bootROM_dev/F2837x_bootROM/c
    3398 000003b2 2849          MOV       *-SP[9],#65535        ; [CPU_] |1439| 
         000003b3 FFFF 
    3399                      .dwpsn  file "C:/work/grepos/bootrom/Boot_ROM/F2837x_bootROM-REVB/F2837x_bootROM_dev/F2837x_bootROM/c
    3400 000003b4 2B4A          MOV       *-SP[10],#0           ; [CPU_] |1440| 
    3401                      .dwpsn  file "C:/work/grepos/bootrom/Boot_ROM/F2837x_bootROM-REVB/F2837x_bootROM_dev/F2837x_bootROM/c
    3402 000003b5 9A00          MOVB      AL,#0                 ; [CPU_] |1441| 
    3403 000003b6 FFEF          B         $C$L106,UNC           ; [CPU_] |1441| 
         000003b7 020A 
    3404                      ; branch occurs ; [] |1441| 
    3405 000003b8       $C$L90:    
    3406                      .dwpsn  file "C:/work/grepos/bootrom/Boot_ROM/F2837x_bootROM-REVB/F2837x_bootROM_dev/F2837x_bootROM/c
    3407 000003b8 C446          MOVL      XAR6,*-SP[6]          ; [CPU_] |1444| 
    3408 000003b9 8F0B          MOVL      XAR4,#753664          ; [CPU_U] |1444| 
         000003ba 8000 
    3409 000003bb A8A9          MOVL      ACC,XAR4              ; [CPU_] |1444| 
    3410 000003bc 0FA6          CMPL      ACC,XAR6              ; [CPU_] |1444| 
    3411 000003bd 664C          B         $C$L92,HI             ; [CPU_] |1444| 
    3412                      ; branchcc occurs ; [] |1444| 
    3413 000003be C446          MOVL      XAR6,*-SP[6]          ; [CPU_] |1444| 
    3414 000003bf 8F0C          MOVL      XAR4,#786432          ; [CPU_U] |1444| 
         000003c0 0000 
TMS320C2000 Assembler PC v6.1.3 Thu Jan 30 10:33:25 2014

Tools Copyright (c) 1996-2012 Texas Instruments Incorporated
C:\Users\a0272466\AppData\Local\Temp\0939610                         PAGE   74

    3415 000003c1 A8A9          MOVL      ACC,XAR4              ; [CPU_] |1444| 
    3416 000003c2 0FA6          CMPL      ACC,XAR6              ; [CPU_] |1444| 
    3417 000003c3 6946          B         $C$L92,LOS            ; [CPU_] |1444| 
    3418                      ; branchcc occurs ; [] |1444| 
    3419                      .dwpsn  file "C:/work/grepos/bootrom/Boot_ROM/F2837x_bootROM-REVB/F2837x_bootROM_dev/F2837x_bootROM/c
    3420 000003c4 0646          MOVL      ACC,*-SP[6]           ; [CPU_] |1447| 
    3421 000003c5 8F00          MOVL      XAR4,#8192            ; [CPU_U] |1447| 
         000003c6 2000 
    3422 000003c7 9B00          MOVB      AH,#0                 ; [CPU_] |1447| 
    3423 000003c8 18A9          AND       AL,#0x1fff            ; [CPU_] |1447| 
         000003c9 1FFF 
    3424 000003ca 0D4B          ADDU      ACC,*-SP[11]          ; [CPU_] |1447| 
    3425 000003cb 0FA4          CMPL      ACC,XAR4              ; [CPU_] |1447| 
    3426 000003cc 6911          B         $C$L91,LOS            ; [CPU_] |1447| 
    3427                      ; branchcc occurs ; [] |1447| 
    3428                      .dwpsn  file "C:/work/grepos/bootrom/Boot_ROM/F2837x_bootROM-REVB/F2837x_bootROM_dev/F2837x_bootROM/c
    3429 000003cd 1822!         AND       @_DcsmRegsZ2+34,#0xfffe ; [CPU_] |1449| 
         000003ce FFFE 
    3430                      .dwpsn  file "C:/work/grepos/bootrom/Boot_ROM/F2837x_bootROM-REVB/F2837x_bootROM_dev/F2837x_bootROM/c
    3431 000003cf 2B4B          MOV       *-SP[11],#0           ; [CPU_] |1451| 
    3432                      .dwpsn  file "C:/work/grepos/bootrom/Boot_ROM/F2837x_bootROM-REVB/F2837x_bootROM_dev/F2837x_bootROM/c
    3433 000003d0 0200          MOVB      ACC,#0                ; [CPU_] |1452| 
    3434 000003d1 1E44          MOVL      *-SP[4],ACC           ; [CPU_] |1452| 
    3435                      .dwpsn  file "C:/work/grepos/bootrom/Boot_ROM/F2837x_bootROM-REVB/F2837x_bootROM_dev/F2837x_bootROM/c
    3436 000003d2 1E46          MOVL      *-SP[6],ACC           ; [CPU_] |1453| 
    3437                      .dwpsn  file "C:/work/grepos/bootrom/Boot_ROM/F2837x_bootROM-REVB/F2837x_bootROM_dev/F2837x_bootROM/c
    3438 000003d3 2847          MOV       *-SP[7],#65535        ; [CPU_] |1454| 
         000003d4 FFFF 
    3439                      .dwpsn  file "C:/work/grepos/bootrom/Boot_ROM/F2837x_bootROM-REVB/F2837x_bootROM_dev/F2837x_bootROM/c
    3440 000003d5 2848          MOV       *-SP[8],#65535        ; [CPU_] |1455| 
         000003d6 FFFF 
    3441                      .dwpsn  file "C:/work/grepos/bootrom/Boot_ROM/F2837x_bootROM-REVB/F2837x_bootROM_dev/F2837x_bootROM/c
    3442 000003d7 2849          MOV       *-SP[9],#65535        ; [CPU_] |1456| 
         000003d8 FFFF 
    3443                      .dwpsn  file "C:/work/grepos/bootrom/Boot_ROM/F2837x_bootROM-REVB/F2837x_bootROM_dev/F2837x_bootROM/c
    3444 000003d9 2B4A          MOV       *-SP[10],#0           ; [CPU_] |1457| 
    3445                      .dwpsn  file "C:/work/grepos/bootrom/Boot_ROM/F2837x_bootROM-REVB/F2837x_bootROM_dev/F2837x_bootROM/c
    3446 000003da 9A00          MOVB      AL,#0                 ; [CPU_] |1458| 
    3447 000003db FFEF          B         $C$L106,UNC           ; [CPU_] |1458| 
         000003dc 01E5 
    3448                      ; branch occurs ; [] |1458| 
    3449 000003dd       $C$L91:    
    3450                      .dwpsn  file "C:/work/grepos/bootrom/Boot_ROM/F2837x_bootROM-REVB/F2837x_bootROM_dev/F2837x_bootROM/c
    3451 000003dd 8F0B          MOVL      XAR4,#778240          ; [CPU_U] |1460| 
         000003de E000 
    3452 000003df 0646          MOVL      ACC,*-SP[6]           ; [CPU_] |1460| 
    3453 000003e0 A8AB          MOVL      P,XAR4                ; [CPU_] |1460| 
    3454 000003e1 CEAB          AND       AL,PL                 ; [CPU_] |1460| 
    3455 000003e2 CFAA          AND       AH,PH                 ; [CPU_] |1460| 
    3456 000003e3 0FA4          CMPL      ACC,XAR4              ; [CPU_] |1460| 
    3457                      .dwpsn  file "C:/work/grepos/bootrom/Boot_ROM/F2837x_bootROM-REVB/F2837x_bootROM_dev/F2837x_bootROM/c
    3458 000003e4 56B1          MOVB      *-SP[9],#26,EQ        ; [CPU_] |1463| 
         000003e5 1A49 
    3459                      .dwpsn  file "C:/work/grepos/bootrom/Boot_ROM/F2837x_bootROM-REVB/F2837x_bootROM_dev/F2837x_bootROM/c
    3460 000003e6 56C1          BF        $C$L98,EQ             ; [CPU_] |1464| 
TMS320C2000 Assembler PC v6.1.3 Thu Jan 30 10:33:25 2014

Tools Copyright (c) 1996-2012 Texas Instruments Incorporated
C:\Users\a0272466\AppData\Local\Temp\0939610                         PAGE   75

         000003e7 013C 
    3461                      ; branchcc occurs ; [] |1464| 
    3462                      .dwpsn  file "C:/work/grepos/bootrom/Boot_ROM/F2837x_bootROM-REVB/F2837x_bootROM_dev/F2837x_bootROM/c
    3463 000003e8 8F0B          MOVL      XAR4,#770048          ; [CPU_U] |1465| 
         000003e9 C000 
    3464 000003ea 0646          MOVL      ACC,*-SP[6]           ; [CPU_] |1465| 
    3465 000003eb A8AB          MOVL      P,XAR4                ; [CPU_] |1465| 
    3466 000003ec CEAB          AND       AL,PL                 ; [CPU_] |1465| 
    3467 000003ed CFAA          AND       AH,PH                 ; [CPU_] |1465| 
    3468 000003ee 0FA4          CMPL      ACC,XAR4              ; [CPU_] |1465| 
    3469                      .dwpsn  file "C:/work/grepos/bootrom/Boot_ROM/F2837x_bootROM-REVB/F2837x_bootROM_dev/F2837x_bootROM/c
    3470 000003ef 56B1          MOVB      *-SP[9],#24,EQ        ; [CPU_] |1468| 
         000003f0 1849 
    3471                      .dwpsn  file "C:/work/grepos/bootrom/Boot_ROM/F2837x_bootROM-REVB/F2837x_bootROM_dev/F2837x_bootROM/c
    3472 000003f1 56C1          BF        $C$L98,EQ             ; [CPU_] |1469| 
         000003f2 0131 
    3473                      ; branchcc occurs ; [] |1469| 
    3474                      .dwpsn  file "C:/work/grepos/bootrom/Boot_ROM/F2837x_bootROM-REVB/F2837x_bootROM_dev/F2837x_bootROM/c
    3475 000003f3 8F0B          MOVL      XAR4,#761856          ; [CPU_U] |1470| 
         000003f4 A000 
    3476 000003f5 0646          MOVL      ACC,*-SP[6]           ; [CPU_] |1470| 
    3477 000003f6 A8AB          MOVL      P,XAR4                ; [CPU_] |1470| 
    3478 000003f7 CEAB          AND       AL,PL                 ; [CPU_] |1470| 
    3479 000003f8 CFAA          AND       AH,PH                 ; [CPU_] |1470| 
    3480 000003f9 0FA4          CMPL      ACC,XAR4              ; [CPU_] |1470| 
    3481                      .dwpsn  file "C:/work/grepos/bootrom/Boot_ROM/F2837x_bootROM-REVB/F2837x_bootROM_dev/F2837x_bootROM/c
    3482 000003fa 56B1          MOVB      *-SP[9],#22,EQ        ; [CPU_] |1473| 
         000003fb 1649 
    3483                      .dwpsn  file "C:/work/grepos/bootrom/Boot_ROM/F2837x_bootROM-REVB/F2837x_bootROM_dev/F2837x_bootROM/c
    3484 000003fc 56C1          BF        $C$L98,EQ             ; [CPU_] |1474| 
         000003fd 0126 
    3485                      ; branchcc occurs ; [] |1474| 
    3486                      .dwpsn  file "C:/work/grepos/bootrom/Boot_ROM/F2837x_bootROM-REVB/F2837x_bootROM_dev/F2837x_bootROM/c
    3487 000003fe 8F0B          MOVL      XAR4,#753664          ; [CPU_U] |1475| 
         000003ff 8000 
    3488 00000400 0646          MOVL      ACC,*-SP[6]           ; [CPU_] |1475| 
    3489 00000401 A8AB          MOVL      P,XAR4                ; [CPU_] |1475| 
    3490 00000402 CEAB          AND       AL,PL                 ; [CPU_] |1475| 
    3491 00000403 CFAA          AND       AH,PH                 ; [CPU_] |1475| 
    3492 00000404 0FA4          CMPL      ACC,XAR4              ; [CPU_] |1475| 
    3493                      .dwpsn  file "C:/work/grepos/bootrom/Boot_ROM/F2837x_bootROM-REVB/F2837x_bootROM_dev/F2837x_bootROM/c
    3494 00000405 56B1          MOVB      *-SP[9],#20,EQ        ; [CPU_] |1478| 
         00000406 1449 
    3495                      .dwpsn  file "C:/work/grepos/bootrom/Boot_ROM/F2837x_bootROM-REVB/F2837x_bootROM_dev/F2837x_bootROM/c
    3496 00000407 FFEF          B         $C$L98,UNC            ; [CPU_] |1480| 
         00000408 011B 
    3497                      ; branch occurs ; [] |1480| 
    3498 00000409       $C$L92:    
    3499                      .dwpsn  file "C:/work/grepos/bootrom/Boot_ROM/F2837x_bootROM-REVB/F2837x_bootROM_dev/F2837x_bootROM/c
    3500 00000409 C446          MOVL      XAR6,*-SP[6]          ; [CPU_] |1481| 
    3501 0000040a 8F08          MOVL      XAR4,#557056          ; [CPU_U] |1481| 
         0000040b 8000 
    3502 0000040c A8A9          MOVL      ACC,XAR4              ; [CPU_] |1481| 
    3503 0000040d 0FA6          CMPL      ACC,XAR6              ; [CPU_] |1481| 
    3504 0000040e 6661          B         $C$L94,HI             ; [CPU_] |1481| 
TMS320C2000 Assembler PC v6.1.3 Thu Jan 30 10:33:25 2014

Tools Copyright (c) 1996-2012 Texas Instruments Incorporated
C:\Users\a0272466\AppData\Local\Temp\0939610                         PAGE   76

    3505                      ; branchcc occurs ; [] |1481| 
    3506 0000040f C446          MOVL      XAR6,*-SP[6]          ; [CPU_] |1481| 
    3507 00000410 8F0B          MOVL      XAR4,#753664          ; [CPU_U] |1481| 
         00000411 8000 
    3508 00000412 A8A9          MOVL      ACC,XAR4              ; [CPU_] |1481| 
    3509 00000413 0FA6          CMPL      ACC,XAR6              ; [CPU_] |1481| 
    3510 00000414 695B          B         $C$L94,LOS            ; [CPU_] |1481| 
    3511                      ; branchcc occurs ; [] |1481| 
    3512                      .dwpsn  file "C:/work/grepos/bootrom/Boot_ROM/F2837x_bootROM-REVB/F2837x_bootROM_dev/F2837x_bootROM/c
    3513 00000415 0646          MOVL      ACC,*-SP[6]           ; [CPU_] |1484| 
    3514 00000416 8F00          MOVL      XAR4,#32768           ; [CPU_U] |1484| 
         00000417 8000 
    3515 00000418 9B00          MOVB      AH,#0                 ; [CPU_] |1484| 
    3516 00000419 18A9          AND       AL,#0x7fff            ; [CPU_] |1484| 
         0000041a 7FFF 
    3517 0000041b 0D4B          ADDU      ACC,*-SP[11]          ; [CPU_] |1484| 
    3518 0000041c 0FA4          CMPL      ACC,XAR4              ; [CPU_] |1484| 
    3519 0000041d 6911          B         $C$L93,LOS            ; [CPU_] |1484| 
    3520                      ; branchcc occurs ; [] |1484| 
    3521                      .dwpsn  file "C:/work/grepos/bootrom/Boot_ROM/F2837x_bootROM-REVB/F2837x_bootROM_dev/F2837x_bootROM/c
    3522 0000041e 1822!         AND       @_DcsmRegsZ2+34,#0xfffe ; [CPU_] |1486| 
         0000041f FFFE 
    3523                      .dwpsn  file "C:/work/grepos/bootrom/Boot_ROM/F2837x_bootROM-REVB/F2837x_bootROM_dev/F2837x_bootROM/c
    3524 00000420 2B4B          MOV       *-SP[11],#0           ; [CPU_] |1488| 
    3525                      .dwpsn  file "C:/work/grepos/bootrom/Boot_ROM/F2837x_bootROM-REVB/F2837x_bootROM_dev/F2837x_bootROM/c
    3526 00000421 0200          MOVB      ACC,#0                ; [CPU_] |1489| 
    3527 00000422 1E44          MOVL      *-SP[4],ACC           ; [CPU_] |1489| 
    3528                      .dwpsn  file "C:/work/grepos/bootrom/Boot_ROM/F2837x_bootROM-REVB/F2837x_bootROM_dev/F2837x_bootROM/c
    3529 00000423 1E46          MOVL      *-SP[6],ACC           ; [CPU_] |1490| 
    3530                      .dwpsn  file "C:/work/grepos/bootrom/Boot_ROM/F2837x_bootROM-REVB/F2837x_bootROM_dev/F2837x_bootROM/c
    3531 00000424 2847          MOV       *-SP[7],#65535        ; [CPU_] |1491| 
         00000425 FFFF 
    3532                      .dwpsn  file "C:/work/grepos/bootrom/Boot_ROM/F2837x_bootROM-REVB/F2837x_bootROM_dev/F2837x_bootROM/c
    3533 00000426 2848          MOV       *-SP[8],#65535        ; [CPU_] |1492| 
         00000427 FFFF 
    3534                      .dwpsn  file "C:/work/grepos/bootrom/Boot_ROM/F2837x_bootROM-REVB/F2837x_bootROM_dev/F2837x_bootROM/c
    3535 00000428 2849          MOV       *-SP[9],#65535        ; [CPU_] |1493| 
         00000429 FFFF 
    3536                      .dwpsn  file "C:/work/grepos/bootrom/Boot_ROM/F2837x_bootROM-REVB/F2837x_bootROM_dev/F2837x_bootROM/c
    3537 0000042a 2B4A          MOV       *-SP[10],#0           ; [CPU_] |1494| 
    3538                      .dwpsn  file "C:/work/grepos/bootrom/Boot_ROM/F2837x_bootROM-REVB/F2837x_bootROM_dev/F2837x_bootROM/c
    3539 0000042b 9A00          MOVB      AL,#0                 ; [CPU_] |1495| 
    3540 0000042c FFEF          B         $C$L106,UNC           ; [CPU_] |1495| 
         0000042d 0194 
    3541                      ; branch occurs ; [] |1495| 
    3542 0000042e       $C$L93:    
    3543                      .dwpsn  file "C:/work/grepos/bootrom/Boot_ROM/F2837x_bootROM-REVB/F2837x_bootROM_dev/F2837x_bootROM/c
    3544 0000042e 8F0B          MOVL      XAR4,#720896          ; [CPU_U] |1497| 
         0000042f 0000 
    3545 00000430 0646          MOVL      ACC,*-SP[6]           ; [CPU_] |1497| 
    3546 00000431 A8AB          MOVL      P,XAR4                ; [CPU_] |1497| 
    3547 00000432 CEAB          AND       AL,PL                 ; [CPU_] |1497| 
    3548 00000433 CFAA          AND       AH,PH                 ; [CPU_] |1497| 
    3549 00000434 0FA4          CMPL      ACC,XAR4              ; [CPU_] |1497| 
    3550                      .dwpsn  file "C:/work/grepos/bootrom/Boot_ROM/F2837x_bootROM-REVB/F2837x_bootROM_dev/F2837x_bootROM/c
TMS320C2000 Assembler PC v6.1.3 Thu Jan 30 10:33:25 2014

Tools Copyright (c) 1996-2012 Texas Instruments Incorporated
C:\Users\a0272466\AppData\Local\Temp\0939610                         PAGE   77

    3551 00000435 56B1          MOVB      *-SP[9],#18,EQ        ; [CPU_] |1500| 
         00000436 1249 
    3552                      .dwpsn  file "C:/work/grepos/bootrom/Boot_ROM/F2837x_bootROM-REVB/F2837x_bootROM_dev/F2837x_bootROM/c
    3553 00000437 56C1          BF        $C$L98,EQ             ; [CPU_] |1501| 
         00000438 00EB 
    3554                      ; branchcc occurs ; [] |1501| 
    3555                      .dwpsn  file "C:/work/grepos/bootrom/Boot_ROM/F2837x_bootROM-REVB/F2837x_bootROM_dev/F2837x_bootROM/c
    3556 00000439 8F0A          MOVL      XAR4,#688128          ; [CPU_U] |1502| 
         0000043a 8000 
    3557 0000043b 0646          MOVL      ACC,*-SP[6]           ; [CPU_] |1502| 
    3558 0000043c A8AB          MOVL      P,XAR4                ; [CPU_] |1502| 
    3559 0000043d CEAB          AND       AL,PL                 ; [CPU_] |1502| 
    3560 0000043e CFAA          AND       AH,PH                 ; [CPU_] |1502| 
    3561 0000043f 0FA4          CMPL      ACC,XAR4              ; [CPU_] |1502| 
    3562                      .dwpsn  file "C:/work/grepos/bootrom/Boot_ROM/F2837x_bootROM-REVB/F2837x_bootROM_dev/F2837x_bootROM/c
    3563 00000440 56B1          MOVB      *-SP[9],#16,EQ        ; [CPU_] |1505| 
         00000441 1049 
    3564                      .dwpsn  file "C:/work/grepos/bootrom/Boot_ROM/F2837x_bootROM-REVB/F2837x_bootROM_dev/F2837x_bootROM/c
    3565 00000442 56C1          BF        $C$L98,EQ             ; [CPU_] |1506| 
         00000443 00E0 
    3566                      ; branchcc occurs ; [] |1506| 
    3567                      .dwpsn  file "C:/work/grepos/bootrom/Boot_ROM/F2837x_bootROM-REVB/F2837x_bootROM_dev/F2837x_bootROM/c
    3568 00000444 0646          MOVL      ACC,*-SP[6]           ; [CPU_] |1507| 
    3569 00000445 8F0A          MOVL      XAR4,#655360          ; [CPU_U] |1507| 
         00000446 0000 
    3570 00000447 5608          AND       ACC,#10 << 16         ; [CPU_] |1507| 
         00000448 000A 
    3571 00000449 0FA4          CMPL      ACC,XAR4              ; [CPU_] |1507| 
    3572                      .dwpsn  file "C:/work/grepos/bootrom/Boot_ROM/F2837x_bootROM-REVB/F2837x_bootROM_dev/F2837x_bootROM/c
    3573 0000044a 56B1          MOVB      *-SP[9],#14,EQ        ; [CPU_] |1510| 
         0000044b 0E49 
    3574                      .dwpsn  file "C:/work/grepos/bootrom/Boot_ROM/F2837x_bootROM-REVB/F2837x_bootROM_dev/F2837x_bootROM/c
    3575 0000044c 56C1          BF        $C$L98,EQ             ; [CPU_] |1511| 
         0000044d 00D6 
    3576                      ; branchcc occurs ; [] |1511| 
    3577                      .dwpsn  file "C:/work/grepos/bootrom/Boot_ROM/F2837x_bootROM-REVB/F2837x_bootROM_dev/F2837x_bootROM/c
    3578 0000044e 8F09          MOVL      XAR4,#622592          ; [CPU_U] |1512| 
         0000044f 8000 
    3579 00000450 0646          MOVL      ACC,*-SP[6]           ; [CPU_] |1512| 
    3580 00000451 A8AB          MOVL      P,XAR4                ; [CPU_] |1512| 
    3581 00000452 CEAB          AND       AL,PL                 ; [CPU_] |1512| 
    3582 00000453 CFAA          AND       AH,PH                 ; [CPU_] |1512| 
    3583 00000454 0FA4          CMPL      ACC,XAR4              ; [CPU_] |1512| 
    3584                      .dwpsn  file "C:/work/grepos/bootrom/Boot_ROM/F2837x_bootROM-REVB/F2837x_bootROM_dev/F2837x_bootROM/c
    3585 00000455 56B1          MOVB      *-SP[9],#12,EQ        ; [CPU_] |1515| 
         00000456 0C49 
    3586                      .dwpsn  file "C:/work/grepos/bootrom/Boot_ROM/F2837x_bootROM-REVB/F2837x_bootROM_dev/F2837x_bootROM/c
    3587 00000457 56C1          BF        $C$L98,EQ             ; [CPU_] |1516| 
         00000458 00CB 
    3588                      ; branchcc occurs ; [] |1516| 
    3589                      .dwpsn  file "C:/work/grepos/bootrom/Boot_ROM/F2837x_bootROM-REVB/F2837x_bootROM_dev/F2837x_bootROM/c
    3590 00000459 8F09          MOVL      XAR4,#589824          ; [CPU_U] |1517| 
         0000045a 0000 
    3591 0000045b 0646          MOVL      ACC,*-SP[6]           ; [CPU_] |1517| 
    3592 0000045c A8AB          MOVL      P,XAR4                ; [CPU_] |1517| 
TMS320C2000 Assembler PC v6.1.3 Thu Jan 30 10:33:25 2014

Tools Copyright (c) 1996-2012 Texas Instruments Incorporated
C:\Users\a0272466\AppData\Local\Temp\0939610                         PAGE   78

    3593 0000045d CEAB          AND       AL,PL                 ; [CPU_] |1517| 
    3594 0000045e CFAA          AND       AH,PH                 ; [CPU_] |1517| 
    3595 0000045f 0FA4          CMPL      ACC,XAR4              ; [CPU_] |1517| 
    3596                      .dwpsn  file "C:/work/grepos/bootrom/Boot_ROM/F2837x_bootROM-REVB/F2837x_bootROM_dev/F2837x_bootROM/c
    3597 00000460 56B1          MOVB      *-SP[9],#10,EQ        ; [CPU_] |1520| 
         00000461 0A49 
    3598                      .dwpsn  file "C:/work/grepos/bootrom/Boot_ROM/F2837x_bootROM-REVB/F2837x_bootROM_dev/F2837x_bootROM/c
    3599 00000462 56C1          BF        $C$L98,EQ             ; [CPU_] |1521| 
         00000463 00C0 
    3600                      ; branchcc occurs ; [] |1521| 
    3601                      .dwpsn  file "C:/work/grepos/bootrom/Boot_ROM/F2837x_bootROM-REVB/F2837x_bootROM_dev/F2837x_bootROM/c
    3602 00000464 8F08          MOVL      XAR4,#557056          ; [CPU_U] |1522| 
         00000465 8000 
    3603 00000466 0646          MOVL      ACC,*-SP[6]           ; [CPU_] |1522| 
    3604 00000467 A8AB          MOVL      P,XAR4                ; [CPU_] |1522| 
    3605 00000468 CEAB          AND       AL,PL                 ; [CPU_] |1522| 
    3606 00000469 CFAA          AND       AH,PH                 ; [CPU_] |1522| 
    3607 0000046a 0FA4          CMPL      ACC,XAR4              ; [CPU_] |1522| 
    3608                      .dwpsn  file "C:/work/grepos/bootrom/Boot_ROM/F2837x_bootROM-REVB/F2837x_bootROM_dev/F2837x_bootROM/c
    3609 0000046b 56B1          MOVB      *-SP[9],#8,EQ         ; [CPU_] |1525| 
         0000046c 0849 
    3610                      .dwpsn  file "C:/work/grepos/bootrom/Boot_ROM/F2837x_bootROM-REVB/F2837x_bootROM_dev/F2837x_bootROM/c
    3611 0000046d FFEF          B         $C$L98,UNC            ; [CPU_] |1527| 
         0000046e 00B5 
    3612                      ; branch occurs ; [] |1527| 
    3613 0000046f       $C$L94:    
    3614                      .dwpsn  file "C:/work/grepos/bootrom/Boot_ROM/F2837x_bootROM-REVB/F2837x_bootROM_dev/F2837x_bootROM/c
    3615 0000046f C446          MOVL      XAR6,*-SP[6]          ; [CPU_] |1528| 
    3616 00000470 8F08          MOVL      XAR4,#524288          ; [CPU_U] |1528| 
         00000471 0000 
    3617 00000472 A8A9          MOVL      ACC,XAR4              ; [CPU_] |1528| 
    3618 00000473 0FA6          CMPL      ACC,XAR6              ; [CPU_] |1528| 
    3619 00000474 6648          B         $C$L96,HI             ; [CPU_] |1528| 
    3620                      ; branchcc occurs ; [] |1528| 
    3621 00000475 C446          MOVL      XAR6,*-SP[6]          ; [CPU_] |1528| 
    3622 00000476 8F08          MOVL      XAR4,#557056          ; [CPU_U] |1528| 
         00000477 8000 
    3623 00000478 A8A9          MOVL      ACC,XAR4              ; [CPU_] |1528| 
    3624 00000479 0FA6          CMPL      ACC,XAR6              ; [CPU_] |1528| 
    3625 0000047a 6942          B         $C$L96,LOS            ; [CPU_] |1528| 
    3626                      ; branchcc occurs ; [] |1528| 
    3627                      .dwpsn  file "C:/work/grepos/bootrom/Boot_ROM/F2837x_bootROM-REVB/F2837x_bootROM_dev/F2837x_bootROM/c
    3628 0000047b 0646          MOVL      ACC,*-SP[6]           ; [CPU_] |1531| 
    3629 0000047c 8F00          MOVL      XAR4,#8192            ; [CPU_U] |1531| 
         0000047d 2000 
    3630 0000047e 9B00          MOVB      AH,#0                 ; [CPU_] |1531| 
    3631 0000047f 18A9          AND       AL,#0x1fff            ; [CPU_] |1531| 
         00000480 1FFF 
    3632 00000481 0D4B          ADDU      ACC,*-SP[11]          ; [CPU_] |1531| 
    3633 00000482 0FA4          CMPL      ACC,XAR4              ; [CPU_] |1531| 
    3634 00000483 6911          B         $C$L95,LOS            ; [CPU_] |1531| 
    3635                      ; branchcc occurs ; [] |1531| 
    3636                      .dwpsn  file "C:/work/grepos/bootrom/Boot_ROM/F2837x_bootROM-REVB/F2837x_bootROM_dev/F2837x_bootROM/c
    3637 00000484 1822!         AND       @_DcsmRegsZ2+34,#0xfffe ; [CPU_] |1533| 
         00000485 FFFE 
TMS320C2000 Assembler PC v6.1.3 Thu Jan 30 10:33:25 2014

Tools Copyright (c) 1996-2012 Texas Instruments Incorporated
C:\Users\a0272466\AppData\Local\Temp\0939610                         PAGE   79

    3638                      .dwpsn  file "C:/work/grepos/bootrom/Boot_ROM/F2837x_bootROM-REVB/F2837x_bootROM_dev/F2837x_bootROM/c
    3639 00000486 2B4B          MOV       *-SP[11],#0           ; [CPU_] |1535| 
    3640                      .dwpsn  file "C:/work/grepos/bootrom/Boot_ROM/F2837x_bootROM-REVB/F2837x_bootROM_dev/F2837x_bootROM/c
    3641 00000487 0200          MOVB      ACC,#0                ; [CPU_] |1536| 
    3642 00000488 1E44          MOVL      *-SP[4],ACC           ; [CPU_] |1536| 
    3643                      .dwpsn  file "C:/work/grepos/bootrom/Boot_ROM/F2837x_bootROM-REVB/F2837x_bootROM_dev/F2837x_bootROM/c
    3644 00000489 1E46          MOVL      *-SP[6],ACC           ; [CPU_] |1537| 
    3645                      .dwpsn  file "C:/work/grepos/bootrom/Boot_ROM/F2837x_bootROM-REVB/F2837x_bootROM_dev/F2837x_bootROM/c
    3646 0000048a 2847          MOV       *-SP[7],#65535        ; [CPU_] |1538| 
         0000048b FFFF 
    3647                      .dwpsn  file "C:/work/grepos/bootrom/Boot_ROM/F2837x_bootROM-REVB/F2837x_bootROM_dev/F2837x_bootROM/c
    3648 0000048c 2848          MOV       *-SP[8],#65535        ; [CPU_] |1539| 
         0000048d FFFF 
    3649                      .dwpsn  file "C:/work/grepos/bootrom/Boot_ROM/F2837x_bootROM-REVB/F2837x_bootROM_dev/F2837x_bootROM/c
    3650 0000048e 2849          MOV       *-SP[9],#65535        ; [CPU_] |1540| 
         0000048f FFFF 
    3651                      .dwpsn  file "C:/work/grepos/bootrom/Boot_ROM/F2837x_bootROM-REVB/F2837x_bootROM_dev/F2837x_bootROM/c
    3652 00000490 2B4A          MOV       *-SP[10],#0           ; [CPU_] |1541| 
    3653                      .dwpsn  file "C:/work/grepos/bootrom/Boot_ROM/F2837x_bootROM-REVB/F2837x_bootROM_dev/F2837x_bootROM/c
    3654 00000491 9A00          MOVB      AL,#0                 ; [CPU_] |1542| 
    3655 00000492 FFEF          B         $C$L106,UNC           ; [CPU_] |1542| 
         00000493 012E 
    3656                      ; branch occurs ; [] |1542| 
    3657 00000494       $C$L95:    
    3658                      .dwpsn  file "C:/work/grepos/bootrom/Boot_ROM/F2837x_bootROM-REVB/F2837x_bootROM_dev/F2837x_bootROM/c
    3659 00000494 8F08          MOVL      XAR4,#548864          ; [CPU_U] |1544| 
         00000495 6000 
    3660 00000496 0646          MOVL      ACC,*-SP[6]           ; [CPU_] |1544| 
    3661 00000497 A8AB          MOVL      P,XAR4                ; [CPU_] |1544| 
    3662 00000498 CEAB          AND       AL,PL                 ; [CPU_] |1544| 
    3663 00000499 CFAA          AND       AH,PH                 ; [CPU_] |1544| 
    3664 0000049a 0FA4          CMPL      ACC,XAR4              ; [CPU_] |1544| 
    3665                      .dwpsn  file "C:/work/grepos/bootrom/Boot_ROM/F2837x_bootROM-REVB/F2837x_bootROM_dev/F2837x_bootROM/c
    3666 0000049b 56B1          MOVB      *-SP[9],#6,EQ         ; [CPU_] |1547| 
         0000049c 0649 
    3667                      .dwpsn  file "C:/work/grepos/bootrom/Boot_ROM/F2837x_bootROM-REVB/F2837x_bootROM_dev/F2837x_bootROM/c
    3668 0000049d 56C1          BF        $C$L98,EQ             ; [CPU_] |1548| 
         0000049e 0085 
    3669                      ; branchcc occurs ; [] |1548| 
    3670                      .dwpsn  file "C:/work/grepos/bootrom/Boot_ROM/F2837x_bootROM-REVB/F2837x_bootROM_dev/F2837x_bootROM/c
    3671 0000049f 8F08          MOVL      XAR4,#540672          ; [CPU_U] |1549| 
         000004a0 4000 
    3672 000004a1 0646          MOVL      ACC,*-SP[6]           ; [CPU_] |1549| 
    3673 000004a2 A8AB          MOVL      P,XAR4                ; [CPU_] |1549| 
    3674 000004a3 CEAB          AND       AL,PL                 ; [CPU_] |1549| 
    3675 000004a4 CFAA          AND       AH,PH                 ; [CPU_] |1549| 
    3676 000004a5 0FA4          CMPL      ACC,XAR4              ; [CPU_] |1549| 
    3677                      .dwpsn  file "C:/work/grepos/bootrom/Boot_ROM/F2837x_bootROM-REVB/F2837x_bootROM_dev/F2837x_bootROM/c
    3678 000004a6 56B1          MOVB      *-SP[9],#4,EQ         ; [CPU_] |1552| 
         000004a7 0449 
    3679                      .dwpsn  file "C:/work/grepos/bootrom/Boot_ROM/F2837x_bootROM-REVB/F2837x_bootROM_dev/F2837x_bootROM/c
    3680 000004a8 EC7A          BF        $C$L98,EQ             ; [CPU_] |1553| 
    3681                      ; branchcc occurs ; [] |1553| 
    3682                      .dwpsn  file "C:/work/grepos/bootrom/Boot_ROM/F2837x_bootROM-REVB/F2837x_bootROM_dev/F2837x_bootROM/c
    3683 000004a9 8F08          MOVL      XAR4,#532480          ; [CPU_U] |1554| 
TMS320C2000 Assembler PC v6.1.3 Thu Jan 30 10:33:25 2014

Tools Copyright (c) 1996-2012 Texas Instruments Incorporated
C:\Users\a0272466\AppData\Local\Temp\0939610                         PAGE   80

         000004aa 2000 
    3684 000004ab 0646          MOVL      ACC,*-SP[6]           ; [CPU_] |1554| 
    3685 000004ac A8AB          MOVL      P,XAR4                ; [CPU_] |1554| 
    3686 000004ad CEAB          AND       AL,PL                 ; [CPU_] |1554| 
    3687 000004ae CFAA          AND       AH,PH                 ; [CPU_] |1554| 
    3688 000004af 0FA4          CMPL      ACC,XAR4              ; [CPU_] |1554| 
    3689                      .dwpsn  file "C:/work/grepos/bootrom/Boot_ROM/F2837x_bootROM-REVB/F2837x_bootROM_dev/F2837x_bootROM/c
    3690 000004b0 56B1          MOVB      *-SP[9],#2,EQ         ; [CPU_] |1557| 
         000004b1 0249 
    3691                      .dwpsn  file "C:/work/grepos/bootrom/Boot_ROM/F2837x_bootROM-REVB/F2837x_bootROM_dev/F2837x_bootROM/c
    3692 000004b2 EC70          BF        $C$L98,EQ             ; [CPU_] |1558| 
    3693                      ; branchcc occurs ; [] |1558| 
    3694                      .dwpsn  file "C:/work/grepos/bootrom/Boot_ROM/F2837x_bootROM-REVB/F2837x_bootROM_dev/F2837x_bootROM/c
    3695 000004b3 0646          MOVL      ACC,*-SP[6]           ; [CPU_] |1559| 
    3696 000004b4 8F08          MOVL      XAR4,#524288          ; [CPU_U] |1559| 
         000004b5 0000 
    3697 000004b6 5608          AND       ACC,#8 << 16          ; [CPU_] |1559| 
         000004b7 0008 
    3698 000004b8 0FA4          CMPL      ACC,XAR4              ; [CPU_] |1559| 
    3699 000004b9 ED69          BF        $C$L98,NEQ            ; [CPU_] |1559| 
    3700                      ; branchcc occurs ; [] |1559| 
    3701                      .dwpsn  file "C:/work/grepos/bootrom/Boot_ROM/F2837x_bootROM-REVB/F2837x_bootROM_dev/F2837x_bootROM/c
    3702 000004ba 2B49          MOV       *-SP[9],#0            ; [CPU_] |1562| 
    3703                      .dwpsn  file "C:/work/grepos/bootrom/Boot_ROM/F2837x_bootROM-REVB/F2837x_bootROM_dev/F2837x_bootROM/c
    3704 000004bb 6F67          B         $C$L98,UNC            ; [CPU_] |1564| 
    3705                      ; branch occurs ; [] |1564| 
    3706 000004bc       $C$L96:    
    3707                      .dwpsn  file "C:/work/grepos/bootrom/Boot_ROM/F2837x_bootROM-REVB/F2837x_bootROM_dev/F2837x_bootROM/c
    3708 000004bc 0646          MOVL      ACC,*-SP[6]           ; [CPU_] |1569| 
    3709 000004bd 8F00          MOVL      XAR4,#2048            ; [CPU_U] |1569| 
         000004be 0800 
    3710 000004bf 9B00          MOVB      AH,#0                 ; [CPU_] |1569| 
    3711 000004c0 18A9          AND       AL,#0x07ff            ; [CPU_] |1569| 
         000004c1 07FF 
    3712 000004c2 0D4B          ADDU      ACC,*-SP[11]          ; [CPU_] |1569| 
    3713 000004c3 0FA4          CMPL      ACC,XAR4              ; [CPU_] |1569| 
    3714 000004c4 690F          B         $C$L97,LOS            ; [CPU_] |1569| 
    3715                      ; branchcc occurs ; [] |1569| 
    3716                      .dwpsn  file "C:/work/grepos/bootrom/Boot_ROM/F2837x_bootROM-REVB/F2837x_bootROM_dev/F2837x_bootROM/c
    3717 000004c5 2B4B          MOV       *-SP[11],#0           ; [CPU_] |1572| 
    3718                      .dwpsn  file "C:/work/grepos/bootrom/Boot_ROM/F2837x_bootROM-REVB/F2837x_bootROM_dev/F2837x_bootROM/c
    3719 000004c6 0200          MOVB      ACC,#0                ; [CPU_] |1573| 
    3720 000004c7 1E44          MOVL      *-SP[4],ACC           ; [CPU_] |1573| 
    3721                      .dwpsn  file "C:/work/grepos/bootrom/Boot_ROM/F2837x_bootROM-REVB/F2837x_bootROM_dev/F2837x_bootROM/c
    3722 000004c8 1E46          MOVL      *-SP[6],ACC           ; [CPU_] |1574| 
    3723                      .dwpsn  file "C:/work/grepos/bootrom/Boot_ROM/F2837x_bootROM-REVB/F2837x_bootROM_dev/F2837x_bootROM/c
    3724 000004c9 2847          MOV       *-SP[7],#65535        ; [CPU_] |1575| 
         000004ca FFFF 
    3725                      .dwpsn  file "C:/work/grepos/bootrom/Boot_ROM/F2837x_bootROM-REVB/F2837x_bootROM_dev/F2837x_bootROM/c
    3726 000004cb 2848          MOV       *-SP[8],#65535        ; [CPU_] |1576| 
         000004cc FFFF 
    3727                      .dwpsn  file "C:/work/grepos/bootrom/Boot_ROM/F2837x_bootROM-REVB/F2837x_bootROM_dev/F2837x_bootROM/c
    3728 000004cd 2849          MOV       *-SP[9],#65535        ; [CPU_] |1577| 
         000004ce FFFF 
    3729                      .dwpsn  file "C:/work/grepos/bootrom/Boot_ROM/F2837x_bootROM-REVB/F2837x_bootROM_dev/F2837x_bootROM/c
TMS320C2000 Assembler PC v6.1.3 Thu Jan 30 10:33:25 2014

Tools Copyright (c) 1996-2012 Texas Instruments Incorporated
C:\Users\a0272466\AppData\Local\Temp\0939610                         PAGE   81

    3730 000004cf 2B4A          MOV       *-SP[10],#0           ; [CPU_] |1578| 
    3731                      .dwpsn  file "C:/work/grepos/bootrom/Boot_ROM/F2837x_bootROM-REVB/F2837x_bootROM_dev/F2837x_bootROM/c
    3732 000004d0 9A00          MOVB      AL,#0                 ; [CPU_] |1579| 
    3733 000004d1 FFEF          B         $C$L106,UNC           ; [CPU_] |1579| 
         000004d2 00EF 
    3734                      ; branch occurs ; [] |1579| 
    3735 000004d3       $C$L97:    
    3736                      .dwpsn  file "C:/work/grepos/bootrom/Boot_ROM/F2837x_bootROM-REVB/F2837x_bootROM_dev/F2837x_bootROM/c
    3737 000004d3 0646          MOVL      ACC,*-SP[6]           ; [CPU_] |1583| 
    3738 000004d4 8F00          MOVL      XAR4,#47104           ; [CPU_U] |1583| 
         000004d5 B800 
    3739 000004d6 9B00          MOVB      AH,#0                 ; [CPU_] |1583| 
    3740 000004d7 18A9          AND       AL,#0xb800            ; [CPU_] |1583| 
         000004d8 B800 
    3741 000004d9 0FA4          CMPL      ACC,XAR4              ; [CPU_] |1583| 
    3742                      .dwpsn  file "C:/work/grepos/bootrom/Boot_ROM/F2837x_bootROM-REVB/F2837x_bootROM_dev/F2837x_bootROM/c
    3743 000004da 56B1          MOVB      *-SP[8],#14,EQ        ; [CPU_] |1586| 
         000004db 0E48 
    3744                      .dwpsn  file "C:/work/grepos/bootrom/Boot_ROM/F2837x_bootROM-REVB/F2837x_bootROM_dev/F2837x_bootROM/c
    3745 000004dc EC46          BF        $C$L98,EQ             ; [CPU_] |1587| 
    3746                      ; branchcc occurs ; [] |1587| 
    3747                      .dwpsn  file "C:/work/grepos/bootrom/Boot_ROM/F2837x_bootROM-REVB/F2837x_bootROM_dev/F2837x_bootROM/c
    3748 000004dd 0646          MOVL      ACC,*-SP[6]           ; [CPU_] |1588| 
    3749 000004de 8F00          MOVL      XAR4,#45056           ; [CPU_U] |1588| 
         000004df B000 
    3750 000004e0 9B00          MOVB      AH,#0                 ; [CPU_] |1588| 
    3751 000004e1 18A9          AND       AL,#0xb000            ; [CPU_] |1588| 
         000004e2 B000 
    3752 000004e3 0FA4          CMPL      ACC,XAR4              ; [CPU_] |1588| 
    3753                      .dwpsn  file "C:/work/grepos/bootrom/Boot_ROM/F2837x_bootROM-REVB/F2837x_bootROM_dev/F2837x_bootROM/c
    3754 000004e4 56B1          MOVB      *-SP[8],#12,EQ        ; [CPU_] |1591| 
         000004e5 0C48 
    3755                      .dwpsn  file "C:/work/grepos/bootrom/Boot_ROM/F2837x_bootROM-REVB/F2837x_bootROM_dev/F2837x_bootROM/c
    3756 000004e6 EC3C          BF        $C$L98,EQ             ; [CPU_] |1592| 
    3757                      ; branchcc occurs ; [] |1592| 
    3758                      .dwpsn  file "C:/work/grepos/bootrom/Boot_ROM/F2837x_bootROM-REVB/F2837x_bootROM_dev/F2837x_bootROM/c
    3759 000004e7 0646          MOVL      ACC,*-SP[6]           ; [CPU_] |1593| 
    3760 000004e8 8F00          MOVL      XAR4,#43008           ; [CPU_U] |1593| 
         000004e9 A800 
    3761 000004ea 9B00          MOVB      AH,#0                 ; [CPU_] |1593| 
    3762 000004eb 18A9          AND       AL,#0xa800            ; [CPU_] |1593| 
         000004ec A800 
    3763 000004ed 0FA4          CMPL      ACC,XAR4              ; [CPU_] |1593| 
    3764                      .dwpsn  file "C:/work/grepos/bootrom/Boot_ROM/F2837x_bootROM-REVB/F2837x_bootROM_dev/F2837x_bootROM/c
    3765 000004ee 56B1          MOVB      *-SP[8],#10,EQ        ; [CPU_] |1596| 
         000004ef 0A48 
    3766                      .dwpsn  file "C:/work/grepos/bootrom/Boot_ROM/F2837x_bootROM-REVB/F2837x_bootROM_dev/F2837x_bootROM/c
    3767 000004f0 EC32          BF        $C$L98,EQ             ; [CPU_] |1597| 
    3768                      ; branchcc occurs ; [] |1597| 
    3769                      .dwpsn  file "C:/work/grepos/bootrom/Boot_ROM/F2837x_bootROM-REVB/F2837x_bootROM_dev/F2837x_bootROM/c
    3770 000004f1 0646          MOVL      ACC,*-SP[6]           ; [CPU_] |1598| 
    3771 000004f2 8F00          MOVL      XAR4,#40960           ; [CPU_U] |1598| 
         000004f3 A000 
    3772 000004f4 9B00          MOVB      AH,#0                 ; [CPU_] |1598| 
    3773 000004f5 18A9          AND       AL,#0xa000            ; [CPU_] |1598| 
TMS320C2000 Assembler PC v6.1.3 Thu Jan 30 10:33:25 2014

Tools Copyright (c) 1996-2012 Texas Instruments Incorporated
C:\Users\a0272466\AppData\Local\Temp\0939610                         PAGE   82

         000004f6 A000 
    3774 000004f7 0FA4          CMPL      ACC,XAR4              ; [CPU_] |1598| 
    3775                      .dwpsn  file "C:/work/grepos/bootrom/Boot_ROM/F2837x_bootROM-REVB/F2837x_bootROM_dev/F2837x_bootROM/c
    3776 000004f8 56B1          MOVB      *-SP[8],#8,EQ         ; [CPU_] |1601| 
         000004f9 0848 
    3777                      .dwpsn  file "C:/work/grepos/bootrom/Boot_ROM/F2837x_bootROM-REVB/F2837x_bootROM_dev/F2837x_bootROM/c
    3778 000004fa EC28          BF        $C$L98,EQ             ; [CPU_] |1602| 
    3779                      ; branchcc occurs ; [] |1602| 
    3780                      .dwpsn  file "C:/work/grepos/bootrom/Boot_ROM/F2837x_bootROM-REVB/F2837x_bootROM_dev/F2837x_bootROM/c
    3781 000004fb 0646          MOVL      ACC,*-SP[6]           ; [CPU_] |1603| 
    3782 000004fc 8F00          MOVL      XAR4,#38912           ; [CPU_U] |1603| 
         000004fd 9800 
    3783 000004fe 9B00          MOVB      AH,#0                 ; [CPU_] |1603| 
    3784 000004ff 18A9          AND       AL,#0x9800            ; [CPU_] |1603| 
         00000500 9800 
    3785 00000501 0FA4          CMPL      ACC,XAR4              ; [CPU_] |1603| 
    3786                      .dwpsn  file "C:/work/grepos/bootrom/Boot_ROM/F2837x_bootROM-REVB/F2837x_bootROM_dev/F2837x_bootROM/c
    3787 00000502 56B1          MOVB      *-SP[8],#6,EQ         ; [CPU_] |1606| 
         00000503 0648 
    3788                      .dwpsn  file "C:/work/grepos/bootrom/Boot_ROM/F2837x_bootROM-REVB/F2837x_bootROM_dev/F2837x_bootROM/c
    3789 00000504 EC1E          BF        $C$L98,EQ             ; [CPU_] |1607| 
    3790                      ; branchcc occurs ; [] |1607| 
    3791                      .dwpsn  file "C:/work/grepos/bootrom/Boot_ROM/F2837x_bootROM-REVB/F2837x_bootROM_dev/F2837x_bootROM/c
    3792 00000505 0646          MOVL      ACC,*-SP[6]           ; [CPU_] |1608| 
    3793 00000506 8F00          MOVL      XAR4,#36864           ; [CPU_U] |1608| 
         00000507 9000 
    3794 00000508 9B00          MOVB      AH,#0                 ; [CPU_] |1608| 
    3795 00000509 18A9          AND       AL,#0x9000            ; [CPU_] |1608| 
         0000050a 9000 
    3796 0000050b 0FA4          CMPL      ACC,XAR4              ; [CPU_] |1608| 
    3797                      .dwpsn  file "C:/work/grepos/bootrom/Boot_ROM/F2837x_bootROM-REVB/F2837x_bootROM_dev/F2837x_bootROM/c
    3798 0000050c 56B1          MOVB      *-SP[8],#4,EQ         ; [CPU_] |1611| 
         0000050d 0448 
    3799                      .dwpsn  file "C:/work/grepos/bootrom/Boot_ROM/F2837x_bootROM-REVB/F2837x_bootROM_dev/F2837x_bootROM/c
    3800 0000050e EC14          BF        $C$L98,EQ             ; [CPU_] |1612| 
    3801                      ; branchcc occurs ; [] |1612| 
    3802                      .dwpsn  file "C:/work/grepos/bootrom/Boot_ROM/F2837x_bootROM-REVB/F2837x_bootROM_dev/F2837x_bootROM/c
    3803 0000050f 0646          MOVL      ACC,*-SP[6]           ; [CPU_] |1613| 
    3804 00000510 8F00          MOVL      XAR4,#34816           ; [CPU_U] |1613| 
         00000511 8800 
    3805 00000512 9B00          MOVB      AH,#0                 ; [CPU_] |1613| 
    3806 00000513 18A9          AND       AL,#0x8800            ; [CPU_] |1613| 
         00000514 8800 
    3807 00000515 0FA4          CMPL      ACC,XAR4              ; [CPU_] |1613| 
    3808                      .dwpsn  file "C:/work/grepos/bootrom/Boot_ROM/F2837x_bootROM-REVB/F2837x_bootROM_dev/F2837x_bootROM/c
    3809 00000516 56B1          MOVB      *-SP[8],#2,EQ         ; [CPU_] |1616| 
         00000517 0248 
    3810                      .dwpsn  file "C:/work/grepos/bootrom/Boot_ROM/F2837x_bootROM-REVB/F2837x_bootROM_dev/F2837x_bootROM/c
    3811 00000518 EC0A          BF        $C$L98,EQ             ; [CPU_] |1617| 
    3812                      ; branchcc occurs ; [] |1617| 
    3813                      .dwpsn  file "C:/work/grepos/bootrom/Boot_ROM/F2837x_bootROM-REVB/F2837x_bootROM_dev/F2837x_bootROM/c
    3814 00000519 0646          MOVL      ACC,*-SP[6]           ; [CPU_] |1618| 
    3815 0000051a 8F00          MOVL      XAR4,#32768           ; [CPU_U] |1618| 
         0000051b 8000 
    3816 0000051c 9B00          MOVB      AH,#0                 ; [CPU_] |1618| 
TMS320C2000 Assembler PC v6.1.3 Thu Jan 30 10:33:25 2014

Tools Copyright (c) 1996-2012 Texas Instruments Incorporated
C:\Users\a0272466\AppData\Local\Temp\0939610                         PAGE   83

    3817 0000051d 18A9          AND       AL,#0x8000            ; [CPU_] |1618| 
         0000051e 8000 
    3818 0000051f 0FA4          CMPL      ACC,XAR4              ; [CPU_] |1618| 
    3819 00000520 ED02          BF        $C$L98,NEQ            ; [CPU_] |1618| 
    3820                      ; branchcc occurs ; [] |1618| 
    3821                      .dwpsn  file "C:/work/grepos/bootrom/Boot_ROM/F2837x_bootROM-REVB/F2837x_bootROM_dev/F2837x_bootROM/c
    3822 00000521 2B48          MOV       *-SP[8],#0            ; [CPU_] |1621| 
    3823 00000522       $C$L98:    
    3824                      .dwpsn  file "C:/work/grepos/bootrom/Boot_ROM/F2837x_bootROM-REVB/F2837x_bootROM_dev/F2837x_bootROM/c
    3825 00000522 1B49          CMP       *-SP[9],#65535        ; [CPU_] |1626| 
         00000523 FFFF 
    3826 00000524 ED04          BF        $C$L99,NEQ            ; [CPU_] |1626| 
    3827                      ; branchcc occurs ; [] |1626| 
    3828 00000525 1B48          CMP       *-SP[8],#65535        ; [CPU_] |1626| 
         00000526 FFFF 
    3829 00000527 EC04          BF        $C$L100,EQ            ; [CPU_] |1626| 
    3830                      ; branchcc occurs ; [] |1626| 
    3831 00000528       $C$L99:    
    3832 00000528 1B47          CMP       *-SP[7],#65535        ; [CPU_] |1626| 
         00000529 FFFF 
    3833 0000052a ED13          BF        $C$L101,NEQ           ; [CPU_] |1626| 
    3834                      ; branchcc occurs ; [] |1626| 
    3835 0000052b       $C$L100:    
    3836                      .dwpsn  file "C:/work/grepos/bootrom/Boot_ROM/F2837x_bootROM-REVB/F2837x_bootROM_dev/F2837x_bootROM/c
    3837 0000052b 761F!         MOVW      DP,#_DcsmRegsZ2+34    ; [CPU_U] 
         0000052c 0000 
    3838 0000052d 1822!         AND       @_DcsmRegsZ2+34,#0xfffe ; [CPU_] |1628| 
         0000052e FFFE 
    3839                      .dwpsn  file "C:/work/grepos/bootrom/Boot_ROM/F2837x_bootROM-REVB/F2837x_bootROM_dev/F2837x_bootROM/c
    3840 0000052f 2B4B          MOV       *-SP[11],#0           ; [CPU_] |1630| 
    3841                      .dwpsn  file "C:/work/grepos/bootrom/Boot_ROM/F2837x_bootROM-REVB/F2837x_bootROM_dev/F2837x_bootROM/c
    3842 00000530 0200          MOVB      ACC,#0                ; [CPU_] |1631| 
    3843 00000531 1E44          MOVL      *-SP[4],ACC           ; [CPU_] |1631| 
    3844                      .dwpsn  file "C:/work/grepos/bootrom/Boot_ROM/F2837x_bootROM-REVB/F2837x_bootROM_dev/F2837x_bootROM/c
    3845 00000532 1E46          MOVL      *-SP[6],ACC           ; [CPU_] |1632| 
    3846                      .dwpsn  file "C:/work/grepos/bootrom/Boot_ROM/F2837x_bootROM-REVB/F2837x_bootROM_dev/F2837x_bootROM/c
    3847 00000533 2847          MOV       *-SP[7],#65535        ; [CPU_] |1633| 
         00000534 FFFF 
    3848                      .dwpsn  file "C:/work/grepos/bootrom/Boot_ROM/F2837x_bootROM-REVB/F2837x_bootROM_dev/F2837x_bootROM/c
    3849 00000535 2848          MOV       *-SP[8],#65535        ; [CPU_] |1634| 
         00000536 FFFF 
    3850                      .dwpsn  file "C:/work/grepos/bootrom/Boot_ROM/F2837x_bootROM-REVB/F2837x_bootROM_dev/F2837x_bootROM/c
    3851 00000537 2849          MOV       *-SP[9],#65535        ; [CPU_] |1635| 
         00000538 FFFF 
    3852                      .dwpsn  file "C:/work/grepos/bootrom/Boot_ROM/F2837x_bootROM-REVB/F2837x_bootROM_dev/F2837x_bootROM/c
    3853 00000539 2B4A          MOV       *-SP[10],#0           ; [CPU_] |1636| 
    3854                      .dwpsn  file "C:/work/grepos/bootrom/Boot_ROM/F2837x_bootROM-REVB/F2837x_bootROM_dev/F2837x_bootROM/c
    3855 0000053a 9A00          MOVB      AL,#0                 ; [CPU_] |1637| 
    3856 0000053b FFEF          B         $C$L106,UNC           ; [CPU_] |1637| 
         0000053c 0085 
    3857                      ; branch occurs ; [] |1637| 
    3858 0000053d       $C$L101:    
    3859                      .dwpsn  file "C:/work/grepos/bootrom/Boot_ROM/F2837x_bootROM-REVB/F2837x_bootROM_dev/F2837x_bootROM/c
    3860 0000053d 1B49          CMP       *-SP[9],#65535        ; [CPU_] |1641| 
         0000053e FFFF 
TMS320C2000 Assembler PC v6.1.3 Thu Jan 30 10:33:25 2014

Tools Copyright (c) 1996-2012 Texas Instruments Incorporated
C:\Users\a0272466\AppData\Local\Temp\0939610                         PAGE   84

    3861 0000053f EC1D          BF        $C$L102,EQ            ; [CPU_] |1641| 
    3862                      ; branchcc occurs ; [] |1641| 
    3863                      .dwpsn  file "C:/work/grepos/bootrom/Boot_ROM/F2837x_bootROM-REVB/F2837x_bootROM_dev/F2837x_bootROM/c
    3864 00000540 0203          MOVB      ACC,#3                ; [CPU_] |1643| 
    3865 00000541 2D49          MOV       T,*-SP[9]             ; [CPU_] |1643| 
    3866 00000542 761F!         MOVW      DP,#_DcsmRegsCommon+2 ; [CPU_U] 
         00000543 0000 
    3867 00000544 BE02          MOVB      XAR6,#2               ; [CPU_] |1643| 
    3868 00000545 563B          LSLL      ACC,T                 ; [CPU_] |1643| 
    3869 00000546 CE02!         AND       AL,@_DcsmRegsCommon+2 ; [CPU_] |1643| 
    3870 00000547 CF03!         AND       AH,@_DcsmRegsCommon+3 ; [CPU_] |1643| 
    3871 00000548 5622          LSRL      ACC,T                 ; [CPU_] |1643| 
    3872 00000549 0FA6          CMPL      ACC,XAR6              ; [CPU_] |1643| 
    3873 0000054a EC31          BF        $C$L103,EQ            ; [CPU_] |1643| 
    3874                      ; branchcc occurs ; [] |1643| 
    3875                      .dwpsn  file "C:/work/grepos/bootrom/Boot_ROM/F2837x_bootROM-REVB/F2837x_bootROM_dev/F2837x_bootROM/c
    3876 0000054b 761F!         MOVW      DP,#_DcsmRegsZ2+34    ; [CPU_U] 
         0000054c 0000 
    3877 0000054d 1822!         AND       @_DcsmRegsZ2+34,#0xfffe ; [CPU_] |1645| 
         0000054e FFFE 
    3878                      .dwpsn  file "C:/work/grepos/bootrom/Boot_ROM/F2837x_bootROM-REVB/F2837x_bootROM_dev/F2837x_bootROM/c
    3879 0000054f 2B4B          MOV       *-SP[11],#0           ; [CPU_] |1647| 
    3880                      .dwpsn  file "C:/work/grepos/bootrom/Boot_ROM/F2837x_bootROM-REVB/F2837x_bootROM_dev/F2837x_bootROM/c
    3881 00000550 0200          MOVB      ACC,#0                ; [CPU_] |1648| 
    3882 00000551 1E44          MOVL      *-SP[4],ACC           ; [CPU_] |1648| 
    3883                      .dwpsn  file "C:/work/grepos/bootrom/Boot_ROM/F2837x_bootROM-REVB/F2837x_bootROM_dev/F2837x_bootROM/c
    3884 00000552 1E46          MOVL      *-SP[6],ACC           ; [CPU_] |1649| 
    3885                      .dwpsn  file "C:/work/grepos/bootrom/Boot_ROM/F2837x_bootROM-REVB/F2837x_bootROM_dev/F2837x_bootROM/c
    3886 00000553 2847          MOV       *-SP[7],#65535        ; [CPU_] |1650| 
         00000554 FFFF 
    3887                      .dwpsn  file "C:/work/grepos/bootrom/Boot_ROM/F2837x_bootROM-REVB/F2837x_bootROM_dev/F2837x_bootROM/c
    3888 00000555 2848          MOV       *-SP[8],#65535        ; [CPU_] |1651| 
         00000556 FFFF 
    3889                      .dwpsn  file "C:/work/grepos/bootrom/Boot_ROM/F2837x_bootROM-REVB/F2837x_bootROM_dev/F2837x_bootROM/c
    3890 00000557 2849          MOV       *-SP[9],#65535        ; [CPU_] |1652| 
         00000558 FFFF 
    3891                      .dwpsn  file "C:/work/grepos/bootrom/Boot_ROM/F2837x_bootROM-REVB/F2837x_bootROM_dev/F2837x_bootROM/c
    3892 00000559 2B4A          MOV       *-SP[10],#0           ; [CPU_] |1653| 
    3893                      .dwpsn  file "C:/work/grepos/bootrom/Boot_ROM/F2837x_bootROM-REVB/F2837x_bootROM_dev/F2837x_bootROM/c
    3894 0000055a 9A00          MOVB      AL,#0                 ; [CPU_] |1654| 
    3895 0000055b 6F65          B         $C$L106,UNC           ; [CPU_] |1654| 
    3896                      ; branch occurs ; [] |1654| 
    3897 0000055c       $C$L102:    
    3898                      .dwpsn  file "C:/work/grepos/bootrom/Boot_ROM/F2837x_bootROM-REVB/F2837x_bootROM_dev/F2837x_bootROM/c
    3899 0000055c 1B48          CMP       *-SP[8],#65535        ; [CPU_] |1657| 
         0000055d FFFF 
    3900 0000055e EC1D          BF        $C$L103,EQ            ; [CPU_] |1657| 
    3901                      ; branchcc occurs ; [] |1657| 
    3902                      .dwpsn  file "C:/work/grepos/bootrom/Boot_ROM/F2837x_bootROM-REVB/F2837x_bootROM_dev/F2837x_bootROM/c
    3903 0000055f 0203          MOVB      ACC,#3                ; [CPU_] |1659| 
    3904 00000560 2D48          MOV       T,*-SP[8]             ; [CPU_] |1659| 
    3905 00000561 761F!         MOVW      DP,#_DcsmRegsCommon+4 ; [CPU_U] 
         00000562 0000 
    3906 00000563 BE02          MOVB      XAR6,#2               ; [CPU_] |1659| 
    3907 00000564 563B          LSLL      ACC,T                 ; [CPU_] |1659| 
TMS320C2000 Assembler PC v6.1.3 Thu Jan 30 10:33:25 2014

Tools Copyright (c) 1996-2012 Texas Instruments Incorporated
C:\Users\a0272466\AppData\Local\Temp\0939610                         PAGE   85

    3908 00000565 CE04!         AND       AL,@_DcsmRegsCommon+4 ; [CPU_] |1659| 
    3909 00000566 CF05!         AND       AH,@_DcsmRegsCommon+5 ; [CPU_] |1659| 
    3910 00000567 5622          LSRL      ACC,T                 ; [CPU_] |1659| 
    3911 00000568 0FA6          CMPL      ACC,XAR6              ; [CPU_] |1659| 
    3912 00000569 EC12          BF        $C$L103,EQ            ; [CPU_] |1659| 
    3913                      ; branchcc occurs ; [] |1659| 
    3914                      .dwpsn  file "C:/work/grepos/bootrom/Boot_ROM/F2837x_bootROM-REVB/F2837x_bootROM_dev/F2837x_bootROM/c
    3915 0000056a 761F!         MOVW      DP,#_DcsmRegsZ2+34    ; [CPU_U] 
         0000056b 0000 
    3916 0000056c 1822!         AND       @_DcsmRegsZ2+34,#0xfffe ; [CPU_] |1661| 
         0000056d FFFE 
    3917                      .dwpsn  file "C:/work/grepos/bootrom/Boot_ROM/F2837x_bootROM-REVB/F2837x_bootROM_dev/F2837x_bootROM/c
    3918 0000056e 2B4B          MOV       *-SP[11],#0           ; [CPU_] |1663| 
    3919                      .dwpsn  file "C:/work/grepos/bootrom/Boot_ROM/F2837x_bootROM-REVB/F2837x_bootROM_dev/F2837x_bootROM/c
    3920 0000056f 0200          MOVB      ACC,#0                ; [CPU_] |1664| 
    3921 00000570 1E44          MOVL      *-SP[4],ACC           ; [CPU_] |1664| 
    3922                      .dwpsn  file "C:/work/grepos/bootrom/Boot_ROM/F2837x_bootROM-REVB/F2837x_bootROM_dev/F2837x_bootROM/c
    3923 00000571 1E46          MOVL      *-SP[6],ACC           ; [CPU_] |1665| 
    3924                      .dwpsn  file "C:/work/grepos/bootrom/Boot_ROM/F2837x_bootROM-REVB/F2837x_bootROM_dev/F2837x_bootROM/c
    3925 00000572 2847          MOV       *-SP[7],#65535        ; [CPU_] |1666| 
         00000573 FFFF 
    3926                      .dwpsn  file "C:/work/grepos/bootrom/Boot_ROM/F2837x_bootROM-REVB/F2837x_bootROM_dev/F2837x_bootROM/c
    3927 00000574 2848          MOV       *-SP[8],#65535        ; [CPU_] |1667| 
         00000575 FFFF 
    3928                      .dwpsn  file "C:/work/grepos/bootrom/Boot_ROM/F2837x_bootROM-REVB/F2837x_bootROM_dev/F2837x_bootROM/c
    3929 00000576 2849          MOV       *-SP[9],#65535        ; [CPU_] |1668| 
         00000577 FFFF 
    3930                      .dwpsn  file "C:/work/grepos/bootrom/Boot_ROM/F2837x_bootROM-REVB/F2837x_bootROM_dev/F2837x_bootROM/c
    3931 00000578 2B4A          MOV       *-SP[10],#0           ; [CPU_] |1669| 
    3932                      .dwpsn  file "C:/work/grepos/bootrom/Boot_ROM/F2837x_bootROM-REVB/F2837x_bootROM_dev/F2837x_bootROM/c
    3933 00000579 9A00          MOVB      AL,#0                 ; [CPU_] |1670| 
    3934 0000057a 6F46          B         $C$L106,UNC           ; [CPU_] |1670| 
    3935                      ; branch occurs ; [] |1670| 
    3936 0000057b       $C$L103:    
    3937                      .dwpsn  file "C:/work/grepos/bootrom/Boot_ROM/F2837x_bootROM-REVB/F2837x_bootROM_dev/F2837x_bootROM/c
    3938 0000057b 0203          MOVB      ACC,#3                ; [CPU_] |1674| 
    3939 0000057c 2D47          MOV       T,*-SP[7]             ; [CPU_] |1674| 
    3940 0000057d 761F!         MOVW      DP,#_DcsmRegsCommon+4 ; [CPU_U] 
         0000057e 0000 
    3941 0000057f BE02          MOVB      XAR6,#2               ; [CPU_] |1674| 
    3942 00000580 563B          LSLL      ACC,T                 ; [CPU_] |1674| 
    3943 00000581 CE04!         AND       AL,@_DcsmRegsCommon+4 ; [CPU_] |1674| 
    3944 00000582 CF05!         AND       AH,@_DcsmRegsCommon+5 ; [CPU_] |1674| 
    3945 00000583 5622          LSRL      ACC,T                 ; [CPU_] |1674| 
    3946 00000584 0FA6          CMPL      ACC,XAR6              ; [CPU_] |1674| 
    3947 00000585 EC12          BF        $C$L104,EQ            ; [CPU_] |1674| 
    3948                      ; branchcc occurs ; [] |1674| 
    3949                      .dwpsn  file "C:/work/grepos/bootrom/Boot_ROM/F2837x_bootROM-REVB/F2837x_bootROM_dev/F2837x_bootROM/c
    3950 00000586 761F!         MOVW      DP,#_DcsmRegsZ2+34    ; [CPU_U] 
         00000587 0000 
    3951 00000588 1822!         AND       @_DcsmRegsZ2+34,#0xfffe ; [CPU_] |1676| 
         00000589 FFFE 
    3952                      .dwpsn  file "C:/work/grepos/bootrom/Boot_ROM/F2837x_bootROM-REVB/F2837x_bootROM_dev/F2837x_bootROM/c
    3953 0000058a 2B4B          MOV       *-SP[11],#0           ; [CPU_] |1678| 
    3954                      .dwpsn  file "C:/work/grepos/bootrom/Boot_ROM/F2837x_bootROM-REVB/F2837x_bootROM_dev/F2837x_bootROM/c
TMS320C2000 Assembler PC v6.1.3 Thu Jan 30 10:33:25 2014

Tools Copyright (c) 1996-2012 Texas Instruments Incorporated
C:\Users\a0272466\AppData\Local\Temp\0939610                         PAGE   86

    3955 0000058b 0200          MOVB      ACC,#0                ; [CPU_] |1679| 
    3956 0000058c 1E44          MOVL      *-SP[4],ACC           ; [CPU_] |1679| 
    3957                      .dwpsn  file "C:/work/grepos/bootrom/Boot_ROM/F2837x_bootROM-REVB/F2837x_bootROM_dev/F2837x_bootROM/c
    3958 0000058d 1E46          MOVL      *-SP[6],ACC           ; [CPU_] |1680| 
    3959                      .dwpsn  file "C:/work/grepos/bootrom/Boot_ROM/F2837x_bootROM-REVB/F2837x_bootROM_dev/F2837x_bootROM/c
    3960 0000058e 2847          MOV       *-SP[7],#65535        ; [CPU_] |1681| 
         0000058f FFFF 
    3961                      .dwpsn  file "C:/work/grepos/bootrom/Boot_ROM/F2837x_bootROM-REVB/F2837x_bootROM_dev/F2837x_bootROM/c
    3962 00000590 2848          MOV       *-SP[8],#65535        ; [CPU_] |1682| 
         00000591 FFFF 
    3963                      .dwpsn  file "C:/work/grepos/bootrom/Boot_ROM/F2837x_bootROM-REVB/F2837x_bootROM_dev/F2837x_bootROM/c
    3964 00000592 2849          MOV       *-SP[9],#65535        ; [CPU_] |1683| 
         00000593 FFFF 
    3965                      .dwpsn  file "C:/work/grepos/bootrom/Boot_ROM/F2837x_bootROM-REVB/F2837x_bootROM_dev/F2837x_bootROM/c
    3966 00000594 2B4A          MOV       *-SP[10],#0           ; [CPU_] |1684| 
    3967                      .dwpsn  file "C:/work/grepos/bootrom/Boot_ROM/F2837x_bootROM-REVB/F2837x_bootROM_dev/F2837x_bootROM/c
    3968 00000595 9A00          MOVB      AL,#0                 ; [CPU_] |1685| 
    3969 00000596 6F2A          B         $C$L106,UNC           ; [CPU_] |1685| 
    3970                      ; branch occurs ; [] |1685| 
    3971 00000597       $C$L104:    
    3972                      .dwpsn  file "C:/work/grepos/bootrom/Boot_ROM/F2837x_bootROM-REVB/F2837x_bootROM_dev/F2837x_bootROM/c
    3973 00000597 1B4A          CMP       *-SP[10],#62895       ; [CPU_] |1688| 
         00000598 F5AF 
    3974 00000599 EC12          BF        $C$L105,EQ            ; [CPU_] |1688| 
    3975                      ; branchcc occurs ; [] |1688| 
    3976                      .dwpsn  file "C:/work/grepos/bootrom/Boot_ROM/F2837x_bootROM-REVB/F2837x_bootROM_dev/F2837x_bootROM/c
    3977 0000059a 761F!         MOVW      DP,#_DcsmRegsZ2+34    ; [CPU_U] 
         0000059b 0000 
    3978 0000059c 1822!         AND       @_DcsmRegsZ2+34,#0xfffe ; [CPU_] |1690| 
         0000059d FFFE 
    3979                      .dwpsn  file "C:/work/grepos/bootrom/Boot_ROM/F2837x_bootROM-REVB/F2837x_bootROM_dev/F2837x_bootROM/c
    3980 0000059e 2B4B          MOV       *-SP[11],#0           ; [CPU_] |1692| 
    3981                      .dwpsn  file "C:/work/grepos/bootrom/Boot_ROM/F2837x_bootROM-REVB/F2837x_bootROM_dev/F2837x_bootROM/c
    3982 0000059f 0200          MOVB      ACC,#0                ; [CPU_] |1693| 
    3983 000005a0 1E44          MOVL      *-SP[4],ACC           ; [CPU_] |1693| 
    3984                      .dwpsn  file "C:/work/grepos/bootrom/Boot_ROM/F2837x_bootROM-REVB/F2837x_bootROM_dev/F2837x_bootROM/c
    3985 000005a1 1E46          MOVL      *-SP[6],ACC           ; [CPU_] |1694| 
    3986                      .dwpsn  file "C:/work/grepos/bootrom/Boot_ROM/F2837x_bootROM-REVB/F2837x_bootROM_dev/F2837x_bootROM/c
    3987 000005a2 2847          MOV       *-SP[7],#65535        ; [CPU_] |1695| 
         000005a3 FFFF 
    3988                      .dwpsn  file "C:/work/grepos/bootrom/Boot_ROM/F2837x_bootROM-REVB/F2837x_bootROM_dev/F2837x_bootROM/c
    3989 000005a4 2848          MOV       *-SP[8],#65535        ; [CPU_] |1696| 
         000005a5 FFFF 
    3990                      .dwpsn  file "C:/work/grepos/bootrom/Boot_ROM/F2837x_bootROM-REVB/F2837x_bootROM_dev/F2837x_bootROM/c
    3991 000005a6 2849          MOV       *-SP[9],#65535        ; [CPU_] |1697| 
         000005a7 FFFF 
    3992                      .dwpsn  file "C:/work/grepos/bootrom/Boot_ROM/F2837x_bootROM-REVB/F2837x_bootROM_dev/F2837x_bootROM/c
    3993 000005a8 2B4A          MOV       *-SP[10],#0           ; [CPU_] |1698| 
    3994                      .dwpsn  file "C:/work/grepos/bootrom/Boot_ROM/F2837x_bootROM-REVB/F2837x_bootROM_dev/F2837x_bootROM/c
    3995 000005a9 9A00          MOVB      AL,#0                 ; [CPU_] |1699| 
    3996 000005aa 6F16          B         $C$L106,UNC           ; [CPU_] |1699| 
    3997                      ; branch occurs ; [] |1699| 
    3998 000005ab       $C$L105:    
    3999                      .dwpsn  file "C:/work/grepos/bootrom/Boot_ROM/F2837x_bootROM-REVB/F2837x_bootROM_dev/F2837x_bootROM/c
    4000 000005ab 8A46          MOVL      XAR4,*-SP[6]          ; [CPU_] |1702| 
TMS320C2000 Assembler PC v6.1.3 Thu Jan 30 10:33:25 2014

Tools Copyright (c) 1996-2012 Texas Instruments Incorporated
C:\Users\a0272466\AppData\Local\Temp\0939610                         PAGE   87

    4001 000005ac 8344          MOVL      XAR5,*-SP[4]          ; [CPU_] |1702| 
    4002 000005ad 9241          MOV       AL,*-SP[1]            ; [CPU_] |1702| 
    4003              $C$DW$68        .dwtag  DW_TAG_TI_branch
    4004                      .dwattr $C$DW$68, DW_AT_low_pc(0x00)
    4005                      .dwattr $C$DW$68, DW_AT_name("_CRCCalcZ2")
    4006                      .dwattr $C$DW$68, DW_AT_TI_call
    4007 000005ae 7640!         LCR       #_CRCCalcZ2           ; [CPU_] |1702| 
         000005af 0000 
    4008                      ; call occurs [#_CRCCalcZ2] ; [] |1702| 
    4009 000005b0 964B          MOV       *-SP[11],AL           ; [CPU_] |1702| 
    4010                      .dwpsn  file "C:/work/grepos/bootrom/Boot_ROM/F2837x_bootROM-REVB/F2837x_bootROM_dev/F2837x_bootROM/c
    4011 000005b1 761F!         MOVW      DP,#_DcsmRegsZ2+34    ; [CPU_U] 
         000005b2 0000 
    4012 000005b3 1822!         AND       @_DcsmRegsZ2+34,#0xfffe ; [CPU_] |1704| 
         000005b4 FFFE 
    4013                      .dwpsn  file "C:/work/grepos/bootrom/Boot_ROM/F2837x_bootROM-REVB/F2837x_bootROM_dev/F2837x_bootROM/c
    4014 000005b5 0200          MOVB      ACC,#0                ; [CPU_] |1706| 
    4015 000005b6 1E44          MOVL      *-SP[4],ACC           ; [CPU_] |1706| 
    4016                      .dwpsn  file "C:/work/grepos/bootrom/Boot_ROM/F2837x_bootROM-REVB/F2837x_bootROM_dev/F2837x_bootROM/c
    4017 000005b7 1E46          MOVL      *-SP[6],ACC           ; [CPU_] |1707| 
    4018                      .dwpsn  file "C:/work/grepos/bootrom/Boot_ROM/F2837x_bootROM-REVB/F2837x_bootROM_dev/F2837x_bootROM/c
    4019 000005b8 2847          MOV       *-SP[7],#65535        ; [CPU_] |1708| 
         000005b9 FFFF 
    4020                      .dwpsn  file "C:/work/grepos/bootrom/Boot_ROM/F2837x_bootROM-REVB/F2837x_bootROM_dev/F2837x_bootROM/c
    4021 000005ba 2848          MOV       *-SP[8],#65535        ; [CPU_] |1709| 
         000005bb FFFF 
    4022                      .dwpsn  file "C:/work/grepos/bootrom/Boot_ROM/F2837x_bootROM-REVB/F2837x_bootROM_dev/F2837x_bootROM/c
    4023 000005bc 2849          MOV       *-SP[9],#65535        ; [CPU_] |1710| 
         000005bd FFFF 
    4024                      .dwpsn  file "C:/work/grepos/bootrom/Boot_ROM/F2837x_bootROM-REVB/F2837x_bootROM_dev/F2837x_bootROM/c
    4025 000005be 2B4A          MOV       *-SP[10],#0           ; [CPU_] |1711| 
    4026                      .dwpsn  file "C:/work/grepos/bootrom/Boot_ROM/F2837x_bootROM-REVB/F2837x_bootROM_dev/F2837x_bootROM/c
    4027 000005bf 924B          MOV       AL,*-SP[11]           ; [CPU_] |1713| 
    4028 000005c0       $C$L106:    
    4029                      .dwpsn  file "C:/work/grepos/bootrom/Boot_ROM/F2837x_bootROM-REVB/F2837x_bootROM_dev/F2837x_bootROM/c
    4030 000005c0 FE8C          SUBB      SP,#12                ; [CPU_U] 
    4031                      .dwcfi  cfa_offset, -2
    4032              $C$DW$69        .dwtag  DW_TAG_TI_branch
    4033                      .dwattr $C$DW$69, DW_AT_low_pc(0x00)
    4034                      .dwattr $C$DW$69, DW_AT_TI_return
    4035 000005c1 0006          LRETR     ; [CPU_] 
    4036                      ; return occurs ; [] 
    4037                      .dwattr $C$DW$56, DW_AT_TI_end_file("C:/work/grepos/bootrom/Boot_ROM/F2837x_bootROM-REVB/F2837x_bootR
    4038                      .dwattr $C$DW$56, DW_AT_TI_end_line(0x6b3)
    4039                      .dwattr $C$DW$56, DW_AT_TI_end_column(0x01)
    4040                      .dwendentry
    4041                      .dwendtag $C$DW$56
    4042              
    4043              ;**************************************************************
    4044              ;* UNDEFINED EXTERNAL REFERENCES                              *
    4045              ;**************************************************************
    4046                      .global _CRCCalcZ2
    4047                      .global _CRCCalcZ1
    4048                      .global _DcsmRegsCommon
    4049                      .global _DcsmRegsZ1
TMS320C2000 Assembler PC v6.1.3 Thu Jan 30 10:33:25 2014

Tools Copyright (c) 1996-2012 Texas Instruments Incorporated
C:\Users\a0272466\AppData\Local\Temp\0939610                         PAGE   88

    4050                      .global _DcsmRegsZ2
    4051              
    4052              ;***************************************************************
    4053              ;* TYPE INFORMATION                                            *
    4054              ;***************************************************************
    4055              
    4056              $C$DW$T$19      .dwtag  DW_TAG_structure_type
    4057                      .dwattr $C$DW$T$19, DW_AT_name("DCSM_REGS_COMMON")
    4058                      .dwattr $C$DW$T$19, DW_AT_byte_size(0x08)
    4059              $C$DW$70        .dwtag  DW_TAG_member
    4060                      .dwattr $C$DW$70, DW_AT_type(*$C$DW$T$26)
    4061                      .dwattr $C$DW$70, DW_AT_name("FLSEM")
    4062                      .dwattr $C$DW$70, DW_AT_TI_symbol_name("_FLSEM")
    4063                      .dwattr $C$DW$70, DW_AT_data_member_location[DW_OP_plus_uconst 0x0]
    4064                      .dwattr $C$DW$70, DW_AT_accessibility(DW_ACCESS_public)
    4065              $C$DW$71        .dwtag  DW_TAG_member
    4066                      .dwattr $C$DW$71, DW_AT_type(*$C$DW$T$32)
    4067                      .dwattr $C$DW$71, DW_AT_name("SECTSTAT")
    4068                      .dwattr $C$DW$71, DW_AT_TI_symbol_name("_SECTSTAT")
    4069                      .dwattr $C$DW$71, DW_AT_data_member_location[DW_OP_plus_uconst 0x2]
    4070                      .dwattr $C$DW$71, DW_AT_accessibility(DW_ACCESS_public)
    4071              $C$DW$72        .dwtag  DW_TAG_member
    4072                      .dwattr $C$DW$72, DW_AT_type(*$C$DW$T$28)
    4073                      .dwattr $C$DW$72, DW_AT_name("RAMSTAT")
    4074                      .dwattr $C$DW$72, DW_AT_TI_symbol_name("_RAMSTAT")
    4075                      .dwattr $C$DW$72, DW_AT_data_member_location[DW_OP_plus_uconst 0x4]
    4076                      .dwattr $C$DW$72, DW_AT_accessibility(DW_ACCESS_public)
    4077              $C$DW$73        .dwtag  DW_TAG_member
    4078                      .dwattr $C$DW$73, DW_AT_type(*$C$DW$T$30)
    4079                      .dwattr $C$DW$73, DW_AT_name("SECDC")
    4080                      .dwattr $C$DW$73, DW_AT_TI_symbol_name("_SECDC")
    4081                      .dwattr $C$DW$73, DW_AT_data_member_location[DW_OP_plus_uconst 0x6]
    4082                      .dwattr $C$DW$73, DW_AT_accessibility(DW_ACCESS_public)
    4083                      .dwendtag $C$DW$T$19
    4084              
    4085              $C$DW$74        .dwtag  DW_TAG_TI_far_type
    4086                      .dwattr $C$DW$74, DW_AT_type(*$C$DW$T$19)
    4087              $C$DW$T$73      .dwtag  DW_TAG_volatile_type
    4088                      .dwattr $C$DW$T$73, DW_AT_type(*$C$DW$74)
    4089              
    4090              $C$DW$T$23      .dwtag  DW_TAG_structure_type
    4091                      .dwattr $C$DW$T$23, DW_AT_name("DCSM_REGS_Z1")
    4092                      .dwattr $C$DW$T$23, DW_AT_byte_size(0x24)
    4093              $C$DW$75        .dwtag  DW_TAG_member
    4094                      .dwattr $C$DW$75, DW_AT_type(*$C$DW$T$50)
    4095                      .dwattr $C$DW$75, DW_AT_name("Z1_LINKPOINTER")
    4096                      .dwattr $C$DW$75, DW_AT_TI_symbol_name("_Z1_LINKPOINTER")
    4097                      .dwattr $C$DW$75, DW_AT_data_member_location[DW_OP_plus_uconst 0x0]
    4098                      .dwattr $C$DW$75, DW_AT_accessibility(DW_ACCESS_public)
    4099              $C$DW$76        .dwtag  DW_TAG_member
    4100                      .dwattr $C$DW$76, DW_AT_type(*$C$DW$T$52)
    4101                      .dwattr $C$DW$76, DW_AT_name("Z1_OTPSECLOCK")
    4102                      .dwattr $C$DW$76, DW_AT_TI_symbol_name("_Z1_OTPSECLOCK")
    4103                      .dwattr $C$DW$76, DW_AT_data_member_location[DW_OP_plus_uconst 0x2]
    4104                      .dwattr $C$DW$76, DW_AT_accessibility(DW_ACCESS_public)
TMS320C2000 Assembler PC v6.1.3 Thu Jan 30 10:33:25 2014

Tools Copyright (c) 1996-2012 Texas Instruments Incorporated
C:\Users\a0272466\AppData\Local\Temp\0939610                         PAGE   89

    4105              $C$DW$77        .dwtag  DW_TAG_member
    4106                      .dwattr $C$DW$77, DW_AT_type(*$C$DW$T$34)
    4107                      .dwattr $C$DW$77, DW_AT_name("Z1_BOOTCTRL")
    4108                      .dwattr $C$DW$77, DW_AT_TI_symbol_name("_Z1_BOOTCTRL")
    4109                      .dwattr $C$DW$77, DW_AT_data_member_location[DW_OP_plus_uconst 0x4]
    4110                      .dwattr $C$DW$77, DW_AT_accessibility(DW_ACCESS_public)
    4111              $C$DW$78        .dwtag  DW_TAG_member
    4112                      .dwattr $C$DW$78, DW_AT_type(*$C$DW$T$20)
    4113                      .dwattr $C$DW$78, DW_AT_name("Z1_LINKPOINTERERR")
    4114                      .dwattr $C$DW$78, DW_AT_TI_symbol_name("_Z1_LINKPOINTERERR")
    4115                      .dwattr $C$DW$78, DW_AT_data_member_location[DW_OP_plus_uconst 0x6]
    4116                      .dwattr $C$DW$78, DW_AT_accessibility(DW_ACCESS_public)
    4117              $C$DW$79        .dwtag  DW_TAG_member
    4118                      .dwattr $C$DW$79, DW_AT_type(*$C$DW$T$22)
    4119                      .dwattr $C$DW$79, DW_AT_name("rsvd1")
    4120                      .dwattr $C$DW$79, DW_AT_TI_symbol_name("_rsvd1")
    4121                      .dwattr $C$DW$79, DW_AT_data_member_location[DW_OP_plus_uconst 0x8]
    4122                      .dwattr $C$DW$79, DW_AT_accessibility(DW_ACCESS_public)
    4123              $C$DW$80        .dwtag  DW_TAG_member
    4124                      .dwattr $C$DW$80, DW_AT_type(*$C$DW$T$20)
    4125                      .dwattr $C$DW$80, DW_AT_name("Z1_CSMKEY0")
    4126                      .dwattr $C$DW$80, DW_AT_TI_symbol_name("_Z1_CSMKEY0")
    4127                      .dwattr $C$DW$80, DW_AT_data_member_location[DW_OP_plus_uconst 0x10]
    4128                      .dwattr $C$DW$80, DW_AT_accessibility(DW_ACCESS_public)
    4129              $C$DW$81        .dwtag  DW_TAG_member
    4130                      .dwattr $C$DW$81, DW_AT_type(*$C$DW$T$20)
    4131                      .dwattr $C$DW$81, DW_AT_name("Z1_CSMKEY1")
    4132                      .dwattr $C$DW$81, DW_AT_TI_symbol_name("_Z1_CSMKEY1")
    4133                      .dwattr $C$DW$81, DW_AT_data_member_location[DW_OP_plus_uconst 0x12]
    4134                      .dwattr $C$DW$81, DW_AT_accessibility(DW_ACCESS_public)
    4135              $C$DW$82        .dwtag  DW_TAG_member
    4136                      .dwattr $C$DW$82, DW_AT_type(*$C$DW$T$20)
    4137                      .dwattr $C$DW$82, DW_AT_name("Z1_CSMKEY2")
    4138                      .dwattr $C$DW$82, DW_AT_TI_symbol_name("_Z1_CSMKEY2")
    4139                      .dwattr $C$DW$82, DW_AT_data_member_location[DW_OP_plus_uconst 0x14]
    4140                      .dwattr $C$DW$82, DW_AT_accessibility(DW_ACCESS_public)
    4141              $C$DW$83        .dwtag  DW_TAG_member
    4142                      .dwattr $C$DW$83, DW_AT_type(*$C$DW$T$20)
    4143                      .dwattr $C$DW$83, DW_AT_name("Z1_CSMKEY3")
    4144                      .dwattr $C$DW$83, DW_AT_TI_symbol_name("_Z1_CSMKEY3")
    4145                      .dwattr $C$DW$83, DW_AT_data_member_location[DW_OP_plus_uconst 0x16]
    4146                      .dwattr $C$DW$83, DW_AT_accessibility(DW_ACCESS_public)
    4147              $C$DW$84        .dwtag  DW_TAG_member
    4148                      .dwattr $C$DW$84, DW_AT_type(*$C$DW$T$38)
    4149                      .dwattr $C$DW$84, DW_AT_name("Z1_CSMLOCKSR")
    4150                      .dwattr $C$DW$84, DW_AT_TI_symbol_name("_Z1_CSMLOCKSR")
    4151                      .dwattr $C$DW$84, DW_AT_data_member_location[DW_OP_plus_uconst 0x18]
    4152                      .dwattr $C$DW$84, DW_AT_accessibility(DW_ACCESS_public)
    4153              $C$DW$85        .dwtag  DW_TAG_member
    4154                      .dwattr $C$DW$85, DW_AT_type(*$C$DW$T$36)
    4155                      .dwattr $C$DW$85, DW_AT_name("Z1_CR")
    4156                      .dwattr $C$DW$85, DW_AT_TI_symbol_name("_Z1_CR")
    4157                      .dwattr $C$DW$85, DW_AT_data_member_location[DW_OP_plus_uconst 0x19]
    4158                      .dwattr $C$DW$85, DW_AT_accessibility(DW_ACCESS_public)
    4159              $C$DW$86        .dwtag  DW_TAG_member
TMS320C2000 Assembler PC v6.1.3 Thu Jan 30 10:33:25 2014

Tools Copyright (c) 1996-2012 Texas Instruments Incorporated
C:\Users\a0272466\AppData\Local\Temp\0939610                         PAGE   90

    4160                      .dwattr $C$DW$86, DW_AT_type(*$C$DW$T$48)
    4161                      .dwattr $C$DW$86, DW_AT_name("Z1_GRABSECTR")
    4162                      .dwattr $C$DW$86, DW_AT_TI_symbol_name("_Z1_GRABSECTR")
    4163                      .dwattr $C$DW$86, DW_AT_data_member_location[DW_OP_plus_uconst 0x1a]
    4164                      .dwattr $C$DW$86, DW_AT_accessibility(DW_ACCESS_public)
    4165              $C$DW$87        .dwtag  DW_TAG_member
    4166                      .dwattr $C$DW$87, DW_AT_type(*$C$DW$T$46)
    4167                      .dwattr $C$DW$87, DW_AT_name("Z1_GRABRAMR")
    4168                      .dwattr $C$DW$87, DW_AT_TI_symbol_name("_Z1_GRABRAMR")
    4169                      .dwattr $C$DW$87, DW_AT_data_member_location[DW_OP_plus_uconst 0x1c]
    4170                      .dwattr $C$DW$87, DW_AT_accessibility(DW_ACCESS_public)
    4171              $C$DW$88        .dwtag  DW_TAG_member
    4172                      .dwattr $C$DW$88, DW_AT_type(*$C$DW$T$44)
    4173                      .dwattr $C$DW$88, DW_AT_name("Z1_EXEONLYSECTR")
    4174                      .dwattr $C$DW$88, DW_AT_TI_symbol_name("_Z1_EXEONLYSECTR")
    4175                      .dwattr $C$DW$88, DW_AT_data_member_location[DW_OP_plus_uconst 0x1e]
    4176                      .dwattr $C$DW$88, DW_AT_accessibility(DW_ACCESS_public)
    4177              $C$DW$89        .dwtag  DW_TAG_member
    4178                      .dwattr $C$DW$89, DW_AT_type(*$C$DW$T$42)
    4179                      .dwattr $C$DW$89, DW_AT_name("Z1_EXEONLYRAMR")
    4180                      .dwattr $C$DW$89, DW_AT_TI_symbol_name("_Z1_EXEONLYRAMR")
    4181                      .dwattr $C$DW$89, DW_AT_data_member_location[DW_OP_plus_uconst 0x20]
    4182                      .dwattr $C$DW$89, DW_AT_accessibility(DW_ACCESS_public)
    4183              $C$DW$90        .dwtag  DW_TAG_member
    4184                      .dwattr $C$DW$90, DW_AT_type(*$C$DW$T$40)
    4185                      .dwattr $C$DW$90, DW_AT_name("Z1_EXEONLYDIS")
    4186                      .dwattr $C$DW$90, DW_AT_TI_symbol_name("_Z1_EXEONLYDIS")
    4187                      .dwattr $C$DW$90, DW_AT_data_member_location[DW_OP_plus_uconst 0x22]
    4188                      .dwattr $C$DW$90, DW_AT_accessibility(DW_ACCESS_public)
    4189                      .dwendtag $C$DW$T$23
    4190              
    4191              $C$DW$91        .dwtag  DW_TAG_TI_far_type
    4192                      .dwattr $C$DW$91, DW_AT_type(*$C$DW$T$23)
    4193              $C$DW$T$74      .dwtag  DW_TAG_volatile_type
    4194                      .dwattr $C$DW$T$74, DW_AT_type(*$C$DW$91)
    4195              
    4196              $C$DW$T$24      .dwtag  DW_TAG_structure_type
    4197                      .dwattr $C$DW$T$24, DW_AT_name("DCSM_REGS_Z2")
    4198                      .dwattr $C$DW$T$24, DW_AT_byte_size(0x24)
    4199              $C$DW$92        .dwtag  DW_TAG_member
    4200                      .dwattr $C$DW$92, DW_AT_type(*$C$DW$T$70)
    4201                      .dwattr $C$DW$92, DW_AT_name("Z2_LINKPOINTER")
    4202                      .dwattr $C$DW$92, DW_AT_TI_symbol_name("_Z2_LINKPOINTER")
    4203                      .dwattr $C$DW$92, DW_AT_data_member_location[DW_OP_plus_uconst 0x0]
    4204                      .dwattr $C$DW$92, DW_AT_accessibility(DW_ACCESS_public)
    4205              $C$DW$93        .dwtag  DW_TAG_member
    4206                      .dwattr $C$DW$93, DW_AT_type(*$C$DW$T$72)
    4207                      .dwattr $C$DW$93, DW_AT_name("Z2_OTPSECLOCK")
    4208                      .dwattr $C$DW$93, DW_AT_TI_symbol_name("_Z2_OTPSECLOCK")
    4209                      .dwattr $C$DW$93, DW_AT_data_member_location[DW_OP_plus_uconst 0x2]
    4210                      .dwattr $C$DW$93, DW_AT_accessibility(DW_ACCESS_public)
    4211              $C$DW$94        .dwtag  DW_TAG_member
    4212                      .dwattr $C$DW$94, DW_AT_type(*$C$DW$T$54)
    4213                      .dwattr $C$DW$94, DW_AT_name("Z2_BOOTCTRL")
    4214                      .dwattr $C$DW$94, DW_AT_TI_symbol_name("_Z2_BOOTCTRL")
TMS320C2000 Assembler PC v6.1.3 Thu Jan 30 10:33:25 2014

Tools Copyright (c) 1996-2012 Texas Instruments Incorporated
C:\Users\a0272466\AppData\Local\Temp\0939610                         PAGE   91

    4215                      .dwattr $C$DW$94, DW_AT_data_member_location[DW_OP_plus_uconst 0x4]
    4216                      .dwattr $C$DW$94, DW_AT_accessibility(DW_ACCESS_public)
    4217              $C$DW$95        .dwtag  DW_TAG_member
    4218                      .dwattr $C$DW$95, DW_AT_type(*$C$DW$T$20)
    4219                      .dwattr $C$DW$95, DW_AT_name("Z2_LINKPOINTERERR")
    4220                      .dwattr $C$DW$95, DW_AT_TI_symbol_name("_Z2_LINKPOINTERERR")
    4221                      .dwattr $C$DW$95, DW_AT_data_member_location[DW_OP_plus_uconst 0x6]
    4222                      .dwattr $C$DW$95, DW_AT_accessibility(DW_ACCESS_public)
    4223              $C$DW$96        .dwtag  DW_TAG_member
    4224                      .dwattr $C$DW$96, DW_AT_type(*$C$DW$T$22)
    4225                      .dwattr $C$DW$96, DW_AT_name("rsvd1")
    4226                      .dwattr $C$DW$96, DW_AT_TI_symbol_name("_rsvd1")
    4227                      .dwattr $C$DW$96, DW_AT_data_member_location[DW_OP_plus_uconst 0x8]
    4228                      .dwattr $C$DW$96, DW_AT_accessibility(DW_ACCESS_public)
    4229              $C$DW$97        .dwtag  DW_TAG_member
    4230                      .dwattr $C$DW$97, DW_AT_type(*$C$DW$T$20)
    4231                      .dwattr $C$DW$97, DW_AT_name("Z2_CSMKEY0")
    4232                      .dwattr $C$DW$97, DW_AT_TI_symbol_name("_Z2_CSMKEY0")
    4233                      .dwattr $C$DW$97, DW_AT_data_member_location[DW_OP_plus_uconst 0x10]
    4234                      .dwattr $C$DW$97, DW_AT_accessibility(DW_ACCESS_public)
    4235              $C$DW$98        .dwtag  DW_TAG_member
    4236                      .dwattr $C$DW$98, DW_AT_type(*$C$DW$T$20)
    4237                      .dwattr $C$DW$98, DW_AT_name("Z2_CSMKEY1")
    4238                      .dwattr $C$DW$98, DW_AT_TI_symbol_name("_Z2_CSMKEY1")
    4239                      .dwattr $C$DW$98, DW_AT_data_member_location[DW_OP_plus_uconst 0x12]
    4240                      .dwattr $C$DW$98, DW_AT_accessibility(DW_ACCESS_public)
    4241              $C$DW$99        .dwtag  DW_TAG_member
    4242                      .dwattr $C$DW$99, DW_AT_type(*$C$DW$T$20)
    4243                      .dwattr $C$DW$99, DW_AT_name("Z2_CSMKEY2")
    4244                      .dwattr $C$DW$99, DW_AT_TI_symbol_name("_Z2_CSMKEY2")
    4245                      .dwattr $C$DW$99, DW_AT_data_member_location[DW_OP_plus_uconst 0x14]
    4246                      .dwattr $C$DW$99, DW_AT_accessibility(DW_ACCESS_public)
    4247              $C$DW$100       .dwtag  DW_TAG_member
    4248                      .dwattr $C$DW$100, DW_AT_type(*$C$DW$T$20)
    4249                      .dwattr $C$DW$100, DW_AT_name("Z2_CSMKEY3")
    4250                      .dwattr $C$DW$100, DW_AT_TI_symbol_name("_Z2_CSMKEY3")
    4251                      .dwattr $C$DW$100, DW_AT_data_member_location[DW_OP_plus_uconst 0x16]
    4252                      .dwattr $C$DW$100, DW_AT_accessibility(DW_ACCESS_public)
    4253              $C$DW$101       .dwtag  DW_TAG_member
    4254                      .dwattr $C$DW$101, DW_AT_type(*$C$DW$T$58)
    4255                      .dwattr $C$DW$101, DW_AT_name("Z2_CSMLOCKSR")
    4256                      .dwattr $C$DW$101, DW_AT_TI_symbol_name("_Z2_CSMLOCKSR")
    4257                      .dwattr $C$DW$101, DW_AT_data_member_location[DW_OP_plus_uconst 0x18]
    4258                      .dwattr $C$DW$101, DW_AT_accessibility(DW_ACCESS_public)
    4259              $C$DW$102       .dwtag  DW_TAG_member
    4260                      .dwattr $C$DW$102, DW_AT_type(*$C$DW$T$56)
    4261                      .dwattr $C$DW$102, DW_AT_name("Z2_CR")
    4262                      .dwattr $C$DW$102, DW_AT_TI_symbol_name("_Z2_CR")
    4263                      .dwattr $C$DW$102, DW_AT_data_member_location[DW_OP_plus_uconst 0x19]
    4264                      .dwattr $C$DW$102, DW_AT_accessibility(DW_ACCESS_public)
    4265              $C$DW$103       .dwtag  DW_TAG_member
    4266                      .dwattr $C$DW$103, DW_AT_type(*$C$DW$T$68)
    4267                      .dwattr $C$DW$103, DW_AT_name("Z2_GRABSECTR")
    4268                      .dwattr $C$DW$103, DW_AT_TI_symbol_name("_Z2_GRABSECTR")
    4269                      .dwattr $C$DW$103, DW_AT_data_member_location[DW_OP_plus_uconst 0x1a]
TMS320C2000 Assembler PC v6.1.3 Thu Jan 30 10:33:25 2014

Tools Copyright (c) 1996-2012 Texas Instruments Incorporated
C:\Users\a0272466\AppData\Local\Temp\0939610                         PAGE   92

    4270                      .dwattr $C$DW$103, DW_AT_accessibility(DW_ACCESS_public)
    4271              $C$DW$104       .dwtag  DW_TAG_member
    4272                      .dwattr $C$DW$104, DW_AT_type(*$C$DW$T$66)
    4273                      .dwattr $C$DW$104, DW_AT_name("Z2_GRABRAMR")
    4274                      .dwattr $C$DW$104, DW_AT_TI_symbol_name("_Z2_GRABRAMR")
    4275                      .dwattr $C$DW$104, DW_AT_data_member_location[DW_OP_plus_uconst 0x1c]
    4276                      .dwattr $C$DW$104, DW_AT_accessibility(DW_ACCESS_public)
    4277              $C$DW$105       .dwtag  DW_TAG_member
    4278                      .dwattr $C$DW$105, DW_AT_type(*$C$DW$T$64)
    4279                      .dwattr $C$DW$105, DW_AT_name("Z2_EXEONLYSECTR")
    4280                      .dwattr $C$DW$105, DW_AT_TI_symbol_name("_Z2_EXEONLYSECTR")
    4281                      .dwattr $C$DW$105, DW_AT_data_member_location[DW_OP_plus_uconst 0x1e]
    4282                      .dwattr $C$DW$105, DW_AT_accessibility(DW_ACCESS_public)
    4283              $C$DW$106       .dwtag  DW_TAG_member
    4284                      .dwattr $C$DW$106, DW_AT_type(*$C$DW$T$62)
    4285                      .dwattr $C$DW$106, DW_AT_name("Z2_EXEONLYRAMR")
    4286                      .dwattr $C$DW$106, DW_AT_TI_symbol_name("_Z2_EXEONLYRAMR")
    4287                      .dwattr $C$DW$106, DW_AT_data_member_location[DW_OP_plus_uconst 0x20]
    4288                      .dwattr $C$DW$106, DW_AT_accessibility(DW_ACCESS_public)
    4289              $C$DW$107       .dwtag  DW_TAG_member
    4290                      .dwattr $C$DW$107, DW_AT_type(*$C$DW$T$60)
    4291                      .dwattr $C$DW$107, DW_AT_name("Z2_EXEONLYDIS")
    4292                      .dwattr $C$DW$107, DW_AT_TI_symbol_name("_Z2_EXEONLYDIS")
    4293                      .dwattr $C$DW$107, DW_AT_data_member_location[DW_OP_plus_uconst 0x22]
    4294                      .dwattr $C$DW$107, DW_AT_accessibility(DW_ACCESS_public)
    4295                      .dwendtag $C$DW$T$24
    4296              
    4297              $C$DW$108       .dwtag  DW_TAG_TI_far_type
    4298                      .dwattr $C$DW$108, DW_AT_type(*$C$DW$T$24)
    4299              $C$DW$T$75      .dwtag  DW_TAG_volatile_type
    4300                      .dwattr $C$DW$T$75, DW_AT_type(*$C$DW$108)
    4301              
    4302              $C$DW$T$25      .dwtag  DW_TAG_structure_type
    4303                      .dwattr $C$DW$T$25, DW_AT_name("FLSEM_BITS")
    4304                      .dwattr $C$DW$T$25, DW_AT_byte_size(0x02)
    4305              $C$DW$109       .dwtag  DW_TAG_member
    4306                      .dwattr $C$DW$109, DW_AT_type(*$C$DW$T$21)
    4307                      .dwattr $C$DW$109, DW_AT_name("SEM")
    4308                      .dwattr $C$DW$109, DW_AT_TI_symbol_name("_SEM")
    4309                      .dwattr $C$DW$109, DW_AT_bit_offset(0x0e), DW_AT_bit_size(0x02)
    4310                      .dwattr $C$DW$109, DW_AT_data_member_location[DW_OP_plus_uconst 0x0]
    4311                      .dwattr $C$DW$109, DW_AT_accessibility(DW_ACCESS_public)
    4312              $C$DW$110       .dwtag  DW_TAG_member
    4313                      .dwattr $C$DW$110, DW_AT_type(*$C$DW$T$21)
    4314                      .dwattr $C$DW$110, DW_AT_name("rsvd1")
    4315                      .dwattr $C$DW$110, DW_AT_TI_symbol_name("_rsvd1")
    4316                      .dwattr $C$DW$110, DW_AT_bit_offset(0x08), DW_AT_bit_size(0x06)
    4317                      .dwattr $C$DW$110, DW_AT_data_member_location[DW_OP_plus_uconst 0x0]
    4318                      .dwattr $C$DW$110, DW_AT_accessibility(DW_ACCESS_public)
    4319              $C$DW$111       .dwtag  DW_TAG_member
    4320                      .dwattr $C$DW$111, DW_AT_type(*$C$DW$T$21)
    4321                      .dwattr $C$DW$111, DW_AT_name("KEY")
    4322                      .dwattr $C$DW$111, DW_AT_TI_symbol_name("_KEY")
    4323                      .dwattr $C$DW$111, DW_AT_bit_offset(0x00), DW_AT_bit_size(0x08)
    4324                      .dwattr $C$DW$111, DW_AT_data_member_location[DW_OP_plus_uconst 0x0]
TMS320C2000 Assembler PC v6.1.3 Thu Jan 30 10:33:25 2014

Tools Copyright (c) 1996-2012 Texas Instruments Incorporated
C:\Users\a0272466\AppData\Local\Temp\0939610                         PAGE   93

    4325                      .dwattr $C$DW$111, DW_AT_accessibility(DW_ACCESS_public)
    4326              $C$DW$112       .dwtag  DW_TAG_member
    4327                      .dwattr $C$DW$112, DW_AT_type(*$C$DW$T$21)
    4328                      .dwattr $C$DW$112, DW_AT_name("rsvd2")
    4329                      .dwattr $C$DW$112, DW_AT_TI_symbol_name("_rsvd2")
    4330                      .dwattr $C$DW$112, DW_AT_bit_offset(0x00), DW_AT_bit_size(0x10)
    4331                      .dwattr $C$DW$112, DW_AT_data_member_location[DW_OP_plus_uconst 0x1]
    4332                      .dwattr $C$DW$112, DW_AT_accessibility(DW_ACCESS_public)
    4333                      .dwendtag $C$DW$T$25
    4334              
    4335              
    4336              $C$DW$T$26      .dwtag  DW_TAG_union_type
    4337                      .dwattr $C$DW$T$26, DW_AT_name("FLSEM_REG")
    4338                      .dwattr $C$DW$T$26, DW_AT_byte_size(0x02)
    4339              $C$DW$113       .dwtag  DW_TAG_member
    4340                      .dwattr $C$DW$113, DW_AT_type(*$C$DW$T$20)
    4341                      .dwattr $C$DW$113, DW_AT_name("all")
    4342                      .dwattr $C$DW$113, DW_AT_TI_symbol_name("_all")
    4343                      .dwattr $C$DW$113, DW_AT_data_member_location[DW_OP_plus_uconst 0x0]
    4344                      .dwattr $C$DW$113, DW_AT_accessibility(DW_ACCESS_public)
    4345              $C$DW$114       .dwtag  DW_TAG_member
    4346                      .dwattr $C$DW$114, DW_AT_type(*$C$DW$T$25)
    4347                      .dwattr $C$DW$114, DW_AT_name("bit")
    4348                      .dwattr $C$DW$114, DW_AT_TI_symbol_name("_bit")
    4349                      .dwattr $C$DW$114, DW_AT_data_member_location[DW_OP_plus_uconst 0x0]
    4350                      .dwattr $C$DW$114, DW_AT_accessibility(DW_ACCESS_public)
    4351                      .dwendtag $C$DW$T$26
    4352              
    4353              
    4354              $C$DW$T$27      .dwtag  DW_TAG_structure_type
    4355                      .dwattr $C$DW$T$27, DW_AT_name("RAMSTAT_BITS")
    4356                      .dwattr $C$DW$T$27, DW_AT_byte_size(0x02)
    4357              $C$DW$115       .dwtag  DW_TAG_member
    4358                      .dwattr $C$DW$115, DW_AT_type(*$C$DW$T$21)
    4359                      .dwattr $C$DW$115, DW_AT_name("STATUS_RAM0")
    4360                      .dwattr $C$DW$115, DW_AT_TI_symbol_name("_STATUS_RAM0")
    4361                      .dwattr $C$DW$115, DW_AT_bit_offset(0x0e), DW_AT_bit_size(0x02)
    4362                      .dwattr $C$DW$115, DW_AT_data_member_location[DW_OP_plus_uconst 0x0]
    4363                      .dwattr $C$DW$115, DW_AT_accessibility(DW_ACCESS_public)
    4364              $C$DW$116       .dwtag  DW_TAG_member
    4365                      .dwattr $C$DW$116, DW_AT_type(*$C$DW$T$21)
    4366                      .dwattr $C$DW$116, DW_AT_name("STATUS_RAM1")
    4367                      .dwattr $C$DW$116, DW_AT_TI_symbol_name("_STATUS_RAM1")
    4368                      .dwattr $C$DW$116, DW_AT_bit_offset(0x0c), DW_AT_bit_size(0x02)
    4369                      .dwattr $C$DW$116, DW_AT_data_member_location[DW_OP_plus_uconst 0x0]
    4370                      .dwattr $C$DW$116, DW_AT_accessibility(DW_ACCESS_public)
    4371              $C$DW$117       .dwtag  DW_TAG_member
    4372                      .dwattr $C$DW$117, DW_AT_type(*$C$DW$T$21)
    4373                      .dwattr $C$DW$117, DW_AT_name("STATUS_RAM2")
    4374                      .dwattr $C$DW$117, DW_AT_TI_symbol_name("_STATUS_RAM2")
    4375                      .dwattr $C$DW$117, DW_AT_bit_offset(0x0a), DW_AT_bit_size(0x02)
    4376                      .dwattr $C$DW$117, DW_AT_data_member_location[DW_OP_plus_uconst 0x0]
    4377                      .dwattr $C$DW$117, DW_AT_accessibility(DW_ACCESS_public)
    4378              $C$DW$118       .dwtag  DW_TAG_member
    4379                      .dwattr $C$DW$118, DW_AT_type(*$C$DW$T$21)
TMS320C2000 Assembler PC v6.1.3 Thu Jan 30 10:33:25 2014

Tools Copyright (c) 1996-2012 Texas Instruments Incorporated
C:\Users\a0272466\AppData\Local\Temp\0939610                         PAGE   94

    4380                      .dwattr $C$DW$118, DW_AT_name("STATUS_RAM3")
    4381                      .dwattr $C$DW$118, DW_AT_TI_symbol_name("_STATUS_RAM3")
    4382                      .dwattr $C$DW$118, DW_AT_bit_offset(0x08), DW_AT_bit_size(0x02)
    4383                      .dwattr $C$DW$118, DW_AT_data_member_location[DW_OP_plus_uconst 0x0]
    4384                      .dwattr $C$DW$118, DW_AT_accessibility(DW_ACCESS_public)
    4385              $C$DW$119       .dwtag  DW_TAG_member
    4386                      .dwattr $C$DW$119, DW_AT_type(*$C$DW$T$21)
    4387                      .dwattr $C$DW$119, DW_AT_name("STATUS_RAM4")
    4388                      .dwattr $C$DW$119, DW_AT_TI_symbol_name("_STATUS_RAM4")
    4389                      .dwattr $C$DW$119, DW_AT_bit_offset(0x06), DW_AT_bit_size(0x02)
    4390                      .dwattr $C$DW$119, DW_AT_data_member_location[DW_OP_plus_uconst 0x0]
    4391                      .dwattr $C$DW$119, DW_AT_accessibility(DW_ACCESS_public)
    4392              $C$DW$120       .dwtag  DW_TAG_member
    4393                      .dwattr $C$DW$120, DW_AT_type(*$C$DW$T$21)
    4394                      .dwattr $C$DW$120, DW_AT_name("STATUS_RAM5")
    4395                      .dwattr $C$DW$120, DW_AT_TI_symbol_name("_STATUS_RAM5")
    4396                      .dwattr $C$DW$120, DW_AT_bit_offset(0x04), DW_AT_bit_size(0x02)
    4397                      .dwattr $C$DW$120, DW_AT_data_member_location[DW_OP_plus_uconst 0x0]
    4398                      .dwattr $C$DW$120, DW_AT_accessibility(DW_ACCESS_public)
    4399              $C$DW$121       .dwtag  DW_TAG_member
    4400                      .dwattr $C$DW$121, DW_AT_type(*$C$DW$T$21)
    4401                      .dwattr $C$DW$121, DW_AT_name("STATUS_RAM6")
    4402                      .dwattr $C$DW$121, DW_AT_TI_symbol_name("_STATUS_RAM6")
    4403                      .dwattr $C$DW$121, DW_AT_bit_offset(0x02), DW_AT_bit_size(0x02)
    4404                      .dwattr $C$DW$121, DW_AT_data_member_location[DW_OP_plus_uconst 0x0]
    4405                      .dwattr $C$DW$121, DW_AT_accessibility(DW_ACCESS_public)
    4406              $C$DW$122       .dwtag  DW_TAG_member
    4407                      .dwattr $C$DW$122, DW_AT_type(*$C$DW$T$21)
    4408                      .dwattr $C$DW$122, DW_AT_name("STATUS_RAM7")
    4409                      .dwattr $C$DW$122, DW_AT_TI_symbol_name("_STATUS_RAM7")
    4410                      .dwattr $C$DW$122, DW_AT_bit_offset(0x00), DW_AT_bit_size(0x02)
    4411                      .dwattr $C$DW$122, DW_AT_data_member_location[DW_OP_plus_uconst 0x0]
    4412                      .dwattr $C$DW$122, DW_AT_accessibility(DW_ACCESS_public)
    4413              $C$DW$123       .dwtag  DW_TAG_member
    4414                      .dwattr $C$DW$123, DW_AT_type(*$C$DW$T$21)
    4415                      .dwattr $C$DW$123, DW_AT_name("rsvd1")
    4416                      .dwattr $C$DW$123, DW_AT_TI_symbol_name("_rsvd1")
    4417                      .dwattr $C$DW$123, DW_AT_bit_offset(0x04), DW_AT_bit_size(0x0c)
    4418                      .dwattr $C$DW$123, DW_AT_data_member_location[DW_OP_plus_uconst 0x1]
    4419                      .dwattr $C$DW$123, DW_AT_accessibility(DW_ACCESS_public)
    4420              $C$DW$124       .dwtag  DW_TAG_member
    4421                      .dwattr $C$DW$124, DW_AT_type(*$C$DW$T$21)
    4422                      .dwattr $C$DW$124, DW_AT_name("STATUS_CLA1")
    4423                      .dwattr $C$DW$124, DW_AT_TI_symbol_name("_STATUS_CLA1")
    4424                      .dwattr $C$DW$124, DW_AT_bit_offset(0x02), DW_AT_bit_size(0x02)
    4425                      .dwattr $C$DW$124, DW_AT_data_member_location[DW_OP_plus_uconst 0x1]
    4426                      .dwattr $C$DW$124, DW_AT_accessibility(DW_ACCESS_public)
    4427              $C$DW$125       .dwtag  DW_TAG_member
    4428                      .dwattr $C$DW$125, DW_AT_type(*$C$DW$T$21)
    4429                      .dwattr $C$DW$125, DW_AT_name("rsvd2")
    4430                      .dwattr $C$DW$125, DW_AT_TI_symbol_name("_rsvd2")
    4431                      .dwattr $C$DW$125, DW_AT_bit_offset(0x00), DW_AT_bit_size(0x02)
    4432                      .dwattr $C$DW$125, DW_AT_data_member_location[DW_OP_plus_uconst 0x1]
    4433                      .dwattr $C$DW$125, DW_AT_accessibility(DW_ACCESS_public)
    4434                      .dwendtag $C$DW$T$27
TMS320C2000 Assembler PC v6.1.3 Thu Jan 30 10:33:25 2014

Tools Copyright (c) 1996-2012 Texas Instruments Incorporated
C:\Users\a0272466\AppData\Local\Temp\0939610                         PAGE   95

    4435              
    4436              
    4437              $C$DW$T$28      .dwtag  DW_TAG_union_type
    4438                      .dwattr $C$DW$T$28, DW_AT_name("RAMSTAT_REG")
    4439                      .dwattr $C$DW$T$28, DW_AT_byte_size(0x02)
    4440              $C$DW$126       .dwtag  DW_TAG_member
    4441                      .dwattr $C$DW$126, DW_AT_type(*$C$DW$T$20)
    4442                      .dwattr $C$DW$126, DW_AT_name("all")
    4443                      .dwattr $C$DW$126, DW_AT_TI_symbol_name("_all")
    4444                      .dwattr $C$DW$126, DW_AT_data_member_location[DW_OP_plus_uconst 0x0]
    4445                      .dwattr $C$DW$126, DW_AT_accessibility(DW_ACCESS_public)
    4446              $C$DW$127       .dwtag  DW_TAG_member
    4447                      .dwattr $C$DW$127, DW_AT_type(*$C$DW$T$27)
    4448                      .dwattr $C$DW$127, DW_AT_name("bit")
    4449                      .dwattr $C$DW$127, DW_AT_TI_symbol_name("_bit")
    4450                      .dwattr $C$DW$127, DW_AT_data_member_location[DW_OP_plus_uconst 0x0]
    4451                      .dwattr $C$DW$127, DW_AT_accessibility(DW_ACCESS_public)
    4452                      .dwendtag $C$DW$T$28
    4453              
    4454              
    4455              $C$DW$T$29      .dwtag  DW_TAG_structure_type
    4456                      .dwattr $C$DW$T$29, DW_AT_name("SECDC_BITS")
    4457                      .dwattr $C$DW$T$29, DW_AT_byte_size(0x01)
    4458              $C$DW$128       .dwtag  DW_TAG_member
    4459                      .dwattr $C$DW$128, DW_AT_type(*$C$DW$T$21)
    4460                      .dwattr $C$DW$128, DW_AT_name("CPUSLDIS")
    4461                      .dwattr $C$DW$128, DW_AT_TI_symbol_name("_CPUSLDIS")
    4462                      .dwattr $C$DW$128, DW_AT_bit_offset(0x0f), DW_AT_bit_size(0x01)
    4463                      .dwattr $C$DW$128, DW_AT_data_member_location[DW_OP_plus_uconst 0x0]
    4464                      .dwattr $C$DW$128, DW_AT_accessibility(DW_ACCESS_public)
    4465              $C$DW$129       .dwtag  DW_TAG_member
    4466                      .dwattr $C$DW$129, DW_AT_type(*$C$DW$T$21)
    4467                      .dwattr $C$DW$129, DW_AT_name("ECSLDIS")
    4468                      .dwattr $C$DW$129, DW_AT_TI_symbol_name("_ECSLDIS")
    4469                      .dwattr $C$DW$129, DW_AT_bit_offset(0x0e), DW_AT_bit_size(0x01)
    4470                      .dwattr $C$DW$129, DW_AT_data_member_location[DW_OP_plus_uconst 0x0]
    4471                      .dwattr $C$DW$129, DW_AT_accessibility(DW_ACCESS_public)
    4472              $C$DW$130       .dwtag  DW_TAG_member
    4473                      .dwattr $C$DW$130, DW_AT_type(*$C$DW$T$21)
    4474                      .dwattr $C$DW$130, DW_AT_name("FASTSPINEN")
    4475                      .dwattr $C$DW$130, DW_AT_TI_symbol_name("_FASTSPINEN")
    4476                      .dwattr $C$DW$130, DW_AT_bit_offset(0x0a), DW_AT_bit_size(0x04)
    4477                      .dwattr $C$DW$130, DW_AT_data_member_location[DW_OP_plus_uconst 0x0]
    4478                      .dwattr $C$DW$130, DW_AT_accessibility(DW_ACCESS_public)
    4479              $C$DW$131       .dwtag  DW_TAG_member
    4480                      .dwattr $C$DW$131, DW_AT_type(*$C$DW$T$21)
    4481                      .dwattr $C$DW$131, DW_AT_name("BANK2MAP")
    4482                      .dwattr $C$DW$131, DW_AT_TI_symbol_name("_BANK2MAP")
    4483                      .dwattr $C$DW$131, DW_AT_bit_offset(0x06), DW_AT_bit_size(0x04)
    4484                      .dwattr $C$DW$131, DW_AT_data_member_location[DW_OP_plus_uconst 0x0]
    4485                      .dwattr $C$DW$131, DW_AT_accessibility(DW_ACCESS_public)
    4486              $C$DW$132       .dwtag  DW_TAG_member
    4487                      .dwattr $C$DW$132, DW_AT_type(*$C$DW$T$21)
    4488                      .dwattr $C$DW$132, DW_AT_name("rsvd1")
    4489                      .dwattr $C$DW$132, DW_AT_TI_symbol_name("_rsvd1")
TMS320C2000 Assembler PC v6.1.3 Thu Jan 30 10:33:25 2014

Tools Copyright (c) 1996-2012 Texas Instruments Incorporated
C:\Users\a0272466\AppData\Local\Temp\0939610                         PAGE   96

    4490                      .dwattr $C$DW$132, DW_AT_bit_offset(0x00), DW_AT_bit_size(0x06)
    4491                      .dwattr $C$DW$132, DW_AT_data_member_location[DW_OP_plus_uconst 0x0]
    4492                      .dwattr $C$DW$132, DW_AT_accessibility(DW_ACCESS_public)
    4493                      .dwendtag $C$DW$T$29
    4494              
    4495              
    4496              $C$DW$T$30      .dwtag  DW_TAG_union_type
    4497                      .dwattr $C$DW$T$30, DW_AT_name("SECDC_REG")
    4498                      .dwattr $C$DW$T$30, DW_AT_byte_size(0x01)
    4499              $C$DW$133       .dwtag  DW_TAG_member
    4500                      .dwattr $C$DW$133, DW_AT_type(*$C$DW$T$21)
    4501                      .dwattr $C$DW$133, DW_AT_name("all")
    4502                      .dwattr $C$DW$133, DW_AT_TI_symbol_name("_all")
    4503                      .dwattr $C$DW$133, DW_AT_data_member_location[DW_OP_plus_uconst 0x0]
    4504                      .dwattr $C$DW$133, DW_AT_accessibility(DW_ACCESS_public)
    4505              $C$DW$134       .dwtag  DW_TAG_member
    4506                      .dwattr $C$DW$134, DW_AT_type(*$C$DW$T$29)
    4507                      .dwattr $C$DW$134, DW_AT_name("bit")
    4508                      .dwattr $C$DW$134, DW_AT_TI_symbol_name("_bit")
    4509                      .dwattr $C$DW$134, DW_AT_data_member_location[DW_OP_plus_uconst 0x0]
    4510                      .dwattr $C$DW$134, DW_AT_accessibility(DW_ACCESS_public)
    4511                      .dwendtag $C$DW$T$30
    4512              
    4513              
    4514              $C$DW$T$31      .dwtag  DW_TAG_structure_type
    4515                      .dwattr $C$DW$T$31, DW_AT_name("SECTSTAT_BITS")
    4516                      .dwattr $C$DW$T$31, DW_AT_byte_size(0x02)
    4517              $C$DW$135       .dwtag  DW_TAG_member
    4518                      .dwattr $C$DW$135, DW_AT_type(*$C$DW$T$21)
    4519                      .dwattr $C$DW$135, DW_AT_name("STATUS_SECTA")
    4520                      .dwattr $C$DW$135, DW_AT_TI_symbol_name("_STATUS_SECTA")
    4521                      .dwattr $C$DW$135, DW_AT_bit_offset(0x0e), DW_AT_bit_size(0x02)
    4522                      .dwattr $C$DW$135, DW_AT_data_member_location[DW_OP_plus_uconst 0x0]
    4523                      .dwattr $C$DW$135, DW_AT_accessibility(DW_ACCESS_public)
    4524              $C$DW$136       .dwtag  DW_TAG_member
    4525                      .dwattr $C$DW$136, DW_AT_type(*$C$DW$T$21)
    4526                      .dwattr $C$DW$136, DW_AT_name("STATUS_SECTB")
    4527                      .dwattr $C$DW$136, DW_AT_TI_symbol_name("_STATUS_SECTB")
    4528                      .dwattr $C$DW$136, DW_AT_bit_offset(0x0c), DW_AT_bit_size(0x02)
    4529                      .dwattr $C$DW$136, DW_AT_data_member_location[DW_OP_plus_uconst 0x0]
    4530                      .dwattr $C$DW$136, DW_AT_accessibility(DW_ACCESS_public)
    4531              $C$DW$137       .dwtag  DW_TAG_member
    4532                      .dwattr $C$DW$137, DW_AT_type(*$C$DW$T$21)
    4533                      .dwattr $C$DW$137, DW_AT_name("STATUS_SECTC")
    4534                      .dwattr $C$DW$137, DW_AT_TI_symbol_name("_STATUS_SECTC")
    4535                      .dwattr $C$DW$137, DW_AT_bit_offset(0x0a), DW_AT_bit_size(0x02)
    4536                      .dwattr $C$DW$137, DW_AT_data_member_location[DW_OP_plus_uconst 0x0]
    4537                      .dwattr $C$DW$137, DW_AT_accessibility(DW_ACCESS_public)
    4538              $C$DW$138       .dwtag  DW_TAG_member
    4539                      .dwattr $C$DW$138, DW_AT_type(*$C$DW$T$21)
    4540                      .dwattr $C$DW$138, DW_AT_name("STATUS_SECTD")
    4541                      .dwattr $C$DW$138, DW_AT_TI_symbol_name("_STATUS_SECTD")
    4542                      .dwattr $C$DW$138, DW_AT_bit_offset(0x08), DW_AT_bit_size(0x02)
    4543                      .dwattr $C$DW$138, DW_AT_data_member_location[DW_OP_plus_uconst 0x0]
    4544                      .dwattr $C$DW$138, DW_AT_accessibility(DW_ACCESS_public)
TMS320C2000 Assembler PC v6.1.3 Thu Jan 30 10:33:25 2014

Tools Copyright (c) 1996-2012 Texas Instruments Incorporated
C:\Users\a0272466\AppData\Local\Temp\0939610                         PAGE   97

    4545              $C$DW$139       .dwtag  DW_TAG_member
    4546                      .dwattr $C$DW$139, DW_AT_type(*$C$DW$T$21)
    4547                      .dwattr $C$DW$139, DW_AT_name("STATUS_SECTE")
    4548                      .dwattr $C$DW$139, DW_AT_TI_symbol_name("_STATUS_SECTE")
    4549                      .dwattr $C$DW$139, DW_AT_bit_offset(0x06), DW_AT_bit_size(0x02)
    4550                      .dwattr $C$DW$139, DW_AT_data_member_location[DW_OP_plus_uconst 0x0]
    4551                      .dwattr $C$DW$139, DW_AT_accessibility(DW_ACCESS_public)
    4552              $C$DW$140       .dwtag  DW_TAG_member
    4553                      .dwattr $C$DW$140, DW_AT_type(*$C$DW$T$21)
    4554                      .dwattr $C$DW$140, DW_AT_name("STATUS_SECTF")
    4555                      .dwattr $C$DW$140, DW_AT_TI_symbol_name("_STATUS_SECTF")
    4556                      .dwattr $C$DW$140, DW_AT_bit_offset(0x04), DW_AT_bit_size(0x02)
    4557                      .dwattr $C$DW$140, DW_AT_data_member_location[DW_OP_plus_uconst 0x0]
    4558                      .dwattr $C$DW$140, DW_AT_accessibility(DW_ACCESS_public)
    4559              $C$DW$141       .dwtag  DW_TAG_member
    4560                      .dwattr $C$DW$141, DW_AT_type(*$C$DW$T$21)
    4561                      .dwattr $C$DW$141, DW_AT_name("STATUS_SECTG")
    4562                      .dwattr $C$DW$141, DW_AT_TI_symbol_name("_STATUS_SECTG")
    4563                      .dwattr $C$DW$141, DW_AT_bit_offset(0x02), DW_AT_bit_size(0x02)
    4564                      .dwattr $C$DW$141, DW_AT_data_member_location[DW_OP_plus_uconst 0x0]
    4565                      .dwattr $C$DW$141, DW_AT_accessibility(DW_ACCESS_public)
    4566              $C$DW$142       .dwtag  DW_TAG_member
    4567                      .dwattr $C$DW$142, DW_AT_type(*$C$DW$T$21)
    4568                      .dwattr $C$DW$142, DW_AT_name("STATUS_SECTH")
    4569                      .dwattr $C$DW$142, DW_AT_TI_symbol_name("_STATUS_SECTH")
    4570                      .dwattr $C$DW$142, DW_AT_bit_offset(0x00), DW_AT_bit_size(0x02)
    4571                      .dwattr $C$DW$142, DW_AT_data_member_location[DW_OP_plus_uconst 0x0]
    4572                      .dwattr $C$DW$142, DW_AT_accessibility(DW_ACCESS_public)
    4573              $C$DW$143       .dwtag  DW_TAG_member
    4574                      .dwattr $C$DW$143, DW_AT_type(*$C$DW$T$21)
    4575                      .dwattr $C$DW$143, DW_AT_name("STATUS_SECTI")
    4576                      .dwattr $C$DW$143, DW_AT_TI_symbol_name("_STATUS_SECTI")
    4577                      .dwattr $C$DW$143, DW_AT_bit_offset(0x0e), DW_AT_bit_size(0x02)
    4578                      .dwattr $C$DW$143, DW_AT_data_member_location[DW_OP_plus_uconst 0x1]
    4579                      .dwattr $C$DW$143, DW_AT_accessibility(DW_ACCESS_public)
    4580              $C$DW$144       .dwtag  DW_TAG_member
    4581                      .dwattr $C$DW$144, DW_AT_type(*$C$DW$T$21)
    4582                      .dwattr $C$DW$144, DW_AT_name("STATUS_SECTJ")
    4583                      .dwattr $C$DW$144, DW_AT_TI_symbol_name("_STATUS_SECTJ")
    4584                      .dwattr $C$DW$144, DW_AT_bit_offset(0x0c), DW_AT_bit_size(0x02)
    4585                      .dwattr $C$DW$144, DW_AT_data_member_location[DW_OP_plus_uconst 0x1]
    4586                      .dwattr $C$DW$144, DW_AT_accessibility(DW_ACCESS_public)
    4587              $C$DW$145       .dwtag  DW_TAG_member
    4588                      .dwattr $C$DW$145, DW_AT_type(*$C$DW$T$21)
    4589                      .dwattr $C$DW$145, DW_AT_name("STATUS_SECTK")
    4590                      .dwattr $C$DW$145, DW_AT_TI_symbol_name("_STATUS_SECTK")
    4591                      .dwattr $C$DW$145, DW_AT_bit_offset(0x0a), DW_AT_bit_size(0x02)
    4592                      .dwattr $C$DW$145, DW_AT_data_member_location[DW_OP_plus_uconst 0x1]
    4593                      .dwattr $C$DW$145, DW_AT_accessibility(DW_ACCESS_public)
    4594              $C$DW$146       .dwtag  DW_TAG_member
    4595                      .dwattr $C$DW$146, DW_AT_type(*$C$DW$T$21)
    4596                      .dwattr $C$DW$146, DW_AT_name("STATUS_SECTL")
    4597                      .dwattr $C$DW$146, DW_AT_TI_symbol_name("_STATUS_SECTL")
    4598                      .dwattr $C$DW$146, DW_AT_bit_offset(0x08), DW_AT_bit_size(0x02)
    4599                      .dwattr $C$DW$146, DW_AT_data_member_location[DW_OP_plus_uconst 0x1]
TMS320C2000 Assembler PC v6.1.3 Thu Jan 30 10:33:25 2014

Tools Copyright (c) 1996-2012 Texas Instruments Incorporated
C:\Users\a0272466\AppData\Local\Temp\0939610                         PAGE   98

    4600                      .dwattr $C$DW$146, DW_AT_accessibility(DW_ACCESS_public)
    4601              $C$DW$147       .dwtag  DW_TAG_member
    4602                      .dwattr $C$DW$147, DW_AT_type(*$C$DW$T$21)
    4603                      .dwattr $C$DW$147, DW_AT_name("STATUS_SECTM")
    4604                      .dwattr $C$DW$147, DW_AT_TI_symbol_name("_STATUS_SECTM")
    4605                      .dwattr $C$DW$147, DW_AT_bit_offset(0x06), DW_AT_bit_size(0x02)
    4606                      .dwattr $C$DW$147, DW_AT_data_member_location[DW_OP_plus_uconst 0x1]
    4607                      .dwattr $C$DW$147, DW_AT_accessibility(DW_ACCESS_public)
    4608              $C$DW$148       .dwtag  DW_TAG_member
    4609                      .dwattr $C$DW$148, DW_AT_type(*$C$DW$T$21)
    4610                      .dwattr $C$DW$148, DW_AT_name("STATUS_SECTN")
    4611                      .dwattr $C$DW$148, DW_AT_TI_symbol_name("_STATUS_SECTN")
    4612                      .dwattr $C$DW$148, DW_AT_bit_offset(0x04), DW_AT_bit_size(0x02)
    4613                      .dwattr $C$DW$148, DW_AT_data_member_location[DW_OP_plus_uconst 0x1]
    4614                      .dwattr $C$DW$148, DW_AT_accessibility(DW_ACCESS_public)
    4615              $C$DW$149       .dwtag  DW_TAG_member
    4616                      .dwattr $C$DW$149, DW_AT_type(*$C$DW$T$21)
    4617                      .dwattr $C$DW$149, DW_AT_name("STATUS_BANK2")
    4618                      .dwattr $C$DW$149, DW_AT_TI_symbol_name("_STATUS_BANK2")
    4619                      .dwattr $C$DW$149, DW_AT_bit_offset(0x02), DW_AT_bit_size(0x02)
    4620                      .dwattr $C$DW$149, DW_AT_data_member_location[DW_OP_plus_uconst 0x1]
    4621                      .dwattr $C$DW$149, DW_AT_accessibility(DW_ACCESS_public)
    4622              $C$DW$150       .dwtag  DW_TAG_member
    4623                      .dwattr $C$DW$150, DW_AT_type(*$C$DW$T$21)
    4624                      .dwattr $C$DW$150, DW_AT_name("rsvd1")
    4625                      .dwattr $C$DW$150, DW_AT_TI_symbol_name("_rsvd1")
    4626                      .dwattr $C$DW$150, DW_AT_bit_offset(0x00), DW_AT_bit_size(0x02)
    4627                      .dwattr $C$DW$150, DW_AT_data_member_location[DW_OP_plus_uconst 0x1]
    4628                      .dwattr $C$DW$150, DW_AT_accessibility(DW_ACCESS_public)
    4629                      .dwendtag $C$DW$T$31
    4630              
    4631              
    4632              $C$DW$T$32      .dwtag  DW_TAG_union_type
    4633                      .dwattr $C$DW$T$32, DW_AT_name("SECTSTAT_REG")
    4634                      .dwattr $C$DW$T$32, DW_AT_byte_size(0x02)
    4635              $C$DW$151       .dwtag  DW_TAG_member
    4636                      .dwattr $C$DW$151, DW_AT_type(*$C$DW$T$20)
    4637                      .dwattr $C$DW$151, DW_AT_name("all")
    4638                      .dwattr $C$DW$151, DW_AT_TI_symbol_name("_all")
    4639                      .dwattr $C$DW$151, DW_AT_data_member_location[DW_OP_plus_uconst 0x0]
    4640                      .dwattr $C$DW$151, DW_AT_accessibility(DW_ACCESS_public)
    4641              $C$DW$152       .dwtag  DW_TAG_member
    4642                      .dwattr $C$DW$152, DW_AT_type(*$C$DW$T$31)
    4643                      .dwattr $C$DW$152, DW_AT_name("bit")
    4644                      .dwattr $C$DW$152, DW_AT_TI_symbol_name("_bit")
    4645                      .dwattr $C$DW$152, DW_AT_data_member_location[DW_OP_plus_uconst 0x0]
    4646                      .dwattr $C$DW$152, DW_AT_accessibility(DW_ACCESS_public)
    4647                      .dwendtag $C$DW$T$32
    4648              
    4649              
    4650              $C$DW$T$33      .dwtag  DW_TAG_structure_type
    4651                      .dwattr $C$DW$T$33, DW_AT_name("Z1_BOOTCTRL_BITS")
    4652                      .dwattr $C$DW$T$33, DW_AT_byte_size(0x02)
    4653              $C$DW$153       .dwtag  DW_TAG_member
    4654                      .dwattr $C$DW$153, DW_AT_type(*$C$DW$T$21)
TMS320C2000 Assembler PC v6.1.3 Thu Jan 30 10:33:25 2014

Tools Copyright (c) 1996-2012 Texas Instruments Incorporated
C:\Users\a0272466\AppData\Local\Temp\0939610                         PAGE   99

    4655                      .dwattr $C$DW$153, DW_AT_name("KEY")
    4656                      .dwattr $C$DW$153, DW_AT_TI_symbol_name("_KEY")
    4657                      .dwattr $C$DW$153, DW_AT_bit_offset(0x08), DW_AT_bit_size(0x08)
    4658                      .dwattr $C$DW$153, DW_AT_data_member_location[DW_OP_plus_uconst 0x0]
    4659                      .dwattr $C$DW$153, DW_AT_accessibility(DW_ACCESS_public)
    4660              $C$DW$154       .dwtag  DW_TAG_member
    4661                      .dwattr $C$DW$154, DW_AT_type(*$C$DW$T$21)
    4662                      .dwattr $C$DW$154, DW_AT_name("BMODE")
    4663                      .dwattr $C$DW$154, DW_AT_TI_symbol_name("_BMODE")
    4664                      .dwattr $C$DW$154, DW_AT_bit_offset(0x00), DW_AT_bit_size(0x08)
    4665                      .dwattr $C$DW$154, DW_AT_data_member_location[DW_OP_plus_uconst 0x0]
    4666                      .dwattr $C$DW$154, DW_AT_accessibility(DW_ACCESS_public)
    4667              $C$DW$155       .dwtag  DW_TAG_member
    4668                      .dwattr $C$DW$155, DW_AT_type(*$C$DW$T$21)
    4669                      .dwattr $C$DW$155, DW_AT_name("BOOTPIN0")
    4670                      .dwattr $C$DW$155, DW_AT_TI_symbol_name("_BOOTPIN0")
    4671                      .dwattr $C$DW$155, DW_AT_bit_offset(0x08), DW_AT_bit_size(0x08)
    4672                      .dwattr $C$DW$155, DW_AT_data_member_location[DW_OP_plus_uconst 0x1]
    4673                      .dwattr $C$DW$155, DW_AT_accessibility(DW_ACCESS_public)
    4674              $C$DW$156       .dwtag  DW_TAG_member
    4675                      .dwattr $C$DW$156, DW_AT_type(*$C$DW$T$21)
    4676                      .dwattr $C$DW$156, DW_AT_name("BOOTPIN1")
    4677                      .dwattr $C$DW$156, DW_AT_TI_symbol_name("_BOOTPIN1")
    4678                      .dwattr $C$DW$156, DW_AT_bit_offset(0x00), DW_AT_bit_size(0x08)
    4679                      .dwattr $C$DW$156, DW_AT_data_member_location[DW_OP_plus_uconst 0x1]
    4680                      .dwattr $C$DW$156, DW_AT_accessibility(DW_ACCESS_public)
    4681                      .dwendtag $C$DW$T$33
    4682              
    4683              
    4684              $C$DW$T$34      .dwtag  DW_TAG_union_type
    4685                      .dwattr $C$DW$T$34, DW_AT_name("Z1_BOOTCTRL_REG")
    4686                      .dwattr $C$DW$T$34, DW_AT_byte_size(0x02)
    4687              $C$DW$157       .dwtag  DW_TAG_member
    4688                      .dwattr $C$DW$157, DW_AT_type(*$C$DW$T$20)
    4689                      .dwattr $C$DW$157, DW_AT_name("all")
    4690                      .dwattr $C$DW$157, DW_AT_TI_symbol_name("_all")
    4691                      .dwattr $C$DW$157, DW_AT_data_member_location[DW_OP_plus_uconst 0x0]
    4692                      .dwattr $C$DW$157, DW_AT_accessibility(DW_ACCESS_public)
    4693              $C$DW$158       .dwtag  DW_TAG_member
    4694                      .dwattr $C$DW$158, DW_AT_type(*$C$DW$T$33)
    4695                      .dwattr $C$DW$158, DW_AT_name("bit")
    4696                      .dwattr $C$DW$158, DW_AT_TI_symbol_name("_bit")
    4697                      .dwattr $C$DW$158, DW_AT_data_member_location[DW_OP_plus_uconst 0x0]
    4698                      .dwattr $C$DW$158, DW_AT_accessibility(DW_ACCESS_public)
    4699                      .dwendtag $C$DW$T$34
    4700              
    4701              
    4702              $C$DW$T$35      .dwtag  DW_TAG_structure_type
    4703                      .dwattr $C$DW$T$35, DW_AT_name("Z1_CR_BITS")
    4704                      .dwattr $C$DW$T$35, DW_AT_byte_size(0x01)
    4705              $C$DW$159       .dwtag  DW_TAG_member
    4706                      .dwattr $C$DW$159, DW_AT_type(*$C$DW$T$21)
    4707                      .dwattr $C$DW$159, DW_AT_name("rsvd1")
    4708                      .dwattr $C$DW$159, DW_AT_TI_symbol_name("_rsvd1")
    4709                      .dwattr $C$DW$159, DW_AT_bit_offset(0x0d), DW_AT_bit_size(0x03)
TMS320C2000 Assembler PC v6.1.3 Thu Jan 30 10:33:25 2014

Tools Copyright (c) 1996-2012 Texas Instruments Incorporated
C:\Users\a0272466\AppData\Local\Temp\0939610                         PAGE  100

    4710                      .dwattr $C$DW$159, DW_AT_data_member_location[DW_OP_plus_uconst 0x0]
    4711                      .dwattr $C$DW$159, DW_AT_accessibility(DW_ACCESS_public)
    4712              $C$DW$160       .dwtag  DW_TAG_member
    4713                      .dwattr $C$DW$160, DW_AT_type(*$C$DW$T$21)
    4714                      .dwattr $C$DW$160, DW_AT_name("ALLZERO")
    4715                      .dwattr $C$DW$160, DW_AT_TI_symbol_name("_ALLZERO")
    4716                      .dwattr $C$DW$160, DW_AT_bit_offset(0x0c), DW_AT_bit_size(0x01)
    4717                      .dwattr $C$DW$160, DW_AT_data_member_location[DW_OP_plus_uconst 0x0]
    4718                      .dwattr $C$DW$160, DW_AT_accessibility(DW_ACCESS_public)
    4719              $C$DW$161       .dwtag  DW_TAG_member
    4720                      .dwattr $C$DW$161, DW_AT_type(*$C$DW$T$21)
    4721                      .dwattr $C$DW$161, DW_AT_name("ALLONE")
    4722                      .dwattr $C$DW$161, DW_AT_TI_symbol_name("_ALLONE")
    4723                      .dwattr $C$DW$161, DW_AT_bit_offset(0x0b), DW_AT_bit_size(0x01)
    4724                      .dwattr $C$DW$161, DW_AT_data_member_location[DW_OP_plus_uconst 0x0]
    4725                      .dwattr $C$DW$161, DW_AT_accessibility(DW_ACCESS_public)
    4726              $C$DW$162       .dwtag  DW_TAG_member
    4727                      .dwattr $C$DW$162, DW_AT_type(*$C$DW$T$21)
    4728                      .dwattr $C$DW$162, DW_AT_name("UNSECURE")
    4729                      .dwattr $C$DW$162, DW_AT_TI_symbol_name("_UNSECURE")
    4730                      .dwattr $C$DW$162, DW_AT_bit_offset(0x0a), DW_AT_bit_size(0x01)
    4731                      .dwattr $C$DW$162, DW_AT_data_member_location[DW_OP_plus_uconst 0x0]
    4732                      .dwattr $C$DW$162, DW_AT_accessibility(DW_ACCESS_public)
    4733              $C$DW$163       .dwtag  DW_TAG_member
    4734                      .dwattr $C$DW$163, DW_AT_type(*$C$DW$T$21)
    4735                      .dwattr $C$DW$163, DW_AT_name("ARMED")
    4736                      .dwattr $C$DW$163, DW_AT_TI_symbol_name("_ARMED")
    4737                      .dwattr $C$DW$163, DW_AT_bit_offset(0x09), DW_AT_bit_size(0x01)
    4738                      .dwattr $C$DW$163, DW_AT_data_member_location[DW_OP_plus_uconst 0x0]
    4739                      .dwattr $C$DW$163, DW_AT_accessibility(DW_ACCESS_public)
    4740              $C$DW$164       .dwtag  DW_TAG_member
    4741                      .dwattr $C$DW$164, DW_AT_type(*$C$DW$T$21)
    4742                      .dwattr $C$DW$164, DW_AT_name("USBD_OPEN")
    4743                      .dwattr $C$DW$164, DW_AT_TI_symbol_name("_USBD_OPEN")
    4744                      .dwattr $C$DW$164, DW_AT_bit_offset(0x08), DW_AT_bit_size(0x01)
    4745                      .dwattr $C$DW$164, DW_AT_data_member_location[DW_OP_plus_uconst 0x0]
    4746                      .dwattr $C$DW$164, DW_AT_accessibility(DW_ACCESS_public)
    4747              $C$DW$165       .dwtag  DW_TAG_member
    4748                      .dwattr $C$DW$165, DW_AT_type(*$C$DW$T$21)
    4749                      .dwattr $C$DW$165, DW_AT_name("rsvd2")
    4750                      .dwattr $C$DW$165, DW_AT_TI_symbol_name("_rsvd2")
    4751                      .dwattr $C$DW$165, DW_AT_bit_offset(0x01), DW_AT_bit_size(0x07)
    4752                      .dwattr $C$DW$165, DW_AT_data_member_location[DW_OP_plus_uconst 0x0]
    4753                      .dwattr $C$DW$165, DW_AT_accessibility(DW_ACCESS_public)
    4754              $C$DW$166       .dwtag  DW_TAG_member
    4755                      .dwattr $C$DW$166, DW_AT_type(*$C$DW$T$21)
    4756                      .dwattr $C$DW$166, DW_AT_name("FORCESEC")
    4757                      .dwattr $C$DW$166, DW_AT_TI_symbol_name("_FORCESEC")
    4758                      .dwattr $C$DW$166, DW_AT_bit_offset(0x00), DW_AT_bit_size(0x01)
    4759                      .dwattr $C$DW$166, DW_AT_data_member_location[DW_OP_plus_uconst 0x0]
    4760                      .dwattr $C$DW$166, DW_AT_accessibility(DW_ACCESS_public)
    4761                      .dwendtag $C$DW$T$35
    4762              
    4763              
    4764              $C$DW$T$36      .dwtag  DW_TAG_union_type
TMS320C2000 Assembler PC v6.1.3 Thu Jan 30 10:33:25 2014

Tools Copyright (c) 1996-2012 Texas Instruments Incorporated
C:\Users\a0272466\AppData\Local\Temp\0939610                         PAGE  101

    4765                      .dwattr $C$DW$T$36, DW_AT_name("Z1_CR_REG")
    4766                      .dwattr $C$DW$T$36, DW_AT_byte_size(0x01)
    4767              $C$DW$167       .dwtag  DW_TAG_member
    4768                      .dwattr $C$DW$167, DW_AT_type(*$C$DW$T$21)
    4769                      .dwattr $C$DW$167, DW_AT_name("all")
    4770                      .dwattr $C$DW$167, DW_AT_TI_symbol_name("_all")
    4771                      .dwattr $C$DW$167, DW_AT_data_member_location[DW_OP_plus_uconst 0x0]
    4772                      .dwattr $C$DW$167, DW_AT_accessibility(DW_ACCESS_public)
    4773              $C$DW$168       .dwtag  DW_TAG_member
    4774                      .dwattr $C$DW$168, DW_AT_type(*$C$DW$T$35)
    4775                      .dwattr $C$DW$168, DW_AT_name("bit")
    4776                      .dwattr $C$DW$168, DW_AT_TI_symbol_name("_bit")
    4777                      .dwattr $C$DW$168, DW_AT_data_member_location[DW_OP_plus_uconst 0x0]
    4778                      .dwattr $C$DW$168, DW_AT_accessibility(DW_ACCESS_public)
    4779                      .dwendtag $C$DW$T$36
    4780              
    4781              
    4782              $C$DW$T$37      .dwtag  DW_TAG_structure_type
    4783                      .dwattr $C$DW$T$37, DW_AT_name("Z1_CSMLOCKSR_BITS")
    4784                      .dwattr $C$DW$T$37, DW_AT_byte_size(0x01)
    4785              $C$DW$169       .dwtag  DW_TAG_member
    4786                      .dwattr $C$DW$169, DW_AT_type(*$C$DW$T$21)
    4787                      .dwattr $C$DW$169, DW_AT_name("LOCK0")
    4788                      .dwattr $C$DW$169, DW_AT_TI_symbol_name("_LOCK0")
    4789                      .dwattr $C$DW$169, DW_AT_bit_offset(0x0f), DW_AT_bit_size(0x01)
    4790                      .dwattr $C$DW$169, DW_AT_data_member_location[DW_OP_plus_uconst 0x0]
    4791                      .dwattr $C$DW$169, DW_AT_accessibility(DW_ACCESS_public)
    4792              $C$DW$170       .dwtag  DW_TAG_member
    4793                      .dwattr $C$DW$170, DW_AT_type(*$C$DW$T$21)
    4794                      .dwattr $C$DW$170, DW_AT_name("LOCK1")
    4795                      .dwattr $C$DW$170, DW_AT_TI_symbol_name("_LOCK1")
    4796                      .dwattr $C$DW$170, DW_AT_bit_offset(0x0e), DW_AT_bit_size(0x01)
    4797                      .dwattr $C$DW$170, DW_AT_data_member_location[DW_OP_plus_uconst 0x0]
    4798                      .dwattr $C$DW$170, DW_AT_accessibility(DW_ACCESS_public)
    4799              $C$DW$171       .dwtag  DW_TAG_member
    4800                      .dwattr $C$DW$171, DW_AT_type(*$C$DW$T$21)
    4801                      .dwattr $C$DW$171, DW_AT_name("LOCK2")
    4802                      .dwattr $C$DW$171, DW_AT_TI_symbol_name("_LOCK2")
    4803                      .dwattr $C$DW$171, DW_AT_bit_offset(0x0d), DW_AT_bit_size(0x01)
    4804                      .dwattr $C$DW$171, DW_AT_data_member_location[DW_OP_plus_uconst 0x0]
    4805                      .dwattr $C$DW$171, DW_AT_accessibility(DW_ACCESS_public)
    4806              $C$DW$172       .dwtag  DW_TAG_member
    4807                      .dwattr $C$DW$172, DW_AT_type(*$C$DW$T$21)
    4808                      .dwattr $C$DW$172, DW_AT_name("LOCK3")
    4809                      .dwattr $C$DW$172, DW_AT_TI_symbol_name("_LOCK3")
    4810                      .dwattr $C$DW$172, DW_AT_bit_offset(0x0c), DW_AT_bit_size(0x01)
    4811                      .dwattr $C$DW$172, DW_AT_data_member_location[DW_OP_plus_uconst 0x0]
    4812                      .dwattr $C$DW$172, DW_AT_accessibility(DW_ACCESS_public)
    4813              $C$DW$173       .dwtag  DW_TAG_member
    4814                      .dwattr $C$DW$173, DW_AT_type(*$C$DW$T$21)
    4815                      .dwattr $C$DW$173, DW_AT_name("rsvd1")
    4816                      .dwattr $C$DW$173, DW_AT_TI_symbol_name("_rsvd1")
    4817                      .dwattr $C$DW$173, DW_AT_bit_offset(0x00), DW_AT_bit_size(0x0c)
    4818                      .dwattr $C$DW$173, DW_AT_data_member_location[DW_OP_plus_uconst 0x0]
    4819                      .dwattr $C$DW$173, DW_AT_accessibility(DW_ACCESS_public)
TMS320C2000 Assembler PC v6.1.3 Thu Jan 30 10:33:25 2014

Tools Copyright (c) 1996-2012 Texas Instruments Incorporated
C:\Users\a0272466\AppData\Local\Temp\0939610                         PAGE  102

    4820                      .dwendtag $C$DW$T$37
    4821              
    4822              
    4823              $C$DW$T$38      .dwtag  DW_TAG_union_type
    4824                      .dwattr $C$DW$T$38, DW_AT_name("Z1_CSMLOCKSR_REG")
    4825                      .dwattr $C$DW$T$38, DW_AT_byte_size(0x01)
    4826              $C$DW$174       .dwtag  DW_TAG_member
    4827                      .dwattr $C$DW$174, DW_AT_type(*$C$DW$T$21)
    4828                      .dwattr $C$DW$174, DW_AT_name("all")
    4829                      .dwattr $C$DW$174, DW_AT_TI_symbol_name("_all")
    4830                      .dwattr $C$DW$174, DW_AT_data_member_location[DW_OP_plus_uconst 0x0]
    4831                      .dwattr $C$DW$174, DW_AT_accessibility(DW_ACCESS_public)
    4832              $C$DW$175       .dwtag  DW_TAG_member
    4833                      .dwattr $C$DW$175, DW_AT_type(*$C$DW$T$37)
    4834                      .dwattr $C$DW$175, DW_AT_name("bit")
    4835                      .dwattr $C$DW$175, DW_AT_TI_symbol_name("_bit")
    4836                      .dwattr $C$DW$175, DW_AT_data_member_location[DW_OP_plus_uconst 0x0]
    4837                      .dwattr $C$DW$175, DW_AT_accessibility(DW_ACCESS_public)
    4838                      .dwendtag $C$DW$T$38
    4839              
    4840              
    4841              $C$DW$T$39      .dwtag  DW_TAG_structure_type
    4842                      .dwattr $C$DW$T$39, DW_AT_name("Z1_EXEONLYDIS_BITS")
    4843                      .dwattr $C$DW$T$39, DW_AT_byte_size(0x01)
    4844              $C$DW$176       .dwtag  DW_TAG_member
    4845                      .dwattr $C$DW$176, DW_AT_type(*$C$DW$T$21)
    4846                      .dwattr $C$DW$176, DW_AT_name("DIS")
    4847                      .dwattr $C$DW$176, DW_AT_TI_symbol_name("_DIS")
    4848                      .dwattr $C$DW$176, DW_AT_bit_offset(0x0f), DW_AT_bit_size(0x01)
    4849                      .dwattr $C$DW$176, DW_AT_data_member_location[DW_OP_plus_uconst 0x0]
    4850                      .dwattr $C$DW$176, DW_AT_accessibility(DW_ACCESS_public)
    4851              $C$DW$177       .dwtag  DW_TAG_member
    4852                      .dwattr $C$DW$177, DW_AT_type(*$C$DW$T$21)
    4853                      .dwattr $C$DW$177, DW_AT_name("rsvd1")
    4854                      .dwattr $C$DW$177, DW_AT_TI_symbol_name("_rsvd1")
    4855                      .dwattr $C$DW$177, DW_AT_bit_offset(0x00), DW_AT_bit_size(0x0f)
    4856                      .dwattr $C$DW$177, DW_AT_data_member_location[DW_OP_plus_uconst 0x0]
    4857                      .dwattr $C$DW$177, DW_AT_accessibility(DW_ACCESS_public)
    4858                      .dwendtag $C$DW$T$39
    4859              
    4860              
    4861              $C$DW$T$40      .dwtag  DW_TAG_union_type
    4862                      .dwattr $C$DW$T$40, DW_AT_name("Z1_EXEONLYDIS_REG")
    4863                      .dwattr $C$DW$T$40, DW_AT_byte_size(0x01)
    4864              $C$DW$178       .dwtag  DW_TAG_member
    4865                      .dwattr $C$DW$178, DW_AT_type(*$C$DW$T$21)
    4866                      .dwattr $C$DW$178, DW_AT_name("all")
    4867                      .dwattr $C$DW$178, DW_AT_TI_symbol_name("_all")
    4868                      .dwattr $C$DW$178, DW_AT_data_member_location[DW_OP_plus_uconst 0x0]
    4869                      .dwattr $C$DW$178, DW_AT_accessibility(DW_ACCESS_public)
    4870              $C$DW$179       .dwtag  DW_TAG_member
    4871                      .dwattr $C$DW$179, DW_AT_type(*$C$DW$T$39)
    4872                      .dwattr $C$DW$179, DW_AT_name("bit")
    4873                      .dwattr $C$DW$179, DW_AT_TI_symbol_name("_bit")
    4874                      .dwattr $C$DW$179, DW_AT_data_member_location[DW_OP_plus_uconst 0x0]
TMS320C2000 Assembler PC v6.1.3 Thu Jan 30 10:33:25 2014

Tools Copyright (c) 1996-2012 Texas Instruments Incorporated
C:\Users\a0272466\AppData\Local\Temp\0939610                         PAGE  103

    4875                      .dwattr $C$DW$179, DW_AT_accessibility(DW_ACCESS_public)
    4876                      .dwendtag $C$DW$T$40
    4877              
    4878              
    4879              $C$DW$T$41      .dwtag  DW_TAG_structure_type
    4880                      .dwattr $C$DW$T$41, DW_AT_name("Z1_EXEONLYRAMR_BITS")
    4881                      .dwattr $C$DW$T$41, DW_AT_byte_size(0x02)
    4882              $C$DW$180       .dwtag  DW_TAG_member
    4883                      .dwattr $C$DW$180, DW_AT_type(*$C$DW$T$21)
    4884                      .dwattr $C$DW$180, DW_AT_name("EXEONLY_RAM0")
    4885                      .dwattr $C$DW$180, DW_AT_TI_symbol_name("_EXEONLY_RAM0")
    4886                      .dwattr $C$DW$180, DW_AT_bit_offset(0x0f), DW_AT_bit_size(0x01)
    4887                      .dwattr $C$DW$180, DW_AT_data_member_location[DW_OP_plus_uconst 0x0]
    4888                      .dwattr $C$DW$180, DW_AT_accessibility(DW_ACCESS_public)
    4889              $C$DW$181       .dwtag  DW_TAG_member
    4890                      .dwattr $C$DW$181, DW_AT_type(*$C$DW$T$21)
    4891                      .dwattr $C$DW$181, DW_AT_name("EXEONLY_RAM1")
    4892                      .dwattr $C$DW$181, DW_AT_TI_symbol_name("_EXEONLY_RAM1")
    4893                      .dwattr $C$DW$181, DW_AT_bit_offset(0x0e), DW_AT_bit_size(0x01)
    4894                      .dwattr $C$DW$181, DW_AT_data_member_location[DW_OP_plus_uconst 0x0]
    4895                      .dwattr $C$DW$181, DW_AT_accessibility(DW_ACCESS_public)
    4896              $C$DW$182       .dwtag  DW_TAG_member
    4897                      .dwattr $C$DW$182, DW_AT_type(*$C$DW$T$21)
    4898                      .dwattr $C$DW$182, DW_AT_name("EXEONLY_RAM2")
    4899                      .dwattr $C$DW$182, DW_AT_TI_symbol_name("_EXEONLY_RAM2")
    4900                      .dwattr $C$DW$182, DW_AT_bit_offset(0x0d), DW_AT_bit_size(0x01)
    4901                      .dwattr $C$DW$182, DW_AT_data_member_location[DW_OP_plus_uconst 0x0]
    4902                      .dwattr $C$DW$182, DW_AT_accessibility(DW_ACCESS_public)
    4903              $C$DW$183       .dwtag  DW_TAG_member
    4904                      .dwattr $C$DW$183, DW_AT_type(*$C$DW$T$21)
    4905                      .dwattr $C$DW$183, DW_AT_name("EXEONLY_RAM3")
    4906                      .dwattr $C$DW$183, DW_AT_TI_symbol_name("_EXEONLY_RAM3")
    4907                      .dwattr $C$DW$183, DW_AT_bit_offset(0x0c), DW_AT_bit_size(0x01)
    4908                      .dwattr $C$DW$183, DW_AT_data_member_location[DW_OP_plus_uconst 0x0]
    4909                      .dwattr $C$DW$183, DW_AT_accessibility(DW_ACCESS_public)
    4910              $C$DW$184       .dwtag  DW_TAG_member
    4911                      .dwattr $C$DW$184, DW_AT_type(*$C$DW$T$21)
    4912                      .dwattr $C$DW$184, DW_AT_name("EXEONLY_RAM4")
    4913                      .dwattr $C$DW$184, DW_AT_TI_symbol_name("_EXEONLY_RAM4")
    4914                      .dwattr $C$DW$184, DW_AT_bit_offset(0x0b), DW_AT_bit_size(0x01)
    4915                      .dwattr $C$DW$184, DW_AT_data_member_location[DW_OP_plus_uconst 0x0]
    4916                      .dwattr $C$DW$184, DW_AT_accessibility(DW_ACCESS_public)
    4917              $C$DW$185       .dwtag  DW_TAG_member
    4918                      .dwattr $C$DW$185, DW_AT_type(*$C$DW$T$21)
    4919                      .dwattr $C$DW$185, DW_AT_name("EXEONLY_RAM5")
    4920                      .dwattr $C$DW$185, DW_AT_TI_symbol_name("_EXEONLY_RAM5")
    4921                      .dwattr $C$DW$185, DW_AT_bit_offset(0x0a), DW_AT_bit_size(0x01)
    4922                      .dwattr $C$DW$185, DW_AT_data_member_location[DW_OP_plus_uconst 0x0]
    4923                      .dwattr $C$DW$185, DW_AT_accessibility(DW_ACCESS_public)
    4924              $C$DW$186       .dwtag  DW_TAG_member
    4925                      .dwattr $C$DW$186, DW_AT_type(*$C$DW$T$21)
    4926                      .dwattr $C$DW$186, DW_AT_name("EXEONLY_RAM6")
    4927                      .dwattr $C$DW$186, DW_AT_TI_symbol_name("_EXEONLY_RAM6")
    4928                      .dwattr $C$DW$186, DW_AT_bit_offset(0x09), DW_AT_bit_size(0x01)
    4929                      .dwattr $C$DW$186, DW_AT_data_member_location[DW_OP_plus_uconst 0x0]
TMS320C2000 Assembler PC v6.1.3 Thu Jan 30 10:33:25 2014

Tools Copyright (c) 1996-2012 Texas Instruments Incorporated
C:\Users\a0272466\AppData\Local\Temp\0939610                         PAGE  104

    4930                      .dwattr $C$DW$186, DW_AT_accessibility(DW_ACCESS_public)
    4931              $C$DW$187       .dwtag  DW_TAG_member
    4932                      .dwattr $C$DW$187, DW_AT_type(*$C$DW$T$21)
    4933                      .dwattr $C$DW$187, DW_AT_name("EXEONLY_RAM7")
    4934                      .dwattr $C$DW$187, DW_AT_TI_symbol_name("_EXEONLY_RAM7")
    4935                      .dwattr $C$DW$187, DW_AT_bit_offset(0x08), DW_AT_bit_size(0x01)
    4936                      .dwattr $C$DW$187, DW_AT_data_member_location[DW_OP_plus_uconst 0x0]
    4937                      .dwattr $C$DW$187, DW_AT_accessibility(DW_ACCESS_public)
    4938              $C$DW$188       .dwtag  DW_TAG_member
    4939                      .dwattr $C$DW$188, DW_AT_type(*$C$DW$T$21)
    4940                      .dwattr $C$DW$188, DW_AT_name("rsvd1")
    4941                      .dwattr $C$DW$188, DW_AT_TI_symbol_name("_rsvd1")
    4942                      .dwattr $C$DW$188, DW_AT_bit_offset(0x00), DW_AT_bit_size(0x08)
    4943                      .dwattr $C$DW$188, DW_AT_data_member_location[DW_OP_plus_uconst 0x0]
    4944                      .dwattr $C$DW$188, DW_AT_accessibility(DW_ACCESS_public)
    4945              $C$DW$189       .dwtag  DW_TAG_member
    4946                      .dwattr $C$DW$189, DW_AT_type(*$C$DW$T$21)
    4947                      .dwattr $C$DW$189, DW_AT_name("rsvd2")
    4948                      .dwattr $C$DW$189, DW_AT_TI_symbol_name("_rsvd2")
    4949                      .dwattr $C$DW$189, DW_AT_bit_offset(0x00), DW_AT_bit_size(0x10)
    4950                      .dwattr $C$DW$189, DW_AT_data_member_location[DW_OP_plus_uconst 0x1]
    4951                      .dwattr $C$DW$189, DW_AT_accessibility(DW_ACCESS_public)
    4952                      .dwendtag $C$DW$T$41
    4953              
    4954              
    4955              $C$DW$T$42      .dwtag  DW_TAG_union_type
    4956                      .dwattr $C$DW$T$42, DW_AT_name("Z1_EXEONLYRAMR_REG")
    4957                      .dwattr $C$DW$T$42, DW_AT_byte_size(0x02)
    4958              $C$DW$190       .dwtag  DW_TAG_member
    4959                      .dwattr $C$DW$190, DW_AT_type(*$C$DW$T$20)
    4960                      .dwattr $C$DW$190, DW_AT_name("all")
    4961                      .dwattr $C$DW$190, DW_AT_TI_symbol_name("_all")
    4962                      .dwattr $C$DW$190, DW_AT_data_member_location[DW_OP_plus_uconst 0x0]
    4963                      .dwattr $C$DW$190, DW_AT_accessibility(DW_ACCESS_public)
    4964              $C$DW$191       .dwtag  DW_TAG_member
    4965                      .dwattr $C$DW$191, DW_AT_type(*$C$DW$T$41)
    4966                      .dwattr $C$DW$191, DW_AT_name("bit")
    4967                      .dwattr $C$DW$191, DW_AT_TI_symbol_name("_bit")
    4968                      .dwattr $C$DW$191, DW_AT_data_member_location[DW_OP_plus_uconst 0x0]
    4969                      .dwattr $C$DW$191, DW_AT_accessibility(DW_ACCESS_public)
    4970                      .dwendtag $C$DW$T$42
    4971              
    4972              
    4973              $C$DW$T$43      .dwtag  DW_TAG_structure_type
    4974                      .dwattr $C$DW$T$43, DW_AT_name("Z1_EXEONLYSECTR_BITS")
    4975                      .dwattr $C$DW$T$43, DW_AT_byte_size(0x02)
    4976              $C$DW$192       .dwtag  DW_TAG_member
    4977                      .dwattr $C$DW$192, DW_AT_type(*$C$DW$T$21)
    4978                      .dwattr $C$DW$192, DW_AT_name("EXEONLY_SECTA")
    4979                      .dwattr $C$DW$192, DW_AT_TI_symbol_name("_EXEONLY_SECTA")
    4980                      .dwattr $C$DW$192, DW_AT_bit_offset(0x0f), DW_AT_bit_size(0x01)
    4981                      .dwattr $C$DW$192, DW_AT_data_member_location[DW_OP_plus_uconst 0x0]
    4982                      .dwattr $C$DW$192, DW_AT_accessibility(DW_ACCESS_public)
    4983              $C$DW$193       .dwtag  DW_TAG_member
    4984                      .dwattr $C$DW$193, DW_AT_type(*$C$DW$T$21)
TMS320C2000 Assembler PC v6.1.3 Thu Jan 30 10:33:25 2014

Tools Copyright (c) 1996-2012 Texas Instruments Incorporated
C:\Users\a0272466\AppData\Local\Temp\0939610                         PAGE  105

    4985                      .dwattr $C$DW$193, DW_AT_name("EXEONLY_SECTB")
    4986                      .dwattr $C$DW$193, DW_AT_TI_symbol_name("_EXEONLY_SECTB")
    4987                      .dwattr $C$DW$193, DW_AT_bit_offset(0x0e), DW_AT_bit_size(0x01)
    4988                      .dwattr $C$DW$193, DW_AT_data_member_location[DW_OP_plus_uconst 0x0]
    4989                      .dwattr $C$DW$193, DW_AT_accessibility(DW_ACCESS_public)
    4990              $C$DW$194       .dwtag  DW_TAG_member
    4991                      .dwattr $C$DW$194, DW_AT_type(*$C$DW$T$21)
    4992                      .dwattr $C$DW$194, DW_AT_name("EXEONLY_SECTC")
    4993                      .dwattr $C$DW$194, DW_AT_TI_symbol_name("_EXEONLY_SECTC")
    4994                      .dwattr $C$DW$194, DW_AT_bit_offset(0x0d), DW_AT_bit_size(0x01)
    4995                      .dwattr $C$DW$194, DW_AT_data_member_location[DW_OP_plus_uconst 0x0]
    4996                      .dwattr $C$DW$194, DW_AT_accessibility(DW_ACCESS_public)
    4997              $C$DW$195       .dwtag  DW_TAG_member
    4998                      .dwattr $C$DW$195, DW_AT_type(*$C$DW$T$21)
    4999                      .dwattr $C$DW$195, DW_AT_name("EXEONLY_SECTD")
    5000                      .dwattr $C$DW$195, DW_AT_TI_symbol_name("_EXEONLY_SECTD")
    5001                      .dwattr $C$DW$195, DW_AT_bit_offset(0x0c), DW_AT_bit_size(0x01)
    5002                      .dwattr $C$DW$195, DW_AT_data_member_location[DW_OP_plus_uconst 0x0]
    5003                      .dwattr $C$DW$195, DW_AT_accessibility(DW_ACCESS_public)
    5004              $C$DW$196       .dwtag  DW_TAG_member
    5005                      .dwattr $C$DW$196, DW_AT_type(*$C$DW$T$21)
    5006                      .dwattr $C$DW$196, DW_AT_name("EXEONLY_SECTE")
    5007                      .dwattr $C$DW$196, DW_AT_TI_symbol_name("_EXEONLY_SECTE")
    5008                      .dwattr $C$DW$196, DW_AT_bit_offset(0x0b), DW_AT_bit_size(0x01)
    5009                      .dwattr $C$DW$196, DW_AT_data_member_location[DW_OP_plus_uconst 0x0]
    5010                      .dwattr $C$DW$196, DW_AT_accessibility(DW_ACCESS_public)
    5011              $C$DW$197       .dwtag  DW_TAG_member
    5012                      .dwattr $C$DW$197, DW_AT_type(*$C$DW$T$21)
    5013                      .dwattr $C$DW$197, DW_AT_name("EXEONLY_SECTF")
    5014                      .dwattr $C$DW$197, DW_AT_TI_symbol_name("_EXEONLY_SECTF")
    5015                      .dwattr $C$DW$197, DW_AT_bit_offset(0x0a), DW_AT_bit_size(0x01)
    5016                      .dwattr $C$DW$197, DW_AT_data_member_location[DW_OP_plus_uconst 0x0]
    5017                      .dwattr $C$DW$197, DW_AT_accessibility(DW_ACCESS_public)
    5018              $C$DW$198       .dwtag  DW_TAG_member
    5019                      .dwattr $C$DW$198, DW_AT_type(*$C$DW$T$21)
    5020                      .dwattr $C$DW$198, DW_AT_name("EXEONLY_SECTG")
    5021                      .dwattr $C$DW$198, DW_AT_TI_symbol_name("_EXEONLY_SECTG")
    5022                      .dwattr $C$DW$198, DW_AT_bit_offset(0x09), DW_AT_bit_size(0x01)
    5023                      .dwattr $C$DW$198, DW_AT_data_member_location[DW_OP_plus_uconst 0x0]
    5024                      .dwattr $C$DW$198, DW_AT_accessibility(DW_ACCESS_public)
    5025              $C$DW$199       .dwtag  DW_TAG_member
    5026                      .dwattr $C$DW$199, DW_AT_type(*$C$DW$T$21)
    5027                      .dwattr $C$DW$199, DW_AT_name("EXEONLY_SECTH")
    5028                      .dwattr $C$DW$199, DW_AT_TI_symbol_name("_EXEONLY_SECTH")
    5029                      .dwattr $C$DW$199, DW_AT_bit_offset(0x08), DW_AT_bit_size(0x01)
    5030                      .dwattr $C$DW$199, DW_AT_data_member_location[DW_OP_plus_uconst 0x0]
    5031                      .dwattr $C$DW$199, DW_AT_accessibility(DW_ACCESS_public)
    5032              $C$DW$200       .dwtag  DW_TAG_member
    5033                      .dwattr $C$DW$200, DW_AT_type(*$C$DW$T$21)
    5034                      .dwattr $C$DW$200, DW_AT_name("EXEONLY_SECTI")
    5035                      .dwattr $C$DW$200, DW_AT_TI_symbol_name("_EXEONLY_SECTI")
    5036                      .dwattr $C$DW$200, DW_AT_bit_offset(0x07), DW_AT_bit_size(0x01)
    5037                      .dwattr $C$DW$200, DW_AT_data_member_location[DW_OP_plus_uconst 0x0]
    5038                      .dwattr $C$DW$200, DW_AT_accessibility(DW_ACCESS_public)
    5039              $C$DW$201       .dwtag  DW_TAG_member
TMS320C2000 Assembler PC v6.1.3 Thu Jan 30 10:33:25 2014

Tools Copyright (c) 1996-2012 Texas Instruments Incorporated
C:\Users\a0272466\AppData\Local\Temp\0939610                         PAGE  106

    5040                      .dwattr $C$DW$201, DW_AT_type(*$C$DW$T$21)
    5041                      .dwattr $C$DW$201, DW_AT_name("EXEONLY_SECTJ")
    5042                      .dwattr $C$DW$201, DW_AT_TI_symbol_name("_EXEONLY_SECTJ")
    5043                      .dwattr $C$DW$201, DW_AT_bit_offset(0x06), DW_AT_bit_size(0x01)
    5044                      .dwattr $C$DW$201, DW_AT_data_member_location[DW_OP_plus_uconst 0x0]
    5045                      .dwattr $C$DW$201, DW_AT_accessibility(DW_ACCESS_public)
    5046              $C$DW$202       .dwtag  DW_TAG_member
    5047                      .dwattr $C$DW$202, DW_AT_type(*$C$DW$T$21)
    5048                      .dwattr $C$DW$202, DW_AT_name("EXEONLY_SECTK")
    5049                      .dwattr $C$DW$202, DW_AT_TI_symbol_name("_EXEONLY_SECTK")
    5050                      .dwattr $C$DW$202, DW_AT_bit_offset(0x05), DW_AT_bit_size(0x01)
    5051                      .dwattr $C$DW$202, DW_AT_data_member_location[DW_OP_plus_uconst 0x0]
    5052                      .dwattr $C$DW$202, DW_AT_accessibility(DW_ACCESS_public)
    5053              $C$DW$203       .dwtag  DW_TAG_member
    5054                      .dwattr $C$DW$203, DW_AT_type(*$C$DW$T$21)
    5055                      .dwattr $C$DW$203, DW_AT_name("EXEONLY_SECTL")
    5056                      .dwattr $C$DW$203, DW_AT_TI_symbol_name("_EXEONLY_SECTL")
    5057                      .dwattr $C$DW$203, DW_AT_bit_offset(0x04), DW_AT_bit_size(0x01)
    5058                      .dwattr $C$DW$203, DW_AT_data_member_location[DW_OP_plus_uconst 0x0]
    5059                      .dwattr $C$DW$203, DW_AT_accessibility(DW_ACCESS_public)
    5060              $C$DW$204       .dwtag  DW_TAG_member
    5061                      .dwattr $C$DW$204, DW_AT_type(*$C$DW$T$21)
    5062                      .dwattr $C$DW$204, DW_AT_name("EXEONLY_SECTM")
    5063                      .dwattr $C$DW$204, DW_AT_TI_symbol_name("_EXEONLY_SECTM")
    5064                      .dwattr $C$DW$204, DW_AT_bit_offset(0x03), DW_AT_bit_size(0x01)
    5065                      .dwattr $C$DW$204, DW_AT_data_member_location[DW_OP_plus_uconst 0x0]
    5066                      .dwattr $C$DW$204, DW_AT_accessibility(DW_ACCESS_public)
    5067              $C$DW$205       .dwtag  DW_TAG_member
    5068                      .dwattr $C$DW$205, DW_AT_type(*$C$DW$T$21)
    5069                      .dwattr $C$DW$205, DW_AT_name("EXEONLY_SECTN")
    5070                      .dwattr $C$DW$205, DW_AT_TI_symbol_name("_EXEONLY_SECTN")
    5071                      .dwattr $C$DW$205, DW_AT_bit_offset(0x02), DW_AT_bit_size(0x01)
    5072                      .dwattr $C$DW$205, DW_AT_data_member_location[DW_OP_plus_uconst 0x0]
    5073                      .dwattr $C$DW$205, DW_AT_accessibility(DW_ACCESS_public)
    5074              $C$DW$206       .dwtag  DW_TAG_member
    5075                      .dwattr $C$DW$206, DW_AT_type(*$C$DW$T$21)
    5076                      .dwattr $C$DW$206, DW_AT_name("EXEONLY_BANK2")
    5077                      .dwattr $C$DW$206, DW_AT_TI_symbol_name("_EXEONLY_BANK2")
    5078                      .dwattr $C$DW$206, DW_AT_bit_offset(0x01), DW_AT_bit_size(0x01)
    5079                      .dwattr $C$DW$206, DW_AT_data_member_location[DW_OP_plus_uconst 0x0]
    5080                      .dwattr $C$DW$206, DW_AT_accessibility(DW_ACCESS_public)
    5081              $C$DW$207       .dwtag  DW_TAG_member
    5082                      .dwattr $C$DW$207, DW_AT_type(*$C$DW$T$21)
    5083                      .dwattr $C$DW$207, DW_AT_name("rsvd1")
    5084                      .dwattr $C$DW$207, DW_AT_TI_symbol_name("_rsvd1")
    5085                      .dwattr $C$DW$207, DW_AT_bit_offset(0x00), DW_AT_bit_size(0x01)
    5086                      .dwattr $C$DW$207, DW_AT_data_member_location[DW_OP_plus_uconst 0x0]
    5087                      .dwattr $C$DW$207, DW_AT_accessibility(DW_ACCESS_public)
    5088              $C$DW$208       .dwtag  DW_TAG_member
    5089                      .dwattr $C$DW$208, DW_AT_type(*$C$DW$T$21)
    5090                      .dwattr $C$DW$208, DW_AT_name("rsvd2")
    5091                      .dwattr $C$DW$208, DW_AT_TI_symbol_name("_rsvd2")
    5092                      .dwattr $C$DW$208, DW_AT_bit_offset(0x00), DW_AT_bit_size(0x10)
    5093                      .dwattr $C$DW$208, DW_AT_data_member_location[DW_OP_plus_uconst 0x1]
    5094                      .dwattr $C$DW$208, DW_AT_accessibility(DW_ACCESS_public)
TMS320C2000 Assembler PC v6.1.3 Thu Jan 30 10:33:25 2014

Tools Copyright (c) 1996-2012 Texas Instruments Incorporated
C:\Users\a0272466\AppData\Local\Temp\0939610                         PAGE  107

    5095                      .dwendtag $C$DW$T$43
    5096              
    5097              
    5098              $C$DW$T$44      .dwtag  DW_TAG_union_type
    5099                      .dwattr $C$DW$T$44, DW_AT_name("Z1_EXEONLYSECTR_REG")
    5100                      .dwattr $C$DW$T$44, DW_AT_byte_size(0x02)
    5101              $C$DW$209       .dwtag  DW_TAG_member
    5102                      .dwattr $C$DW$209, DW_AT_type(*$C$DW$T$20)
    5103                      .dwattr $C$DW$209, DW_AT_name("all")
    5104                      .dwattr $C$DW$209, DW_AT_TI_symbol_name("_all")
    5105                      .dwattr $C$DW$209, DW_AT_data_member_location[DW_OP_plus_uconst 0x0]
    5106                      .dwattr $C$DW$209, DW_AT_accessibility(DW_ACCESS_public)
    5107              $C$DW$210       .dwtag  DW_TAG_member
    5108                      .dwattr $C$DW$210, DW_AT_type(*$C$DW$T$43)
    5109                      .dwattr $C$DW$210, DW_AT_name("bit")
    5110                      .dwattr $C$DW$210, DW_AT_TI_symbol_name("_bit")
    5111                      .dwattr $C$DW$210, DW_AT_data_member_location[DW_OP_plus_uconst 0x0]
    5112                      .dwattr $C$DW$210, DW_AT_accessibility(DW_ACCESS_public)
    5113                      .dwendtag $C$DW$T$44
    5114              
    5115              
    5116              $C$DW$T$45      .dwtag  DW_TAG_structure_type
    5117                      .dwattr $C$DW$T$45, DW_AT_name("Z1_GRABRAMR_BITS")
    5118                      .dwattr $C$DW$T$45, DW_AT_byte_size(0x02)
    5119              $C$DW$211       .dwtag  DW_TAG_member
    5120                      .dwattr $C$DW$211, DW_AT_type(*$C$DW$T$21)
    5121                      .dwattr $C$DW$211, DW_AT_name("GRAB_RAM0")
    5122                      .dwattr $C$DW$211, DW_AT_TI_symbol_name("_GRAB_RAM0")
    5123                      .dwattr $C$DW$211, DW_AT_bit_offset(0x0e), DW_AT_bit_size(0x02)
    5124                      .dwattr $C$DW$211, DW_AT_data_member_location[DW_OP_plus_uconst 0x0]
    5125                      .dwattr $C$DW$211, DW_AT_accessibility(DW_ACCESS_public)
    5126              $C$DW$212       .dwtag  DW_TAG_member
    5127                      .dwattr $C$DW$212, DW_AT_type(*$C$DW$T$21)
    5128                      .dwattr $C$DW$212, DW_AT_name("GRAB_RAM1")
    5129                      .dwattr $C$DW$212, DW_AT_TI_symbol_name("_GRAB_RAM1")
    5130                      .dwattr $C$DW$212, DW_AT_bit_offset(0x0c), DW_AT_bit_size(0x02)
    5131                      .dwattr $C$DW$212, DW_AT_data_member_location[DW_OP_plus_uconst 0x0]
    5132                      .dwattr $C$DW$212, DW_AT_accessibility(DW_ACCESS_public)
    5133              $C$DW$213       .dwtag  DW_TAG_member
    5134                      .dwattr $C$DW$213, DW_AT_type(*$C$DW$T$21)
    5135                      .dwattr $C$DW$213, DW_AT_name("GRAB_RAM2")
    5136                      .dwattr $C$DW$213, DW_AT_TI_symbol_name("_GRAB_RAM2")
    5137                      .dwattr $C$DW$213, DW_AT_bit_offset(0x0a), DW_AT_bit_size(0x02)
    5138                      .dwattr $C$DW$213, DW_AT_data_member_location[DW_OP_plus_uconst 0x0]
    5139                      .dwattr $C$DW$213, DW_AT_accessibility(DW_ACCESS_public)
    5140              $C$DW$214       .dwtag  DW_TAG_member
    5141                      .dwattr $C$DW$214, DW_AT_type(*$C$DW$T$21)
    5142                      .dwattr $C$DW$214, DW_AT_name("GRAB_RAM3")
    5143                      .dwattr $C$DW$214, DW_AT_TI_symbol_name("_GRAB_RAM3")
    5144                      .dwattr $C$DW$214, DW_AT_bit_offset(0x08), DW_AT_bit_size(0x02)
    5145                      .dwattr $C$DW$214, DW_AT_data_member_location[DW_OP_plus_uconst 0x0]
    5146                      .dwattr $C$DW$214, DW_AT_accessibility(DW_ACCESS_public)
    5147              $C$DW$215       .dwtag  DW_TAG_member
    5148                      .dwattr $C$DW$215, DW_AT_type(*$C$DW$T$21)
    5149                      .dwattr $C$DW$215, DW_AT_name("GRAB_RAM4")
TMS320C2000 Assembler PC v6.1.3 Thu Jan 30 10:33:25 2014

Tools Copyright (c) 1996-2012 Texas Instruments Incorporated
C:\Users\a0272466\AppData\Local\Temp\0939610                         PAGE  108

    5150                      .dwattr $C$DW$215, DW_AT_TI_symbol_name("_GRAB_RAM4")
    5151                      .dwattr $C$DW$215, DW_AT_bit_offset(0x06), DW_AT_bit_size(0x02)
    5152                      .dwattr $C$DW$215, DW_AT_data_member_location[DW_OP_plus_uconst 0x0]
    5153                      .dwattr $C$DW$215, DW_AT_accessibility(DW_ACCESS_public)
    5154              $C$DW$216       .dwtag  DW_TAG_member
    5155                      .dwattr $C$DW$216, DW_AT_type(*$C$DW$T$21)
    5156                      .dwattr $C$DW$216, DW_AT_name("GRAB_RAM5")
    5157                      .dwattr $C$DW$216, DW_AT_TI_symbol_name("_GRAB_RAM5")
    5158                      .dwattr $C$DW$216, DW_AT_bit_offset(0x04), DW_AT_bit_size(0x02)
    5159                      .dwattr $C$DW$216, DW_AT_data_member_location[DW_OP_plus_uconst 0x0]
    5160                      .dwattr $C$DW$216, DW_AT_accessibility(DW_ACCESS_public)
    5161              $C$DW$217       .dwtag  DW_TAG_member
    5162                      .dwattr $C$DW$217, DW_AT_type(*$C$DW$T$21)
    5163                      .dwattr $C$DW$217, DW_AT_name("GRAB_RAM6")
    5164                      .dwattr $C$DW$217, DW_AT_TI_symbol_name("_GRAB_RAM6")
    5165                      .dwattr $C$DW$217, DW_AT_bit_offset(0x02), DW_AT_bit_size(0x02)
    5166                      .dwattr $C$DW$217, DW_AT_data_member_location[DW_OP_plus_uconst 0x0]
    5167                      .dwattr $C$DW$217, DW_AT_accessibility(DW_ACCESS_public)
    5168              $C$DW$218       .dwtag  DW_TAG_member
    5169                      .dwattr $C$DW$218, DW_AT_type(*$C$DW$T$21)
    5170                      .dwattr $C$DW$218, DW_AT_name("GRAB_RAM7")
    5171                      .dwattr $C$DW$218, DW_AT_TI_symbol_name("_GRAB_RAM7")
    5172                      .dwattr $C$DW$218, DW_AT_bit_offset(0x00), DW_AT_bit_size(0x02)
    5173                      .dwattr $C$DW$218, DW_AT_data_member_location[DW_OP_plus_uconst 0x0]
    5174                      .dwattr $C$DW$218, DW_AT_accessibility(DW_ACCESS_public)
    5175              $C$DW$219       .dwtag  DW_TAG_member
    5176                      .dwattr $C$DW$219, DW_AT_type(*$C$DW$T$21)
    5177                      .dwattr $C$DW$219, DW_AT_name("rsvd1")
    5178                      .dwattr $C$DW$219, DW_AT_TI_symbol_name("_rsvd1")
    5179                      .dwattr $C$DW$219, DW_AT_bit_offset(0x04), DW_AT_bit_size(0x0c)
    5180                      .dwattr $C$DW$219, DW_AT_data_member_location[DW_OP_plus_uconst 0x1]
    5181                      .dwattr $C$DW$219, DW_AT_accessibility(DW_ACCESS_public)
    5182              $C$DW$220       .dwtag  DW_TAG_member
    5183                      .dwattr $C$DW$220, DW_AT_type(*$C$DW$T$21)
    5184                      .dwattr $C$DW$220, DW_AT_name("GRAB_CLA1")
    5185                      .dwattr $C$DW$220, DW_AT_TI_symbol_name("_GRAB_CLA1")
    5186                      .dwattr $C$DW$220, DW_AT_bit_offset(0x02), DW_AT_bit_size(0x02)
    5187                      .dwattr $C$DW$220, DW_AT_data_member_location[DW_OP_plus_uconst 0x1]
    5188                      .dwattr $C$DW$220, DW_AT_accessibility(DW_ACCESS_public)
    5189              $C$DW$221       .dwtag  DW_TAG_member
    5190                      .dwattr $C$DW$221, DW_AT_type(*$C$DW$T$21)
    5191                      .dwattr $C$DW$221, DW_AT_name("rsvd2")
    5192                      .dwattr $C$DW$221, DW_AT_TI_symbol_name("_rsvd2")
    5193                      .dwattr $C$DW$221, DW_AT_bit_offset(0x00), DW_AT_bit_size(0x02)
    5194                      .dwattr $C$DW$221, DW_AT_data_member_location[DW_OP_plus_uconst 0x1]
    5195                      .dwattr $C$DW$221, DW_AT_accessibility(DW_ACCESS_public)
    5196                      .dwendtag $C$DW$T$45
    5197              
    5198              
    5199              $C$DW$T$46      .dwtag  DW_TAG_union_type
    5200                      .dwattr $C$DW$T$46, DW_AT_name("Z1_GRABRAMR_REG")
    5201                      .dwattr $C$DW$T$46, DW_AT_byte_size(0x02)
    5202              $C$DW$222       .dwtag  DW_TAG_member
    5203                      .dwattr $C$DW$222, DW_AT_type(*$C$DW$T$20)
    5204                      .dwattr $C$DW$222, DW_AT_name("all")
TMS320C2000 Assembler PC v6.1.3 Thu Jan 30 10:33:25 2014

Tools Copyright (c) 1996-2012 Texas Instruments Incorporated
C:\Users\a0272466\AppData\Local\Temp\0939610                         PAGE  109

    5205                      .dwattr $C$DW$222, DW_AT_TI_symbol_name("_all")
    5206                      .dwattr $C$DW$222, DW_AT_data_member_location[DW_OP_plus_uconst 0x0]
    5207                      .dwattr $C$DW$222, DW_AT_accessibility(DW_ACCESS_public)
    5208              $C$DW$223       .dwtag  DW_TAG_member
    5209                      .dwattr $C$DW$223, DW_AT_type(*$C$DW$T$45)
    5210                      .dwattr $C$DW$223, DW_AT_name("bit")
    5211                      .dwattr $C$DW$223, DW_AT_TI_symbol_name("_bit")
    5212                      .dwattr $C$DW$223, DW_AT_data_member_location[DW_OP_plus_uconst 0x0]
    5213                      .dwattr $C$DW$223, DW_AT_accessibility(DW_ACCESS_public)
    5214                      .dwendtag $C$DW$T$46
    5215              
    5216              
    5217              $C$DW$T$47      .dwtag  DW_TAG_structure_type
    5218                      .dwattr $C$DW$T$47, DW_AT_name("Z1_GRABSECTR_BITS")
    5219                      .dwattr $C$DW$T$47, DW_AT_byte_size(0x02)
    5220              $C$DW$224       .dwtag  DW_TAG_member
    5221                      .dwattr $C$DW$224, DW_AT_type(*$C$DW$T$21)
    5222                      .dwattr $C$DW$224, DW_AT_name("GRAB_SECTA")
    5223                      .dwattr $C$DW$224, DW_AT_TI_symbol_name("_GRAB_SECTA")
    5224                      .dwattr $C$DW$224, DW_AT_bit_offset(0x0e), DW_AT_bit_size(0x02)
    5225                      .dwattr $C$DW$224, DW_AT_data_member_location[DW_OP_plus_uconst 0x0]
    5226                      .dwattr $C$DW$224, DW_AT_accessibility(DW_ACCESS_public)
    5227              $C$DW$225       .dwtag  DW_TAG_member
    5228                      .dwattr $C$DW$225, DW_AT_type(*$C$DW$T$21)
    5229                      .dwattr $C$DW$225, DW_AT_name("GRAB_SECTB")
    5230                      .dwattr $C$DW$225, DW_AT_TI_symbol_name("_GRAB_SECTB")
    5231                      .dwattr $C$DW$225, DW_AT_bit_offset(0x0c), DW_AT_bit_size(0x02)
    5232                      .dwattr $C$DW$225, DW_AT_data_member_location[DW_OP_plus_uconst 0x0]
    5233                      .dwattr $C$DW$225, DW_AT_accessibility(DW_ACCESS_public)
    5234              $C$DW$226       .dwtag  DW_TAG_member
    5235                      .dwattr $C$DW$226, DW_AT_type(*$C$DW$T$21)
    5236                      .dwattr $C$DW$226, DW_AT_name("GRAB_SECTC")
    5237                      .dwattr $C$DW$226, DW_AT_TI_symbol_name("_GRAB_SECTC")
    5238                      .dwattr $C$DW$226, DW_AT_bit_offset(0x0a), DW_AT_bit_size(0x02)
    5239                      .dwattr $C$DW$226, DW_AT_data_member_location[DW_OP_plus_uconst 0x0]
    5240                      .dwattr $C$DW$226, DW_AT_accessibility(DW_ACCESS_public)
    5241              $C$DW$227       .dwtag  DW_TAG_member
    5242                      .dwattr $C$DW$227, DW_AT_type(*$C$DW$T$21)
    5243                      .dwattr $C$DW$227, DW_AT_name("GRAB_SECTD")
    5244                      .dwattr $C$DW$227, DW_AT_TI_symbol_name("_GRAB_SECTD")
    5245                      .dwattr $C$DW$227, DW_AT_bit_offset(0x08), DW_AT_bit_size(0x02)
    5246                      .dwattr $C$DW$227, DW_AT_data_member_location[DW_OP_plus_uconst 0x0]
    5247                      .dwattr $C$DW$227, DW_AT_accessibility(DW_ACCESS_public)
    5248              $C$DW$228       .dwtag  DW_TAG_member
    5249                      .dwattr $C$DW$228, DW_AT_type(*$C$DW$T$21)
    5250                      .dwattr $C$DW$228, DW_AT_name("GRAB_SECTE")
    5251                      .dwattr $C$DW$228, DW_AT_TI_symbol_name("_GRAB_SECTE")
    5252                      .dwattr $C$DW$228, DW_AT_bit_offset(0x06), DW_AT_bit_size(0x02)
    5253                      .dwattr $C$DW$228, DW_AT_data_member_location[DW_OP_plus_uconst 0x0]
    5254                      .dwattr $C$DW$228, DW_AT_accessibility(DW_ACCESS_public)
    5255              $C$DW$229       .dwtag  DW_TAG_member
    5256                      .dwattr $C$DW$229, DW_AT_type(*$C$DW$T$21)
    5257                      .dwattr $C$DW$229, DW_AT_name("GRAB_SECTF")
    5258                      .dwattr $C$DW$229, DW_AT_TI_symbol_name("_GRAB_SECTF")
    5259                      .dwattr $C$DW$229, DW_AT_bit_offset(0x04), DW_AT_bit_size(0x02)
TMS320C2000 Assembler PC v6.1.3 Thu Jan 30 10:33:25 2014

Tools Copyright (c) 1996-2012 Texas Instruments Incorporated
C:\Users\a0272466\AppData\Local\Temp\0939610                         PAGE  110

    5260                      .dwattr $C$DW$229, DW_AT_data_member_location[DW_OP_plus_uconst 0x0]
    5261                      .dwattr $C$DW$229, DW_AT_accessibility(DW_ACCESS_public)
    5262              $C$DW$230       .dwtag  DW_TAG_member
    5263                      .dwattr $C$DW$230, DW_AT_type(*$C$DW$T$21)
    5264                      .dwattr $C$DW$230, DW_AT_name("GRAB_SECTG")
    5265                      .dwattr $C$DW$230, DW_AT_TI_symbol_name("_GRAB_SECTG")
    5266                      .dwattr $C$DW$230, DW_AT_bit_offset(0x02), DW_AT_bit_size(0x02)
    5267                      .dwattr $C$DW$230, DW_AT_data_member_location[DW_OP_plus_uconst 0x0]
    5268                      .dwattr $C$DW$230, DW_AT_accessibility(DW_ACCESS_public)
    5269              $C$DW$231       .dwtag  DW_TAG_member
    5270                      .dwattr $C$DW$231, DW_AT_type(*$C$DW$T$21)
    5271                      .dwattr $C$DW$231, DW_AT_name("GRAB_SECTH")
    5272                      .dwattr $C$DW$231, DW_AT_TI_symbol_name("_GRAB_SECTH")
    5273                      .dwattr $C$DW$231, DW_AT_bit_offset(0x00), DW_AT_bit_size(0x02)
    5274                      .dwattr $C$DW$231, DW_AT_data_member_location[DW_OP_plus_uconst 0x0]
    5275                      .dwattr $C$DW$231, DW_AT_accessibility(DW_ACCESS_public)
    5276              $C$DW$232       .dwtag  DW_TAG_member
    5277                      .dwattr $C$DW$232, DW_AT_type(*$C$DW$T$21)
    5278                      .dwattr $C$DW$232, DW_AT_name("GRAB_SECTI")
    5279                      .dwattr $C$DW$232, DW_AT_TI_symbol_name("_GRAB_SECTI")
    5280                      .dwattr $C$DW$232, DW_AT_bit_offset(0x0e), DW_AT_bit_size(0x02)
    5281                      .dwattr $C$DW$232, DW_AT_data_member_location[DW_OP_plus_uconst 0x1]
    5282                      .dwattr $C$DW$232, DW_AT_accessibility(DW_ACCESS_public)
    5283              $C$DW$233       .dwtag  DW_TAG_member
    5284                      .dwattr $C$DW$233, DW_AT_type(*$C$DW$T$21)
    5285                      .dwattr $C$DW$233, DW_AT_name("GRAB_SECTJ")
    5286                      .dwattr $C$DW$233, DW_AT_TI_symbol_name("_GRAB_SECTJ")
    5287                      .dwattr $C$DW$233, DW_AT_bit_offset(0x0c), DW_AT_bit_size(0x02)
    5288                      .dwattr $C$DW$233, DW_AT_data_member_location[DW_OP_plus_uconst 0x1]
    5289                      .dwattr $C$DW$233, DW_AT_accessibility(DW_ACCESS_public)
    5290              $C$DW$234       .dwtag  DW_TAG_member
    5291                      .dwattr $C$DW$234, DW_AT_type(*$C$DW$T$21)
    5292                      .dwattr $C$DW$234, DW_AT_name("GRAB_SECTK")
    5293                      .dwattr $C$DW$234, DW_AT_TI_symbol_name("_GRAB_SECTK")
    5294                      .dwattr $C$DW$234, DW_AT_bit_offset(0x0a), DW_AT_bit_size(0x02)
    5295                      .dwattr $C$DW$234, DW_AT_data_member_location[DW_OP_plus_uconst 0x1]
    5296                      .dwattr $C$DW$234, DW_AT_accessibility(DW_ACCESS_public)
    5297              $C$DW$235       .dwtag  DW_TAG_member
    5298                      .dwattr $C$DW$235, DW_AT_type(*$C$DW$T$21)
    5299                      .dwattr $C$DW$235, DW_AT_name("GRAB_SECTL")
    5300                      .dwattr $C$DW$235, DW_AT_TI_symbol_name("_GRAB_SECTL")
    5301                      .dwattr $C$DW$235, DW_AT_bit_offset(0x08), DW_AT_bit_size(0x02)
    5302                      .dwattr $C$DW$235, DW_AT_data_member_location[DW_OP_plus_uconst 0x1]
    5303                      .dwattr $C$DW$235, DW_AT_accessibility(DW_ACCESS_public)
    5304              $C$DW$236       .dwtag  DW_TAG_member
    5305                      .dwattr $C$DW$236, DW_AT_type(*$C$DW$T$21)
    5306                      .dwattr $C$DW$236, DW_AT_name("GRAB_SECTM")
    5307                      .dwattr $C$DW$236, DW_AT_TI_symbol_name("_GRAB_SECTM")
    5308                      .dwattr $C$DW$236, DW_AT_bit_offset(0x06), DW_AT_bit_size(0x02)
    5309                      .dwattr $C$DW$236, DW_AT_data_member_location[DW_OP_plus_uconst 0x1]
    5310                      .dwattr $C$DW$236, DW_AT_accessibility(DW_ACCESS_public)
    5311              $C$DW$237       .dwtag  DW_TAG_member
    5312                      .dwattr $C$DW$237, DW_AT_type(*$C$DW$T$21)
    5313                      .dwattr $C$DW$237, DW_AT_name("GRAB_SECTN")
    5314                      .dwattr $C$DW$237, DW_AT_TI_symbol_name("_GRAB_SECTN")
TMS320C2000 Assembler PC v6.1.3 Thu Jan 30 10:33:25 2014

Tools Copyright (c) 1996-2012 Texas Instruments Incorporated
C:\Users\a0272466\AppData\Local\Temp\0939610                         PAGE  111

    5315                      .dwattr $C$DW$237, DW_AT_bit_offset(0x04), DW_AT_bit_size(0x02)
    5316                      .dwattr $C$DW$237, DW_AT_data_member_location[DW_OP_plus_uconst 0x1]
    5317                      .dwattr $C$DW$237, DW_AT_accessibility(DW_ACCESS_public)
    5318              $C$DW$238       .dwtag  DW_TAG_member
    5319                      .dwattr $C$DW$238, DW_AT_type(*$C$DW$T$21)
    5320                      .dwattr $C$DW$238, DW_AT_name("GRAB_BANK2")
    5321                      .dwattr $C$DW$238, DW_AT_TI_symbol_name("_GRAB_BANK2")
    5322                      .dwattr $C$DW$238, DW_AT_bit_offset(0x02), DW_AT_bit_size(0x02)
    5323                      .dwattr $C$DW$238, DW_AT_data_member_location[DW_OP_plus_uconst 0x1]
    5324                      .dwattr $C$DW$238, DW_AT_accessibility(DW_ACCESS_public)
    5325              $C$DW$239       .dwtag  DW_TAG_member
    5326                      .dwattr $C$DW$239, DW_AT_type(*$C$DW$T$21)
    5327                      .dwattr $C$DW$239, DW_AT_name("rsvd1")
    5328                      .dwattr $C$DW$239, DW_AT_TI_symbol_name("_rsvd1")
    5329                      .dwattr $C$DW$239, DW_AT_bit_offset(0x00), DW_AT_bit_size(0x02)
    5330                      .dwattr $C$DW$239, DW_AT_data_member_location[DW_OP_plus_uconst 0x1]
    5331                      .dwattr $C$DW$239, DW_AT_accessibility(DW_ACCESS_public)
    5332                      .dwendtag $C$DW$T$47
    5333              
    5334              
    5335              $C$DW$T$48      .dwtag  DW_TAG_union_type
    5336                      .dwattr $C$DW$T$48, DW_AT_name("Z1_GRABSECTR_REG")
    5337                      .dwattr $C$DW$T$48, DW_AT_byte_size(0x02)
    5338              $C$DW$240       .dwtag  DW_TAG_member
    5339                      .dwattr $C$DW$240, DW_AT_type(*$C$DW$T$20)
    5340                      .dwattr $C$DW$240, DW_AT_name("all")
    5341                      .dwattr $C$DW$240, DW_AT_TI_symbol_name("_all")
    5342                      .dwattr $C$DW$240, DW_AT_data_member_location[DW_OP_plus_uconst 0x0]
    5343                      .dwattr $C$DW$240, DW_AT_accessibility(DW_ACCESS_public)
    5344              $C$DW$241       .dwtag  DW_TAG_member
    5345                      .dwattr $C$DW$241, DW_AT_type(*$C$DW$T$47)
    5346                      .dwattr $C$DW$241, DW_AT_name("bit")
    5347                      .dwattr $C$DW$241, DW_AT_TI_symbol_name("_bit")
    5348                      .dwattr $C$DW$241, DW_AT_data_member_location[DW_OP_plus_uconst 0x0]
    5349                      .dwattr $C$DW$241, DW_AT_accessibility(DW_ACCESS_public)
    5350                      .dwendtag $C$DW$T$48
    5351              
    5352              
    5353              $C$DW$T$49      .dwtag  DW_TAG_structure_type
    5354                      .dwattr $C$DW$T$49, DW_AT_name("Z1_LINKPOINTER_BITS")
    5355                      .dwattr $C$DW$T$49, DW_AT_byte_size(0x02)
    5356              $C$DW$242       .dwtag  DW_TAG_member
    5357                      .dwattr $C$DW$242, DW_AT_type(*$C$DW$T$20)
    5358                      .dwattr $C$DW$242, DW_AT_name("LINKPOINTER")
    5359                      .dwattr $C$DW$242, DW_AT_TI_symbol_name("_LINKPOINTER")
    5360                      .dwattr $C$DW$242, DW_AT_bit_offset(0x03), DW_AT_bit_size(0x1d)
    5361                      .dwattr $C$DW$242, DW_AT_data_member_location[DW_OP_plus_uconst 0x0]
    5362                      .dwattr $C$DW$242, DW_AT_accessibility(DW_ACCESS_public)
    5363              $C$DW$243       .dwtag  DW_TAG_member
    5364                      .dwattr $C$DW$243, DW_AT_type(*$C$DW$T$21)
    5365                      .dwattr $C$DW$243, DW_AT_name("rsvd1")
    5366                      .dwattr $C$DW$243, DW_AT_TI_symbol_name("_rsvd1")
    5367                      .dwattr $C$DW$243, DW_AT_bit_offset(0x00), DW_AT_bit_size(0x03)
    5368                      .dwattr $C$DW$243, DW_AT_data_member_location[DW_OP_plus_uconst 0x1]
    5369                      .dwattr $C$DW$243, DW_AT_accessibility(DW_ACCESS_public)
TMS320C2000 Assembler PC v6.1.3 Thu Jan 30 10:33:25 2014

Tools Copyright (c) 1996-2012 Texas Instruments Incorporated
C:\Users\a0272466\AppData\Local\Temp\0939610                         PAGE  112

    5370                      .dwendtag $C$DW$T$49
    5371              
    5372              
    5373              $C$DW$T$50      .dwtag  DW_TAG_union_type
    5374                      .dwattr $C$DW$T$50, DW_AT_name("Z1_LINKPOINTER_REG")
    5375                      .dwattr $C$DW$T$50, DW_AT_byte_size(0x02)
    5376              $C$DW$244       .dwtag  DW_TAG_member
    5377                      .dwattr $C$DW$244, DW_AT_type(*$C$DW$T$20)
    5378                      .dwattr $C$DW$244, DW_AT_name("all")
    5379                      .dwattr $C$DW$244, DW_AT_TI_symbol_name("_all")
    5380                      .dwattr $C$DW$244, DW_AT_data_member_location[DW_OP_plus_uconst 0x0]
    5381                      .dwattr $C$DW$244, DW_AT_accessibility(DW_ACCESS_public)
    5382              $C$DW$245       .dwtag  DW_TAG_member
    5383                      .dwattr $C$DW$245, DW_AT_type(*$C$DW$T$49)
    5384                      .dwattr $C$DW$245, DW_AT_name("bit")
    5385                      .dwattr $C$DW$245, DW_AT_TI_symbol_name("_bit")
    5386                      .dwattr $C$DW$245, DW_AT_data_member_location[DW_OP_plus_uconst 0x0]
    5387                      .dwattr $C$DW$245, DW_AT_accessibility(DW_ACCESS_public)
    5388                      .dwendtag $C$DW$T$50
    5389              
    5390              
    5391              $C$DW$T$51      .dwtag  DW_TAG_structure_type
    5392                      .dwattr $C$DW$T$51, DW_AT_name("Z1_OTPSECLOCK_BITS")
    5393                      .dwattr $C$DW$T$51, DW_AT_byte_size(0x02)
    5394              $C$DW$246       .dwtag  DW_TAG_member
    5395                      .dwattr $C$DW$246, DW_AT_type(*$C$DW$T$21)
    5396                      .dwattr $C$DW$246, DW_AT_name("JTAGLOCK")
    5397                      .dwattr $C$DW$246, DW_AT_TI_symbol_name("_JTAGLOCK")
    5398                      .dwattr $C$DW$246, DW_AT_bit_offset(0x0c), DW_AT_bit_size(0x04)
    5399                      .dwattr $C$DW$246, DW_AT_data_member_location[DW_OP_plus_uconst 0x0]
    5400                      .dwattr $C$DW$246, DW_AT_accessibility(DW_ACCESS_public)
    5401              $C$DW$247       .dwtag  DW_TAG_member
    5402                      .dwattr $C$DW$247, DW_AT_type(*$C$DW$T$21)
    5403                      .dwattr $C$DW$247, DW_AT_name("PSWDLOCK")
    5404                      .dwattr $C$DW$247, DW_AT_TI_symbol_name("_PSWDLOCK")
    5405                      .dwattr $C$DW$247, DW_AT_bit_offset(0x08), DW_AT_bit_size(0x04)
    5406                      .dwattr $C$DW$247, DW_AT_data_member_location[DW_OP_plus_uconst 0x0]
    5407                      .dwattr $C$DW$247, DW_AT_accessibility(DW_ACCESS_public)
    5408              $C$DW$248       .dwtag  DW_TAG_member
    5409                      .dwattr $C$DW$248, DW_AT_type(*$C$DW$T$21)
    5410                      .dwattr $C$DW$248, DW_AT_name("CRCLOCK")
    5411                      .dwattr $C$DW$248, DW_AT_TI_symbol_name("_CRCLOCK")
    5412                      .dwattr $C$DW$248, DW_AT_bit_offset(0x04), DW_AT_bit_size(0x04)
    5413                      .dwattr $C$DW$248, DW_AT_data_member_location[DW_OP_plus_uconst 0x0]
    5414                      .dwattr $C$DW$248, DW_AT_accessibility(DW_ACCESS_public)
    5415              $C$DW$249       .dwtag  DW_TAG_member
    5416                      .dwattr $C$DW$249, DW_AT_type(*$C$DW$T$21)
    5417                      .dwattr $C$DW$249, DW_AT_name("rsvd1")
    5418                      .dwattr $C$DW$249, DW_AT_TI_symbol_name("_rsvd1")
    5419                      .dwattr $C$DW$249, DW_AT_bit_offset(0x00), DW_AT_bit_size(0x04)
    5420                      .dwattr $C$DW$249, DW_AT_data_member_location[DW_OP_plus_uconst 0x0]
    5421                      .dwattr $C$DW$249, DW_AT_accessibility(DW_ACCESS_public)
    5422              $C$DW$250       .dwtag  DW_TAG_member
    5423                      .dwattr $C$DW$250, DW_AT_type(*$C$DW$T$21)
    5424                      .dwattr $C$DW$250, DW_AT_name("rsvd2")
TMS320C2000 Assembler PC v6.1.3 Thu Jan 30 10:33:25 2014

Tools Copyright (c) 1996-2012 Texas Instruments Incorporated
C:\Users\a0272466\AppData\Local\Temp\0939610                         PAGE  113

    5425                      .dwattr $C$DW$250, DW_AT_TI_symbol_name("_rsvd2")
    5426                      .dwattr $C$DW$250, DW_AT_bit_offset(0x00), DW_AT_bit_size(0x10)
    5427                      .dwattr $C$DW$250, DW_AT_data_member_location[DW_OP_plus_uconst 0x1]
    5428                      .dwattr $C$DW$250, DW_AT_accessibility(DW_ACCESS_public)
    5429                      .dwendtag $C$DW$T$51
    5430              
    5431              
    5432              $C$DW$T$52      .dwtag  DW_TAG_union_type
    5433                      .dwattr $C$DW$T$52, DW_AT_name("Z1_OTPSECLOCK_REG")
    5434                      .dwattr $C$DW$T$52, DW_AT_byte_size(0x02)
    5435              $C$DW$251       .dwtag  DW_TAG_member
    5436                      .dwattr $C$DW$251, DW_AT_type(*$C$DW$T$20)
    5437                      .dwattr $C$DW$251, DW_AT_name("all")
    5438                      .dwattr $C$DW$251, DW_AT_TI_symbol_name("_all")
    5439                      .dwattr $C$DW$251, DW_AT_data_member_location[DW_OP_plus_uconst 0x0]
    5440                      .dwattr $C$DW$251, DW_AT_accessibility(DW_ACCESS_public)
    5441              $C$DW$252       .dwtag  DW_TAG_member
    5442                      .dwattr $C$DW$252, DW_AT_type(*$C$DW$T$51)
    5443                      .dwattr $C$DW$252, DW_AT_name("bit")
    5444                      .dwattr $C$DW$252, DW_AT_TI_symbol_name("_bit")
    5445                      .dwattr $C$DW$252, DW_AT_data_member_location[DW_OP_plus_uconst 0x0]
    5446                      .dwattr $C$DW$252, DW_AT_accessibility(DW_ACCESS_public)
    5447                      .dwendtag $C$DW$T$52
    5448              
    5449              
    5450              $C$DW$T$53      .dwtag  DW_TAG_structure_type
    5451                      .dwattr $C$DW$T$53, DW_AT_name("Z2_BOOTCTRL_BITS")
    5452                      .dwattr $C$DW$T$53, DW_AT_byte_size(0x02)
    5453              $C$DW$253       .dwtag  DW_TAG_member
    5454                      .dwattr $C$DW$253, DW_AT_type(*$C$DW$T$21)
    5455                      .dwattr $C$DW$253, DW_AT_name("KEY")
    5456                      .dwattr $C$DW$253, DW_AT_TI_symbol_name("_KEY")
    5457                      .dwattr $C$DW$253, DW_AT_bit_offset(0x08), DW_AT_bit_size(0x08)
    5458                      .dwattr $C$DW$253, DW_AT_data_member_location[DW_OP_plus_uconst 0x0]
    5459                      .dwattr $C$DW$253, DW_AT_accessibility(DW_ACCESS_public)
    5460              $C$DW$254       .dwtag  DW_TAG_member
    5461                      .dwattr $C$DW$254, DW_AT_type(*$C$DW$T$21)
    5462                      .dwattr $C$DW$254, DW_AT_name("BMODE")
    5463                      .dwattr $C$DW$254, DW_AT_TI_symbol_name("_BMODE")
    5464                      .dwattr $C$DW$254, DW_AT_bit_offset(0x00), DW_AT_bit_size(0x08)
    5465                      .dwattr $C$DW$254, DW_AT_data_member_location[DW_OP_plus_uconst 0x0]
    5466                      .dwattr $C$DW$254, DW_AT_accessibility(DW_ACCESS_public)
    5467              $C$DW$255       .dwtag  DW_TAG_member
    5468                      .dwattr $C$DW$255, DW_AT_type(*$C$DW$T$21)
    5469                      .dwattr $C$DW$255, DW_AT_name("BOOTPIN0")
    5470                      .dwattr $C$DW$255, DW_AT_TI_symbol_name("_BOOTPIN0")
    5471                      .dwattr $C$DW$255, DW_AT_bit_offset(0x08), DW_AT_bit_size(0x08)
    5472                      .dwattr $C$DW$255, DW_AT_data_member_location[DW_OP_plus_uconst 0x1]
    5473                      .dwattr $C$DW$255, DW_AT_accessibility(DW_ACCESS_public)
    5474              $C$DW$256       .dwtag  DW_TAG_member
    5475                      .dwattr $C$DW$256, DW_AT_type(*$C$DW$T$21)
    5476                      .dwattr $C$DW$256, DW_AT_name("BOOTPIN1")
    5477                      .dwattr $C$DW$256, DW_AT_TI_symbol_name("_BOOTPIN1")
    5478                      .dwattr $C$DW$256, DW_AT_bit_offset(0x00), DW_AT_bit_size(0x08)
    5479                      .dwattr $C$DW$256, DW_AT_data_member_location[DW_OP_plus_uconst 0x1]
TMS320C2000 Assembler PC v6.1.3 Thu Jan 30 10:33:25 2014

Tools Copyright (c) 1996-2012 Texas Instruments Incorporated
C:\Users\a0272466\AppData\Local\Temp\0939610                         PAGE  114

    5480                      .dwattr $C$DW$256, DW_AT_accessibility(DW_ACCESS_public)
    5481                      .dwendtag $C$DW$T$53
    5482              
    5483              
    5484              $C$DW$T$54      .dwtag  DW_TAG_union_type
    5485                      .dwattr $C$DW$T$54, DW_AT_name("Z2_BOOTCTRL_REG")
    5486                      .dwattr $C$DW$T$54, DW_AT_byte_size(0x02)
    5487              $C$DW$257       .dwtag  DW_TAG_member
    5488                      .dwattr $C$DW$257, DW_AT_type(*$C$DW$T$20)
    5489                      .dwattr $C$DW$257, DW_AT_name("all")
    5490                      .dwattr $C$DW$257, DW_AT_TI_symbol_name("_all")
    5491                      .dwattr $C$DW$257, DW_AT_data_member_location[DW_OP_plus_uconst 0x0]
    5492                      .dwattr $C$DW$257, DW_AT_accessibility(DW_ACCESS_public)
    5493              $C$DW$258       .dwtag  DW_TAG_member
    5494                      .dwattr $C$DW$258, DW_AT_type(*$C$DW$T$53)
    5495                      .dwattr $C$DW$258, DW_AT_name("bit")
    5496                      .dwattr $C$DW$258, DW_AT_TI_symbol_name("_bit")
    5497                      .dwattr $C$DW$258, DW_AT_data_member_location[DW_OP_plus_uconst 0x0]
    5498                      .dwattr $C$DW$258, DW_AT_accessibility(DW_ACCESS_public)
    5499                      .dwendtag $C$DW$T$54
    5500              
    5501              
    5502              $C$DW$T$55      .dwtag  DW_TAG_structure_type
    5503                      .dwattr $C$DW$T$55, DW_AT_name("Z2_CR_BITS")
    5504                      .dwattr $C$DW$T$55, DW_AT_byte_size(0x01)
    5505              $C$DW$259       .dwtag  DW_TAG_member
    5506                      .dwattr $C$DW$259, DW_AT_type(*$C$DW$T$21)
    5507                      .dwattr $C$DW$259, DW_AT_name("rsvd1")
    5508                      .dwattr $C$DW$259, DW_AT_TI_symbol_name("_rsvd1")
    5509                      .dwattr $C$DW$259, DW_AT_bit_offset(0x0d), DW_AT_bit_size(0x03)
    5510                      .dwattr $C$DW$259, DW_AT_data_member_location[DW_OP_plus_uconst 0x0]
    5511                      .dwattr $C$DW$259, DW_AT_accessibility(DW_ACCESS_public)
    5512              $C$DW$260       .dwtag  DW_TAG_member
    5513                      .dwattr $C$DW$260, DW_AT_type(*$C$DW$T$21)
    5514                      .dwattr $C$DW$260, DW_AT_name("ALLZERO")
    5515                      .dwattr $C$DW$260, DW_AT_TI_symbol_name("_ALLZERO")
    5516                      .dwattr $C$DW$260, DW_AT_bit_offset(0x0c), DW_AT_bit_size(0x01)
    5517                      .dwattr $C$DW$260, DW_AT_data_member_location[DW_OP_plus_uconst 0x0]
    5518                      .dwattr $C$DW$260, DW_AT_accessibility(DW_ACCESS_public)
    5519              $C$DW$261       .dwtag  DW_TAG_member
    5520                      .dwattr $C$DW$261, DW_AT_type(*$C$DW$T$21)
    5521                      .dwattr $C$DW$261, DW_AT_name("ALLONE")
    5522                      .dwattr $C$DW$261, DW_AT_TI_symbol_name("_ALLONE")
    5523                      .dwattr $C$DW$261, DW_AT_bit_offset(0x0b), DW_AT_bit_size(0x01)
    5524                      .dwattr $C$DW$261, DW_AT_data_member_location[DW_OP_plus_uconst 0x0]
    5525                      .dwattr $C$DW$261, DW_AT_accessibility(DW_ACCESS_public)
    5526              $C$DW$262       .dwtag  DW_TAG_member
    5527                      .dwattr $C$DW$262, DW_AT_type(*$C$DW$T$21)
    5528                      .dwattr $C$DW$262, DW_AT_name("UNSECURE")
    5529                      .dwattr $C$DW$262, DW_AT_TI_symbol_name("_UNSECURE")
    5530                      .dwattr $C$DW$262, DW_AT_bit_offset(0x0a), DW_AT_bit_size(0x01)
    5531                      .dwattr $C$DW$262, DW_AT_data_member_location[DW_OP_plus_uconst 0x0]
    5532                      .dwattr $C$DW$262, DW_AT_accessibility(DW_ACCESS_public)
    5533              $C$DW$263       .dwtag  DW_TAG_member
    5534                      .dwattr $C$DW$263, DW_AT_type(*$C$DW$T$21)
TMS320C2000 Assembler PC v6.1.3 Thu Jan 30 10:33:25 2014

Tools Copyright (c) 1996-2012 Texas Instruments Incorporated
C:\Users\a0272466\AppData\Local\Temp\0939610                         PAGE  115

    5535                      .dwattr $C$DW$263, DW_AT_name("ARMED")
    5536                      .dwattr $C$DW$263, DW_AT_TI_symbol_name("_ARMED")
    5537                      .dwattr $C$DW$263, DW_AT_bit_offset(0x09), DW_AT_bit_size(0x01)
    5538                      .dwattr $C$DW$263, DW_AT_data_member_location[DW_OP_plus_uconst 0x0]
    5539                      .dwattr $C$DW$263, DW_AT_accessibility(DW_ACCESS_public)
    5540              $C$DW$264       .dwtag  DW_TAG_member
    5541                      .dwattr $C$DW$264, DW_AT_type(*$C$DW$T$21)
    5542                      .dwattr $C$DW$264, DW_AT_name("USBD_OPEN")
    5543                      .dwattr $C$DW$264, DW_AT_TI_symbol_name("_USBD_OPEN")
    5544                      .dwattr $C$DW$264, DW_AT_bit_offset(0x08), DW_AT_bit_size(0x01)
    5545                      .dwattr $C$DW$264, DW_AT_data_member_location[DW_OP_plus_uconst 0x0]
    5546                      .dwattr $C$DW$264, DW_AT_accessibility(DW_ACCESS_public)
    5547              $C$DW$265       .dwtag  DW_TAG_member
    5548                      .dwattr $C$DW$265, DW_AT_type(*$C$DW$T$21)
    5549                      .dwattr $C$DW$265, DW_AT_name("rsvd2")
    5550                      .dwattr $C$DW$265, DW_AT_TI_symbol_name("_rsvd2")
    5551                      .dwattr $C$DW$265, DW_AT_bit_offset(0x01), DW_AT_bit_size(0x07)
    5552                      .dwattr $C$DW$265, DW_AT_data_member_location[DW_OP_plus_uconst 0x0]
    5553                      .dwattr $C$DW$265, DW_AT_accessibility(DW_ACCESS_public)
    5554              $C$DW$266       .dwtag  DW_TAG_member
    5555                      .dwattr $C$DW$266, DW_AT_type(*$C$DW$T$21)
    5556                      .dwattr $C$DW$266, DW_AT_name("FORCESEC")
    5557                      .dwattr $C$DW$266, DW_AT_TI_symbol_name("_FORCESEC")
    5558                      .dwattr $C$DW$266, DW_AT_bit_offset(0x00), DW_AT_bit_size(0x01)
    5559                      .dwattr $C$DW$266, DW_AT_data_member_location[DW_OP_plus_uconst 0x0]
    5560                      .dwattr $C$DW$266, DW_AT_accessibility(DW_ACCESS_public)
    5561                      .dwendtag $C$DW$T$55
    5562              
    5563              
    5564              $C$DW$T$56      .dwtag  DW_TAG_union_type
    5565                      .dwattr $C$DW$T$56, DW_AT_name("Z2_CR_REG")
    5566                      .dwattr $C$DW$T$56, DW_AT_byte_size(0x01)
    5567              $C$DW$267       .dwtag  DW_TAG_member
    5568                      .dwattr $C$DW$267, DW_AT_type(*$C$DW$T$21)
    5569                      .dwattr $C$DW$267, DW_AT_name("all")
    5570                      .dwattr $C$DW$267, DW_AT_TI_symbol_name("_all")
    5571                      .dwattr $C$DW$267, DW_AT_data_member_location[DW_OP_plus_uconst 0x0]
    5572                      .dwattr $C$DW$267, DW_AT_accessibility(DW_ACCESS_public)
    5573              $C$DW$268       .dwtag  DW_TAG_member
    5574                      .dwattr $C$DW$268, DW_AT_type(*$C$DW$T$55)
    5575                      .dwattr $C$DW$268, DW_AT_name("bit")
    5576                      .dwattr $C$DW$268, DW_AT_TI_symbol_name("_bit")
    5577                      .dwattr $C$DW$268, DW_AT_data_member_location[DW_OP_plus_uconst 0x0]
    5578                      .dwattr $C$DW$268, DW_AT_accessibility(DW_ACCESS_public)
    5579                      .dwendtag $C$DW$T$56
    5580              
    5581              
    5582              $C$DW$T$57      .dwtag  DW_TAG_structure_type
    5583                      .dwattr $C$DW$T$57, DW_AT_name("Z2_CSMLOCKSR_BITS")
    5584                      .dwattr $C$DW$T$57, DW_AT_byte_size(0x01)
    5585              $C$DW$269       .dwtag  DW_TAG_member
    5586                      .dwattr $C$DW$269, DW_AT_type(*$C$DW$T$21)
    5587                      .dwattr $C$DW$269, DW_AT_name("LOCK0")
    5588                      .dwattr $C$DW$269, DW_AT_TI_symbol_name("_LOCK0")
    5589                      .dwattr $C$DW$269, DW_AT_bit_offset(0x0f), DW_AT_bit_size(0x01)
TMS320C2000 Assembler PC v6.1.3 Thu Jan 30 10:33:25 2014

Tools Copyright (c) 1996-2012 Texas Instruments Incorporated
C:\Users\a0272466\AppData\Local\Temp\0939610                         PAGE  116

    5590                      .dwattr $C$DW$269, DW_AT_data_member_location[DW_OP_plus_uconst 0x0]
    5591                      .dwattr $C$DW$269, DW_AT_accessibility(DW_ACCESS_public)
    5592              $C$DW$270       .dwtag  DW_TAG_member
    5593                      .dwattr $C$DW$270, DW_AT_type(*$C$DW$T$21)
    5594                      .dwattr $C$DW$270, DW_AT_name("LOCK1")
    5595                      .dwattr $C$DW$270, DW_AT_TI_symbol_name("_LOCK1")
    5596                      .dwattr $C$DW$270, DW_AT_bit_offset(0x0e), DW_AT_bit_size(0x01)
    5597                      .dwattr $C$DW$270, DW_AT_data_member_location[DW_OP_plus_uconst 0x0]
    5598                      .dwattr $C$DW$270, DW_AT_accessibility(DW_ACCESS_public)
    5599              $C$DW$271       .dwtag  DW_TAG_member
    5600                      .dwattr $C$DW$271, DW_AT_type(*$C$DW$T$21)
    5601                      .dwattr $C$DW$271, DW_AT_name("LOCK2")
    5602                      .dwattr $C$DW$271, DW_AT_TI_symbol_name("_LOCK2")
    5603                      .dwattr $C$DW$271, DW_AT_bit_offset(0x0d), DW_AT_bit_size(0x01)
    5604                      .dwattr $C$DW$271, DW_AT_data_member_location[DW_OP_plus_uconst 0x0]
    5605                      .dwattr $C$DW$271, DW_AT_accessibility(DW_ACCESS_public)
    5606              $C$DW$272       .dwtag  DW_TAG_member
    5607                      .dwattr $C$DW$272, DW_AT_type(*$C$DW$T$21)
    5608                      .dwattr $C$DW$272, DW_AT_name("LOCK3")
    5609                      .dwattr $C$DW$272, DW_AT_TI_symbol_name("_LOCK3")
    5610                      .dwattr $C$DW$272, DW_AT_bit_offset(0x0c), DW_AT_bit_size(0x01)
    5611                      .dwattr $C$DW$272, DW_AT_data_member_location[DW_OP_plus_uconst 0x0]
    5612                      .dwattr $C$DW$272, DW_AT_accessibility(DW_ACCESS_public)
    5613              $C$DW$273       .dwtag  DW_TAG_member
    5614                      .dwattr $C$DW$273, DW_AT_type(*$C$DW$T$21)
    5615                      .dwattr $C$DW$273, DW_AT_name("rsvd1")
    5616                      .dwattr $C$DW$273, DW_AT_TI_symbol_name("_rsvd1")
    5617                      .dwattr $C$DW$273, DW_AT_bit_offset(0x00), DW_AT_bit_size(0x0c)
    5618                      .dwattr $C$DW$273, DW_AT_data_member_location[DW_OP_plus_uconst 0x0]
    5619                      .dwattr $C$DW$273, DW_AT_accessibility(DW_ACCESS_public)
    5620                      .dwendtag $C$DW$T$57
    5621              
    5622              
    5623              $C$DW$T$58      .dwtag  DW_TAG_union_type
    5624                      .dwattr $C$DW$T$58, DW_AT_name("Z2_CSMLOCKSR_REG")
    5625                      .dwattr $C$DW$T$58, DW_AT_byte_size(0x01)
    5626              $C$DW$274       .dwtag  DW_TAG_member
    5627                      .dwattr $C$DW$274, DW_AT_type(*$C$DW$T$21)
    5628                      .dwattr $C$DW$274, DW_AT_name("all")
    5629                      .dwattr $C$DW$274, DW_AT_TI_symbol_name("_all")
    5630                      .dwattr $C$DW$274, DW_AT_data_member_location[DW_OP_plus_uconst 0x0]
    5631                      .dwattr $C$DW$274, DW_AT_accessibility(DW_ACCESS_public)
    5632              $C$DW$275       .dwtag  DW_TAG_member
    5633                      .dwattr $C$DW$275, DW_AT_type(*$C$DW$T$57)
    5634                      .dwattr $C$DW$275, DW_AT_name("bit")
    5635                      .dwattr $C$DW$275, DW_AT_TI_symbol_name("_bit")
    5636                      .dwattr $C$DW$275, DW_AT_data_member_location[DW_OP_plus_uconst 0x0]
    5637                      .dwattr $C$DW$275, DW_AT_accessibility(DW_ACCESS_public)
    5638                      .dwendtag $C$DW$T$58
    5639              
    5640              
    5641              $C$DW$T$59      .dwtag  DW_TAG_structure_type
    5642                      .dwattr $C$DW$T$59, DW_AT_name("Z2_EXEONLYDIS_BITS")
    5643                      .dwattr $C$DW$T$59, DW_AT_byte_size(0x01)
    5644              $C$DW$276       .dwtag  DW_TAG_member
TMS320C2000 Assembler PC v6.1.3 Thu Jan 30 10:33:25 2014

Tools Copyright (c) 1996-2012 Texas Instruments Incorporated
C:\Users\a0272466\AppData\Local\Temp\0939610                         PAGE  117

    5645                      .dwattr $C$DW$276, DW_AT_type(*$C$DW$T$21)
    5646                      .dwattr $C$DW$276, DW_AT_name("DIS")
    5647                      .dwattr $C$DW$276, DW_AT_TI_symbol_name("_DIS")
    5648                      .dwattr $C$DW$276, DW_AT_bit_offset(0x0f), DW_AT_bit_size(0x01)
    5649                      .dwattr $C$DW$276, DW_AT_data_member_location[DW_OP_plus_uconst 0x0]
    5650                      .dwattr $C$DW$276, DW_AT_accessibility(DW_ACCESS_public)
    5651              $C$DW$277       .dwtag  DW_TAG_member
    5652                      .dwattr $C$DW$277, DW_AT_type(*$C$DW$T$21)
    5653                      .dwattr $C$DW$277, DW_AT_name("rsvd1")
    5654                      .dwattr $C$DW$277, DW_AT_TI_symbol_name("_rsvd1")
    5655                      .dwattr $C$DW$277, DW_AT_bit_offset(0x00), DW_AT_bit_size(0x0f)
    5656                      .dwattr $C$DW$277, DW_AT_data_member_location[DW_OP_plus_uconst 0x0]
    5657                      .dwattr $C$DW$277, DW_AT_accessibility(DW_ACCESS_public)
    5658                      .dwendtag $C$DW$T$59
    5659              
    5660              
    5661              $C$DW$T$60      .dwtag  DW_TAG_union_type
    5662                      .dwattr $C$DW$T$60, DW_AT_name("Z2_EXEONLYDIS_REG")
    5663                      .dwattr $C$DW$T$60, DW_AT_byte_size(0x01)
    5664              $C$DW$278       .dwtag  DW_TAG_member
    5665                      .dwattr $C$DW$278, DW_AT_type(*$C$DW$T$21)
    5666                      .dwattr $C$DW$278, DW_AT_name("all")
    5667                      .dwattr $C$DW$278, DW_AT_TI_symbol_name("_all")
    5668                      .dwattr $C$DW$278, DW_AT_data_member_location[DW_OP_plus_uconst 0x0]
    5669                      .dwattr $C$DW$278, DW_AT_accessibility(DW_ACCESS_public)
    5670              $C$DW$279       .dwtag  DW_TAG_member
    5671                      .dwattr $C$DW$279, DW_AT_type(*$C$DW$T$59)
    5672                      .dwattr $C$DW$279, DW_AT_name("bit")
    5673                      .dwattr $C$DW$279, DW_AT_TI_symbol_name("_bit")
    5674                      .dwattr $C$DW$279, DW_AT_data_member_location[DW_OP_plus_uconst 0x0]
    5675                      .dwattr $C$DW$279, DW_AT_accessibility(DW_ACCESS_public)
    5676                      .dwendtag $C$DW$T$60
    5677              
    5678              
    5679              $C$DW$T$61      .dwtag  DW_TAG_structure_type
    5680                      .dwattr $C$DW$T$61, DW_AT_name("Z2_EXEONLYRAMR_BITS")
    5681                      .dwattr $C$DW$T$61, DW_AT_byte_size(0x02)
    5682              $C$DW$280       .dwtag  DW_TAG_member
    5683                      .dwattr $C$DW$280, DW_AT_type(*$C$DW$T$21)
    5684                      .dwattr $C$DW$280, DW_AT_name("EXEONLY_RAM0")
    5685                      .dwattr $C$DW$280, DW_AT_TI_symbol_name("_EXEONLY_RAM0")
    5686                      .dwattr $C$DW$280, DW_AT_bit_offset(0x0f), DW_AT_bit_size(0x01)
    5687                      .dwattr $C$DW$280, DW_AT_data_member_location[DW_OP_plus_uconst 0x0]
    5688                      .dwattr $C$DW$280, DW_AT_accessibility(DW_ACCESS_public)
    5689              $C$DW$281       .dwtag  DW_TAG_member
    5690                      .dwattr $C$DW$281, DW_AT_type(*$C$DW$T$21)
    5691                      .dwattr $C$DW$281, DW_AT_name("EXEONLY_RAM1")
    5692                      .dwattr $C$DW$281, DW_AT_TI_symbol_name("_EXEONLY_RAM1")
    5693                      .dwattr $C$DW$281, DW_AT_bit_offset(0x0e), DW_AT_bit_size(0x01)
    5694                      .dwattr $C$DW$281, DW_AT_data_member_location[DW_OP_plus_uconst 0x0]
    5695                      .dwattr $C$DW$281, DW_AT_accessibility(DW_ACCESS_public)
    5696              $C$DW$282       .dwtag  DW_TAG_member
    5697                      .dwattr $C$DW$282, DW_AT_type(*$C$DW$T$21)
    5698                      .dwattr $C$DW$282, DW_AT_name("EXEONLY_RAM2")
    5699                      .dwattr $C$DW$282, DW_AT_TI_symbol_name("_EXEONLY_RAM2")
TMS320C2000 Assembler PC v6.1.3 Thu Jan 30 10:33:25 2014

Tools Copyright (c) 1996-2012 Texas Instruments Incorporated
C:\Users\a0272466\AppData\Local\Temp\0939610                         PAGE  118

    5700                      .dwattr $C$DW$282, DW_AT_bit_offset(0x0d), DW_AT_bit_size(0x01)
    5701                      .dwattr $C$DW$282, DW_AT_data_member_location[DW_OP_plus_uconst 0x0]
    5702                      .dwattr $C$DW$282, DW_AT_accessibility(DW_ACCESS_public)
    5703              $C$DW$283       .dwtag  DW_TAG_member
    5704                      .dwattr $C$DW$283, DW_AT_type(*$C$DW$T$21)
    5705                      .dwattr $C$DW$283, DW_AT_name("EXEONLY_RAM3")
    5706                      .dwattr $C$DW$283, DW_AT_TI_symbol_name("_EXEONLY_RAM3")
    5707                      .dwattr $C$DW$283, DW_AT_bit_offset(0x0c), DW_AT_bit_size(0x01)
    5708                      .dwattr $C$DW$283, DW_AT_data_member_location[DW_OP_plus_uconst 0x0]
    5709                      .dwattr $C$DW$283, DW_AT_accessibility(DW_ACCESS_public)
    5710              $C$DW$284       .dwtag  DW_TAG_member
    5711                      .dwattr $C$DW$284, DW_AT_type(*$C$DW$T$21)
    5712                      .dwattr $C$DW$284, DW_AT_name("EXEONLY_RAM4")
    5713                      .dwattr $C$DW$284, DW_AT_TI_symbol_name("_EXEONLY_RAM4")
    5714                      .dwattr $C$DW$284, DW_AT_bit_offset(0x0b), DW_AT_bit_size(0x01)
    5715                      .dwattr $C$DW$284, DW_AT_data_member_location[DW_OP_plus_uconst 0x0]
    5716                      .dwattr $C$DW$284, DW_AT_accessibility(DW_ACCESS_public)
    5717              $C$DW$285       .dwtag  DW_TAG_member
    5718                      .dwattr $C$DW$285, DW_AT_type(*$C$DW$T$21)
    5719                      .dwattr $C$DW$285, DW_AT_name("EXEONLY_RAM5")
    5720                      .dwattr $C$DW$285, DW_AT_TI_symbol_name("_EXEONLY_RAM5")
    5721                      .dwattr $C$DW$285, DW_AT_bit_offset(0x0a), DW_AT_bit_size(0x01)
    5722                      .dwattr $C$DW$285, DW_AT_data_member_location[DW_OP_plus_uconst 0x0]
    5723                      .dwattr $C$DW$285, DW_AT_accessibility(DW_ACCESS_public)
    5724              $C$DW$286       .dwtag  DW_TAG_member
    5725                      .dwattr $C$DW$286, DW_AT_type(*$C$DW$T$21)
    5726                      .dwattr $C$DW$286, DW_AT_name("EXEONLY_RAM6")
    5727                      .dwattr $C$DW$286, DW_AT_TI_symbol_name("_EXEONLY_RAM6")
    5728                      .dwattr $C$DW$286, DW_AT_bit_offset(0x09), DW_AT_bit_size(0x01)
    5729                      .dwattr $C$DW$286, DW_AT_data_member_location[DW_OP_plus_uconst 0x0]
    5730                      .dwattr $C$DW$286, DW_AT_accessibility(DW_ACCESS_public)
    5731              $C$DW$287       .dwtag  DW_TAG_member
    5732                      .dwattr $C$DW$287, DW_AT_type(*$C$DW$T$21)
    5733                      .dwattr $C$DW$287, DW_AT_name("EXEONLY_RAM7")
    5734                      .dwattr $C$DW$287, DW_AT_TI_symbol_name("_EXEONLY_RAM7")
    5735                      .dwattr $C$DW$287, DW_AT_bit_offset(0x08), DW_AT_bit_size(0x01)
    5736                      .dwattr $C$DW$287, DW_AT_data_member_location[DW_OP_plus_uconst 0x0]
    5737                      .dwattr $C$DW$287, DW_AT_accessibility(DW_ACCESS_public)
    5738              $C$DW$288       .dwtag  DW_TAG_member
    5739                      .dwattr $C$DW$288, DW_AT_type(*$C$DW$T$21)
    5740                      .dwattr $C$DW$288, DW_AT_name("rsvd1")
    5741                      .dwattr $C$DW$288, DW_AT_TI_symbol_name("_rsvd1")
    5742                      .dwattr $C$DW$288, DW_AT_bit_offset(0x00), DW_AT_bit_size(0x08)
    5743                      .dwattr $C$DW$288, DW_AT_data_member_location[DW_OP_plus_uconst 0x0]
    5744                      .dwattr $C$DW$288, DW_AT_accessibility(DW_ACCESS_public)
    5745              $C$DW$289       .dwtag  DW_TAG_member
    5746                      .dwattr $C$DW$289, DW_AT_type(*$C$DW$T$21)
    5747                      .dwattr $C$DW$289, DW_AT_name("rsvd2")
    5748                      .dwattr $C$DW$289, DW_AT_TI_symbol_name("_rsvd2")
    5749                      .dwattr $C$DW$289, DW_AT_bit_offset(0x00), DW_AT_bit_size(0x10)
    5750                      .dwattr $C$DW$289, DW_AT_data_member_location[DW_OP_plus_uconst 0x1]
    5751                      .dwattr $C$DW$289, DW_AT_accessibility(DW_ACCESS_public)
    5752                      .dwendtag $C$DW$T$61
    5753              
    5754              
TMS320C2000 Assembler PC v6.1.3 Thu Jan 30 10:33:25 2014

Tools Copyright (c) 1996-2012 Texas Instruments Incorporated
C:\Users\a0272466\AppData\Local\Temp\0939610                         PAGE  119

    5755              $C$DW$T$62      .dwtag  DW_TAG_union_type
    5756                      .dwattr $C$DW$T$62, DW_AT_name("Z2_EXEONLYRAMR_REG")
    5757                      .dwattr $C$DW$T$62, DW_AT_byte_size(0x02)
    5758              $C$DW$290       .dwtag  DW_TAG_member
    5759                      .dwattr $C$DW$290, DW_AT_type(*$C$DW$T$20)
    5760                      .dwattr $C$DW$290, DW_AT_name("all")
    5761                      .dwattr $C$DW$290, DW_AT_TI_symbol_name("_all")
    5762                      .dwattr $C$DW$290, DW_AT_data_member_location[DW_OP_plus_uconst 0x0]
    5763                      .dwattr $C$DW$290, DW_AT_accessibility(DW_ACCESS_public)
    5764              $C$DW$291       .dwtag  DW_TAG_member
    5765                      .dwattr $C$DW$291, DW_AT_type(*$C$DW$T$61)
    5766                      .dwattr $C$DW$291, DW_AT_name("bit")
    5767                      .dwattr $C$DW$291, DW_AT_TI_symbol_name("_bit")
    5768                      .dwattr $C$DW$291, DW_AT_data_member_location[DW_OP_plus_uconst 0x0]
    5769                      .dwattr $C$DW$291, DW_AT_accessibility(DW_ACCESS_public)
    5770                      .dwendtag $C$DW$T$62
    5771              
    5772              
    5773              $C$DW$T$63      .dwtag  DW_TAG_structure_type
    5774                      .dwattr $C$DW$T$63, DW_AT_name("Z2_EXEONLYSECTR_BITS")
    5775                      .dwattr $C$DW$T$63, DW_AT_byte_size(0x02)
    5776              $C$DW$292       .dwtag  DW_TAG_member
    5777                      .dwattr $C$DW$292, DW_AT_type(*$C$DW$T$21)
    5778                      .dwattr $C$DW$292, DW_AT_name("EXEONLY_SECTA")
    5779                      .dwattr $C$DW$292, DW_AT_TI_symbol_name("_EXEONLY_SECTA")
    5780                      .dwattr $C$DW$292, DW_AT_bit_offset(0x0f), DW_AT_bit_size(0x01)
    5781                      .dwattr $C$DW$292, DW_AT_data_member_location[DW_OP_plus_uconst 0x0]
    5782                      .dwattr $C$DW$292, DW_AT_accessibility(DW_ACCESS_public)
    5783              $C$DW$293       .dwtag  DW_TAG_member
    5784                      .dwattr $C$DW$293, DW_AT_type(*$C$DW$T$21)
    5785                      .dwattr $C$DW$293, DW_AT_name("EXEONLY_SECTB")
    5786                      .dwattr $C$DW$293, DW_AT_TI_symbol_name("_EXEONLY_SECTB")
    5787                      .dwattr $C$DW$293, DW_AT_bit_offset(0x0e), DW_AT_bit_size(0x01)
    5788                      .dwattr $C$DW$293, DW_AT_data_member_location[DW_OP_plus_uconst 0x0]
    5789                      .dwattr $C$DW$293, DW_AT_accessibility(DW_ACCESS_public)
    5790              $C$DW$294       .dwtag  DW_TAG_member
    5791                      .dwattr $C$DW$294, DW_AT_type(*$C$DW$T$21)
    5792                      .dwattr $C$DW$294, DW_AT_name("EXEONLY_SECTC")
    5793                      .dwattr $C$DW$294, DW_AT_TI_symbol_name("_EXEONLY_SECTC")
    5794                      .dwattr $C$DW$294, DW_AT_bit_offset(0x0d), DW_AT_bit_size(0x01)
    5795                      .dwattr $C$DW$294, DW_AT_data_member_location[DW_OP_plus_uconst 0x0]
    5796                      .dwattr $C$DW$294, DW_AT_accessibility(DW_ACCESS_public)
    5797              $C$DW$295       .dwtag  DW_TAG_member
    5798                      .dwattr $C$DW$295, DW_AT_type(*$C$DW$T$21)
    5799                      .dwattr $C$DW$295, DW_AT_name("EXEONLY_SECTD")
    5800                      .dwattr $C$DW$295, DW_AT_TI_symbol_name("_EXEONLY_SECTD")
    5801                      .dwattr $C$DW$295, DW_AT_bit_offset(0x0c), DW_AT_bit_size(0x01)
    5802                      .dwattr $C$DW$295, DW_AT_data_member_location[DW_OP_plus_uconst 0x0]
    5803                      .dwattr $C$DW$295, DW_AT_accessibility(DW_ACCESS_public)
    5804              $C$DW$296       .dwtag  DW_TAG_member
    5805                      .dwattr $C$DW$296, DW_AT_type(*$C$DW$T$21)
    5806                      .dwattr $C$DW$296, DW_AT_name("EXEONLY_SECTE")
    5807                      .dwattr $C$DW$296, DW_AT_TI_symbol_name("_EXEONLY_SECTE")
    5808                      .dwattr $C$DW$296, DW_AT_bit_offset(0x0b), DW_AT_bit_size(0x01)
    5809                      .dwattr $C$DW$296, DW_AT_data_member_location[DW_OP_plus_uconst 0x0]
TMS320C2000 Assembler PC v6.1.3 Thu Jan 30 10:33:25 2014

Tools Copyright (c) 1996-2012 Texas Instruments Incorporated
C:\Users\a0272466\AppData\Local\Temp\0939610                         PAGE  120

    5810                      .dwattr $C$DW$296, DW_AT_accessibility(DW_ACCESS_public)
    5811              $C$DW$297       .dwtag  DW_TAG_member
    5812                      .dwattr $C$DW$297, DW_AT_type(*$C$DW$T$21)
    5813                      .dwattr $C$DW$297, DW_AT_name("EXEONLY_SECTF")
    5814                      .dwattr $C$DW$297, DW_AT_TI_symbol_name("_EXEONLY_SECTF")
    5815                      .dwattr $C$DW$297, DW_AT_bit_offset(0x0a), DW_AT_bit_size(0x01)
    5816                      .dwattr $C$DW$297, DW_AT_data_member_location[DW_OP_plus_uconst 0x0]
    5817                      .dwattr $C$DW$297, DW_AT_accessibility(DW_ACCESS_public)
    5818              $C$DW$298       .dwtag  DW_TAG_member
    5819                      .dwattr $C$DW$298, DW_AT_type(*$C$DW$T$21)
    5820                      .dwattr $C$DW$298, DW_AT_name("EXEONLY_SECTG")
    5821                      .dwattr $C$DW$298, DW_AT_TI_symbol_name("_EXEONLY_SECTG")
    5822                      .dwattr $C$DW$298, DW_AT_bit_offset(0x09), DW_AT_bit_size(0x01)
    5823                      .dwattr $C$DW$298, DW_AT_data_member_location[DW_OP_plus_uconst 0x0]
    5824                      .dwattr $C$DW$298, DW_AT_accessibility(DW_ACCESS_public)
    5825              $C$DW$299       .dwtag  DW_TAG_member
    5826                      .dwattr $C$DW$299, DW_AT_type(*$C$DW$T$21)
    5827                      .dwattr $C$DW$299, DW_AT_name("EXEONLY_SECTH")
    5828                      .dwattr $C$DW$299, DW_AT_TI_symbol_name("_EXEONLY_SECTH")
    5829                      .dwattr $C$DW$299, DW_AT_bit_offset(0x08), DW_AT_bit_size(0x01)
    5830                      .dwattr $C$DW$299, DW_AT_data_member_location[DW_OP_plus_uconst 0x0]
    5831                      .dwattr $C$DW$299, DW_AT_accessibility(DW_ACCESS_public)
    5832              $C$DW$300       .dwtag  DW_TAG_member
    5833                      .dwattr $C$DW$300, DW_AT_type(*$C$DW$T$21)
    5834                      .dwattr $C$DW$300, DW_AT_name("EXEONLY_SECTI")
    5835                      .dwattr $C$DW$300, DW_AT_TI_symbol_name("_EXEONLY_SECTI")
    5836                      .dwattr $C$DW$300, DW_AT_bit_offset(0x07), DW_AT_bit_size(0x01)
    5837                      .dwattr $C$DW$300, DW_AT_data_member_location[DW_OP_plus_uconst 0x0]
    5838                      .dwattr $C$DW$300, DW_AT_accessibility(DW_ACCESS_public)
    5839              $C$DW$301       .dwtag  DW_TAG_member
    5840                      .dwattr $C$DW$301, DW_AT_type(*$C$DW$T$21)
    5841                      .dwattr $C$DW$301, DW_AT_name("EXEONLY_SECTJ")
    5842                      .dwattr $C$DW$301, DW_AT_TI_symbol_name("_EXEONLY_SECTJ")
    5843                      .dwattr $C$DW$301, DW_AT_bit_offset(0x06), DW_AT_bit_size(0x01)
    5844                      .dwattr $C$DW$301, DW_AT_data_member_location[DW_OP_plus_uconst 0x0]
    5845                      .dwattr $C$DW$301, DW_AT_accessibility(DW_ACCESS_public)
    5846              $C$DW$302       .dwtag  DW_TAG_member
    5847                      .dwattr $C$DW$302, DW_AT_type(*$C$DW$T$21)
    5848                      .dwattr $C$DW$302, DW_AT_name("EXEONLY_SECTK")
    5849                      .dwattr $C$DW$302, DW_AT_TI_symbol_name("_EXEONLY_SECTK")
    5850                      .dwattr $C$DW$302, DW_AT_bit_offset(0x05), DW_AT_bit_size(0x01)
    5851                      .dwattr $C$DW$302, DW_AT_data_member_location[DW_OP_plus_uconst 0x0]
    5852                      .dwattr $C$DW$302, DW_AT_accessibility(DW_ACCESS_public)
    5853              $C$DW$303       .dwtag  DW_TAG_member
    5854                      .dwattr $C$DW$303, DW_AT_type(*$C$DW$T$21)
    5855                      .dwattr $C$DW$303, DW_AT_name("EXEONLY_SECTL")
    5856                      .dwattr $C$DW$303, DW_AT_TI_symbol_name("_EXEONLY_SECTL")
    5857                      .dwattr $C$DW$303, DW_AT_bit_offset(0x04), DW_AT_bit_size(0x01)
    5858                      .dwattr $C$DW$303, DW_AT_data_member_location[DW_OP_plus_uconst 0x0]
    5859                      .dwattr $C$DW$303, DW_AT_accessibility(DW_ACCESS_public)
    5860              $C$DW$304       .dwtag  DW_TAG_member
    5861                      .dwattr $C$DW$304, DW_AT_type(*$C$DW$T$21)
    5862                      .dwattr $C$DW$304, DW_AT_name("EXEONLY_SECTM")
    5863                      .dwattr $C$DW$304, DW_AT_TI_symbol_name("_EXEONLY_SECTM")
    5864                      .dwattr $C$DW$304, DW_AT_bit_offset(0x03), DW_AT_bit_size(0x01)
TMS320C2000 Assembler PC v6.1.3 Thu Jan 30 10:33:25 2014

Tools Copyright (c) 1996-2012 Texas Instruments Incorporated
C:\Users\a0272466\AppData\Local\Temp\0939610                         PAGE  121

    5865                      .dwattr $C$DW$304, DW_AT_data_member_location[DW_OP_plus_uconst 0x0]
    5866                      .dwattr $C$DW$304, DW_AT_accessibility(DW_ACCESS_public)
    5867              $C$DW$305       .dwtag  DW_TAG_member
    5868                      .dwattr $C$DW$305, DW_AT_type(*$C$DW$T$21)
    5869                      .dwattr $C$DW$305, DW_AT_name("EXEONLY_SECTN")
    5870                      .dwattr $C$DW$305, DW_AT_TI_symbol_name("_EXEONLY_SECTN")
    5871                      .dwattr $C$DW$305, DW_AT_bit_offset(0x02), DW_AT_bit_size(0x01)
    5872                      .dwattr $C$DW$305, DW_AT_data_member_location[DW_OP_plus_uconst 0x0]
    5873                      .dwattr $C$DW$305, DW_AT_accessibility(DW_ACCESS_public)
    5874              $C$DW$306       .dwtag  DW_TAG_member
    5875                      .dwattr $C$DW$306, DW_AT_type(*$C$DW$T$21)
    5876                      .dwattr $C$DW$306, DW_AT_name("EXEONLY_BANK2")
    5877                      .dwattr $C$DW$306, DW_AT_TI_symbol_name("_EXEONLY_BANK2")
    5878                      .dwattr $C$DW$306, DW_AT_bit_offset(0x01), DW_AT_bit_size(0x01)
    5879                      .dwattr $C$DW$306, DW_AT_data_member_location[DW_OP_plus_uconst 0x0]
    5880                      .dwattr $C$DW$306, DW_AT_accessibility(DW_ACCESS_public)
    5881              $C$DW$307       .dwtag  DW_TAG_member
    5882                      .dwattr $C$DW$307, DW_AT_type(*$C$DW$T$21)
    5883                      .dwattr $C$DW$307, DW_AT_name("rsvd1")
    5884                      .dwattr $C$DW$307, DW_AT_TI_symbol_name("_rsvd1")
    5885                      .dwattr $C$DW$307, DW_AT_bit_offset(0x00), DW_AT_bit_size(0x01)
    5886                      .dwattr $C$DW$307, DW_AT_data_member_location[DW_OP_plus_uconst 0x0]
    5887                      .dwattr $C$DW$307, DW_AT_accessibility(DW_ACCESS_public)
    5888              $C$DW$308       .dwtag  DW_TAG_member
    5889                      .dwattr $C$DW$308, DW_AT_type(*$C$DW$T$21)
    5890                      .dwattr $C$DW$308, DW_AT_name("rsvd2")
    5891                      .dwattr $C$DW$308, DW_AT_TI_symbol_name("_rsvd2")
    5892                      .dwattr $C$DW$308, DW_AT_bit_offset(0x00), DW_AT_bit_size(0x10)
    5893                      .dwattr $C$DW$308, DW_AT_data_member_location[DW_OP_plus_uconst 0x1]
    5894                      .dwattr $C$DW$308, DW_AT_accessibility(DW_ACCESS_public)
    5895                      .dwendtag $C$DW$T$63
    5896              
    5897              
    5898              $C$DW$T$64      .dwtag  DW_TAG_union_type
    5899                      .dwattr $C$DW$T$64, DW_AT_name("Z2_EXEONLYSECTR_REG")
    5900                      .dwattr $C$DW$T$64, DW_AT_byte_size(0x02)
    5901              $C$DW$309       .dwtag  DW_TAG_member
    5902                      .dwattr $C$DW$309, DW_AT_type(*$C$DW$T$20)
    5903                      .dwattr $C$DW$309, DW_AT_name("all")
    5904                      .dwattr $C$DW$309, DW_AT_TI_symbol_name("_all")
    5905                      .dwattr $C$DW$309, DW_AT_data_member_location[DW_OP_plus_uconst 0x0]
    5906                      .dwattr $C$DW$309, DW_AT_accessibility(DW_ACCESS_public)
    5907              $C$DW$310       .dwtag  DW_TAG_member
    5908                      .dwattr $C$DW$310, DW_AT_type(*$C$DW$T$63)
    5909                      .dwattr $C$DW$310, DW_AT_name("bit")
    5910                      .dwattr $C$DW$310, DW_AT_TI_symbol_name("_bit")
    5911                      .dwattr $C$DW$310, DW_AT_data_member_location[DW_OP_plus_uconst 0x0]
    5912                      .dwattr $C$DW$310, DW_AT_accessibility(DW_ACCESS_public)
    5913                      .dwendtag $C$DW$T$64
    5914              
    5915              
    5916              $C$DW$T$65      .dwtag  DW_TAG_structure_type
    5917                      .dwattr $C$DW$T$65, DW_AT_name("Z2_GRABRAMR_BITS")
    5918                      .dwattr $C$DW$T$65, DW_AT_byte_size(0x02)
    5919              $C$DW$311       .dwtag  DW_TAG_member
TMS320C2000 Assembler PC v6.1.3 Thu Jan 30 10:33:25 2014

Tools Copyright (c) 1996-2012 Texas Instruments Incorporated
C:\Users\a0272466\AppData\Local\Temp\0939610                         PAGE  122

    5920                      .dwattr $C$DW$311, DW_AT_type(*$C$DW$T$21)
    5921                      .dwattr $C$DW$311, DW_AT_name("GRAB_RAM0")
    5922                      .dwattr $C$DW$311, DW_AT_TI_symbol_name("_GRAB_RAM0")
    5923                      .dwattr $C$DW$311, DW_AT_bit_offset(0x0e), DW_AT_bit_size(0x02)
    5924                      .dwattr $C$DW$311, DW_AT_data_member_location[DW_OP_plus_uconst 0x0]
    5925                      .dwattr $C$DW$311, DW_AT_accessibility(DW_ACCESS_public)
    5926              $C$DW$312       .dwtag  DW_TAG_member
    5927                      .dwattr $C$DW$312, DW_AT_type(*$C$DW$T$21)
    5928                      .dwattr $C$DW$312, DW_AT_name("GRAB_RAM1")
    5929                      .dwattr $C$DW$312, DW_AT_TI_symbol_name("_GRAB_RAM1")
    5930                      .dwattr $C$DW$312, DW_AT_bit_offset(0x0c), DW_AT_bit_size(0x02)
    5931                      .dwattr $C$DW$312, DW_AT_data_member_location[DW_OP_plus_uconst 0x0]
    5932                      .dwattr $C$DW$312, DW_AT_accessibility(DW_ACCESS_public)
    5933              $C$DW$313       .dwtag  DW_TAG_member
    5934                      .dwattr $C$DW$313, DW_AT_type(*$C$DW$T$21)
    5935                      .dwattr $C$DW$313, DW_AT_name("GRAB_RAM2")
    5936                      .dwattr $C$DW$313, DW_AT_TI_symbol_name("_GRAB_RAM2")
    5937                      .dwattr $C$DW$313, DW_AT_bit_offset(0x0a), DW_AT_bit_size(0x02)
    5938                      .dwattr $C$DW$313, DW_AT_data_member_location[DW_OP_plus_uconst 0x0]
    5939                      .dwattr $C$DW$313, DW_AT_accessibility(DW_ACCESS_public)
    5940              $C$DW$314       .dwtag  DW_TAG_member
    5941                      .dwattr $C$DW$314, DW_AT_type(*$C$DW$T$21)
    5942                      .dwattr $C$DW$314, DW_AT_name("GRAB_RAM3")
    5943                      .dwattr $C$DW$314, DW_AT_TI_symbol_name("_GRAB_RAM3")
    5944                      .dwattr $C$DW$314, DW_AT_bit_offset(0x08), DW_AT_bit_size(0x02)
    5945                      .dwattr $C$DW$314, DW_AT_data_member_location[DW_OP_plus_uconst 0x0]
    5946                      .dwattr $C$DW$314, DW_AT_accessibility(DW_ACCESS_public)
    5947              $C$DW$315       .dwtag  DW_TAG_member
    5948                      .dwattr $C$DW$315, DW_AT_type(*$C$DW$T$21)
    5949                      .dwattr $C$DW$315, DW_AT_name("GRAB_RAM4")
    5950                      .dwattr $C$DW$315, DW_AT_TI_symbol_name("_GRAB_RAM4")
    5951                      .dwattr $C$DW$315, DW_AT_bit_offset(0x06), DW_AT_bit_size(0x02)
    5952                      .dwattr $C$DW$315, DW_AT_data_member_location[DW_OP_plus_uconst 0x0]
    5953                      .dwattr $C$DW$315, DW_AT_accessibility(DW_ACCESS_public)
    5954              $C$DW$316       .dwtag  DW_TAG_member
    5955                      .dwattr $C$DW$316, DW_AT_type(*$C$DW$T$21)
    5956                      .dwattr $C$DW$316, DW_AT_name("GRAB_RAM5")
    5957                      .dwattr $C$DW$316, DW_AT_TI_symbol_name("_GRAB_RAM5")
    5958                      .dwattr $C$DW$316, DW_AT_bit_offset(0x04), DW_AT_bit_size(0x02)
    5959                      .dwattr $C$DW$316, DW_AT_data_member_location[DW_OP_plus_uconst 0x0]
    5960                      .dwattr $C$DW$316, DW_AT_accessibility(DW_ACCESS_public)
    5961              $C$DW$317       .dwtag  DW_TAG_member
    5962                      .dwattr $C$DW$317, DW_AT_type(*$C$DW$T$21)
    5963                      .dwattr $C$DW$317, DW_AT_name("GRAB_RAM6")
    5964                      .dwattr $C$DW$317, DW_AT_TI_symbol_name("_GRAB_RAM6")
    5965                      .dwattr $C$DW$317, DW_AT_bit_offset(0x02), DW_AT_bit_size(0x02)
    5966                      .dwattr $C$DW$317, DW_AT_data_member_location[DW_OP_plus_uconst 0x0]
    5967                      .dwattr $C$DW$317, DW_AT_accessibility(DW_ACCESS_public)
    5968              $C$DW$318       .dwtag  DW_TAG_member
    5969                      .dwattr $C$DW$318, DW_AT_type(*$C$DW$T$21)
    5970                      .dwattr $C$DW$318, DW_AT_name("GRAB_RAM7")
    5971                      .dwattr $C$DW$318, DW_AT_TI_symbol_name("_GRAB_RAM7")
    5972                      .dwattr $C$DW$318, DW_AT_bit_offset(0x00), DW_AT_bit_size(0x02)
    5973                      .dwattr $C$DW$318, DW_AT_data_member_location[DW_OP_plus_uconst 0x0]
    5974                      .dwattr $C$DW$318, DW_AT_accessibility(DW_ACCESS_public)
TMS320C2000 Assembler PC v6.1.3 Thu Jan 30 10:33:25 2014

Tools Copyright (c) 1996-2012 Texas Instruments Incorporated
C:\Users\a0272466\AppData\Local\Temp\0939610                         PAGE  123

    5975              $C$DW$319       .dwtag  DW_TAG_member
    5976                      .dwattr $C$DW$319, DW_AT_type(*$C$DW$T$21)
    5977                      .dwattr $C$DW$319, DW_AT_name("rsvd1")
    5978                      .dwattr $C$DW$319, DW_AT_TI_symbol_name("_rsvd1")
    5979                      .dwattr $C$DW$319, DW_AT_bit_offset(0x04), DW_AT_bit_size(0x0c)
    5980                      .dwattr $C$DW$319, DW_AT_data_member_location[DW_OP_plus_uconst 0x1]
    5981                      .dwattr $C$DW$319, DW_AT_accessibility(DW_ACCESS_public)
    5982              $C$DW$320       .dwtag  DW_TAG_member
    5983                      .dwattr $C$DW$320, DW_AT_type(*$C$DW$T$21)
    5984                      .dwattr $C$DW$320, DW_AT_name("GRAB_CLA1")
    5985                      .dwattr $C$DW$320, DW_AT_TI_symbol_name("_GRAB_CLA1")
    5986                      .dwattr $C$DW$320, DW_AT_bit_offset(0x02), DW_AT_bit_size(0x02)
    5987                      .dwattr $C$DW$320, DW_AT_data_member_location[DW_OP_plus_uconst 0x1]
    5988                      .dwattr $C$DW$320, DW_AT_accessibility(DW_ACCESS_public)
    5989              $C$DW$321       .dwtag  DW_TAG_member
    5990                      .dwattr $C$DW$321, DW_AT_type(*$C$DW$T$21)
    5991                      .dwattr $C$DW$321, DW_AT_name("rsvd2")
    5992                      .dwattr $C$DW$321, DW_AT_TI_symbol_name("_rsvd2")
    5993                      .dwattr $C$DW$321, DW_AT_bit_offset(0x00), DW_AT_bit_size(0x02)
    5994                      .dwattr $C$DW$321, DW_AT_data_member_location[DW_OP_plus_uconst 0x1]
    5995                      .dwattr $C$DW$321, DW_AT_accessibility(DW_ACCESS_public)
    5996                      .dwendtag $C$DW$T$65
    5997              
    5998              
    5999              $C$DW$T$66      .dwtag  DW_TAG_union_type
    6000                      .dwattr $C$DW$T$66, DW_AT_name("Z2_GRABRAMR_REG")
    6001                      .dwattr $C$DW$T$66, DW_AT_byte_size(0x02)
    6002              $C$DW$322       .dwtag  DW_TAG_member
    6003                      .dwattr $C$DW$322, DW_AT_type(*$C$DW$T$20)
    6004                      .dwattr $C$DW$322, DW_AT_name("all")
    6005                      .dwattr $C$DW$322, DW_AT_TI_symbol_name("_all")
    6006                      .dwattr $C$DW$322, DW_AT_data_member_location[DW_OP_plus_uconst 0x0]
    6007                      .dwattr $C$DW$322, DW_AT_accessibility(DW_ACCESS_public)
    6008              $C$DW$323       .dwtag  DW_TAG_member
    6009                      .dwattr $C$DW$323, DW_AT_type(*$C$DW$T$65)
    6010                      .dwattr $C$DW$323, DW_AT_name("bit")
    6011                      .dwattr $C$DW$323, DW_AT_TI_symbol_name("_bit")
    6012                      .dwattr $C$DW$323, DW_AT_data_member_location[DW_OP_plus_uconst 0x0]
    6013                      .dwattr $C$DW$323, DW_AT_accessibility(DW_ACCESS_public)
    6014                      .dwendtag $C$DW$T$66
    6015              
    6016              
    6017              $C$DW$T$67      .dwtag  DW_TAG_structure_type
    6018                      .dwattr $C$DW$T$67, DW_AT_name("Z2_GRABSECTR_BITS")
    6019                      .dwattr $C$DW$T$67, DW_AT_byte_size(0x02)
    6020              $C$DW$324       .dwtag  DW_TAG_member
    6021                      .dwattr $C$DW$324, DW_AT_type(*$C$DW$T$21)
    6022                      .dwattr $C$DW$324, DW_AT_name("GRAB_SECTA")
    6023                      .dwattr $C$DW$324, DW_AT_TI_symbol_name("_GRAB_SECTA")
    6024                      .dwattr $C$DW$324, DW_AT_bit_offset(0x0e), DW_AT_bit_size(0x02)
    6025                      .dwattr $C$DW$324, DW_AT_data_member_location[DW_OP_plus_uconst 0x0]
    6026                      .dwattr $C$DW$324, DW_AT_accessibility(DW_ACCESS_public)
    6027              $C$DW$325       .dwtag  DW_TAG_member
    6028                      .dwattr $C$DW$325, DW_AT_type(*$C$DW$T$21)
    6029                      .dwattr $C$DW$325, DW_AT_name("GRAB_SECTB")
TMS320C2000 Assembler PC v6.1.3 Thu Jan 30 10:33:25 2014

Tools Copyright (c) 1996-2012 Texas Instruments Incorporated
C:\Users\a0272466\AppData\Local\Temp\0939610                         PAGE  124

    6030                      .dwattr $C$DW$325, DW_AT_TI_symbol_name("_GRAB_SECTB")
    6031                      .dwattr $C$DW$325, DW_AT_bit_offset(0x0c), DW_AT_bit_size(0x02)
    6032                      .dwattr $C$DW$325, DW_AT_data_member_location[DW_OP_plus_uconst 0x0]
    6033                      .dwattr $C$DW$325, DW_AT_accessibility(DW_ACCESS_public)
    6034              $C$DW$326       .dwtag  DW_TAG_member
    6035                      .dwattr $C$DW$326, DW_AT_type(*$C$DW$T$21)
    6036                      .dwattr $C$DW$326, DW_AT_name("GRAB_SECTC")
    6037                      .dwattr $C$DW$326, DW_AT_TI_symbol_name("_GRAB_SECTC")
    6038                      .dwattr $C$DW$326, DW_AT_bit_offset(0x0a), DW_AT_bit_size(0x02)
    6039                      .dwattr $C$DW$326, DW_AT_data_member_location[DW_OP_plus_uconst 0x0]
    6040                      .dwattr $C$DW$326, DW_AT_accessibility(DW_ACCESS_public)
    6041              $C$DW$327       .dwtag  DW_TAG_member
    6042                      .dwattr $C$DW$327, DW_AT_type(*$C$DW$T$21)
    6043                      .dwattr $C$DW$327, DW_AT_name("GRAB_SECTD")
    6044                      .dwattr $C$DW$327, DW_AT_TI_symbol_name("_GRAB_SECTD")
    6045                      .dwattr $C$DW$327, DW_AT_bit_offset(0x08), DW_AT_bit_size(0x02)
    6046                      .dwattr $C$DW$327, DW_AT_data_member_location[DW_OP_plus_uconst 0x0]
    6047                      .dwattr $C$DW$327, DW_AT_accessibility(DW_ACCESS_public)
    6048              $C$DW$328       .dwtag  DW_TAG_member
    6049                      .dwattr $C$DW$328, DW_AT_type(*$C$DW$T$21)
    6050                      .dwattr $C$DW$328, DW_AT_name("GRAB_SECTE")
    6051                      .dwattr $C$DW$328, DW_AT_TI_symbol_name("_GRAB_SECTE")
    6052                      .dwattr $C$DW$328, DW_AT_bit_offset(0x06), DW_AT_bit_size(0x02)
    6053                      .dwattr $C$DW$328, DW_AT_data_member_location[DW_OP_plus_uconst 0x0]
    6054                      .dwattr $C$DW$328, DW_AT_accessibility(DW_ACCESS_public)
    6055              $C$DW$329       .dwtag  DW_TAG_member
    6056                      .dwattr $C$DW$329, DW_AT_type(*$C$DW$T$21)
    6057                      .dwattr $C$DW$329, DW_AT_name("GRAB_SECTF")
    6058                      .dwattr $C$DW$329, DW_AT_TI_symbol_name("_GRAB_SECTF")
    6059                      .dwattr $C$DW$329, DW_AT_bit_offset(0x04), DW_AT_bit_size(0x02)
    6060                      .dwattr $C$DW$329, DW_AT_data_member_location[DW_OP_plus_uconst 0x0]
    6061                      .dwattr $C$DW$329, DW_AT_accessibility(DW_ACCESS_public)
    6062              $C$DW$330       .dwtag  DW_TAG_member
    6063                      .dwattr $C$DW$330, DW_AT_type(*$C$DW$T$21)
    6064                      .dwattr $C$DW$330, DW_AT_name("GRAB_SECTG")
    6065                      .dwattr $C$DW$330, DW_AT_TI_symbol_name("_GRAB_SECTG")
    6066                      .dwattr $C$DW$330, DW_AT_bit_offset(0x02), DW_AT_bit_size(0x02)
    6067                      .dwattr $C$DW$330, DW_AT_data_member_location[DW_OP_plus_uconst 0x0]
    6068                      .dwattr $C$DW$330, DW_AT_accessibility(DW_ACCESS_public)
    6069              $C$DW$331       .dwtag  DW_TAG_member
    6070                      .dwattr $C$DW$331, DW_AT_type(*$C$DW$T$21)
    6071                      .dwattr $C$DW$331, DW_AT_name("GRAB_SECTH")
    6072                      .dwattr $C$DW$331, DW_AT_TI_symbol_name("_GRAB_SECTH")
    6073                      .dwattr $C$DW$331, DW_AT_bit_offset(0x00), DW_AT_bit_size(0x02)
    6074                      .dwattr $C$DW$331, DW_AT_data_member_location[DW_OP_plus_uconst 0x0]
    6075                      .dwattr $C$DW$331, DW_AT_accessibility(DW_ACCESS_public)
    6076              $C$DW$332       .dwtag  DW_TAG_member
    6077                      .dwattr $C$DW$332, DW_AT_type(*$C$DW$T$21)
    6078                      .dwattr $C$DW$332, DW_AT_name("GRAB_SECTI")
    6079                      .dwattr $C$DW$332, DW_AT_TI_symbol_name("_GRAB_SECTI")
    6080                      .dwattr $C$DW$332, DW_AT_bit_offset(0x0e), DW_AT_bit_size(0x02)
    6081                      .dwattr $C$DW$332, DW_AT_data_member_location[DW_OP_plus_uconst 0x1]
    6082                      .dwattr $C$DW$332, DW_AT_accessibility(DW_ACCESS_public)
    6083              $C$DW$333       .dwtag  DW_TAG_member
    6084                      .dwattr $C$DW$333, DW_AT_type(*$C$DW$T$21)
TMS320C2000 Assembler PC v6.1.3 Thu Jan 30 10:33:25 2014

Tools Copyright (c) 1996-2012 Texas Instruments Incorporated
C:\Users\a0272466\AppData\Local\Temp\0939610                         PAGE  125

    6085                      .dwattr $C$DW$333, DW_AT_name("GRAB_SECTJ")
    6086                      .dwattr $C$DW$333, DW_AT_TI_symbol_name("_GRAB_SECTJ")
    6087                      .dwattr $C$DW$333, DW_AT_bit_offset(0x0c), DW_AT_bit_size(0x02)
    6088                      .dwattr $C$DW$333, DW_AT_data_member_location[DW_OP_plus_uconst 0x1]
    6089                      .dwattr $C$DW$333, DW_AT_accessibility(DW_ACCESS_public)
    6090              $C$DW$334       .dwtag  DW_TAG_member
    6091                      .dwattr $C$DW$334, DW_AT_type(*$C$DW$T$21)
    6092                      .dwattr $C$DW$334, DW_AT_name("GRAB_SECTK")
    6093                      .dwattr $C$DW$334, DW_AT_TI_symbol_name("_GRAB_SECTK")
    6094                      .dwattr $C$DW$334, DW_AT_bit_offset(0x0a), DW_AT_bit_size(0x02)
    6095                      .dwattr $C$DW$334, DW_AT_data_member_location[DW_OP_plus_uconst 0x1]
    6096                      .dwattr $C$DW$334, DW_AT_accessibility(DW_ACCESS_public)
    6097              $C$DW$335       .dwtag  DW_TAG_member
    6098                      .dwattr $C$DW$335, DW_AT_type(*$C$DW$T$21)
    6099                      .dwattr $C$DW$335, DW_AT_name("GRAB_SECTL")
    6100                      .dwattr $C$DW$335, DW_AT_TI_symbol_name("_GRAB_SECTL")
    6101                      .dwattr $C$DW$335, DW_AT_bit_offset(0x08), DW_AT_bit_size(0x02)
    6102                      .dwattr $C$DW$335, DW_AT_data_member_location[DW_OP_plus_uconst 0x1]
    6103                      .dwattr $C$DW$335, DW_AT_accessibility(DW_ACCESS_public)
    6104              $C$DW$336       .dwtag  DW_TAG_member
    6105                      .dwattr $C$DW$336, DW_AT_type(*$C$DW$T$21)
    6106                      .dwattr $C$DW$336, DW_AT_name("GRAB_SECTM")
    6107                      .dwattr $C$DW$336, DW_AT_TI_symbol_name("_GRAB_SECTM")
    6108                      .dwattr $C$DW$336, DW_AT_bit_offset(0x06), DW_AT_bit_size(0x02)
    6109                      .dwattr $C$DW$336, DW_AT_data_member_location[DW_OP_plus_uconst 0x1]
    6110                      .dwattr $C$DW$336, DW_AT_accessibility(DW_ACCESS_public)
    6111              $C$DW$337       .dwtag  DW_TAG_member
    6112                      .dwattr $C$DW$337, DW_AT_type(*$C$DW$T$21)
    6113                      .dwattr $C$DW$337, DW_AT_name("GRAB_SECTN")
    6114                      .dwattr $C$DW$337, DW_AT_TI_symbol_name("_GRAB_SECTN")
    6115                      .dwattr $C$DW$337, DW_AT_bit_offset(0x04), DW_AT_bit_size(0x02)
    6116                      .dwattr $C$DW$337, DW_AT_data_member_location[DW_OP_plus_uconst 0x1]
    6117                      .dwattr $C$DW$337, DW_AT_accessibility(DW_ACCESS_public)
    6118              $C$DW$338       .dwtag  DW_TAG_member
    6119                      .dwattr $C$DW$338, DW_AT_type(*$C$DW$T$21)
    6120                      .dwattr $C$DW$338, DW_AT_name("GRAB_BANK2")
    6121                      .dwattr $C$DW$338, DW_AT_TI_symbol_name("_GRAB_BANK2")
    6122                      .dwattr $C$DW$338, DW_AT_bit_offset(0x02), DW_AT_bit_size(0x02)
    6123                      .dwattr $C$DW$338, DW_AT_data_member_location[DW_OP_plus_uconst 0x1]
    6124                      .dwattr $C$DW$338, DW_AT_accessibility(DW_ACCESS_public)
    6125              $C$DW$339       .dwtag  DW_TAG_member
    6126                      .dwattr $C$DW$339, DW_AT_type(*$C$DW$T$21)
    6127                      .dwattr $C$DW$339, DW_AT_name("rsvd1")
    6128                      .dwattr $C$DW$339, DW_AT_TI_symbol_name("_rsvd1")
    6129                      .dwattr $C$DW$339, DW_AT_bit_offset(0x00), DW_AT_bit_size(0x02)
    6130                      .dwattr $C$DW$339, DW_AT_data_member_location[DW_OP_plus_uconst 0x1]
    6131                      .dwattr $C$DW$339, DW_AT_accessibility(DW_ACCESS_public)
    6132                      .dwendtag $C$DW$T$67
    6133              
    6134              
    6135              $C$DW$T$68      .dwtag  DW_TAG_union_type
    6136                      .dwattr $C$DW$T$68, DW_AT_name("Z2_GRABSECTR_REG")
    6137                      .dwattr $C$DW$T$68, DW_AT_byte_size(0x02)
    6138              $C$DW$340       .dwtag  DW_TAG_member
    6139                      .dwattr $C$DW$340, DW_AT_type(*$C$DW$T$20)
TMS320C2000 Assembler PC v6.1.3 Thu Jan 30 10:33:25 2014

Tools Copyright (c) 1996-2012 Texas Instruments Incorporated
C:\Users\a0272466\AppData\Local\Temp\0939610                         PAGE  126

    6140                      .dwattr $C$DW$340, DW_AT_name("all")
    6141                      .dwattr $C$DW$340, DW_AT_TI_symbol_name("_all")
    6142                      .dwattr $C$DW$340, DW_AT_data_member_location[DW_OP_plus_uconst 0x0]
    6143                      .dwattr $C$DW$340, DW_AT_accessibility(DW_ACCESS_public)
    6144              $C$DW$341       .dwtag  DW_TAG_member
    6145                      .dwattr $C$DW$341, DW_AT_type(*$C$DW$T$67)
    6146                      .dwattr $C$DW$341, DW_AT_name("bit")
    6147                      .dwattr $C$DW$341, DW_AT_TI_symbol_name("_bit")
    6148                      .dwattr $C$DW$341, DW_AT_data_member_location[DW_OP_plus_uconst 0x0]
    6149                      .dwattr $C$DW$341, DW_AT_accessibility(DW_ACCESS_public)
    6150                      .dwendtag $C$DW$T$68
    6151              
    6152              
    6153              $C$DW$T$69      .dwtag  DW_TAG_structure_type
    6154                      .dwattr $C$DW$T$69, DW_AT_name("Z2_LINKPOINTER_BITS")
    6155                      .dwattr $C$DW$T$69, DW_AT_byte_size(0x02)
    6156              $C$DW$342       .dwtag  DW_TAG_member
    6157                      .dwattr $C$DW$342, DW_AT_type(*$C$DW$T$20)
    6158                      .dwattr $C$DW$342, DW_AT_name("LINKPOINTER")
    6159                      .dwattr $C$DW$342, DW_AT_TI_symbol_name("_LINKPOINTER")
    6160                      .dwattr $C$DW$342, DW_AT_bit_offset(0x03), DW_AT_bit_size(0x1d)
    6161                      .dwattr $C$DW$342, DW_AT_data_member_location[DW_OP_plus_uconst 0x0]
    6162                      .dwattr $C$DW$342, DW_AT_accessibility(DW_ACCESS_public)
    6163              $C$DW$343       .dwtag  DW_TAG_member
    6164                      .dwattr $C$DW$343, DW_AT_type(*$C$DW$T$21)
    6165                      .dwattr $C$DW$343, DW_AT_name("rsvd1")
    6166                      .dwattr $C$DW$343, DW_AT_TI_symbol_name("_rsvd1")
    6167                      .dwattr $C$DW$343, DW_AT_bit_offset(0x00), DW_AT_bit_size(0x03)
    6168                      .dwattr $C$DW$343, DW_AT_data_member_location[DW_OP_plus_uconst 0x1]
    6169                      .dwattr $C$DW$343, DW_AT_accessibility(DW_ACCESS_public)
    6170                      .dwendtag $C$DW$T$69
    6171              
    6172              
    6173              $C$DW$T$70      .dwtag  DW_TAG_union_type
    6174                      .dwattr $C$DW$T$70, DW_AT_name("Z2_LINKPOINTER_REG")
    6175                      .dwattr $C$DW$T$70, DW_AT_byte_size(0x02)
    6176              $C$DW$344       .dwtag  DW_TAG_member
    6177                      .dwattr $C$DW$344, DW_AT_type(*$C$DW$T$20)
    6178                      .dwattr $C$DW$344, DW_AT_name("all")
    6179                      .dwattr $C$DW$344, DW_AT_TI_symbol_name("_all")
    6180                      .dwattr $C$DW$344, DW_AT_data_member_location[DW_OP_plus_uconst 0x0]
    6181                      .dwattr $C$DW$344, DW_AT_accessibility(DW_ACCESS_public)
    6182              $C$DW$345       .dwtag  DW_TAG_member
    6183                      .dwattr $C$DW$345, DW_AT_type(*$C$DW$T$69)
    6184                      .dwattr $C$DW$345, DW_AT_name("bit")
    6185                      .dwattr $C$DW$345, DW_AT_TI_symbol_name("_bit")
    6186                      .dwattr $C$DW$345, DW_AT_data_member_location[DW_OP_plus_uconst 0x0]
    6187                      .dwattr $C$DW$345, DW_AT_accessibility(DW_ACCESS_public)
    6188                      .dwendtag $C$DW$T$70
    6189              
    6190              
    6191              $C$DW$T$71      .dwtag  DW_TAG_structure_type
    6192                      .dwattr $C$DW$T$71, DW_AT_name("Z2_OTPSECLOCK_BITS")
    6193                      .dwattr $C$DW$T$71, DW_AT_byte_size(0x02)
    6194              $C$DW$346       .dwtag  DW_TAG_member
TMS320C2000 Assembler PC v6.1.3 Thu Jan 30 10:33:25 2014

Tools Copyright (c) 1996-2012 Texas Instruments Incorporated
C:\Users\a0272466\AppData\Local\Temp\0939610                         PAGE  127

    6195                      .dwattr $C$DW$346, DW_AT_type(*$C$DW$T$21)
    6196                      .dwattr $C$DW$346, DW_AT_name("JTAGLOCK")
    6197                      .dwattr $C$DW$346, DW_AT_TI_symbol_name("_JTAGLOCK")
    6198                      .dwattr $C$DW$346, DW_AT_bit_offset(0x0c), DW_AT_bit_size(0x04)
    6199                      .dwattr $C$DW$346, DW_AT_data_member_location[DW_OP_plus_uconst 0x0]
    6200                      .dwattr $C$DW$346, DW_AT_accessibility(DW_ACCESS_public)
    6201              $C$DW$347       .dwtag  DW_TAG_member
    6202                      .dwattr $C$DW$347, DW_AT_type(*$C$DW$T$21)
    6203                      .dwattr $C$DW$347, DW_AT_name("PSWDLOCK")
    6204                      .dwattr $C$DW$347, DW_AT_TI_symbol_name("_PSWDLOCK")
    6205                      .dwattr $C$DW$347, DW_AT_bit_offset(0x08), DW_AT_bit_size(0x04)
    6206                      .dwattr $C$DW$347, DW_AT_data_member_location[DW_OP_plus_uconst 0x0]
    6207                      .dwattr $C$DW$347, DW_AT_accessibility(DW_ACCESS_public)
    6208              $C$DW$348       .dwtag  DW_TAG_member
    6209                      .dwattr $C$DW$348, DW_AT_type(*$C$DW$T$21)
    6210                      .dwattr $C$DW$348, DW_AT_name("CRCLOCK")
    6211                      .dwattr $C$DW$348, DW_AT_TI_symbol_name("_CRCLOCK")
    6212                      .dwattr $C$DW$348, DW_AT_bit_offset(0x04), DW_AT_bit_size(0x04)
    6213                      .dwattr $C$DW$348, DW_AT_data_member_location[DW_OP_plus_uconst 0x0]
    6214                      .dwattr $C$DW$348, DW_AT_accessibility(DW_ACCESS_public)
    6215              $C$DW$349       .dwtag  DW_TAG_member
    6216                      .dwattr $C$DW$349, DW_AT_type(*$C$DW$T$21)
    6217                      .dwattr $C$DW$349, DW_AT_name("rsvd1")
    6218                      .dwattr $C$DW$349, DW_AT_TI_symbol_name("_rsvd1")
    6219                      .dwattr $C$DW$349, DW_AT_bit_offset(0x00), DW_AT_bit_size(0x04)
    6220                      .dwattr $C$DW$349, DW_AT_data_member_location[DW_OP_plus_uconst 0x0]
    6221                      .dwattr $C$DW$349, DW_AT_accessibility(DW_ACCESS_public)
    6222              $C$DW$350       .dwtag  DW_TAG_member
    6223                      .dwattr $C$DW$350, DW_AT_type(*$C$DW$T$21)
    6224                      .dwattr $C$DW$350, DW_AT_name("rsvd2")
    6225                      .dwattr $C$DW$350, DW_AT_TI_symbol_name("_rsvd2")
    6226                      .dwattr $C$DW$350, DW_AT_bit_offset(0x00), DW_AT_bit_size(0x10)
    6227                      .dwattr $C$DW$350, DW_AT_data_member_location[DW_OP_plus_uconst 0x1]
    6228                      .dwattr $C$DW$350, DW_AT_accessibility(DW_ACCESS_public)
    6229                      .dwendtag $C$DW$T$71
    6230              
    6231              
    6232              $C$DW$T$72      .dwtag  DW_TAG_union_type
    6233                      .dwattr $C$DW$T$72, DW_AT_name("Z2_OTPSECLOCK_REG")
    6234                      .dwattr $C$DW$T$72, DW_AT_byte_size(0x02)
    6235              $C$DW$351       .dwtag  DW_TAG_member
    6236                      .dwattr $C$DW$351, DW_AT_type(*$C$DW$T$20)
    6237                      .dwattr $C$DW$351, DW_AT_name("all")
    6238                      .dwattr $C$DW$351, DW_AT_TI_symbol_name("_all")
    6239                      .dwattr $C$DW$351, DW_AT_data_member_location[DW_OP_plus_uconst 0x0]
    6240                      .dwattr $C$DW$351, DW_AT_accessibility(DW_ACCESS_public)
    6241              $C$DW$352       .dwtag  DW_TAG_member
    6242                      .dwattr $C$DW$352, DW_AT_type(*$C$DW$T$71)
    6243                      .dwattr $C$DW$352, DW_AT_name("bit")
    6244                      .dwattr $C$DW$352, DW_AT_TI_symbol_name("_bit")
    6245                      .dwattr $C$DW$352, DW_AT_data_member_location[DW_OP_plus_uconst 0x0]
    6246                      .dwattr $C$DW$352, DW_AT_accessibility(DW_ACCESS_public)
    6247                      .dwendtag $C$DW$T$72
    6248              
    6249              $C$DW$T$4       .dwtag  DW_TAG_base_type
TMS320C2000 Assembler PC v6.1.3 Thu Jan 30 10:33:25 2014

Tools Copyright (c) 1996-2012 Texas Instruments Incorporated
C:\Users\a0272466\AppData\Local\Temp\0939610                         PAGE  128

    6250                      .dwattr $C$DW$T$4, DW_AT_encoding(DW_ATE_boolean)
    6251                      .dwattr $C$DW$T$4, DW_AT_name("bool")
    6252                      .dwattr $C$DW$T$4, DW_AT_byte_size(0x01)
    6253              $C$DW$T$5       .dwtag  DW_TAG_base_type
    6254                      .dwattr $C$DW$T$5, DW_AT_encoding(DW_ATE_signed_char)
    6255                      .dwattr $C$DW$T$5, DW_AT_name("signed char")
    6256                      .dwattr $C$DW$T$5, DW_AT_byte_size(0x01)
    6257              $C$DW$T$6       .dwtag  DW_TAG_base_type
    6258                      .dwattr $C$DW$T$6, DW_AT_encoding(DW_ATE_unsigned_char)
    6259                      .dwattr $C$DW$T$6, DW_AT_name("unsigned char")
    6260                      .dwattr $C$DW$T$6, DW_AT_byte_size(0x01)
    6261              $C$DW$T$7       .dwtag  DW_TAG_base_type
    6262                      .dwattr $C$DW$T$7, DW_AT_encoding(DW_ATE_signed_char)
    6263                      .dwattr $C$DW$T$7, DW_AT_name("wchar_t")
    6264                      .dwattr $C$DW$T$7, DW_AT_byte_size(0x01)
    6265              $C$DW$T$8       .dwtag  DW_TAG_base_type
    6266                      .dwattr $C$DW$T$8, DW_AT_encoding(DW_ATE_signed)
    6267                      .dwattr $C$DW$T$8, DW_AT_name("short")
    6268                      .dwattr $C$DW$T$8, DW_AT_byte_size(0x01)
    6269              $C$DW$T$9       .dwtag  DW_TAG_base_type
    6270                      .dwattr $C$DW$T$9, DW_AT_encoding(DW_ATE_unsigned)
    6271                      .dwattr $C$DW$T$9, DW_AT_name("unsigned short")
    6272                      .dwattr $C$DW$T$9, DW_AT_byte_size(0x01)
    6273              $C$DW$T$10      .dwtag  DW_TAG_base_type
    6274                      .dwattr $C$DW$T$10, DW_AT_encoding(DW_ATE_signed)
    6275                      .dwattr $C$DW$T$10, DW_AT_name("int")
    6276                      .dwattr $C$DW$T$10, DW_AT_byte_size(0x01)
    6277              $C$DW$T$11      .dwtag  DW_TAG_base_type
    6278                      .dwattr $C$DW$T$11, DW_AT_encoding(DW_ATE_unsigned)
    6279                      .dwattr $C$DW$T$11, DW_AT_name("unsigned int")
    6280                      .dwattr $C$DW$T$11, DW_AT_byte_size(0x01)
    6281              $C$DW$T$21      .dwtag  DW_TAG_typedef, DW_AT_name("Uint16")
    6282                      .dwattr $C$DW$T$21, DW_AT_type(*$C$DW$T$11)
    6283                      .dwattr $C$DW$T$21, DW_AT_language(DW_LANG_C)
    6284              
    6285              $C$DW$T$22      .dwtag  DW_TAG_array_type
    6286                      .dwattr $C$DW$T$22, DW_AT_type(*$C$DW$T$21)
    6287                      .dwattr $C$DW$T$22, DW_AT_language(DW_LANG_C)
    6288                      .dwattr $C$DW$T$22, DW_AT_byte_size(0x08)
    6289              $C$DW$353       .dwtag  DW_TAG_subrange_type
    6290                      .dwattr $C$DW$353, DW_AT_upper_bound(0x07)
    6291                      .dwendtag $C$DW$T$22
    6292              
    6293              $C$DW$T$91      .dwtag  DW_TAG_pointer_type
    6294                      .dwattr $C$DW$T$91, DW_AT_type(*$C$DW$T$21)
    6295                      .dwattr $C$DW$T$91, DW_AT_address_class(0x16)
    6296              $C$DW$T$12      .dwtag  DW_TAG_base_type
    6297                      .dwattr $C$DW$T$12, DW_AT_encoding(DW_ATE_signed)
    6298                      .dwattr $C$DW$T$12, DW_AT_name("long")
    6299                      .dwattr $C$DW$T$12, DW_AT_byte_size(0x02)
    6300              $C$DW$T$13      .dwtag  DW_TAG_base_type
    6301                      .dwattr $C$DW$T$13, DW_AT_encoding(DW_ATE_unsigned)
    6302                      .dwattr $C$DW$T$13, DW_AT_name("unsigned long")
    6303                      .dwattr $C$DW$T$13, DW_AT_byte_size(0x02)
    6304              $C$DW$T$20      .dwtag  DW_TAG_typedef, DW_AT_name("Uint32")
TMS320C2000 Assembler PC v6.1.3 Thu Jan 30 10:33:25 2014

Tools Copyright (c) 1996-2012 Texas Instruments Incorporated
C:\Users\a0272466\AppData\Local\Temp\0939610                         PAGE  129

    6305                      .dwattr $C$DW$T$20, DW_AT_type(*$C$DW$T$13)
    6306                      .dwattr $C$DW$T$20, DW_AT_language(DW_LANG_C)
    6307              $C$DW$T$88      .dwtag  DW_TAG_pointer_type
    6308                      .dwattr $C$DW$T$88, DW_AT_type(*$C$DW$T$13)
    6309                      .dwattr $C$DW$T$88, DW_AT_address_class(0x16)
    6310              $C$DW$T$14      .dwtag  DW_TAG_base_type
    6311                      .dwattr $C$DW$T$14, DW_AT_encoding(DW_ATE_signed)
    6312                      .dwattr $C$DW$T$14, DW_AT_name("long long")
    6313                      .dwattr $C$DW$T$14, DW_AT_byte_size(0x04)
    6314              $C$DW$T$15      .dwtag  DW_TAG_base_type
    6315                      .dwattr $C$DW$T$15, DW_AT_encoding(DW_ATE_unsigned)
    6316                      .dwattr $C$DW$T$15, DW_AT_name("unsigned long long")
    6317                      .dwattr $C$DW$T$15, DW_AT_byte_size(0x04)
    6318              $C$DW$T$16      .dwtag  DW_TAG_base_type
    6319                      .dwattr $C$DW$T$16, DW_AT_encoding(DW_ATE_float)
    6320                      .dwattr $C$DW$T$16, DW_AT_name("float")
    6321                      .dwattr $C$DW$T$16, DW_AT_byte_size(0x02)
    6322              $C$DW$T$17      .dwtag  DW_TAG_base_type
    6323                      .dwattr $C$DW$T$17, DW_AT_encoding(DW_ATE_float)
    6324                      .dwattr $C$DW$T$17, DW_AT_name("double")
    6325                      .dwattr $C$DW$T$17, DW_AT_byte_size(0x02)
    6326              $C$DW$T$18      .dwtag  DW_TAG_base_type
    6327                      .dwattr $C$DW$T$18, DW_AT_encoding(DW_ATE_float)
    6328                      .dwattr $C$DW$T$18, DW_AT_name("long double")
    6329                      .dwattr $C$DW$T$18, DW_AT_byte_size(0x04)
    6330                      .dwattr $C$DW$CU, DW_AT_language(DW_LANG_C)
    6331              
    6332              ;***************************************************************
    6333              ;* DWARF CIE ENTRIES                                           *
    6334              ;***************************************************************
    6335              
    6336              $C$DW$CIE       .dwcie 78
    6337                      .dwcfi  cfa_register, 20
    6338                      .dwcfi  cfa_offset, 0
    6339                      .dwcfi  undefined, 0
    6340                      .dwcfi  undefined, 1
    6341                      .dwcfi  undefined, 2
    6342                      .dwcfi  undefined, 3
    6343                      .dwcfi  undefined, 22
    6344                      .dwcfi  undefined, 37
    6345                      .dwcfi  undefined, 36
    6346                      .dwcfi  undefined, 23
    6347                      .dwcfi  undefined, 30
    6348                      .dwcfi  undefined, 31
    6349                      .dwcfi  undefined, 32
    6350                      .dwcfi  undefined, 38
    6351                      .dwcfi  undefined, 75
    6352                      .dwcfi  undefined, 24
    6353                      .dwcfi  undefined, 33
    6354                      .dwcfi  undefined, 35
    6355                      .dwcfi  undefined, 34
    6356                      .dwcfi  undefined, 76
    6357                      .dwcfi  undefined, 21
    6358                      .dwcfi  undefined, 20
    6359                      .dwcfi  same_value, 28
TMS320C2000 Assembler PC v6.1.3 Thu Jan 30 10:33:25 2014

Tools Copyright (c) 1996-2012 Texas Instruments Incorporated
C:\Users\a0272466\AppData\Local\Temp\0939610                         PAGE  130

    6360                      .dwcfi  undefined, 29
    6361                      .dwcfi  undefined, 25
    6362                      .dwcfi  undefined, 77
    6363                      .dwcfi  undefined, 4
    6364                      .dwcfi  same_value, 6
    6365                      .dwcfi  same_value, 8
    6366                      .dwcfi  same_value, 10
    6367                      .dwcfi  undefined, 12
    6368                      .dwcfi  undefined, 14
    6369                      .dwcfi  undefined, 16
    6370                      .dwcfi  undefined, 17
    6371                      .dwcfi  undefined, 18
    6372                      .dwcfi  undefined, 19
    6373                      .dwcfi  undefined, 5
    6374                      .dwcfi  same_value, 7
    6375                      .dwcfi  same_value, 9
    6376                      .dwcfi  same_value, 11
    6377                      .dwcfi  undefined, 13
    6378                      .dwcfi  undefined, 15
    6379                      .dwcfi  undefined, 43
    6380                      .dwcfi  undefined, 44
    6381                      .dwcfi  undefined, 47
    6382                      .dwcfi  undefined, 48
    6383                      .dwcfi  undefined, 51
    6384                      .dwcfi  undefined, 52
    6385                      .dwcfi  undefined, 55
    6386                      .dwcfi  undefined, 56
    6387                      .dwcfi  same_value, 59
    6388                      .dwcfi  same_value, 60
    6389                      .dwcfi  same_value, 63
    6390                      .dwcfi  same_value, 64
    6391                      .dwcfi  same_value, 67
    6392                      .dwcfi  same_value, 68
    6393                      .dwcfi  same_value, 71
    6394                      .dwcfi  same_value, 72
    6395                      .dwcfi  undefined, 73
    6396                      .dwcfi  undefined, 74
    6397                      .dwcfi  undefined, 39
    6398                      .dwcfi  undefined, 40
    6399                      .dwcfi  undefined, 27
    6400                      .dwcfi  undefined, 78
    6401                      .dwendentry
    6402              
    6403              ;***************************************************************
    6404              ;* DWARF REGISTER MAP                                          *
    6405              ;***************************************************************
    6406              
    6407              $C$DW$354       .dwtag  DW_TAG_TI_assign_register, DW_AT_name("AL")
    6408                      .dwattr $C$DW$354, DW_AT_location[DW_OP_reg0]
    6409              $C$DW$355       .dwtag  DW_TAG_TI_assign_register, DW_AT_name("AH")
    6410                      .dwattr $C$DW$355, DW_AT_location[DW_OP_reg1]
    6411              $C$DW$356       .dwtag  DW_TAG_TI_assign_register, DW_AT_name("PL")
    6412                      .dwattr $C$DW$356, DW_AT_location[DW_OP_reg2]
    6413              $C$DW$357       .dwtag  DW_TAG_TI_assign_register, DW_AT_name("PH")
    6414                      .dwattr $C$DW$357, DW_AT_location[DW_OP_reg3]
TMS320C2000 Assembler PC v6.1.3 Thu Jan 30 10:33:25 2014

Tools Copyright (c) 1996-2012 Texas Instruments Incorporated
C:\Users\a0272466\AppData\Local\Temp\0939610                         PAGE  131

    6415              $C$DW$358       .dwtag  DW_TAG_TI_assign_register, DW_AT_name("T")
    6416                      .dwattr $C$DW$358, DW_AT_location[DW_OP_reg22]
    6417              $C$DW$359       .dwtag  DW_TAG_TI_assign_register, DW_AT_name("IER")
    6418                      .dwattr $C$DW$359, DW_AT_location[DW_OP_regx 0x25]
    6419              $C$DW$360       .dwtag  DW_TAG_TI_assign_register, DW_AT_name("IFR")
    6420                      .dwattr $C$DW$360, DW_AT_location[DW_OP_regx 0x24]
    6421              $C$DW$361       .dwtag  DW_TAG_TI_assign_register, DW_AT_name("ST0")
    6422                      .dwattr $C$DW$361, DW_AT_location[DW_OP_reg23]
    6423              $C$DW$362       .dwtag  DW_TAG_TI_assign_register, DW_AT_name("SXM")
    6424                      .dwattr $C$DW$362, DW_AT_location[DW_OP_reg30]
    6425              $C$DW$363       .dwtag  DW_TAG_TI_assign_register, DW_AT_name("PM")
    6426                      .dwattr $C$DW$363, DW_AT_location[DW_OP_reg31]
    6427              $C$DW$364       .dwtag  DW_TAG_TI_assign_register, DW_AT_name("OVM")
    6428                      .dwattr $C$DW$364, DW_AT_location[DW_OP_regx 0x20]
    6429              $C$DW$365       .dwtag  DW_TAG_TI_assign_register, DW_AT_name("V")
    6430                      .dwattr $C$DW$365, DW_AT_location[DW_OP_regx 0x26]
    6431              $C$DW$366       .dwtag  DW_TAG_TI_assign_register, DW_AT_name("ST1")
    6432                      .dwattr $C$DW$366, DW_AT_location[DW_OP_reg24]
    6433              $C$DW$367       .dwtag  DW_TAG_TI_assign_register, DW_AT_name("PAGE0")
    6434                      .dwattr $C$DW$367, DW_AT_location[DW_OP_regx 0x21]
    6435              $C$DW$368       .dwtag  DW_TAG_TI_assign_register, DW_AT_name("INTM")
    6436                      .dwattr $C$DW$368, DW_AT_location[DW_OP_regx 0x23]
    6437              $C$DW$369       .dwtag  DW_TAG_TI_assign_register, DW_AT_name("AMODE")
    6438                      .dwattr $C$DW$369, DW_AT_location[DW_OP_regx 0x22]
    6439              $C$DW$370       .dwtag  DW_TAG_TI_assign_register, DW_AT_name("PSEUDOH")
    6440                      .dwattr $C$DW$370, DW_AT_location[DW_OP_regx 0x4c]
    6441              $C$DW$371       .dwtag  DW_TAG_TI_assign_register, DW_AT_name("XT")
    6442                      .dwattr $C$DW$371, DW_AT_location[DW_OP_reg21]
    6443              $C$DW$372       .dwtag  DW_TAG_TI_assign_register, DW_AT_name("SP")
    6444                      .dwattr $C$DW$372, DW_AT_location[DW_OP_reg20]
    6445              $C$DW$373       .dwtag  DW_TAG_TI_assign_register, DW_AT_name("FP")
    6446                      .dwattr $C$DW$373, DW_AT_location[DW_OP_reg28]
    6447              $C$DW$374       .dwtag  DW_TAG_TI_assign_register, DW_AT_name("DP")
    6448                      .dwattr $C$DW$374, DW_AT_location[DW_OP_reg29]
    6449              $C$DW$375       .dwtag  DW_TAG_TI_assign_register, DW_AT_name("PC")
    6450                      .dwattr $C$DW$375, DW_AT_location[DW_OP_reg25]
    6451              $C$DW$376       .dwtag  DW_TAG_TI_assign_register, DW_AT_name("VOL")
    6452                      .dwattr $C$DW$376, DW_AT_location[DW_OP_regx 0x4d]
    6453              $C$DW$377       .dwtag  DW_TAG_TI_assign_register, DW_AT_name("AR0")
    6454                      .dwattr $C$DW$377, DW_AT_location[DW_OP_reg4]
    6455              $C$DW$378       .dwtag  DW_TAG_TI_assign_register, DW_AT_name("AR1")
    6456                      .dwattr $C$DW$378, DW_AT_location[DW_OP_reg6]
    6457              $C$DW$379       .dwtag  DW_TAG_TI_assign_register, DW_AT_name("AR2")
    6458                      .dwattr $C$DW$379, DW_AT_location[DW_OP_reg8]
    6459              $C$DW$380       .dwtag  DW_TAG_TI_assign_register, DW_AT_name("AR3")
    6460                      .dwattr $C$DW$380, DW_AT_location[DW_OP_reg10]
    6461              $C$DW$381       .dwtag  DW_TAG_TI_assign_register, DW_AT_name("AR4")
    6462                      .dwattr $C$DW$381, DW_AT_location[DW_OP_reg12]
    6463              $C$DW$382       .dwtag  DW_TAG_TI_assign_register, DW_AT_name("AR5")
    6464                      .dwattr $C$DW$382, DW_AT_location[DW_OP_reg14]
    6465              $C$DW$383       .dwtag  DW_TAG_TI_assign_register, DW_AT_name("AR6")
    6466                      .dwattr $C$DW$383, DW_AT_location[DW_OP_reg16]
    6467              $C$DW$384       .dwtag  DW_TAG_TI_assign_register, DW_AT_name("XAR6")
    6468                      .dwattr $C$DW$384, DW_AT_location[DW_OP_reg17]
    6469              $C$DW$385       .dwtag  DW_TAG_TI_assign_register, DW_AT_name("AR7")
TMS320C2000 Assembler PC v6.1.3 Thu Jan 30 10:33:25 2014

Tools Copyright (c) 1996-2012 Texas Instruments Incorporated
C:\Users\a0272466\AppData\Local\Temp\0939610                         PAGE  132

    6470                      .dwattr $C$DW$385, DW_AT_location[DW_OP_reg18]
    6471              $C$DW$386       .dwtag  DW_TAG_TI_assign_register, DW_AT_name("XAR7")
    6472                      .dwattr $C$DW$386, DW_AT_location[DW_OP_reg19]
    6473              $C$DW$387       .dwtag  DW_TAG_TI_assign_register, DW_AT_name("XAR0")
    6474                      .dwattr $C$DW$387, DW_AT_location[DW_OP_reg5]
    6475              $C$DW$388       .dwtag  DW_TAG_TI_assign_register, DW_AT_name("XAR1")
    6476                      .dwattr $C$DW$388, DW_AT_location[DW_OP_reg7]
    6477              $C$DW$389       .dwtag  DW_TAG_TI_assign_register, DW_AT_name("XAR2")
    6478                      .dwattr $C$DW$389, DW_AT_location[DW_OP_reg9]
    6479              $C$DW$390       .dwtag  DW_TAG_TI_assign_register, DW_AT_name("XAR3")
    6480                      .dwattr $C$DW$390, DW_AT_location[DW_OP_reg11]
    6481              $C$DW$391       .dwtag  DW_TAG_TI_assign_register, DW_AT_name("XAR4")
    6482                      .dwattr $C$DW$391, DW_AT_location[DW_OP_reg13]
    6483              $C$DW$392       .dwtag  DW_TAG_TI_assign_register, DW_AT_name("XAR5")
    6484                      .dwattr $C$DW$392, DW_AT_location[DW_OP_reg15]
    6485              $C$DW$393       .dwtag  DW_TAG_TI_assign_register, DW_AT_name("R0HL")
    6486                      .dwattr $C$DW$393, DW_AT_location[DW_OP_regx 0x2b]
    6487              $C$DW$394       .dwtag  DW_TAG_TI_assign_register, DW_AT_name("R0H")
    6488                      .dwattr $C$DW$394, DW_AT_location[DW_OP_regx 0x2c]
    6489              $C$DW$395       .dwtag  DW_TAG_TI_assign_register, DW_AT_name("R1HL")
    6490                      .dwattr $C$DW$395, DW_AT_location[DW_OP_regx 0x2f]
    6491              $C$DW$396       .dwtag  DW_TAG_TI_assign_register, DW_AT_name("R1H")
    6492                      .dwattr $C$DW$396, DW_AT_location[DW_OP_regx 0x30]
    6493              $C$DW$397       .dwtag  DW_TAG_TI_assign_register, DW_AT_name("R2HL")
    6494                      .dwattr $C$DW$397, DW_AT_location[DW_OP_regx 0x33]
    6495              $C$DW$398       .dwtag  DW_TAG_TI_assign_register, DW_AT_name("R2H")
    6496                      .dwattr $C$DW$398, DW_AT_location[DW_OP_regx 0x34]
    6497              $C$DW$399       .dwtag  DW_TAG_TI_assign_register, DW_AT_name("R3HL")
    6498                      .dwattr $C$DW$399, DW_AT_location[DW_OP_regx 0x37]
    6499              $C$DW$400       .dwtag  DW_TAG_TI_assign_register, DW_AT_name("R3H")
    6500                      .dwattr $C$DW$400, DW_AT_location[DW_OP_regx 0x38]
    6501              $C$DW$401       .dwtag  DW_TAG_TI_assign_register, DW_AT_name("R4HL")
    6502                      .dwattr $C$DW$401, DW_AT_location[DW_OP_regx 0x3b]
    6503              $C$DW$402       .dwtag  DW_TAG_TI_assign_register, DW_AT_name("R4H")
    6504                      .dwattr $C$DW$402, DW_AT_location[DW_OP_regx 0x3c]
    6505              $C$DW$403       .dwtag  DW_TAG_TI_assign_register, DW_AT_name("R5HL")
    6506                      .dwattr $C$DW$403, DW_AT_location[DW_OP_regx 0x3f]
    6507              $C$DW$404       .dwtag  DW_TAG_TI_assign_register, DW_AT_name("R5H")
    6508                      .dwattr $C$DW$404, DW_AT_location[DW_OP_regx 0x40]
    6509              $C$DW$405       .dwtag  DW_TAG_TI_assign_register, DW_AT_name("R6HL")
    6510                      .dwattr $C$DW$405, DW_AT_location[DW_OP_regx 0x43]
    6511              $C$DW$406       .dwtag  DW_TAG_TI_assign_register, DW_AT_name("R6H")
    6512                      .dwattr $C$DW$406, DW_AT_location[DW_OP_regx 0x44]
    6513              $C$DW$407       .dwtag  DW_TAG_TI_assign_register, DW_AT_name("R7HL")
    6514                      .dwattr $C$DW$407, DW_AT_location[DW_OP_regx 0x47]
    6515              $C$DW$408       .dwtag  DW_TAG_TI_assign_register, DW_AT_name("R7H")
    6516                      .dwattr $C$DW$408, DW_AT_location[DW_OP_regx 0x48]
    6517              $C$DW$409       .dwtag  DW_TAG_TI_assign_register, DW_AT_name("RBL")
    6518                      .dwattr $C$DW$409, DW_AT_location[DW_OP_regx 0x49]
    6519              $C$DW$410       .dwtag  DW_TAG_TI_assign_register, DW_AT_name("RB")
    6520                      .dwattr $C$DW$410, DW_AT_location[DW_OP_regx 0x4a]
    6521              $C$DW$411       .dwtag  DW_TAG_TI_assign_register, DW_AT_name("STFL")
    6522                      .dwattr $C$DW$411, DW_AT_location[DW_OP_regx 0x27]
    6523              $C$DW$412       .dwtag  DW_TAG_TI_assign_register, DW_AT_name("STF")
    6524                      .dwattr $C$DW$412, DW_AT_location[DW_OP_regx 0x28]
TMS320C2000 Assembler PC v6.1.3 Thu Jan 30 10:33:25 2014

Tools Copyright (c) 1996-2012 Texas Instruments Incorporated
C:\Users\a0272466\AppData\Local\Temp\0939610                         PAGE  133

    6525              $C$DW$413       .dwtag  DW_TAG_TI_assign_register, DW_AT_name("FPUHAZ")
    6526                      .dwattr $C$DW$413, DW_AT_location[DW_OP_reg27]
    6527              $C$DW$414       .dwtag  DW_TAG_TI_assign_register, DW_AT_name("CIE_RETA")
    6528                      .dwattr $C$DW$414, DW_AT_location[DW_OP_regx 0x4e]
    6529                      .dwendtag $C$DW$CU
    6530              

No Assembly Errors, No Assembly Warnings
