TMS320C2000 Assembler PC v6.1.3 Tue Oct 01 15:27:14 2013

Tools Copyright (c) 1996-2012 Texas Instruments Incorporated
C:\Users\a0272466\AppData\Local\Temp\0780810                         PAGE    1

       1              ;***************************************************************
       2              ;* TMS320C2000 C/C++ Codegen                         PC v6.1.3 *
       3              ;* Date/Time created: Tue Oct 01 15:27:14 2013                 *
       4              ;***************************************************************
       5                      .compiler_opts --float_support=fpu32 --hll_source=on --mem_model:code=flat --mem_model:data=large --o
       6        0002  FP      .set    XAR2
       7              
       8              $C$DW$CU        .dwtag  DW_TAG_compile_unit
       9                      .dwattr $C$DW$CU, DW_AT_name("C:/work/grepos/device_support/device_support/f2837x/F2837x_bootROM_dev/
      10                      .dwattr $C$DW$CU, DW_AT_producer("TMS320C2000 C/C++ Codegen PC v6.1.3 Copyright (c) 1996-2012 Texas I
      11                      .dwattr $C$DW$CU, DW_AT_TI_version(0x01)
      12                      .dwattr $C$DW$CU, DW_AT_comp_dir("C:\work\grepos\device_support\device_support\f2837x\F2837x_bootROM_
      13              
      14              $C$DW$1 .dwtag  DW_TAG_subprogram, DW_AT_name("CopyData")
      15                      .dwattr $C$DW$1, DW_AT_TI_symbol_name("_CopyData")
      16                      .dwattr $C$DW$1, DW_AT_declaration
      17                      .dwattr $C$DW$1, DW_AT_external
      18              $C$DW$2 .dwtag  DW_TAG_variable, DW_AT_name("GetWordData")
      19                      .dwattr $C$DW$2, DW_AT_TI_symbol_name("_GetWordData")
      20                      .dwattr $C$DW$2, DW_AT_type(*$C$DW$T$461)
      21                      .dwattr $C$DW$2, DW_AT_declaration
      22                      .dwattr $C$DW$2, DW_AT_external
      23              
      24              $C$DW$3 .dwtag  DW_TAG_subprogram, DW_AT_name("GetLongData")
      25                      .dwattr $C$DW$3, DW_AT_TI_symbol_name("_GetLongData")
      26                      .dwattr $C$DW$3, DW_AT_type(*$C$DW$T$21)
      27                      .dwattr $C$DW$3, DW_AT_declaration
      28                      .dwattr $C$DW$3, DW_AT_external
      29              $C$DW$4 .dwtag  DW_TAG_variable, DW_AT_name("I2caRegs")
      30                      .dwattr $C$DW$4, DW_AT_TI_symbol_name("_I2caRegs")
      31                      .dwattr $C$DW$4, DW_AT_type(*$C$DW$T$451)
      32                      .dwattr $C$DW$4, DW_AT_declaration
      33                      .dwattr $C$DW$4, DW_AT_external
      34              $C$DW$5 .dwtag  DW_TAG_variable, DW_AT_name("CpuSysRegs")
      35                      .dwattr $C$DW$5, DW_AT_TI_symbol_name("_CpuSysRegs")
      36                      .dwattr $C$DW$5, DW_AT_type(*$C$DW$T$432)
      37                      .dwattr $C$DW$5, DW_AT_declaration
      38                      .dwattr $C$DW$5, DW_AT_external
      39              $C$DW$6 .dwtag  DW_TAG_variable, DW_AT_name("DevCfgRegs")
      40                      .dwattr $C$DW$6, DW_AT_TI_symbol_name("_DevCfgRegs")
      41                      .dwattr $C$DW$6, DW_AT_type(*$C$DW$T$435)
      42                      .dwattr $C$DW$6, DW_AT_declaration
      43                      .dwattr $C$DW$6, DW_AT_external
      44              $C$DW$7 .dwtag  DW_TAG_variable, DW_AT_name("GpioCtrlRegs")
      45                      .dwattr $C$DW$7, DW_AT_TI_symbol_name("_GpioCtrlRegs")
      46                      .dwattr $C$DW$7, DW_AT_type(*$C$DW$T$443)
      47                      .dwattr $C$DW$7, DW_AT_declaration
      48                      .dwattr $C$DW$7, DW_AT_external
      49              ;       C:\ti\ccsv5\tools\compiler\c2000_6.1.3\bin\ac2000.exe -@C:\\Users\\a0272466\\AppData\\Local\\Temp\\07
      50 00000000               .sect   ".text"
      51              
      52              $C$DW$8 .dwtag  DW_TAG_subprogram, DW_AT_name("I2C_CheckKeyVal")
      53                      .dwattr $C$DW$8, DW_AT_low_pc(_I2C_CheckKeyVal)
      54                      .dwattr $C$DW$8, DW_AT_high_pc(0x00)
      55                      .dwattr $C$DW$8, DW_AT_TI_symbol_name("_I2C_CheckKeyVal")
TMS320C2000 Assembler PC v6.1.3 Tue Oct 01 15:27:14 2013

Tools Copyright (c) 1996-2012 Texas Instruments Incorporated
C:\Users\a0272466\AppData\Local\Temp\0780810                         PAGE    2

      56                      .dwattr $C$DW$8, DW_AT_type(*$C$DW$T$19)
      57                      .dwattr $C$DW$8, DW_AT_TI_begin_file("C:/work/grepos/device_support/device_support/f2837x/F2837x_boot
      58                      .dwattr $C$DW$8, DW_AT_TI_begin_line(0xb8)
      59                      .dwattr $C$DW$8, DW_AT_TI_begin_column(0x0f)
      60                      .dwattr $C$DW$8, DW_AT_TI_max_frame_size(-2)
      61                      .dwpsn  file "C:/work/grepos/device_support/device_support/f2837x/F2837x_bootROM_dev/F2837x_bootROM/c
      62              
      63                      .dwfde $C$DW$CIE, _I2C_CheckKeyVal
      64              
      65              ;***************************************************************
      66              ;* FNAME: _I2C_CheckKeyVal              FR SIZE:   0           *
      67              ;*                                                             *
      68              ;* FUNCTION ENVIRONMENT                                        *
      69              ;*                                                             *
      70              ;* FUNCTION PROPERTIES                                         *
      71              ;*                            0 Parameter,  0 Auto,  0 SOE     *
      72              ;***************************************************************
      73              
      74 00000000       _I2C_CheckKeyVal:
      75                      .dwcfi  cfa_offset, -2
      76                      .dwcfi  save_reg_to_mem, 26, 0
      77                      .dwcfi  save_reg_to_reg, 78, 26
      78                      .dwpsn  file "C:/work/grepos/device_support/device_support/f2837x/F2837x_bootROM_dev/F2837x_bootROM/c
      79 00000000 761F!         MOVW      DP,#_I2caRegs+5       ; [CPU_U] 
         00000001 0000 
      80 00000002 56BF!         MOVB      @_I2caRegs+5,#2,UNC   ; [CPU_] |189| 
         00000003 0205 
      81                      .dwpsn  file "C:/work/grepos/device_support/device_support/f2837x/F2837x_bootROM_dev/F2837x_bootROM/c
      82 00000004 2B08!         MOV       @_I2caRegs+8,#0       ; [CPU_] |190| 
      83                      .dwpsn  file "C:/work/grepos/device_support/device_support/f2837x/F2837x_bootROM_dev/F2837x_bootROM/c
      84 00000005 2B08!         MOV       @_I2caRegs+8,#0       ; [CPU_] |191| 
      85                      .dwpsn  file "C:/work/grepos/device_support/device_support/f2837x/F2837x_bootROM_dev/F2837x_bootROM/c
      86 00000006 2809!         MOV       @_I2caRegs+9,#9760    ; [CPU_] |193| 
         00000007 2620 
      87                      .dwpsn  file "C:/work/grepos/device_support/device_support/f2837x/F2837x_bootROM_dev/F2837x_bootROM/c
      88 00000008       $C$L1:    
      89 00000008       $C$DW$L$_I2C_CheckKeyVal$2$B:
      90                      .dwpsn  file "C:/work/grepos/device_support/device_support/f2837x/F2837x_bootROM_dev/F2837x_bootROM/c
      91 00000008 4202!         TBIT      @_I2caRegs+2,#2       ; [CPU_] |195| 
      92 00000009 EFFF          BF        $C$L1,NTC             ; [CPU_] |195| 
      93                      ; branchcc occurs ; [] |195| 
      94 0000000a       $C$DW$L$_I2C_CheckKeyVal$2$E:
      95                      .dwpsn  file "C:/work/grepos/device_support/device_support/f2837x/F2837x_bootROM_dev/F2837x_bootROM/c
      96 0000000a CC02!         AND       AL,@_I2caRegs+2,#0x0002 ; [CPU_] |200| 
         0000000b 0002 
      97 0000000c FFC0          LSR       AL,1                  ; [CPU_] |200| 
      98 0000000d 5201          CMPB      AL,#1                 ; [CPU_] |200| 
      99 0000000e ED05          BF        $C$L2,NEQ             ; [CPU_] |200| 
     100                      ; branchcc occurs ; [] |200| 
     101                      .dwpsn  file "C:/work/grepos/device_support/device_support/f2837x/F2837x_bootROM_dev/F2837x_bootROM/c
     102 0000000f 1A09!         OR        @_I2caRegs+9,#0x0800  ; [CPU_] |202| 
         00000010 0800 
     103                      .dwpsn  file "C:/work/grepos/device_support/device_support/f2837x/F2837x_bootROM_dev/F2837x_bootROM/c
     104 00000011 9A01          MOVB      AL,#1                 ; [CPU_] |203| 
     105              $C$DW$9 .dwtag  DW_TAG_TI_branch
TMS320C2000 Assembler PC v6.1.3 Tue Oct 01 15:27:14 2013

Tools Copyright (c) 1996-2012 Texas Instruments Incorporated
C:\Users\a0272466\AppData\Local\Temp\0780810                         PAGE    3

     106                      .dwattr $C$DW$9, DW_AT_low_pc(0x00)
     107                      .dwattr $C$DW$9, DW_AT_TI_return
     108 00000012 0006          LRETR     ; [CPU_] 
     109                      ; return occurs ; [] 
     110 00000013       $C$L2:    
     111                      .dwpsn  file "C:/work/grepos/device_support/device_support/f2837x/F2837x_bootROM_dev/F2837x_bootROM/c
     112              $C$DW$10        .dwtag  DW_TAG_TI_branch
     113                      .dwattr $C$DW$10, DW_AT_low_pc(0x00)
     114                      .dwattr $C$DW$10, DW_AT_name("_I2C_GetWord")
     115                      .dwattr $C$DW$10, DW_AT_TI_call
     116 00000013 7640'         LCR       #_I2C_GetWord         ; [CPU_] |207| 
         00000014 008F 
     117                      ; call occurs [#_I2C_GetWord] ; [] |207| 
     118 00000015 1BA9          CMP       AL,#2218              ; [CPU_] |207| 
         00000016 08AA 
     119 00000017 EC03          BF        $C$L3,EQ              ; [CPU_] |207| 
     120                      ; branchcc occurs ; [] |207| 
     121                      .dwpsn  file "C:/work/grepos/device_support/device_support/f2837x/F2837x_bootROM_dev/F2837x_bootROM/c
     122 00000018 9A01          MOVB      AL,#1                 ; [CPU_] |207| 
     123              $C$DW$11        .dwtag  DW_TAG_TI_branch
     124                      .dwattr $C$DW$11, DW_AT_low_pc(0x00)
     125                      .dwattr $C$DW$11, DW_AT_TI_return
     126 00000019 0006          LRETR     ; [CPU_] 
     127                      ; return occurs ; [] 
     128 0000001a       $C$L3:    
     129                      .dwpsn  file "C:/work/grepos/device_support/device_support/f2837x/F2837x_bootROM_dev/F2837x_bootROM/c
     130 0000001a 9A00          MOVB      AL,#0                 ; [CPU_] |209| 
     131                      .dwpsn  file "C:/work/grepos/device_support/device_support/f2837x/F2837x_bootROM_dev/F2837x_bootROM/c
     132              $C$DW$12        .dwtag  DW_TAG_TI_branch
     133                      .dwattr $C$DW$12, DW_AT_low_pc(0x00)
     134                      .dwattr $C$DW$12, DW_AT_TI_return
     135 0000001b 0006          LRETR     ; [CPU_] 
     136                      ; return occurs ; [] 
     137              
     138              $C$DW$13        .dwtag  DW_TAG_TI_loop
     139                      .dwattr $C$DW$13, DW_AT_name("C:\\Users\\a0272466\\AppData\\Local\\Temp\\0780810:$C$L1:1:1380659234")
     140                      .dwattr $C$DW$13, DW_AT_TI_begin_file("C:/work/grepos/device_support/device_support/f2837x/F2837x_boo
     141                      .dwattr $C$DW$13, DW_AT_TI_begin_line(0xc3)
     142                      .dwattr $C$DW$13, DW_AT_TI_end_line(0xc6)
     143              $C$DW$14        .dwtag  DW_TAG_TI_loop_range
     144                      .dwattr $C$DW$14, DW_AT_low_pc($C$DW$L$_I2C_CheckKeyVal$2$B)
     145                      .dwattr $C$DW$14, DW_AT_high_pc($C$DW$L$_I2C_CheckKeyVal$2$E)
     146                      .dwendtag $C$DW$13
     147              
     148                      .dwattr $C$DW$8, DW_AT_TI_end_file("C:/work/grepos/device_support/device_support/f2837x/F2837x_bootRO
     149                      .dwattr $C$DW$8, DW_AT_TI_end_line(0xd2)
     150                      .dwattr $C$DW$8, DW_AT_TI_end_column(0x01)
     151                      .dwendentry
     152                      .dwendtag $C$DW$8
     153              
     154 0000001c               .sect   ".text"
     155              
     156              $C$DW$15        .dwtag  DW_TAG_subprogram, DW_AT_name("I2C_ReservedFn")
     157                      .dwattr $C$DW$15, DW_AT_low_pc(_I2C_ReservedFn)
     158                      .dwattr $C$DW$15, DW_AT_high_pc(0x00)
TMS320C2000 Assembler PC v6.1.3 Tue Oct 01 15:27:14 2013

Tools Copyright (c) 1996-2012 Texas Instruments Incorporated
C:\Users\a0272466\AppData\Local\Temp\0780810                         PAGE    4

     159                      .dwattr $C$DW$15, DW_AT_TI_symbol_name("_I2C_ReservedFn")
     160                      .dwattr $C$DW$15, DW_AT_TI_begin_file("C:/work/grepos/device_support/device_support/f2837x/F2837x_boo
     161                      .dwattr $C$DW$15, DW_AT_TI_begin_line(0xe1)
     162                      .dwattr $C$DW$15, DW_AT_TI_begin_column(0x0d)
     163                      .dwattr $C$DW$15, DW_AT_TI_max_frame_size(-6)
     164                      .dwpsn  file "C:/work/grepos/device_support/device_support/f2837x/F2837x_bootROM_dev/F2837x_bootROM/c
     165              
     166                      .dwfde $C$DW$CIE, _I2C_ReservedFn
     167              
     168              ;***************************************************************
     169              ;* FNAME: _I2C_ReservedFn               FR SIZE:   4           *
     170              ;*                                                             *
     171              ;* FUNCTION ENVIRONMENT                                        *
     172              ;*                                                             *
     173              ;* FUNCTION PROPERTIES                                         *
     174              ;*                            0 Parameter,  4 Auto,  0 SOE     *
     175              ;***************************************************************
     176              
     177 0000001c       _I2C_ReservedFn:
     178                      .dwcfi  cfa_offset, -2
     179                      .dwcfi  save_reg_to_mem, 26, 0
     180                      .dwcfi  save_reg_to_reg, 78, 26
     181 0000001c FE04          ADDB      SP,#4                 ; [CPU_U] 
     182                      .dwcfi  cfa_offset, -6
     183              $C$DW$16        .dwtag  DW_TAG_variable, DW_AT_name("I2CPrescaler")
     184                      .dwattr $C$DW$16, DW_AT_TI_symbol_name("_I2CPrescaler")
     185                      .dwattr $C$DW$16, DW_AT_type(*$C$DW$T$19)
     186                      .dwattr $C$DW$16, DW_AT_location[DW_OP_breg20 -1]
     187              $C$DW$17        .dwtag  DW_TAG_variable, DW_AT_name("I2cClkHData")
     188                      .dwattr $C$DW$17, DW_AT_TI_symbol_name("_I2cClkHData")
     189                      .dwattr $C$DW$17, DW_AT_type(*$C$DW$T$19)
     190                      .dwattr $C$DW$17, DW_AT_location[DW_OP_breg20 -2]
     191              $C$DW$18        .dwtag  DW_TAG_variable, DW_AT_name("I2cClkLData")
     192                      .dwattr $C$DW$18, DW_AT_TI_symbol_name("_I2cClkLData")
     193                      .dwattr $C$DW$18, DW_AT_type(*$C$DW$T$19)
     194                      .dwattr $C$DW$18, DW_AT_location[DW_OP_breg20 -3]
     195              $C$DW$19        .dwtag  DW_TAG_variable, DW_AT_name("i")
     196                      .dwattr $C$DW$19, DW_AT_TI_symbol_name("_i")
     197                      .dwattr $C$DW$19, DW_AT_type(*$C$DW$T$19)
     198                      .dwattr $C$DW$19, DW_AT_location[DW_OP_breg20 -4]
     199                      .dwpsn  file "C:/work/grepos/device_support/device_support/f2837x/F2837x_bootROM_dev/F2837x_bootROM/c
     200              $C$DW$20        .dwtag  DW_TAG_TI_branch
     201                      .dwattr $C$DW$20, DW_AT_low_pc(0x00)
     202                      .dwattr $C$DW$20, DW_AT_name("_I2C_GetWord")
     203                      .dwattr $C$DW$20, DW_AT_TI_call
     204 0000001d 7640'         LCR       #_I2C_GetWord         ; [CPU_] |233| 
         0000001e 008F 
     205                      ; call occurs [#_I2C_GetWord] ; [] |233| 
     206 0000001f 9641          MOV       *-SP[1],AL            ; [CPU_] |233| 
     207                      .dwpsn  file "C:/work/grepos/device_support/device_support/f2837x/F2837x_bootROM_dev/F2837x_bootROM/c
     208              $C$DW$21        .dwtag  DW_TAG_TI_branch
     209                      .dwattr $C$DW$21, DW_AT_low_pc(0x00)
     210                      .dwattr $C$DW$21, DW_AT_name("_I2C_GetWord")
     211                      .dwattr $C$DW$21, DW_AT_TI_call
     212 00000020 7640'         LCR       #_I2C_GetWord         ; [CPU_] |234| 
TMS320C2000 Assembler PC v6.1.3 Tue Oct 01 15:27:14 2013

Tools Copyright (c) 1996-2012 Texas Instruments Incorporated
C:\Users\a0272466\AppData\Local\Temp\0780810                         PAGE    5

         00000021 008F 
     213                      ; call occurs [#_I2C_GetWord] ; [] |234| 
     214 00000022 9642          MOV       *-SP[2],AL            ; [CPU_] |234| 
     215                      .dwpsn  file "C:/work/grepos/device_support/device_support/f2837x/F2837x_bootROM_dev/F2837x_bootROM/c
     216              $C$DW$22        .dwtag  DW_TAG_TI_branch
     217                      .dwattr $C$DW$22, DW_AT_low_pc(0x00)
     218                      .dwattr $C$DW$22, DW_AT_name("_I2C_GetWord")
     219                      .dwattr $C$DW$22, DW_AT_TI_call
     220 00000023 7640'         LCR       #_I2C_GetWord         ; [CPU_] |235| 
         00000024 008F 
     221                      ; call occurs [#_I2C_GetWord] ; [] |235| 
     222 00000025 9643          MOV       *-SP[3],AL            ; [CPU_] |235| 
     223                      .dwpsn  file "C:/work/grepos/device_support/device_support/f2837x/F2837x_bootROM_dev/F2837x_bootROM/c
     224 00000026 761F!         MOVW      DP,#_I2caRegs+9       ; [CPU_U] 
         00000027 0000 
     225 00000028 1809!         AND       @_I2caRegs+9,#0xffdf  ; [CPU_] |238| 
         00000029 FFDF 
     226                      .dwpsn  file "C:/work/grepos/device_support/device_support/f2837x/F2837x_bootROM_dev/F2837x_bootROM/c
     227 0000002a 9603!         MOV       @_I2caRegs+3,AL       ; [CPU_] |239| 
     228                      .dwpsn  file "C:/work/grepos/device_support/device_support/f2837x/F2837x_bootROM_dev/F2837x_bootROM/c
     229 0000002b 9242          MOV       AL,*-SP[2]            ; [CPU_] |240| 
     230 0000002c 9604!         MOV       @_I2caRegs+4,AL       ; [CPU_] |240| 
     231                      .dwpsn  file "C:/work/grepos/device_support/device_support/f2837x/F2837x_bootROM_dev/F2837x_bootROM/c
     232 0000002d 9241          MOV       AL,*-SP[1]            ; [CPU_] |241| 
     233 0000002e 960C!         MOV       @_I2caRegs+12,AL      ; [CPU_] |241| 
     234                      .dwpsn  file "C:/work/grepos/device_support/device_support/f2837x/F2837x_bootROM_dev/F2837x_bootROM/c
     235 0000002f 1A09!         OR        @_I2caRegs+9,#0x0020  ; [CPU_] |242| 
         00000030 0020 
     236                      .dwpsn  file "C:/work/grepos/device_support/device_support/f2837x/F2837x_bootROM_dev/F2837x_bootROM/c
     237 00000031 56BF          MOVB      *-SP[4],#1,UNC        ; [CPU_] |245| 
         00000032 0144 
     238                      .dwpsn  file "C:/work/grepos/device_support/device_support/f2837x/F2837x_bootROM_dev/F2837x_bootROM/c
     239 00000033 9244          MOV       AL,*-SP[4]            ; [CPU_] |245| 
     240 00000034 5205          CMPB      AL,#5                 ; [CPU_] |245| 
     241 00000035 6608          B         $C$L5,HI              ; [CPU_] |245| 
     242                      ; branchcc occurs ; [] |245| 
     243 00000036       $C$L4:    
     244 00000036       $C$DW$L$_I2C_ReservedFn$2$B:
     245                      .dwpsn  file "C:/work/grepos/device_support/device_support/f2837x/F2837x_bootROM_dev/F2837x_bootROM/c
     246              $C$DW$23        .dwtag  DW_TAG_TI_branch
     247                      .dwattr $C$DW$23, DW_AT_low_pc(0x00)
     248                      .dwattr $C$DW$23, DW_AT_name("_I2C_GetWord")
     249                      .dwattr $C$DW$23, DW_AT_TI_call
     250 00000036 7640'         LCR       #_I2C_GetWord         ; [CPU_] |247| 
         00000037 008F 
     251                      ; call occurs [#_I2C_GetWord] ; [] |247| 
     252 00000038 9642          MOV       *-SP[2],AL            ; [CPU_] |247| 
     253                      .dwpsn  file "C:/work/grepos/device_support/device_support/f2837x/F2837x_bootROM_dev/F2837x_bootROM/c
     254 00000039 0A44          INC       *-SP[4]               ; [CPU_] |245| 
     255                      .dwpsn  file "C:/work/grepos/device_support/device_support/f2837x/F2837x_bootROM_dev/F2837x_bootROM/c
     256 0000003a 9244          MOV       AL,*-SP[4]            ; [CPU_] |245| 
     257 0000003b 5205          CMPB      AL,#5                 ; [CPU_] |245| 
     258 0000003c 69FA          B         $C$L4,LOS             ; [CPU_] |245| 
     259                      ; branchcc occurs ; [] |245| 
     260 0000003d       $C$DW$L$_I2C_ReservedFn$2$E:
TMS320C2000 Assembler PC v6.1.3 Tue Oct 01 15:27:14 2013

Tools Copyright (c) 1996-2012 Texas Instruments Incorporated
C:\Users\a0272466\AppData\Local\Temp\0780810                         PAGE    6

     261                      .dwpsn  file "C:/work/grepos/device_support/device_support/f2837x/F2837x_bootROM_dev/F2837x_bootROM/c
     262 0000003d       $C$L5:    
     263                      .dwpsn  file "C:/work/grepos/device_support/device_support/f2837x/F2837x_bootROM_dev/F2837x_bootROM/c
     264 0000003d FE84          SUBB      SP,#4                 ; [CPU_U] 
     265                      .dwcfi  cfa_offset, -2
     266              $C$DW$24        .dwtag  DW_TAG_TI_branch
     267                      .dwattr $C$DW$24, DW_AT_low_pc(0x00)
     268                      .dwattr $C$DW$24, DW_AT_TI_return
     269 0000003e 0006          LRETR     ; [CPU_] 
     270                      ; return occurs ; [] 
     271              
     272              $C$DW$25        .dwtag  DW_TAG_TI_loop
     273                      .dwattr $C$DW$25, DW_AT_name("C:\\Users\\a0272466\\AppData\\Local\\Temp\\0780810:$C$L4:1:1380659234")
     274                      .dwattr $C$DW$25, DW_AT_TI_begin_file("C:/work/grepos/device_support/device_support/f2837x/F2837x_boo
     275                      .dwattr $C$DW$25, DW_AT_TI_begin_line(0xf5)
     276                      .dwattr $C$DW$25, DW_AT_TI_end_line(0xf8)
     277              $C$DW$26        .dwtag  DW_TAG_TI_loop_range
     278                      .dwattr $C$DW$26, DW_AT_low_pc($C$DW$L$_I2C_ReservedFn$2$B)
     279                      .dwattr $C$DW$26, DW_AT_high_pc($C$DW$L$_I2C_ReservedFn$2$E)
     280                      .dwendtag $C$DW$25
     281              
     282                      .dwattr $C$DW$15, DW_AT_TI_end_file("C:/work/grepos/device_support/device_support/f2837x/F2837x_bootR
     283                      .dwattr $C$DW$15, DW_AT_TI_end_line(0xfb)
     284                      .dwattr $C$DW$15, DW_AT_TI_end_column(0x01)
     285                      .dwendentry
     286                      .dwendtag $C$DW$15
     287              
     288 0000003f               .sect   ".text"
     289                      .global _I2C_Boot
     290              
     291              $C$DW$27        .dwtag  DW_TAG_subprogram, DW_AT_name("I2C_Boot")
     292                      .dwattr $C$DW$27, DW_AT_low_pc(_I2C_Boot)
     293                      .dwattr $C$DW$27, DW_AT_high_pc(0x00)
     294                      .dwattr $C$DW$27, DW_AT_TI_symbol_name("_I2C_Boot")
     295                      .dwattr $C$DW$27, DW_AT_external
     296                      .dwattr $C$DW$27, DW_AT_type(*$C$DW$T$21)
     297                      .dwattr $C$DW$27, DW_AT_TI_begin_file("C:/work/grepos/device_support/device_support/f2837x/F2837x_boo
     298                      .dwattr $C$DW$27, DW_AT_TI_begin_line(0x58)
     299                      .dwattr $C$DW$27, DW_AT_TI_begin_column(0x08)
     300                      .dwattr $C$DW$27, DW_AT_TI_max_frame_size(-6)
     301                      .dwpsn  file "C:/work/grepos/device_support/device_support/f2837x/F2837x_bootROM_dev/F2837x_bootROM/c
     302              
     303                      .dwfde $C$DW$CIE, _I2C_Boot
     304              $C$DW$28        .dwtag  DW_TAG_formal_parameter, DW_AT_name("BootMode")
     305                      .dwattr $C$DW$28, DW_AT_TI_symbol_name("_BootMode")
     306                      .dwattr $C$DW$28, DW_AT_type(*$C$DW$T$21)
     307                      .dwattr $C$DW$28, DW_AT_location[DW_OP_reg0]
     308              
     309              ;***************************************************************
     310              ;* FNAME: _I2C_Boot                     FR SIZE:   4           *
     311              ;*                                                             *
     312              ;* FUNCTION ENVIRONMENT                                        *
     313              ;*                                                             *
     314              ;* FUNCTION PROPERTIES                                         *
     315              ;*                            0 Parameter,  4 Auto,  0 SOE     *
TMS320C2000 Assembler PC v6.1.3 Tue Oct 01 15:27:14 2013

Tools Copyright (c) 1996-2012 Texas Instruments Incorporated
C:\Users\a0272466\AppData\Local\Temp\0780810                         PAGE    7

     316              ;***************************************************************
     317              
     318 0000003f       _I2C_Boot:
     319                      .dwcfi  cfa_offset, -2
     320                      .dwcfi  save_reg_to_mem, 26, 0
     321                      .dwcfi  save_reg_to_reg, 78, 26
     322 0000003f FE04          ADDB      SP,#4                 ; [CPU_U] 
     323                      .dwcfi  cfa_offset, -6
     324              $C$DW$29        .dwtag  DW_TAG_variable, DW_AT_name("BootMode")
     325                      .dwattr $C$DW$29, DW_AT_TI_symbol_name("_BootMode")
     326                      .dwattr $C$DW$29, DW_AT_type(*$C$DW$T$21)
     327                      .dwattr $C$DW$29, DW_AT_location[DW_OP_breg20 -2]
     328              $C$DW$30        .dwtag  DW_TAG_variable, DW_AT_name("EntryAddr")
     329                      .dwattr $C$DW$30, DW_AT_TI_symbol_name("_EntryAddr")
     330                      .dwattr $C$DW$30, DW_AT_type(*$C$DW$T$21)
     331                      .dwattr $C$DW$30, DW_AT_location[DW_OP_breg20 -4]
     332 00000040 1E42          MOVL      *-SP[2],ACC           ; [CPU_] |89| 
     333                      .dwpsn  file "C:/work/grepos/device_support/device_support/f2837x/F2837x_bootROM_dev/F2837x_bootROM/c
     334 00000041 761F!         MOVW      DP,#_DevCfgRegs+36    ; [CPU_U] 
         00000042 0000 
     335 00000043 9224!         MOV       AL,@_DevCfgRegs+36    ; [CPU_] |93| 
     336 00000044 9001          ANDB      AL,#0x01              ; [CPU_] |93| 
     337 00000045 5201          CMPB      AL,#1                 ; [CPU_] |93| 
     338 00000046 EC04          BF        $C$L6,EQ              ; [CPU_] |93| 
     339                      ; branchcc occurs ; [] |93| 
     340                      .dwpsn  file "C:/work/grepos/device_support/device_support/f2837x/F2837x_bootROM_dev/F2837x_bootROM/c
     341 00000047 0200          MOVB      ACC,#0                ; [CPU_] |95| 
     342 00000048 1901          SUBB      ACC,#1                ; [CPU_] |95| 
     343 00000049 6F44          B         $C$L12,UNC            ; [CPU_] |95| 
     344                      ; branch occurs ; [] |95| 
     345 0000004a       $C$L6:    
     346                      .dwpsn  file "C:/work/grepos/device_support/device_support/f2837x/F2837x_bootROM_dev/F2837x_bootROM/c
     347 0000004a 8F00'         MOVL      XAR4,#_I2C_GetWord    ; [CPU_U] |101| 
         0000004b 008F 
     348 0000004c 761F!         MOVW      DP,#_GetWordData      ; [CPU_U] 
         0000004d 0000 
     349 0000004e A800!         MOVL      @_GetWordData,XAR4    ; [CPU_] |101| 
     350                      .dwpsn  file "C:/work/grepos/device_support/device_support/f2837x/F2837x_bootROM_dev/F2837x_bootROM/c
     351 0000004f 7622   EALLOW
     352                      .dwpsn  file "C:/work/grepos/device_support/device_support/f2837x/F2837x_bootROM_dev/F2837x_bootROM/c
     353 00000050 761F!         MOVW      DP,#_CpuSysRegs+52    ; [CPU_U] 
         00000051 0000 
     354 00000052 1A34!         OR        @_CpuSysRegs+52,#0x0001 ; [CPU_] |111| 
         00000053 0001 
     355                      .dwpsn  file "C:/work/grepos/device_support/device_support/f2837x/F2837x_bootROM_dev/F2837x_bootROM/c
     356 00000054 761A   EDIS
     357                      .dwpsn  file "C:/work/grepos/device_support/device_support/f2837x/F2837x_bootROM_dev/F2837x_bootROM/c
     358 00000055 761F!         MOVW      DP,#_I2caRegs+7       ; [CPU_U] 
         00000056 0000 
     359 00000057 56BF!         MOVB      @_I2caRegs+7,#80,UNC  ; [CPU_] |115| 
         00000058 5007 
     360                      .dwpsn  file "C:/work/grepos/device_support/device_support/f2837x/F2837x_bootROM_dev/F2837x_bootROM/c
     361 00000059 2B0C!         MOV       @_I2caRegs+12,#0      ; [CPU_] |116| 
     362                      .dwpsn  file "C:/work/grepos/device_support/device_support/f2837x/F2837x_bootROM_dev/F2837x_bootROM/c
     363 0000005a 56BF!         MOVB      @_I2caRegs+3,#43,UNC  ; [CPU_] |117| 
TMS320C2000 Assembler PC v6.1.3 Tue Oct 01 15:27:14 2013

Tools Copyright (c) 1996-2012 Texas Instruments Incorporated
C:\Users\a0272466\AppData\Local\Temp\0780810                         PAGE    8

         0000005b 2B03 
     364                      .dwpsn  file "C:/work/grepos/device_support/device_support/f2837x/F2837x_bootROM_dev/F2837x_bootROM/c
     365 0000005c 56BF!         MOVB      @_I2caRegs+4,#43,UNC  ; [CPU_] |118| 
         0000005d 2B04 
     366                      .dwpsn  file "C:/work/grepos/device_support/device_support/f2837x/F2837x_bootROM_dev/F2837x_bootROM/c
     367 0000005e 2809!         MOV       @_I2caRegs+9,#1568    ; [CPU_] |120| 
         0000005f 0620 
     368                      .dwpsn  file "C:/work/grepos/device_support/device_support/f2837x/F2837x_bootROM_dev/F2837x_bootROM/c
     369 00000060 2820!         MOV       @_I2caRegs+32,#24576  ; [CPU_] |124| 
         00000061 6000 
     370                      .dwpsn  file "C:/work/grepos/device_support/device_support/f2837x/F2837x_bootROM_dev/F2837x_bootROM/c
     371 00000062 2821!         MOV       @_I2caRegs+33,#8192   ; [CPU_] |125| 
         00000063 2000 
     372                      .dwpsn  file "C:/work/grepos/device_support/device_support/f2837x/F2837x_bootROM_dev/F2837x_bootROM/c
     373 00000064 8F07          MOVL      XAR4,#459748          ; [CPU_U] |128| 
         00000065 03E4 
     374 00000066 06C4          MOVL      ACC,*+XAR4[0]         ; [CPU_] |128| 
     375 00000067 1E44          MOVL      *-SP[4],ACC           ; [CPU_] |128| 
     376                      .dwpsn  file "C:/work/grepos/device_support/device_support/f2837x/F2837x_bootROM_dev/F2837x_bootROM/c
     377 00000068 0200          MOVB      ACC,#0                ; [CPU_] |129| 
     378 00000069 1901          SUBB      ACC,#1                ; [CPU_] |129| 
     379 0000006a 0F44          CMPL      ACC,*-SP[4]           ; [CPU_] |129| 
     380 0000006b EC03          BF        $C$L7,EQ              ; [CPU_] |129| 
     381                      ; branchcc occurs ; [] |129| 
     382 0000006c 0644          MOVL      ACC,*-SP[4]           ; [CPU_] |129| 
     383 0000006d ED0C          BF        $C$L9,NEQ             ; [CPU_] |129| 
     384                      ; branchcc occurs ; [] |129| 
     385 0000006e       $C$L7:    
     386                      .dwpsn  file "C:/work/grepos/device_support/device_support/f2837x/F2837x_bootROM_dev/F2837x_bootROM/c
     387 0000006e 0642          MOVL      ACC,*-SP[2]           ; [CPU_] |133| 
     388 0000006f 9B00          MOVB      AH,#0                 ; [CPU_] |133| 
     389 00000070 90F0          ANDB      AL,#0xf0              ; [CPU_] |133| 
     390 00000071 FF58          TEST      ACC                   ; [CPU_] |133| 
     391 00000072 ED04          BF        $C$L8,NEQ             ; [CPU_] |133| 
     392                      ; branchcc occurs ; [] |133| 
     393                      .dwpsn  file "C:/work/grepos/device_support/device_support/f2837x/F2837x_bootROM_dev/F2837x_bootROM/c
     394              $C$DW$31        .dwtag  DW_TAG_TI_branch
     395                      .dwattr $C$DW$31, DW_AT_low_pc(0x00)
     396                      .dwattr $C$DW$31, DW_AT_name("_I2C_Pinmux_Option1")
     397                      .dwattr $C$DW$31, DW_AT_TI_call
     398 00000073 7640'         LCR       #_I2C_Pinmux_Option1  ; [CPU_] |139| 
         00000074 00A2 
     399                      ; call occurs [#_I2C_Pinmux_Option1] ; [] |139| 
     400                      .dwpsn  file "C:/work/grepos/device_support/device_support/f2837x/F2837x_bootROM_dev/F2837x_bootROM/c
     401 00000075 6F06          B         $C$L10,UNC            ; [CPU_] |140| 
     402                      ; branch occurs ; [] |140| 
     403 00000076       $C$L8:    
     404                      .dwpsn  file "C:/work/grepos/device_support/device_support/f2837x/F2837x_bootROM_dev/F2837x_bootROM/c
     405              $C$DW$32        .dwtag  DW_TAG_TI_branch
     406                      .dwattr $C$DW$32, DW_AT_low_pc(0x00)
     407                      .dwattr $C$DW$32, DW_AT_name("_I2C_Pinmux_Option2")
     408                      .dwattr $C$DW$32, DW_AT_TI_call
     409 00000076 7640'         LCR       #_I2C_Pinmux_Option2  ; [CPU_] |147| 
         00000077 00B0 
     410                      ; call occurs [#_I2C_Pinmux_Option2] ; [] |147| 
TMS320C2000 Assembler PC v6.1.3 Tue Oct 01 15:27:14 2013

Tools Copyright (c) 1996-2012 Texas Instruments Incorporated
C:\Users\a0272466\AppData\Local\Temp\0780810                         PAGE    9

     411                      .dwpsn  file "C:/work/grepos/device_support/device_support/f2837x/F2837x_bootROM_dev/F2837x_bootROM/c
     412 00000078 6F03          B         $C$L10,UNC            ; [CPU_] |149| 
     413                      ; branch occurs ; [] |149| 
     414 00000079       $C$L9:    
     415                      .dwpsn  file "C:/work/grepos/device_support/device_support/f2837x/F2837x_bootROM_dev/F2837x_bootROM/c
     416 00000079 C544          MOVL      XAR7,*-SP[4]          ; [CPU_] |153| 
     417              $C$DW$33        .dwtag  DW_TAG_TI_branch
     418                      .dwattr $C$DW$33, DW_AT_low_pc(0x00)
     419                      .dwattr $C$DW$33, DW_AT_TI_call
     420                      .dwattr $C$DW$33, DW_AT_TI_indirect
     421 0000007a 3E67          LCR       *XAR7                 ; [CPU_] |153| 
     422                      ; call occurs [XAR7] ; [] |153| 
     423 0000007b       $C$L10:    
     424                      .dwpsn  file "C:/work/grepos/device_support/device_support/f2837x/F2837x_bootROM_dev/F2837x_bootROM/c
     425              $C$DW$34        .dwtag  DW_TAG_TI_branch
     426                      .dwattr $C$DW$34, DW_AT_low_pc(0x00)
     427                      .dwattr $C$DW$34, DW_AT_name("_I2C_CheckKeyVal")
     428                      .dwattr $C$DW$34, DW_AT_TI_call
     429 0000007b 7640'         LCR       #_I2C_CheckKeyVal     ; [CPU_] |158| 
         0000007c 0000 
     430                      ; call occurs [#_I2C_CheckKeyVal] ; [] |158| 
     431 0000007d 5201          CMPB      AL,#1                 ; [CPU_] |158| 
     432 0000007e ED05          BF        $C$L11,NEQ            ; [CPU_] |158| 
     433                      ; branchcc occurs ; [] |158| 
     434                      .dwpsn  file "C:/work/grepos/device_support/device_support/f2837x/F2837x_bootROM_dev/F2837x_bootROM/c
     435 0000007f 8F08          MOVL      XAR4,#524288          ; [CPU_U] |158| 
         00000080 0000 
     436 00000081 A8A9          MOVL      ACC,XAR4              ; [CPU_] |158| 
     437 00000082 6F0B          B         $C$L12,UNC            ; [CPU_] |158| 
     438                      ; branch occurs ; [] |158| 
     439 00000083       $C$L11:    
     440                      .dwpsn  file "C:/work/grepos/device_support/device_support/f2837x/F2837x_bootROM_dev/F2837x_bootROM/c
     441              $C$DW$35        .dwtag  DW_TAG_TI_branch
     442                      .dwattr $C$DW$35, DW_AT_low_pc(0x00)
     443                      .dwattr $C$DW$35, DW_AT_name("_I2C_ReservedFn")
     444                      .dwattr $C$DW$35, DW_AT_TI_call
     445 00000083 7640'         LCR       #_I2C_ReservedFn      ; [CPU_] |161| 
         00000084 001C 
     446                      ; call occurs [#_I2C_ReservedFn] ; [] |161| 
     447                      .dwpsn  file "C:/work/grepos/device_support/device_support/f2837x/F2837x_bootROM_dev/F2837x_bootROM/c
     448 00000085 761A   EDIS
     449                      .dwpsn  file "C:/work/grepos/device_support/device_support/f2837x/F2837x_bootROM_dev/F2837x_bootROM/c
     450 00000086 FF69          SPM       #0                    ; [CPU_] 
     451              $C$DW$36        .dwtag  DW_TAG_TI_branch
     452                      .dwattr $C$DW$36, DW_AT_low_pc(0x00)
     453                      .dwattr $C$DW$36, DW_AT_name("_GetLongData")
     454                      .dwattr $C$DW$36, DW_AT_TI_call
     455 00000087 7640!         LCR       #_GetLongData         ; [CPU_] |164| 
         00000088 0000 
     456                      ; call occurs [#_GetLongData] ; [] |164| 
     457 00000089 1E44          MOVL      *-SP[4],ACC           ; [CPU_] |164| 
     458                      .dwpsn  file "C:/work/grepos/device_support/device_support/f2837x/F2837x_bootROM_dev/F2837x_bootROM/c
     459              $C$DW$37        .dwtag  DW_TAG_TI_branch
     460                      .dwattr $C$DW$37, DW_AT_low_pc(0x00)
     461                      .dwattr $C$DW$37, DW_AT_name("_CopyData")
TMS320C2000 Assembler PC v6.1.3 Tue Oct 01 15:27:14 2013

Tools Copyright (c) 1996-2012 Texas Instruments Incorporated
C:\Users\a0272466\AppData\Local\Temp\0780810                         PAGE   10

     462                      .dwattr $C$DW$37, DW_AT_TI_call
     463 0000008a 7640!         LCR       #_CopyData            ; [CPU_] |167| 
         0000008b 0000 
     464                      ; call occurs [#_CopyData] ; [] |167| 
     465                      .dwpsn  file "C:/work/grepos/device_support/device_support/f2837x/F2837x_bootROM_dev/F2837x_bootROM/c
     466 0000008c 0644          MOVL      ACC,*-SP[4]           ; [CPU_] |169| 
     467 0000008d       $C$L12:    
     468                      .dwpsn  file "C:/work/grepos/device_support/device_support/f2837x/F2837x_bootROM_dev/F2837x_bootROM/c
     469 0000008d FE84          SUBB      SP,#4                 ; [CPU_U] 
     470                      .dwcfi  cfa_offset, -2
     471              $C$DW$38        .dwtag  DW_TAG_TI_branch
     472                      .dwattr $C$DW$38, DW_AT_low_pc(0x00)
     473                      .dwattr $C$DW$38, DW_AT_TI_return
     474 0000008e 0006          LRETR     ; [CPU_] 
     475                      ; return occurs ; [] 
     476                      .dwattr $C$DW$27, DW_AT_TI_end_file("C:/work/grepos/device_support/device_support/f2837x/F2837x_bootR
     477                      .dwattr $C$DW$27, DW_AT_TI_end_line(0xaa)
     478                      .dwattr $C$DW$27, DW_AT_TI_end_column(0x01)
     479                      .dwendentry
     480                      .dwendtag $C$DW$27
     481              
     482 0000008f               .sect   ".text"
     483                      .global _I2C_GetWord
     484              
     485              $C$DW$39        .dwtag  DW_TAG_subprogram, DW_AT_name("I2C_GetWord")
     486                      .dwattr $C$DW$39, DW_AT_low_pc(_I2C_GetWord)
     487                      .dwattr $C$DW$39, DW_AT_high_pc(0x00)
     488                      .dwattr $C$DW$39, DW_AT_TI_symbol_name("_I2C_GetWord")
     489                      .dwattr $C$DW$39, DW_AT_external
     490                      .dwattr $C$DW$39, DW_AT_type(*$C$DW$T$19)
     491                      .dwattr $C$DW$39, DW_AT_TI_begin_file("C:/work/grepos/device_support/device_support/f2837x/F2837x_boo
     492                      .dwattr $C$DW$39, DW_AT_TI_begin_line(0x106)
     493                      .dwattr $C$DW$39, DW_AT_TI_begin_column(0x08)
     494                      .dwattr $C$DW$39, DW_AT_TI_max_frame_size(-4)
     495                      .dwpsn  file "C:/work/grepos/device_support/device_support/f2837x/F2837x_bootROM_dev/F2837x_bootROM/c
     496              
     497                      .dwfde $C$DW$CIE, _I2C_GetWord
     498              
     499              ;***************************************************************
     500              ;* FNAME: _I2C_GetWord                  FR SIZE:   2           *
     501              ;*                                                             *
     502              ;* FUNCTION ENVIRONMENT                                        *
     503              ;*                                                             *
     504              ;* FUNCTION PROPERTIES                                         *
     505              ;*                            0 Parameter,  1 Auto,  0 SOE     *
     506              ;***************************************************************
     507              
     508 0000008f       _I2C_GetWord:
     509                      .dwcfi  cfa_offset, -2
     510                      .dwcfi  save_reg_to_mem, 26, 0
     511                      .dwcfi  save_reg_to_reg, 78, 26
     512 0000008f FE02          ADDB      SP,#2                 ; [CPU_U] 
     513                      .dwcfi  cfa_offset, -4
     514              $C$DW$40        .dwtag  DW_TAG_variable, DW_AT_name("LowByte")
     515                      .dwattr $C$DW$40, DW_AT_TI_symbol_name("_LowByte")
TMS320C2000 Assembler PC v6.1.3 Tue Oct 01 15:27:14 2013

Tools Copyright (c) 1996-2012 Texas Instruments Incorporated
C:\Users\a0272466\AppData\Local\Temp\0780810                         PAGE   11

     516                      .dwattr $C$DW$40, DW_AT_type(*$C$DW$T$19)
     517                      .dwattr $C$DW$40, DW_AT_location[DW_OP_breg20 -1]
     518                      .dwpsn  file "C:/work/grepos/device_support/device_support/f2837x/F2837x_bootROM_dev/F2837x_bootROM/c
     519 00000090 761F!         MOVW      DP,#_I2caRegs+5       ; [CPU_U] 
         00000091 0000 
     520 00000092 56BF!         MOVB      @_I2caRegs+5,#2,UNC   ; [CPU_] |266| 
         00000093 0205 
     521                      .dwpsn  file "C:/work/grepos/device_support/device_support/f2837x/F2837x_bootROM_dev/F2837x_bootROM/c
     522 00000094 2809!         MOV       @_I2caRegs+9,#11296   ; [CPU_] |267| 
         00000095 2C20 
     523                      .dwpsn  file "C:/work/grepos/device_support/device_support/f2837x/F2837x_bootROM_dev/F2837x_bootROM/c
     524 00000096       $C$L13:    
     525 00000096       $C$DW$L$_I2C_GetWord$2$B:
     526                      .dwpsn  file "C:/work/grepos/device_support/device_support/f2837x/F2837x_bootROM_dev/F2837x_bootROM/c
     527 00000096 CC09!         AND       AL,@_I2caRegs+9,#0x0800 ; [CPU_] |270| 
         00000097 0800 
     528 00000098 FFCA          LSR       AL,11                 ; [CPU_] |270| 
     529 00000099 5201          CMPB      AL,#1                 ; [CPU_] |270| 
     530 0000009a ECFC          BF        $C$L13,EQ             ; [CPU_] |270| 
     531                      ; branchcc occurs ; [] |270| 
     532 0000009b       $C$DW$L$_I2C_GetWord$2$E:
     533                      .dwpsn  file "C:/work/grepos/device_support/device_support/f2837x/F2837x_bootROM_dev/F2837x_bootROM/c
     534 0000009b 9206!         MOV       AL,@_I2caRegs+6       ; [CPU_] |273| 
     535 0000009c 9641          MOV       *-SP[1],AL            ; [CPU_] |273| 
     536                      .dwpsn  file "C:/work/grepos/device_support/device_support/f2837x/F2837x_bootROM_dev/F2837x_bootROM/c
     537 0000009d 5603!         MOV       ACC,@_I2caRegs+6 << #8 ; [CPU_] |274| 
         0000009e 0806 
     538 0000009f CA41          OR        AL,*-SP[1]            ; [CPU_] |274| 
     539                      .dwpsn  file "C:/work/grepos/device_support/device_support/f2837x/F2837x_bootROM_dev/F2837x_bootROM/c
     540 000000a0 FE82          SUBB      SP,#2                 ; [CPU_U] 
     541                      .dwcfi  cfa_offset, -2
     542              $C$DW$41        .dwtag  DW_TAG_TI_branch
     543                      .dwattr $C$DW$41, DW_AT_low_pc(0x00)
     544                      .dwattr $C$DW$41, DW_AT_TI_return
     545 000000a1 0006          LRETR     ; [CPU_] 
     546                      ; return occurs ; [] 
     547              
     548              $C$DW$42        .dwtag  DW_TAG_TI_loop
     549                      .dwattr $C$DW$42, DW_AT_name("C:\\Users\\a0272466\\AppData\\Local\\Temp\\0780810:$C$L13:1:1380659234"
     550                      .dwattr $C$DW$42, DW_AT_TI_begin_file("C:/work/grepos/device_support/device_support/f2837x/F2837x_boo
     551                      .dwattr $C$DW$42, DW_AT_TI_begin_line(0x10e)
     552                      .dwattr $C$DW$42, DW_AT_TI_end_line(0x10e)
     553              $C$DW$43        .dwtag  DW_TAG_TI_loop_range
     554                      .dwattr $C$DW$43, DW_AT_low_pc($C$DW$L$_I2C_GetWord$2$B)
     555                      .dwattr $C$DW$43, DW_AT_high_pc($C$DW$L$_I2C_GetWord$2$E)
     556                      .dwendtag $C$DW$42
     557              
     558                      .dwattr $C$DW$39, DW_AT_TI_end_file("C:/work/grepos/device_support/device_support/f2837x/F2837x_bootR
     559                      .dwattr $C$DW$39, DW_AT_TI_end_line(0x113)
     560                      .dwattr $C$DW$39, DW_AT_TI_end_column(0x01)
     561                      .dwendentry
     562                      .dwendtag $C$DW$39
     563              
     564 000000a2               .sect   ".text"
     565                      .global _I2C_Pinmux_Option1
TMS320C2000 Assembler PC v6.1.3 Tue Oct 01 15:27:14 2013

Tools Copyright (c) 1996-2012 Texas Instruments Incorporated
C:\Users\a0272466\AppData\Local\Temp\0780810                         PAGE   12

     566              
     567              $C$DW$44        .dwtag  DW_TAG_subprogram, DW_AT_name("I2C_Pinmux_Option1")
     568                      .dwattr $C$DW$44, DW_AT_low_pc(_I2C_Pinmux_Option1)
     569                      .dwattr $C$DW$44, DW_AT_high_pc(0x00)
     570                      .dwattr $C$DW$44, DW_AT_TI_symbol_name("_I2C_Pinmux_Option1")
     571                      .dwattr $C$DW$44, DW_AT_external
     572                      .dwattr $C$DW$44, DW_AT_TI_begin_file("C:/work/grepos/device_support/device_support/f2837x/F2837x_boo
     573                      .dwattr $C$DW$44, DW_AT_TI_begin_line(0x120)
     574                      .dwattr $C$DW$44, DW_AT_TI_begin_column(0x06)
     575                      .dwattr $C$DW$44, DW_AT_TI_max_frame_size(-2)
     576                      .dwpsn  file "C:/work/grepos/device_support/device_support/f2837x/F2837x_bootROM_dev/F2837x_bootROM/c
     577              
     578                      .dwfde $C$DW$CIE, _I2C_Pinmux_Option1
     579              
     580              ;***************************************************************
     581              ;* FNAME: _I2C_Pinmux_Option1           FR SIZE:   0           *
     582              ;*                                                             *
     583              ;* FUNCTION ENVIRONMENT                                        *
     584              ;*                                                             *
     585              ;* FUNCTION PROPERTIES                                         *
     586              ;*                            0 Parameter,  0 Auto,  0 SOE     *
     587              ;***************************************************************
     588              
     589 000000a2       _I2C_Pinmux_Option1:
     590                      .dwcfi  cfa_offset, -2
     591                      .dwcfi  save_reg_to_mem, 26, 0
     592                      .dwcfi  save_reg_to_reg, 78, 26
     593                      .dwpsn  file "C:/work/grepos/device_support/device_support/f2837x/F2837x_bootROM_dev/F2837x_bootROM/c
     594 000000a2 7622   EALLOW
     595                      .dwpsn  file "C:/work/grepos/device_support/device_support/f2837x/F2837x_bootROM_dev/F2837x_bootROM/c
     596 000000a3 761F!         MOVW      DP,#_GpioCtrlRegs+141 ; [CPU_U] 
         000000a4 0002 
     597 000000a5 180D!         AND       @_GpioCtrlRegs+141,#59391 ; [CPU_] |291| 
         000000a6 E7FF 
     598                      .dwpsn  file "C:/work/grepos/device_support/device_support/f2837x/F2837x_bootROM_dev/F2837x_bootROM/c
     599 000000a7 1A23!         OR        @_GpioCtrlRegs+163,#320 ; [CPU_] |293| 
         000000a8 0140 
     600                      .dwpsn  file "C:/work/grepos/device_support/device_support/f2837x/F2837x_bootROM_dev/F2837x_bootROM/c
     601 000000a9 1A09!         OR        @_GpioCtrlRegs+137,#640 ; [CPU_] |294| 
         000000aa 0280 
     602                      .dwpsn  file "C:/work/grepos/device_support/device_support/f2837x/F2837x_bootROM_dev/F2837x_bootROM/c
     603 000000ab 1A05!         OR        @_GpioCtrlRegs+133,#960 ; [CPU_] |296| 
         000000ac 03C0 
     604                      .dwpsn  file "C:/work/grepos/device_support/device_support/f2837x/F2837x_bootROM_dev/F2837x_bootROM/c
     605 000000ad 761A   EDIS
     606                      .dwpsn  file "C:/work/grepos/device_support/device_support/f2837x/F2837x_bootROM_dev/F2837x_bootROM/c
     607 000000ae FF69          SPM       #0                    ; [CPU_] 
     608              $C$DW$45        .dwtag  DW_TAG_TI_branch
     609                      .dwattr $C$DW$45, DW_AT_low_pc(0x00)
     610                      .dwattr $C$DW$45, DW_AT_TI_return
     611 000000af 0006          LRETR     ; [CPU_] 
     612                      ; return occurs ; [] 
     613                      .dwattr $C$DW$44, DW_AT_TI_end_file("C:/work/grepos/device_support/device_support/f2837x/F2837x_bootR
     614                      .dwattr $C$DW$44, DW_AT_TI_end_line(0x12a)
     615                      .dwattr $C$DW$44, DW_AT_TI_end_column(0x01)
TMS320C2000 Assembler PC v6.1.3 Tue Oct 01 15:27:14 2013

Tools Copyright (c) 1996-2012 Texas Instruments Incorporated
C:\Users\a0272466\AppData\Local\Temp\0780810                         PAGE   13

     616                      .dwendentry
     617                      .dwendtag $C$DW$44
     618              
     619 000000b0               .sect   ".text"
     620                      .global _I2C_Pinmux_Option2
     621              
     622              $C$DW$46        .dwtag  DW_TAG_subprogram, DW_AT_name("I2C_Pinmux_Option2")
     623                      .dwattr $C$DW$46, DW_AT_low_pc(_I2C_Pinmux_Option2)
     624                      .dwattr $C$DW$46, DW_AT_high_pc(0x00)
     625                      .dwattr $C$DW$46, DW_AT_TI_symbol_name("_I2C_Pinmux_Option2")
     626                      .dwattr $C$DW$46, DW_AT_external
     627                      .dwattr $C$DW$46, DW_AT_TI_begin_file("C:/work/grepos/device_support/device_support/f2837x/F2837x_boo
     628                      .dwattr $C$DW$46, DW_AT_TI_begin_line(0x136)
     629                      .dwattr $C$DW$46, DW_AT_TI_begin_column(0x06)
     630                      .dwattr $C$DW$46, DW_AT_TI_max_frame_size(-2)
     631                      .dwpsn  file "C:/work/grepos/device_support/device_support/f2837x/F2837x_bootROM_dev/F2837x_bootROM/c
     632              
     633                      .dwfde $C$DW$CIE, _I2C_Pinmux_Option2
     634              
     635              ;***************************************************************
     636              ;* FNAME: _I2C_Pinmux_Option2           FR SIZE:   0           *
     637              ;*                                                             *
     638              ;* FUNCTION ENVIRONMENT                                        *
     639              ;*                                                             *
     640              ;* FUNCTION PROPERTIES                                         *
     641              ;*                            0 Parameter,  0 Auto,  0 SOE     *
     642              ;***************************************************************
     643              
     644 000000b0       _I2C_Pinmux_Option2:
     645                      .dwcfi  cfa_offset, -2
     646                      .dwcfi  save_reg_to_mem, 26, 0
     647                      .dwcfi  save_reg_to_reg, 78, 26
     648                      .dwpsn  file "C:/work/grepos/device_support/device_support/f2837x/F2837x_bootROM_dev/F2837x_bootROM/c
     649 000000b0 7622   EALLOW
     650                      .dwpsn  file "C:/work/grepos/device_support/device_support/f2837x/F2837x_bootROM_dev/F2837x_bootROM/c
     651 000000b1 761F!         MOVW      DP,#_GpioCtrlRegs+76  ; [CPU_U] 
         000000b2 0001 
     652 000000b3 180C!         AND       @_GpioCtrlRegs+76,#65532 ; [CPU_] |313| 
         000000b4 FFFC 
     653                      .dwpsn  file "C:/work/grepos/device_support/device_support/f2837x/F2837x_bootROM_dev/F2837x_bootROM/c
     654 000000b5 1A06!         OR        @_GpioCtrlRegs+70,#5  ; [CPU_] |315| 
         000000b6 0005 
     655                      .dwpsn  file "C:/work/grepos/device_support/device_support/f2837x/F2837x_bootROM_dev/F2837x_bootROM/c
     656 000000b7 1A02!         OR        @_GpioCtrlRegs+66,#15 ; [CPU_] |317| 
         000000b8 000F 
     657                      .dwpsn  file "C:/work/grepos/device_support/device_support/f2837x/F2837x_bootROM_dev/F2837x_bootROM/c
     658 000000b9 761A   EDIS
     659                      .dwpsn  file "C:/work/grepos/device_support/device_support/f2837x/F2837x_bootROM_dev/F2837x_bootROM/c
     660 000000ba FF69          SPM       #0                    ; [CPU_] 
     661              $C$DW$47        .dwtag  DW_TAG_TI_branch
     662                      .dwattr $C$DW$47, DW_AT_low_pc(0x00)
     663                      .dwattr $C$DW$47, DW_AT_TI_return
     664 000000bb 0006          LRETR     ; [CPU_] 
     665                      ; return occurs ; [] 
     666                      .dwattr $C$DW$46, DW_AT_TI_end_file("C:/work/grepos/device_support/device_support/f2837x/F2837x_bootR
TMS320C2000 Assembler PC v6.1.3 Tue Oct 01 15:27:14 2013

Tools Copyright (c) 1996-2012 Texas Instruments Incorporated
C:\Users\a0272466\AppData\Local\Temp\0780810                         PAGE   14

     667                      .dwattr $C$DW$46, DW_AT_TI_end_line(0x14b)
     668                      .dwattr $C$DW$46, DW_AT_TI_end_column(0x01)
     669                      .dwendentry
     670                      .dwendtag $C$DW$46
     671              
     672              ;**************************************************************
     673              ;* UNDEFINED EXTERNAL REFERENCES                              *
     674              ;**************************************************************
     675                      .global _CopyData
     676                      .global _GetWordData
     677                      .global _GetLongData
     678                      .global _I2caRegs
     679                      .global _CpuSysRegs
     680                      .global _DevCfgRegs
     681                      .global _GpioCtrlRegs
     682              
     683              ;***************************************************************
     684              ;* TYPE INFORMATION                                            *
     685              ;***************************************************************
     686              
     687              $C$DW$T$20      .dwtag  DW_TAG_structure_type
     688                      .dwattr $C$DW$T$20, DW_AT_name("CCR_BITS")
     689                      .dwattr $C$DW$T$20, DW_AT_byte_size(0x02)
     690              $C$DW$48        .dwtag  DW_TAG_member
     691                      .dwattr $C$DW$48, DW_AT_type(*$C$DW$T$19)
     692                      .dwattr $C$DW$48, DW_AT_name("VMAPS")
     693                      .dwattr $C$DW$48, DW_AT_TI_symbol_name("_VMAPS")
     694                      .dwattr $C$DW$48, DW_AT_bit_offset(0x0f), DW_AT_bit_size(0x01)
     695                      .dwattr $C$DW$48, DW_AT_data_member_location[DW_OP_plus_uconst 0x0]
     696                      .dwattr $C$DW$48, DW_AT_accessibility(DW_ACCESS_public)
     697              $C$DW$49        .dwtag  DW_TAG_member
     698                      .dwattr $C$DW$49, DW_AT_type(*$C$DW$T$19)
     699                      .dwattr $C$DW$49, DW_AT_name("MONPRIV")
     700                      .dwattr $C$DW$49, DW_AT_TI_symbol_name("_MONPRIV")
     701                      .dwattr $C$DW$49, DW_AT_bit_offset(0x0e), DW_AT_bit_size(0x01)
     702                      .dwattr $C$DW$49, DW_AT_data_member_location[DW_OP_plus_uconst 0x0]
     703                      .dwattr $C$DW$49, DW_AT_accessibility(DW_ACCESS_public)
     704              $C$DW$50        .dwtag  DW_TAG_member
     705                      .dwattr $C$DW$50, DW_AT_type(*$C$DW$T$19)
     706                      .dwattr $C$DW$50, DW_AT_name("ENPROT")
     707                      .dwattr $C$DW$50, DW_AT_TI_symbol_name("_ENPROT")
     708                      .dwattr $C$DW$50, DW_AT_bit_offset(0x0d), DW_AT_bit_size(0x01)
     709                      .dwattr $C$DW$50, DW_AT_data_member_location[DW_OP_plus_uconst 0x0]
     710                      .dwattr $C$DW$50, DW_AT_accessibility(DW_ACCESS_public)
     711              $C$DW$51        .dwtag  DW_TAG_member
     712                      .dwattr $C$DW$51, DW_AT_type(*$C$DW$T$19)
     713                      .dwattr $C$DW$51, DW_AT_name("rsvd1")
     714                      .dwattr $C$DW$51, DW_AT_TI_symbol_name("_rsvd1")
     715                      .dwattr $C$DW$51, DW_AT_bit_offset(0x00), DW_AT_bit_size(0x0d)
     716                      .dwattr $C$DW$51, DW_AT_data_member_location[DW_OP_plus_uconst 0x0]
     717                      .dwattr $C$DW$51, DW_AT_accessibility(DW_ACCESS_public)
     718              $C$DW$52        .dwtag  DW_TAG_member
     719                      .dwattr $C$DW$52, DW_AT_type(*$C$DW$T$19)
     720                      .dwattr $C$DW$52, DW_AT_name("rsvd2")
     721                      .dwattr $C$DW$52, DW_AT_TI_symbol_name("_rsvd2")
TMS320C2000 Assembler PC v6.1.3 Tue Oct 01 15:27:14 2013

Tools Copyright (c) 1996-2012 Texas Instruments Incorporated
C:\Users\a0272466\AppData\Local\Temp\0780810                         PAGE   15

     722                      .dwattr $C$DW$52, DW_AT_bit_offset(0x00), DW_AT_bit_size(0x10)
     723                      .dwattr $C$DW$52, DW_AT_data_member_location[DW_OP_plus_uconst 0x1]
     724                      .dwattr $C$DW$52, DW_AT_accessibility(DW_ACCESS_public)
     725                      .dwendtag $C$DW$T$20
     726              
     727              
     728              $C$DW$T$22      .dwtag  DW_TAG_union_type
     729                      .dwattr $C$DW$T$22, DW_AT_name("CCR_REG")
     730                      .dwattr $C$DW$T$22, DW_AT_byte_size(0x02)
     731              $C$DW$53        .dwtag  DW_TAG_member
     732                      .dwattr $C$DW$53, DW_AT_type(*$C$DW$T$21)
     733                      .dwattr $C$DW$53, DW_AT_name("all")
     734                      .dwattr $C$DW$53, DW_AT_TI_symbol_name("_all")
     735                      .dwattr $C$DW$53, DW_AT_data_member_location[DW_OP_plus_uconst 0x0]
     736                      .dwattr $C$DW$53, DW_AT_accessibility(DW_ACCESS_public)
     737              $C$DW$54        .dwtag  DW_TAG_member
     738                      .dwattr $C$DW$54, DW_AT_type(*$C$DW$T$20)
     739                      .dwattr $C$DW$54, DW_AT_name("bit")
     740                      .dwattr $C$DW$54, DW_AT_TI_symbol_name("_bit")
     741                      .dwattr $C$DW$54, DW_AT_data_member_location[DW_OP_plus_uconst 0x0]
     742                      .dwattr $C$DW$54, DW_AT_accessibility(DW_ACCESS_public)
     743                      .dwendtag $C$DW$T$22
     744              
     745              
     746              $C$DW$T$23      .dwtag  DW_TAG_structure_type
     747                      .dwattr $C$DW$T$23, DW_AT_name("CPU2RESCTL_BITS")
     748                      .dwattr $C$DW$T$23, DW_AT_byte_size(0x02)
     749              $C$DW$55        .dwtag  DW_TAG_member
     750                      .dwattr $C$DW$55, DW_AT_type(*$C$DW$T$19)
     751                      .dwattr $C$DW$55, DW_AT_name("RESET")
     752                      .dwattr $C$DW$55, DW_AT_TI_symbol_name("_RESET")
     753                      .dwattr $C$DW$55, DW_AT_bit_offset(0x0f), DW_AT_bit_size(0x01)
     754                      .dwattr $C$DW$55, DW_AT_data_member_location[DW_OP_plus_uconst 0x0]
     755                      .dwattr $C$DW$55, DW_AT_accessibility(DW_ACCESS_public)
     756              $C$DW$56        .dwtag  DW_TAG_member
     757                      .dwattr $C$DW$56, DW_AT_type(*$C$DW$T$19)
     758                      .dwattr $C$DW$56, DW_AT_name("rsvd1")
     759                      .dwattr $C$DW$56, DW_AT_TI_symbol_name("_rsvd1")
     760                      .dwattr $C$DW$56, DW_AT_bit_offset(0x00), DW_AT_bit_size(0x0f)
     761                      .dwattr $C$DW$56, DW_AT_data_member_location[DW_OP_plus_uconst 0x0]
     762                      .dwattr $C$DW$56, DW_AT_accessibility(DW_ACCESS_public)
     763              $C$DW$57        .dwtag  DW_TAG_member
     764                      .dwattr $C$DW$57, DW_AT_type(*$C$DW$T$19)
     765                      .dwattr $C$DW$57, DW_AT_name("KEY")
     766                      .dwattr $C$DW$57, DW_AT_TI_symbol_name("_KEY")
     767                      .dwattr $C$DW$57, DW_AT_bit_offset(0x00), DW_AT_bit_size(0x10)
     768                      .dwattr $C$DW$57, DW_AT_data_member_location[DW_OP_plus_uconst 0x1]
     769                      .dwattr $C$DW$57, DW_AT_accessibility(DW_ACCESS_public)
     770                      .dwendtag $C$DW$T$23
     771              
     772              
     773              $C$DW$T$24      .dwtag  DW_TAG_union_type
     774                      .dwattr $C$DW$T$24, DW_AT_name("CPU2RESCTL_REG")
     775                      .dwattr $C$DW$T$24, DW_AT_byte_size(0x02)
     776              $C$DW$58        .dwtag  DW_TAG_member
TMS320C2000 Assembler PC v6.1.3 Tue Oct 01 15:27:14 2013

Tools Copyright (c) 1996-2012 Texas Instruments Incorporated
C:\Users\a0272466\AppData\Local\Temp\0780810                         PAGE   16

     777                      .dwattr $C$DW$58, DW_AT_type(*$C$DW$T$21)
     778                      .dwattr $C$DW$58, DW_AT_name("all")
     779                      .dwattr $C$DW$58, DW_AT_TI_symbol_name("_all")
     780                      .dwattr $C$DW$58, DW_AT_data_member_location[DW_OP_plus_uconst 0x0]
     781                      .dwattr $C$DW$58, DW_AT_accessibility(DW_ACCESS_public)
     782              $C$DW$59        .dwtag  DW_TAG_member
     783                      .dwattr $C$DW$59, DW_AT_type(*$C$DW$T$23)
     784                      .dwattr $C$DW$59, DW_AT_name("bit")
     785                      .dwattr $C$DW$59, DW_AT_TI_symbol_name("_bit")
     786                      .dwattr $C$DW$59, DW_AT_data_member_location[DW_OP_plus_uconst 0x0]
     787                      .dwattr $C$DW$59, DW_AT_accessibility(DW_ACCESS_public)
     788                      .dwendtag $C$DW$T$24
     789              
     790              
     791              $C$DW$T$25      .dwtag  DW_TAG_structure_type
     792                      .dwattr $C$DW$T$25, DW_AT_name("CPUSEL0_BITS")
     793                      .dwattr $C$DW$T$25, DW_AT_byte_size(0x02)
     794              $C$DW$60        .dwtag  DW_TAG_member
     795                      .dwattr $C$DW$60, DW_AT_type(*$C$DW$T$19)
     796                      .dwattr $C$DW$60, DW_AT_name("EPWM1")
     797                      .dwattr $C$DW$60, DW_AT_TI_symbol_name("_EPWM1")
     798                      .dwattr $C$DW$60, DW_AT_bit_offset(0x0f), DW_AT_bit_size(0x01)
     799                      .dwattr $C$DW$60, DW_AT_data_member_location[DW_OP_plus_uconst 0x0]
     800                      .dwattr $C$DW$60, DW_AT_accessibility(DW_ACCESS_public)
     801              $C$DW$61        .dwtag  DW_TAG_member
     802                      .dwattr $C$DW$61, DW_AT_type(*$C$DW$T$19)
     803                      .dwattr $C$DW$61, DW_AT_name("EPWM2")
     804                      .dwattr $C$DW$61, DW_AT_TI_symbol_name("_EPWM2")
     805                      .dwattr $C$DW$61, DW_AT_bit_offset(0x0e), DW_AT_bit_size(0x01)
     806                      .dwattr $C$DW$61, DW_AT_data_member_location[DW_OP_plus_uconst 0x0]
     807                      .dwattr $C$DW$61, DW_AT_accessibility(DW_ACCESS_public)
     808              $C$DW$62        .dwtag  DW_TAG_member
     809                      .dwattr $C$DW$62, DW_AT_type(*$C$DW$T$19)
     810                      .dwattr $C$DW$62, DW_AT_name("EPWM3")
     811                      .dwattr $C$DW$62, DW_AT_TI_symbol_name("_EPWM3")
     812                      .dwattr $C$DW$62, DW_AT_bit_offset(0x0d), DW_AT_bit_size(0x01)
     813                      .dwattr $C$DW$62, DW_AT_data_member_location[DW_OP_plus_uconst 0x0]
     814                      .dwattr $C$DW$62, DW_AT_accessibility(DW_ACCESS_public)
     815              $C$DW$63        .dwtag  DW_TAG_member
     816                      .dwattr $C$DW$63, DW_AT_type(*$C$DW$T$19)
     817                      .dwattr $C$DW$63, DW_AT_name("EPWM4")
     818                      .dwattr $C$DW$63, DW_AT_TI_symbol_name("_EPWM4")
     819                      .dwattr $C$DW$63, DW_AT_bit_offset(0x0c), DW_AT_bit_size(0x01)
     820                      .dwattr $C$DW$63, DW_AT_data_member_location[DW_OP_plus_uconst 0x0]
     821                      .dwattr $C$DW$63, DW_AT_accessibility(DW_ACCESS_public)
     822              $C$DW$64        .dwtag  DW_TAG_member
     823                      .dwattr $C$DW$64, DW_AT_type(*$C$DW$T$19)
     824                      .dwattr $C$DW$64, DW_AT_name("EPWM5")
     825                      .dwattr $C$DW$64, DW_AT_TI_symbol_name("_EPWM5")
     826                      .dwattr $C$DW$64, DW_AT_bit_offset(0x0b), DW_AT_bit_size(0x01)
     827                      .dwattr $C$DW$64, DW_AT_data_member_location[DW_OP_plus_uconst 0x0]
     828                      .dwattr $C$DW$64, DW_AT_accessibility(DW_ACCESS_public)
     829              $C$DW$65        .dwtag  DW_TAG_member
     830                      .dwattr $C$DW$65, DW_AT_type(*$C$DW$T$19)
     831                      .dwattr $C$DW$65, DW_AT_name("EPWM6")
TMS320C2000 Assembler PC v6.1.3 Tue Oct 01 15:27:14 2013

Tools Copyright (c) 1996-2012 Texas Instruments Incorporated
C:\Users\a0272466\AppData\Local\Temp\0780810                         PAGE   17

     832                      .dwattr $C$DW$65, DW_AT_TI_symbol_name("_EPWM6")
     833                      .dwattr $C$DW$65, DW_AT_bit_offset(0x0a), DW_AT_bit_size(0x01)
     834                      .dwattr $C$DW$65, DW_AT_data_member_location[DW_OP_plus_uconst 0x0]
     835                      .dwattr $C$DW$65, DW_AT_accessibility(DW_ACCESS_public)
     836              $C$DW$66        .dwtag  DW_TAG_member
     837                      .dwattr $C$DW$66, DW_AT_type(*$C$DW$T$19)
     838                      .dwattr $C$DW$66, DW_AT_name("EPWM7")
     839                      .dwattr $C$DW$66, DW_AT_TI_symbol_name("_EPWM7")
     840                      .dwattr $C$DW$66, DW_AT_bit_offset(0x09), DW_AT_bit_size(0x01)
     841                      .dwattr $C$DW$66, DW_AT_data_member_location[DW_OP_plus_uconst 0x0]
     842                      .dwattr $C$DW$66, DW_AT_accessibility(DW_ACCESS_public)
     843              $C$DW$67        .dwtag  DW_TAG_member
     844                      .dwattr $C$DW$67, DW_AT_type(*$C$DW$T$19)
     845                      .dwattr $C$DW$67, DW_AT_name("EPWM8")
     846                      .dwattr $C$DW$67, DW_AT_TI_symbol_name("_EPWM8")
     847                      .dwattr $C$DW$67, DW_AT_bit_offset(0x08), DW_AT_bit_size(0x01)
     848                      .dwattr $C$DW$67, DW_AT_data_member_location[DW_OP_plus_uconst 0x0]
     849                      .dwattr $C$DW$67, DW_AT_accessibility(DW_ACCESS_public)
     850              $C$DW$68        .dwtag  DW_TAG_member
     851                      .dwattr $C$DW$68, DW_AT_type(*$C$DW$T$19)
     852                      .dwattr $C$DW$68, DW_AT_name("EPWM9")
     853                      .dwattr $C$DW$68, DW_AT_TI_symbol_name("_EPWM9")
     854                      .dwattr $C$DW$68, DW_AT_bit_offset(0x07), DW_AT_bit_size(0x01)
     855                      .dwattr $C$DW$68, DW_AT_data_member_location[DW_OP_plus_uconst 0x0]
     856                      .dwattr $C$DW$68, DW_AT_accessibility(DW_ACCESS_public)
     857              $C$DW$69        .dwtag  DW_TAG_member
     858                      .dwattr $C$DW$69, DW_AT_type(*$C$DW$T$19)
     859                      .dwattr $C$DW$69, DW_AT_name("EPWM10")
     860                      .dwattr $C$DW$69, DW_AT_TI_symbol_name("_EPWM10")
     861                      .dwattr $C$DW$69, DW_AT_bit_offset(0x06), DW_AT_bit_size(0x01)
     862                      .dwattr $C$DW$69, DW_AT_data_member_location[DW_OP_plus_uconst 0x0]
     863                      .dwattr $C$DW$69, DW_AT_accessibility(DW_ACCESS_public)
     864              $C$DW$70        .dwtag  DW_TAG_member
     865                      .dwattr $C$DW$70, DW_AT_type(*$C$DW$T$19)
     866                      .dwattr $C$DW$70, DW_AT_name("EPWM11")
     867                      .dwattr $C$DW$70, DW_AT_TI_symbol_name("_EPWM11")
     868                      .dwattr $C$DW$70, DW_AT_bit_offset(0x05), DW_AT_bit_size(0x01)
     869                      .dwattr $C$DW$70, DW_AT_data_member_location[DW_OP_plus_uconst 0x0]
     870                      .dwattr $C$DW$70, DW_AT_accessibility(DW_ACCESS_public)
     871              $C$DW$71        .dwtag  DW_TAG_member
     872                      .dwattr $C$DW$71, DW_AT_type(*$C$DW$T$19)
     873                      .dwattr $C$DW$71, DW_AT_name("EPWM12")
     874                      .dwattr $C$DW$71, DW_AT_TI_symbol_name("_EPWM12")
     875                      .dwattr $C$DW$71, DW_AT_bit_offset(0x04), DW_AT_bit_size(0x01)
     876                      .dwattr $C$DW$71, DW_AT_data_member_location[DW_OP_plus_uconst 0x0]
     877                      .dwattr $C$DW$71, DW_AT_accessibility(DW_ACCESS_public)
     878              $C$DW$72        .dwtag  DW_TAG_member
     879                      .dwattr $C$DW$72, DW_AT_type(*$C$DW$T$19)
     880                      .dwattr $C$DW$72, DW_AT_name("rsvd1")
     881                      .dwattr $C$DW$72, DW_AT_TI_symbol_name("_rsvd1")
     882                      .dwattr $C$DW$72, DW_AT_bit_offset(0x00), DW_AT_bit_size(0x04)
     883                      .dwattr $C$DW$72, DW_AT_data_member_location[DW_OP_plus_uconst 0x0]
     884                      .dwattr $C$DW$72, DW_AT_accessibility(DW_ACCESS_public)
     885              $C$DW$73        .dwtag  DW_TAG_member
     886                      .dwattr $C$DW$73, DW_AT_type(*$C$DW$T$19)
TMS320C2000 Assembler PC v6.1.3 Tue Oct 01 15:27:14 2013

Tools Copyright (c) 1996-2012 Texas Instruments Incorporated
C:\Users\a0272466\AppData\Local\Temp\0780810                         PAGE   18

     887                      .dwattr $C$DW$73, DW_AT_name("rsvd2")
     888                      .dwattr $C$DW$73, DW_AT_TI_symbol_name("_rsvd2")
     889                      .dwattr $C$DW$73, DW_AT_bit_offset(0x00), DW_AT_bit_size(0x10)
     890                      .dwattr $C$DW$73, DW_AT_data_member_location[DW_OP_plus_uconst 0x1]
     891                      .dwattr $C$DW$73, DW_AT_accessibility(DW_ACCESS_public)
     892                      .dwendtag $C$DW$T$25
     893              
     894              
     895              $C$DW$T$26      .dwtag  DW_TAG_union_type
     896                      .dwattr $C$DW$T$26, DW_AT_name("CPUSEL0_REG")
     897                      .dwattr $C$DW$T$26, DW_AT_byte_size(0x02)
     898              $C$DW$74        .dwtag  DW_TAG_member
     899                      .dwattr $C$DW$74, DW_AT_type(*$C$DW$T$21)
     900                      .dwattr $C$DW$74, DW_AT_name("all")
     901                      .dwattr $C$DW$74, DW_AT_TI_symbol_name("_all")
     902                      .dwattr $C$DW$74, DW_AT_data_member_location[DW_OP_plus_uconst 0x0]
     903                      .dwattr $C$DW$74, DW_AT_accessibility(DW_ACCESS_public)
     904              $C$DW$75        .dwtag  DW_TAG_member
     905                      .dwattr $C$DW$75, DW_AT_type(*$C$DW$T$25)
     906                      .dwattr $C$DW$75, DW_AT_name("bit")
     907                      .dwattr $C$DW$75, DW_AT_TI_symbol_name("_bit")
     908                      .dwattr $C$DW$75, DW_AT_data_member_location[DW_OP_plus_uconst 0x0]
     909                      .dwattr $C$DW$75, DW_AT_accessibility(DW_ACCESS_public)
     910                      .dwendtag $C$DW$T$26
     911              
     912              
     913              $C$DW$T$27      .dwtag  DW_TAG_structure_type
     914                      .dwattr $C$DW$T$27, DW_AT_name("CPUSEL11_BITS")
     915                      .dwattr $C$DW$T$27, DW_AT_byte_size(0x02)
     916              $C$DW$76        .dwtag  DW_TAG_member
     917                      .dwattr $C$DW$76, DW_AT_type(*$C$DW$T$19)
     918                      .dwattr $C$DW$76, DW_AT_name("ADC1")
     919                      .dwattr $C$DW$76, DW_AT_TI_symbol_name("_ADC1")
     920                      .dwattr $C$DW$76, DW_AT_bit_offset(0x0f), DW_AT_bit_size(0x01)
     921                      .dwattr $C$DW$76, DW_AT_data_member_location[DW_OP_plus_uconst 0x0]
     922                      .dwattr $C$DW$76, DW_AT_accessibility(DW_ACCESS_public)
     923              $C$DW$77        .dwtag  DW_TAG_member
     924                      .dwattr $C$DW$77, DW_AT_type(*$C$DW$T$19)
     925                      .dwattr $C$DW$77, DW_AT_name("ADC2")
     926                      .dwattr $C$DW$77, DW_AT_TI_symbol_name("_ADC2")
     927                      .dwattr $C$DW$77, DW_AT_bit_offset(0x0e), DW_AT_bit_size(0x01)
     928                      .dwattr $C$DW$77, DW_AT_data_member_location[DW_OP_plus_uconst 0x0]
     929                      .dwattr $C$DW$77, DW_AT_accessibility(DW_ACCESS_public)
     930              $C$DW$78        .dwtag  DW_TAG_member
     931                      .dwattr $C$DW$78, DW_AT_type(*$C$DW$T$19)
     932                      .dwattr $C$DW$78, DW_AT_name("ADC3")
     933                      .dwattr $C$DW$78, DW_AT_TI_symbol_name("_ADC3")
     934                      .dwattr $C$DW$78, DW_AT_bit_offset(0x0d), DW_AT_bit_size(0x01)
     935                      .dwattr $C$DW$78, DW_AT_data_member_location[DW_OP_plus_uconst 0x0]
     936                      .dwattr $C$DW$78, DW_AT_accessibility(DW_ACCESS_public)
     937              $C$DW$79        .dwtag  DW_TAG_member
     938                      .dwattr $C$DW$79, DW_AT_type(*$C$DW$T$19)
     939                      .dwattr $C$DW$79, DW_AT_name("ADC4")
     940                      .dwattr $C$DW$79, DW_AT_TI_symbol_name("_ADC4")
     941                      .dwattr $C$DW$79, DW_AT_bit_offset(0x0c), DW_AT_bit_size(0x01)
TMS320C2000 Assembler PC v6.1.3 Tue Oct 01 15:27:14 2013

Tools Copyright (c) 1996-2012 Texas Instruments Incorporated
C:\Users\a0272466\AppData\Local\Temp\0780810                         PAGE   19

     942                      .dwattr $C$DW$79, DW_AT_data_member_location[DW_OP_plus_uconst 0x0]
     943                      .dwattr $C$DW$79, DW_AT_accessibility(DW_ACCESS_public)
     944              $C$DW$80        .dwtag  DW_TAG_member
     945                      .dwattr $C$DW$80, DW_AT_type(*$C$DW$T$19)
     946                      .dwattr $C$DW$80, DW_AT_name("rsvd1")
     947                      .dwattr $C$DW$80, DW_AT_TI_symbol_name("_rsvd1")
     948                      .dwattr $C$DW$80, DW_AT_bit_offset(0x00), DW_AT_bit_size(0x0c)
     949                      .dwattr $C$DW$80, DW_AT_data_member_location[DW_OP_plus_uconst 0x0]
     950                      .dwattr $C$DW$80, DW_AT_accessibility(DW_ACCESS_public)
     951              $C$DW$81        .dwtag  DW_TAG_member
     952                      .dwattr $C$DW$81, DW_AT_type(*$C$DW$T$19)
     953                      .dwattr $C$DW$81, DW_AT_name("rsvd2")
     954                      .dwattr $C$DW$81, DW_AT_TI_symbol_name("_rsvd2")
     955                      .dwattr $C$DW$81, DW_AT_bit_offset(0x00), DW_AT_bit_size(0x10)
     956                      .dwattr $C$DW$81, DW_AT_data_member_location[DW_OP_plus_uconst 0x1]
     957                      .dwattr $C$DW$81, DW_AT_accessibility(DW_ACCESS_public)
     958                      .dwendtag $C$DW$T$27
     959              
     960              
     961              $C$DW$T$28      .dwtag  DW_TAG_union_type
     962                      .dwattr $C$DW$T$28, DW_AT_name("CPUSEL11_REG")
     963                      .dwattr $C$DW$T$28, DW_AT_byte_size(0x02)
     964              $C$DW$82        .dwtag  DW_TAG_member
     965                      .dwattr $C$DW$82, DW_AT_type(*$C$DW$T$21)
     966                      .dwattr $C$DW$82, DW_AT_name("all")
     967                      .dwattr $C$DW$82, DW_AT_TI_symbol_name("_all")
     968                      .dwattr $C$DW$82, DW_AT_data_member_location[DW_OP_plus_uconst 0x0]
     969                      .dwattr $C$DW$82, DW_AT_accessibility(DW_ACCESS_public)
     970              $C$DW$83        .dwtag  DW_TAG_member
     971                      .dwattr $C$DW$83, DW_AT_type(*$C$DW$T$27)
     972                      .dwattr $C$DW$83, DW_AT_name("bit")
     973                      .dwattr $C$DW$83, DW_AT_TI_symbol_name("_bit")
     974                      .dwattr $C$DW$83, DW_AT_data_member_location[DW_OP_plus_uconst 0x0]
     975                      .dwattr $C$DW$83, DW_AT_accessibility(DW_ACCESS_public)
     976                      .dwendtag $C$DW$T$28
     977              
     978              
     979              $C$DW$T$29      .dwtag  DW_TAG_structure_type
     980                      .dwattr $C$DW$T$29, DW_AT_name("CPUSEL12_BITS")
     981                      .dwattr $C$DW$T$29, DW_AT_byte_size(0x02)
     982              $C$DW$84        .dwtag  DW_TAG_member
     983                      .dwattr $C$DW$84, DW_AT_type(*$C$DW$T$19)
     984                      .dwattr $C$DW$84, DW_AT_name("CMPSS1")
     985                      .dwattr $C$DW$84, DW_AT_TI_symbol_name("_CMPSS1")
     986                      .dwattr $C$DW$84, DW_AT_bit_offset(0x0f), DW_AT_bit_size(0x01)
     987                      .dwattr $C$DW$84, DW_AT_data_member_location[DW_OP_plus_uconst 0x0]
     988                      .dwattr $C$DW$84, DW_AT_accessibility(DW_ACCESS_public)
     989              $C$DW$85        .dwtag  DW_TAG_member
     990                      .dwattr $C$DW$85, DW_AT_type(*$C$DW$T$19)
     991                      .dwattr $C$DW$85, DW_AT_name("CMPSS2")
     992                      .dwattr $C$DW$85, DW_AT_TI_symbol_name("_CMPSS2")
     993                      .dwattr $C$DW$85, DW_AT_bit_offset(0x0e), DW_AT_bit_size(0x01)
     994                      .dwattr $C$DW$85, DW_AT_data_member_location[DW_OP_plus_uconst 0x0]
     995                      .dwattr $C$DW$85, DW_AT_accessibility(DW_ACCESS_public)
     996              $C$DW$86        .dwtag  DW_TAG_member
TMS320C2000 Assembler PC v6.1.3 Tue Oct 01 15:27:14 2013

Tools Copyright (c) 1996-2012 Texas Instruments Incorporated
C:\Users\a0272466\AppData\Local\Temp\0780810                         PAGE   20

     997                      .dwattr $C$DW$86, DW_AT_type(*$C$DW$T$19)
     998                      .dwattr $C$DW$86, DW_AT_name("CMPSS3")
     999                      .dwattr $C$DW$86, DW_AT_TI_symbol_name("_CMPSS3")
    1000                      .dwattr $C$DW$86, DW_AT_bit_offset(0x0d), DW_AT_bit_size(0x01)
    1001                      .dwattr $C$DW$86, DW_AT_data_member_location[DW_OP_plus_uconst 0x0]
    1002                      .dwattr $C$DW$86, DW_AT_accessibility(DW_ACCESS_public)
    1003              $C$DW$87        .dwtag  DW_TAG_member
    1004                      .dwattr $C$DW$87, DW_AT_type(*$C$DW$T$19)
    1005                      .dwattr $C$DW$87, DW_AT_name("CMPSS4")
    1006                      .dwattr $C$DW$87, DW_AT_TI_symbol_name("_CMPSS4")
    1007                      .dwattr $C$DW$87, DW_AT_bit_offset(0x0c), DW_AT_bit_size(0x01)
    1008                      .dwattr $C$DW$87, DW_AT_data_member_location[DW_OP_plus_uconst 0x0]
    1009                      .dwattr $C$DW$87, DW_AT_accessibility(DW_ACCESS_public)
    1010              $C$DW$88        .dwtag  DW_TAG_member
    1011                      .dwattr $C$DW$88, DW_AT_type(*$C$DW$T$19)
    1012                      .dwattr $C$DW$88, DW_AT_name("CMPSS5")
    1013                      .dwattr $C$DW$88, DW_AT_TI_symbol_name("_CMPSS5")
    1014                      .dwattr $C$DW$88, DW_AT_bit_offset(0x0b), DW_AT_bit_size(0x01)
    1015                      .dwattr $C$DW$88, DW_AT_data_member_location[DW_OP_plus_uconst 0x0]
    1016                      .dwattr $C$DW$88, DW_AT_accessibility(DW_ACCESS_public)
    1017              $C$DW$89        .dwtag  DW_TAG_member
    1018                      .dwattr $C$DW$89, DW_AT_type(*$C$DW$T$19)
    1019                      .dwattr $C$DW$89, DW_AT_name("CMPSS6")
    1020                      .dwattr $C$DW$89, DW_AT_TI_symbol_name("_CMPSS6")
    1021                      .dwattr $C$DW$89, DW_AT_bit_offset(0x0a), DW_AT_bit_size(0x01)
    1022                      .dwattr $C$DW$89, DW_AT_data_member_location[DW_OP_plus_uconst 0x0]
    1023                      .dwattr $C$DW$89, DW_AT_accessibility(DW_ACCESS_public)
    1024              $C$DW$90        .dwtag  DW_TAG_member
    1025                      .dwattr $C$DW$90, DW_AT_type(*$C$DW$T$19)
    1026                      .dwattr $C$DW$90, DW_AT_name("CMPSS7")
    1027                      .dwattr $C$DW$90, DW_AT_TI_symbol_name("_CMPSS7")
    1028                      .dwattr $C$DW$90, DW_AT_bit_offset(0x09), DW_AT_bit_size(0x01)
    1029                      .dwattr $C$DW$90, DW_AT_data_member_location[DW_OP_plus_uconst 0x0]
    1030                      .dwattr $C$DW$90, DW_AT_accessibility(DW_ACCESS_public)
    1031              $C$DW$91        .dwtag  DW_TAG_member
    1032                      .dwattr $C$DW$91, DW_AT_type(*$C$DW$T$19)
    1033                      .dwattr $C$DW$91, DW_AT_name("CMPSS8")
    1034                      .dwattr $C$DW$91, DW_AT_TI_symbol_name("_CMPSS8")
    1035                      .dwattr $C$DW$91, DW_AT_bit_offset(0x08), DW_AT_bit_size(0x01)
    1036                      .dwattr $C$DW$91, DW_AT_data_member_location[DW_OP_plus_uconst 0x0]
    1037                      .dwattr $C$DW$91, DW_AT_accessibility(DW_ACCESS_public)
    1038              $C$DW$92        .dwtag  DW_TAG_member
    1039                      .dwattr $C$DW$92, DW_AT_type(*$C$DW$T$19)
    1040                      .dwattr $C$DW$92, DW_AT_name("rsvd1")
    1041                      .dwattr $C$DW$92, DW_AT_TI_symbol_name("_rsvd1")
    1042                      .dwattr $C$DW$92, DW_AT_bit_offset(0x00), DW_AT_bit_size(0x08)
    1043                      .dwattr $C$DW$92, DW_AT_data_member_location[DW_OP_plus_uconst 0x0]
    1044                      .dwattr $C$DW$92, DW_AT_accessibility(DW_ACCESS_public)
    1045              $C$DW$93        .dwtag  DW_TAG_member
    1046                      .dwattr $C$DW$93, DW_AT_type(*$C$DW$T$19)
    1047                      .dwattr $C$DW$93, DW_AT_name("rsvd2")
    1048                      .dwattr $C$DW$93, DW_AT_TI_symbol_name("_rsvd2")
    1049                      .dwattr $C$DW$93, DW_AT_bit_offset(0x00), DW_AT_bit_size(0x10)
    1050                      .dwattr $C$DW$93, DW_AT_data_member_location[DW_OP_plus_uconst 0x1]
    1051                      .dwattr $C$DW$93, DW_AT_accessibility(DW_ACCESS_public)
TMS320C2000 Assembler PC v6.1.3 Tue Oct 01 15:27:14 2013

Tools Copyright (c) 1996-2012 Texas Instruments Incorporated
C:\Users\a0272466\AppData\Local\Temp\0780810                         PAGE   21

    1052                      .dwendtag $C$DW$T$29
    1053              
    1054              
    1055              $C$DW$T$30      .dwtag  DW_TAG_union_type
    1056                      .dwattr $C$DW$T$30, DW_AT_name("CPUSEL12_REG")
    1057                      .dwattr $C$DW$T$30, DW_AT_byte_size(0x02)
    1058              $C$DW$94        .dwtag  DW_TAG_member
    1059                      .dwattr $C$DW$94, DW_AT_type(*$C$DW$T$21)
    1060                      .dwattr $C$DW$94, DW_AT_name("all")
    1061                      .dwattr $C$DW$94, DW_AT_TI_symbol_name("_all")
    1062                      .dwattr $C$DW$94, DW_AT_data_member_location[DW_OP_plus_uconst 0x0]
    1063                      .dwattr $C$DW$94, DW_AT_accessibility(DW_ACCESS_public)
    1064              $C$DW$95        .dwtag  DW_TAG_member
    1065                      .dwattr $C$DW$95, DW_AT_type(*$C$DW$T$29)
    1066                      .dwattr $C$DW$95, DW_AT_name("bit")
    1067                      .dwattr $C$DW$95, DW_AT_TI_symbol_name("_bit")
    1068                      .dwattr $C$DW$95, DW_AT_data_member_location[DW_OP_plus_uconst 0x0]
    1069                      .dwattr $C$DW$95, DW_AT_accessibility(DW_ACCESS_public)
    1070                      .dwendtag $C$DW$T$30
    1071              
    1072              
    1073              $C$DW$T$31      .dwtag  DW_TAG_structure_type
    1074                      .dwattr $C$DW$T$31, DW_AT_name("CPUSEL14_BITS")
    1075                      .dwattr $C$DW$T$31, DW_AT_byte_size(0x02)
    1076              $C$DW$96        .dwtag  DW_TAG_member
    1077                      .dwattr $C$DW$96, DW_AT_type(*$C$DW$T$19)
    1078                      .dwattr $C$DW$96, DW_AT_name("rsvd1")
    1079                      .dwattr $C$DW$96, DW_AT_TI_symbol_name("_rsvd1")
    1080                      .dwattr $C$DW$96, DW_AT_bit_offset(0x00), DW_AT_bit_size(0x10)
    1081                      .dwattr $C$DW$96, DW_AT_data_member_location[DW_OP_plus_uconst 0x0]
    1082                      .dwattr $C$DW$96, DW_AT_accessibility(DW_ACCESS_public)
    1083              $C$DW$97        .dwtag  DW_TAG_member
    1084                      .dwattr $C$DW$97, DW_AT_type(*$C$DW$T$19)
    1085                      .dwattr $C$DW$97, DW_AT_name("Buffered_DAC12_1")
    1086                      .dwattr $C$DW$97, DW_AT_TI_symbol_name("_Buffered_DAC12_1")
    1087                      .dwattr $C$DW$97, DW_AT_bit_offset(0x0f), DW_AT_bit_size(0x01)
    1088                      .dwattr $C$DW$97, DW_AT_data_member_location[DW_OP_plus_uconst 0x1]
    1089                      .dwattr $C$DW$97, DW_AT_accessibility(DW_ACCESS_public)
    1090              $C$DW$98        .dwtag  DW_TAG_member
    1091                      .dwattr $C$DW$98, DW_AT_type(*$C$DW$T$19)
    1092                      .dwattr $C$DW$98, DW_AT_name("Buffered_DAC12_2")
    1093                      .dwattr $C$DW$98, DW_AT_TI_symbol_name("_Buffered_DAC12_2")
    1094                      .dwattr $C$DW$98, DW_AT_bit_offset(0x0e), DW_AT_bit_size(0x01)
    1095                      .dwattr $C$DW$98, DW_AT_data_member_location[DW_OP_plus_uconst 0x1]
    1096                      .dwattr $C$DW$98, DW_AT_accessibility(DW_ACCESS_public)
    1097              $C$DW$99        .dwtag  DW_TAG_member
    1098                      .dwattr $C$DW$99, DW_AT_type(*$C$DW$T$19)
    1099                      .dwattr $C$DW$99, DW_AT_name("Buffered_DAC12_3")
    1100                      .dwattr $C$DW$99, DW_AT_TI_symbol_name("_Buffered_DAC12_3")
    1101                      .dwattr $C$DW$99, DW_AT_bit_offset(0x0d), DW_AT_bit_size(0x01)
    1102                      .dwattr $C$DW$99, DW_AT_data_member_location[DW_OP_plus_uconst 0x1]
    1103                      .dwattr $C$DW$99, DW_AT_accessibility(DW_ACCESS_public)
    1104              $C$DW$100       .dwtag  DW_TAG_member
    1105                      .dwattr $C$DW$100, DW_AT_type(*$C$DW$T$19)
    1106                      .dwattr $C$DW$100, DW_AT_name("rsvd2")
TMS320C2000 Assembler PC v6.1.3 Tue Oct 01 15:27:14 2013

Tools Copyright (c) 1996-2012 Texas Instruments Incorporated
C:\Users\a0272466\AppData\Local\Temp\0780810                         PAGE   22

    1107                      .dwattr $C$DW$100, DW_AT_TI_symbol_name("_rsvd2")
    1108                      .dwattr $C$DW$100, DW_AT_bit_offset(0x00), DW_AT_bit_size(0x0d)
    1109                      .dwattr $C$DW$100, DW_AT_data_member_location[DW_OP_plus_uconst 0x1]
    1110                      .dwattr $C$DW$100, DW_AT_accessibility(DW_ACCESS_public)
    1111                      .dwendtag $C$DW$T$31
    1112              
    1113              
    1114              $C$DW$T$32      .dwtag  DW_TAG_union_type
    1115                      .dwattr $C$DW$T$32, DW_AT_name("CPUSEL14_REG")
    1116                      .dwattr $C$DW$T$32, DW_AT_byte_size(0x02)
    1117              $C$DW$101       .dwtag  DW_TAG_member
    1118                      .dwattr $C$DW$101, DW_AT_type(*$C$DW$T$21)
    1119                      .dwattr $C$DW$101, DW_AT_name("all")
    1120                      .dwattr $C$DW$101, DW_AT_TI_symbol_name("_all")
    1121                      .dwattr $C$DW$101, DW_AT_data_member_location[DW_OP_plus_uconst 0x0]
    1122                      .dwattr $C$DW$101, DW_AT_accessibility(DW_ACCESS_public)
    1123              $C$DW$102       .dwtag  DW_TAG_member
    1124                      .dwattr $C$DW$102, DW_AT_type(*$C$DW$T$31)
    1125                      .dwattr $C$DW$102, DW_AT_name("bit")
    1126                      .dwattr $C$DW$102, DW_AT_TI_symbol_name("_bit")
    1127                      .dwattr $C$DW$102, DW_AT_data_member_location[DW_OP_plus_uconst 0x0]
    1128                      .dwattr $C$DW$102, DW_AT_accessibility(DW_ACCESS_public)
    1129                      .dwendtag $C$DW$T$32
    1130              
    1131              
    1132              $C$DW$T$33      .dwtag  DW_TAG_structure_type
    1133                      .dwattr $C$DW$T$33, DW_AT_name("CPUSEL1_BITS")
    1134                      .dwattr $C$DW$T$33, DW_AT_byte_size(0x02)
    1135              $C$DW$103       .dwtag  DW_TAG_member
    1136                      .dwattr $C$DW$103, DW_AT_type(*$C$DW$T$19)
    1137                      .dwattr $C$DW$103, DW_AT_name("ECAP1")
    1138                      .dwattr $C$DW$103, DW_AT_TI_symbol_name("_ECAP1")
    1139                      .dwattr $C$DW$103, DW_AT_bit_offset(0x0f), DW_AT_bit_size(0x01)
    1140                      .dwattr $C$DW$103, DW_AT_data_member_location[DW_OP_plus_uconst 0x0]
    1141                      .dwattr $C$DW$103, DW_AT_accessibility(DW_ACCESS_public)
    1142              $C$DW$104       .dwtag  DW_TAG_member
    1143                      .dwattr $C$DW$104, DW_AT_type(*$C$DW$T$19)
    1144                      .dwattr $C$DW$104, DW_AT_name("ECAP2")
    1145                      .dwattr $C$DW$104, DW_AT_TI_symbol_name("_ECAP2")
    1146                      .dwattr $C$DW$104, DW_AT_bit_offset(0x0e), DW_AT_bit_size(0x01)
    1147                      .dwattr $C$DW$104, DW_AT_data_member_location[DW_OP_plus_uconst 0x0]
    1148                      .dwattr $C$DW$104, DW_AT_accessibility(DW_ACCESS_public)
    1149              $C$DW$105       .dwtag  DW_TAG_member
    1150                      .dwattr $C$DW$105, DW_AT_type(*$C$DW$T$19)
    1151                      .dwattr $C$DW$105, DW_AT_name("ECAP3")
    1152                      .dwattr $C$DW$105, DW_AT_TI_symbol_name("_ECAP3")
    1153                      .dwattr $C$DW$105, DW_AT_bit_offset(0x0d), DW_AT_bit_size(0x01)
    1154                      .dwattr $C$DW$105, DW_AT_data_member_location[DW_OP_plus_uconst 0x0]
    1155                      .dwattr $C$DW$105, DW_AT_accessibility(DW_ACCESS_public)
    1156              $C$DW$106       .dwtag  DW_TAG_member
    1157                      .dwattr $C$DW$106, DW_AT_type(*$C$DW$T$19)
    1158                      .dwattr $C$DW$106, DW_AT_name("ECAP4")
    1159                      .dwattr $C$DW$106, DW_AT_TI_symbol_name("_ECAP4")
    1160                      .dwattr $C$DW$106, DW_AT_bit_offset(0x0c), DW_AT_bit_size(0x01)
    1161                      .dwattr $C$DW$106, DW_AT_data_member_location[DW_OP_plus_uconst 0x0]
TMS320C2000 Assembler PC v6.1.3 Tue Oct 01 15:27:14 2013

Tools Copyright (c) 1996-2012 Texas Instruments Incorporated
C:\Users\a0272466\AppData\Local\Temp\0780810                         PAGE   23

    1162                      .dwattr $C$DW$106, DW_AT_accessibility(DW_ACCESS_public)
    1163              $C$DW$107       .dwtag  DW_TAG_member
    1164                      .dwattr $C$DW$107, DW_AT_type(*$C$DW$T$19)
    1165                      .dwattr $C$DW$107, DW_AT_name("ECAP5")
    1166                      .dwattr $C$DW$107, DW_AT_TI_symbol_name("_ECAP5")
    1167                      .dwattr $C$DW$107, DW_AT_bit_offset(0x0b), DW_AT_bit_size(0x01)
    1168                      .dwattr $C$DW$107, DW_AT_data_member_location[DW_OP_plus_uconst 0x0]
    1169                      .dwattr $C$DW$107, DW_AT_accessibility(DW_ACCESS_public)
    1170              $C$DW$108       .dwtag  DW_TAG_member
    1171                      .dwattr $C$DW$108, DW_AT_type(*$C$DW$T$19)
    1172                      .dwattr $C$DW$108, DW_AT_name("ECAP6")
    1173                      .dwattr $C$DW$108, DW_AT_TI_symbol_name("_ECAP6")
    1174                      .dwattr $C$DW$108, DW_AT_bit_offset(0x0a), DW_AT_bit_size(0x01)
    1175                      .dwattr $C$DW$108, DW_AT_data_member_location[DW_OP_plus_uconst 0x0]
    1176                      .dwattr $C$DW$108, DW_AT_accessibility(DW_ACCESS_public)
    1177              $C$DW$109       .dwtag  DW_TAG_member
    1178                      .dwattr $C$DW$109, DW_AT_type(*$C$DW$T$19)
    1179                      .dwattr $C$DW$109, DW_AT_name("rsvd1")
    1180                      .dwattr $C$DW$109, DW_AT_TI_symbol_name("_rsvd1")
    1181                      .dwattr $C$DW$109, DW_AT_bit_offset(0x00), DW_AT_bit_size(0x0a)
    1182                      .dwattr $C$DW$109, DW_AT_data_member_location[DW_OP_plus_uconst 0x0]
    1183                      .dwattr $C$DW$109, DW_AT_accessibility(DW_ACCESS_public)
    1184              $C$DW$110       .dwtag  DW_TAG_member
    1185                      .dwattr $C$DW$110, DW_AT_type(*$C$DW$T$19)
    1186                      .dwattr $C$DW$110, DW_AT_name("rsvd2")
    1187                      .dwattr $C$DW$110, DW_AT_TI_symbol_name("_rsvd2")
    1188                      .dwattr $C$DW$110, DW_AT_bit_offset(0x00), DW_AT_bit_size(0x10)
    1189                      .dwattr $C$DW$110, DW_AT_data_member_location[DW_OP_plus_uconst 0x1]
    1190                      .dwattr $C$DW$110, DW_AT_accessibility(DW_ACCESS_public)
    1191                      .dwendtag $C$DW$T$33
    1192              
    1193              
    1194              $C$DW$T$34      .dwtag  DW_TAG_union_type
    1195                      .dwattr $C$DW$T$34, DW_AT_name("CPUSEL1_REG")
    1196                      .dwattr $C$DW$T$34, DW_AT_byte_size(0x02)
    1197              $C$DW$111       .dwtag  DW_TAG_member
    1198                      .dwattr $C$DW$111, DW_AT_type(*$C$DW$T$21)
    1199                      .dwattr $C$DW$111, DW_AT_name("all")
    1200                      .dwattr $C$DW$111, DW_AT_TI_symbol_name("_all")
    1201                      .dwattr $C$DW$111, DW_AT_data_member_location[DW_OP_plus_uconst 0x0]
    1202                      .dwattr $C$DW$111, DW_AT_accessibility(DW_ACCESS_public)
    1203              $C$DW$112       .dwtag  DW_TAG_member
    1204                      .dwattr $C$DW$112, DW_AT_type(*$C$DW$T$33)
    1205                      .dwattr $C$DW$112, DW_AT_name("bit")
    1206                      .dwattr $C$DW$112, DW_AT_TI_symbol_name("_bit")
    1207                      .dwattr $C$DW$112, DW_AT_data_member_location[DW_OP_plus_uconst 0x0]
    1208                      .dwattr $C$DW$112, DW_AT_accessibility(DW_ACCESS_public)
    1209                      .dwendtag $C$DW$T$34
    1210              
    1211              
    1212              $C$DW$T$35      .dwtag  DW_TAG_structure_type
    1213                      .dwattr $C$DW$T$35, DW_AT_name("CPUSEL2_BITS")
    1214                      .dwattr $C$DW$T$35, DW_AT_byte_size(0x02)
    1215              $C$DW$113       .dwtag  DW_TAG_member
    1216                      .dwattr $C$DW$113, DW_AT_type(*$C$DW$T$19)
TMS320C2000 Assembler PC v6.1.3 Tue Oct 01 15:27:14 2013

Tools Copyright (c) 1996-2012 Texas Instruments Incorporated
C:\Users\a0272466\AppData\Local\Temp\0780810                         PAGE   24

    1217                      .dwattr $C$DW$113, DW_AT_name("EQEP1")
    1218                      .dwattr $C$DW$113, DW_AT_TI_symbol_name("_EQEP1")
    1219                      .dwattr $C$DW$113, DW_AT_bit_offset(0x0f), DW_AT_bit_size(0x01)
    1220                      .dwattr $C$DW$113, DW_AT_data_member_location[DW_OP_plus_uconst 0x0]
    1221                      .dwattr $C$DW$113, DW_AT_accessibility(DW_ACCESS_public)
    1222              $C$DW$114       .dwtag  DW_TAG_member
    1223                      .dwattr $C$DW$114, DW_AT_type(*$C$DW$T$19)
    1224                      .dwattr $C$DW$114, DW_AT_name("EQEP2")
    1225                      .dwattr $C$DW$114, DW_AT_TI_symbol_name("_EQEP2")
    1226                      .dwattr $C$DW$114, DW_AT_bit_offset(0x0e), DW_AT_bit_size(0x01)
    1227                      .dwattr $C$DW$114, DW_AT_data_member_location[DW_OP_plus_uconst 0x0]
    1228                      .dwattr $C$DW$114, DW_AT_accessibility(DW_ACCESS_public)
    1229              $C$DW$115       .dwtag  DW_TAG_member
    1230                      .dwattr $C$DW$115, DW_AT_type(*$C$DW$T$19)
    1231                      .dwattr $C$DW$115, DW_AT_name("EQEP3")
    1232                      .dwattr $C$DW$115, DW_AT_TI_symbol_name("_EQEP3")
    1233                      .dwattr $C$DW$115, DW_AT_bit_offset(0x0d), DW_AT_bit_size(0x01)
    1234                      .dwattr $C$DW$115, DW_AT_data_member_location[DW_OP_plus_uconst 0x0]
    1235                      .dwattr $C$DW$115, DW_AT_accessibility(DW_ACCESS_public)
    1236              $C$DW$116       .dwtag  DW_TAG_member
    1237                      .dwattr $C$DW$116, DW_AT_type(*$C$DW$T$19)
    1238                      .dwattr $C$DW$116, DW_AT_name("rsvd1")
    1239                      .dwattr $C$DW$116, DW_AT_TI_symbol_name("_rsvd1")
    1240                      .dwattr $C$DW$116, DW_AT_bit_offset(0x00), DW_AT_bit_size(0x0d)
    1241                      .dwattr $C$DW$116, DW_AT_data_member_location[DW_OP_plus_uconst 0x0]
    1242                      .dwattr $C$DW$116, DW_AT_accessibility(DW_ACCESS_public)
    1243              $C$DW$117       .dwtag  DW_TAG_member
    1244                      .dwattr $C$DW$117, DW_AT_type(*$C$DW$T$19)
    1245                      .dwattr $C$DW$117, DW_AT_name("rsvd2")
    1246                      .dwattr $C$DW$117, DW_AT_TI_symbol_name("_rsvd2")
    1247                      .dwattr $C$DW$117, DW_AT_bit_offset(0x00), DW_AT_bit_size(0x10)
    1248                      .dwattr $C$DW$117, DW_AT_data_member_location[DW_OP_plus_uconst 0x1]
    1249                      .dwattr $C$DW$117, DW_AT_accessibility(DW_ACCESS_public)
    1250                      .dwendtag $C$DW$T$35
    1251              
    1252              
    1253              $C$DW$T$36      .dwtag  DW_TAG_union_type
    1254                      .dwattr $C$DW$T$36, DW_AT_name("CPUSEL2_REG")
    1255                      .dwattr $C$DW$T$36, DW_AT_byte_size(0x02)
    1256              $C$DW$118       .dwtag  DW_TAG_member
    1257                      .dwattr $C$DW$118, DW_AT_type(*$C$DW$T$21)
    1258                      .dwattr $C$DW$118, DW_AT_name("all")
    1259                      .dwattr $C$DW$118, DW_AT_TI_symbol_name("_all")
    1260                      .dwattr $C$DW$118, DW_AT_data_member_location[DW_OP_plus_uconst 0x0]
    1261                      .dwattr $C$DW$118, DW_AT_accessibility(DW_ACCESS_public)
    1262              $C$DW$119       .dwtag  DW_TAG_member
    1263                      .dwattr $C$DW$119, DW_AT_type(*$C$DW$T$35)
    1264                      .dwattr $C$DW$119, DW_AT_name("bit")
    1265                      .dwattr $C$DW$119, DW_AT_TI_symbol_name("_bit")
    1266                      .dwattr $C$DW$119, DW_AT_data_member_location[DW_OP_plus_uconst 0x0]
    1267                      .dwattr $C$DW$119, DW_AT_accessibility(DW_ACCESS_public)
    1268                      .dwendtag $C$DW$T$36
    1269              
    1270              
    1271              $C$DW$T$37      .dwtag  DW_TAG_structure_type
TMS320C2000 Assembler PC v6.1.3 Tue Oct 01 15:27:14 2013

Tools Copyright (c) 1996-2012 Texas Instruments Incorporated
C:\Users\a0272466\AppData\Local\Temp\0780810                         PAGE   25

    1272                      .dwattr $C$DW$T$37, DW_AT_name("CPUSEL3_BITS")
    1273                      .dwattr $C$DW$T$37, DW_AT_byte_size(0x02)
    1274              $C$DW$120       .dwtag  DW_TAG_member
    1275                      .dwattr $C$DW$120, DW_AT_type(*$C$DW$T$19)
    1276                      .dwattr $C$DW$120, DW_AT_name("rsvd1")
    1277                      .dwattr $C$DW$120, DW_AT_TI_symbol_name("_rsvd1")
    1278                      .dwattr $C$DW$120, DW_AT_bit_offset(0x00), DW_AT_bit_size(0x10)
    1279                      .dwattr $C$DW$120, DW_AT_data_member_location[DW_OP_plus_uconst 0x0]
    1280                      .dwattr $C$DW$120, DW_AT_accessibility(DW_ACCESS_public)
    1281              $C$DW$121       .dwtag  DW_TAG_member
    1282                      .dwattr $C$DW$121, DW_AT_type(*$C$DW$T$19)
    1283                      .dwattr $C$DW$121, DW_AT_name("rsvd2")
    1284                      .dwattr $C$DW$121, DW_AT_TI_symbol_name("_rsvd2")
    1285                      .dwattr $C$DW$121, DW_AT_bit_offset(0x00), DW_AT_bit_size(0x10)
    1286                      .dwattr $C$DW$121, DW_AT_data_member_location[DW_OP_plus_uconst 0x1]
    1287                      .dwattr $C$DW$121, DW_AT_accessibility(DW_ACCESS_public)
    1288                      .dwendtag $C$DW$T$37
    1289              
    1290              
    1291              $C$DW$T$38      .dwtag  DW_TAG_union_type
    1292                      .dwattr $C$DW$T$38, DW_AT_name("CPUSEL3_REG")
    1293                      .dwattr $C$DW$T$38, DW_AT_byte_size(0x02)
    1294              $C$DW$122       .dwtag  DW_TAG_member
    1295                      .dwattr $C$DW$122, DW_AT_type(*$C$DW$T$21)
    1296                      .dwattr $C$DW$122, DW_AT_name("all")
    1297                      .dwattr $C$DW$122, DW_AT_TI_symbol_name("_all")
    1298                      .dwattr $C$DW$122, DW_AT_data_member_location[DW_OP_plus_uconst 0x0]
    1299                      .dwattr $C$DW$122, DW_AT_accessibility(DW_ACCESS_public)
    1300              $C$DW$123       .dwtag  DW_TAG_member
    1301                      .dwattr $C$DW$123, DW_AT_type(*$C$DW$T$37)
    1302                      .dwattr $C$DW$123, DW_AT_name("bit")
    1303                      .dwattr $C$DW$123, DW_AT_TI_symbol_name("_bit")
    1304                      .dwattr $C$DW$123, DW_AT_data_member_location[DW_OP_plus_uconst 0x0]
    1305                      .dwattr $C$DW$123, DW_AT_accessibility(DW_ACCESS_public)
    1306                      .dwendtag $C$DW$T$38
    1307              
    1308              
    1309              $C$DW$T$39      .dwtag  DW_TAG_structure_type
    1310                      .dwattr $C$DW$T$39, DW_AT_name("CPUSEL4_BITS")
    1311                      .dwattr $C$DW$T$39, DW_AT_byte_size(0x02)
    1312              $C$DW$124       .dwtag  DW_TAG_member
    1313                      .dwattr $C$DW$124, DW_AT_type(*$C$DW$T$19)
    1314                      .dwattr $C$DW$124, DW_AT_name("SD1")
    1315                      .dwattr $C$DW$124, DW_AT_TI_symbol_name("_SD1")
    1316                      .dwattr $C$DW$124, DW_AT_bit_offset(0x0f), DW_AT_bit_size(0x01)
    1317                      .dwattr $C$DW$124, DW_AT_data_member_location[DW_OP_plus_uconst 0x0]
    1318                      .dwattr $C$DW$124, DW_AT_accessibility(DW_ACCESS_public)
    1319              $C$DW$125       .dwtag  DW_TAG_member
    1320                      .dwattr $C$DW$125, DW_AT_type(*$C$DW$T$19)
    1321                      .dwattr $C$DW$125, DW_AT_name("SD2")
    1322                      .dwattr $C$DW$125, DW_AT_TI_symbol_name("_SD2")
    1323                      .dwattr $C$DW$125, DW_AT_bit_offset(0x0e), DW_AT_bit_size(0x01)
    1324                      .dwattr $C$DW$125, DW_AT_data_member_location[DW_OP_plus_uconst 0x0]
    1325                      .dwattr $C$DW$125, DW_AT_accessibility(DW_ACCESS_public)
    1326              $C$DW$126       .dwtag  DW_TAG_member
TMS320C2000 Assembler PC v6.1.3 Tue Oct 01 15:27:14 2013

Tools Copyright (c) 1996-2012 Texas Instruments Incorporated
C:\Users\a0272466\AppData\Local\Temp\0780810                         PAGE   26

    1327                      .dwattr $C$DW$126, DW_AT_type(*$C$DW$T$19)
    1328                      .dwattr $C$DW$126, DW_AT_name("rsvd1")
    1329                      .dwattr $C$DW$126, DW_AT_TI_symbol_name("_rsvd1")
    1330                      .dwattr $C$DW$126, DW_AT_bit_offset(0x00), DW_AT_bit_size(0x0e)
    1331                      .dwattr $C$DW$126, DW_AT_data_member_location[DW_OP_plus_uconst 0x0]
    1332                      .dwattr $C$DW$126, DW_AT_accessibility(DW_ACCESS_public)
    1333              $C$DW$127       .dwtag  DW_TAG_member
    1334                      .dwattr $C$DW$127, DW_AT_type(*$C$DW$T$19)
    1335                      .dwattr $C$DW$127, DW_AT_name("rsvd2")
    1336                      .dwattr $C$DW$127, DW_AT_TI_symbol_name("_rsvd2")
    1337                      .dwattr $C$DW$127, DW_AT_bit_offset(0x00), DW_AT_bit_size(0x10)
    1338                      .dwattr $C$DW$127, DW_AT_data_member_location[DW_OP_plus_uconst 0x1]
    1339                      .dwattr $C$DW$127, DW_AT_accessibility(DW_ACCESS_public)
    1340                      .dwendtag $C$DW$T$39
    1341              
    1342              
    1343              $C$DW$T$40      .dwtag  DW_TAG_union_type
    1344                      .dwattr $C$DW$T$40, DW_AT_name("CPUSEL4_REG")
    1345                      .dwattr $C$DW$T$40, DW_AT_byte_size(0x02)
    1346              $C$DW$128       .dwtag  DW_TAG_member
    1347                      .dwattr $C$DW$128, DW_AT_type(*$C$DW$T$21)
    1348                      .dwattr $C$DW$128, DW_AT_name("all")
    1349                      .dwattr $C$DW$128, DW_AT_TI_symbol_name("_all")
    1350                      .dwattr $C$DW$128, DW_AT_data_member_location[DW_OP_plus_uconst 0x0]
    1351                      .dwattr $C$DW$128, DW_AT_accessibility(DW_ACCESS_public)
    1352              $C$DW$129       .dwtag  DW_TAG_member
    1353                      .dwattr $C$DW$129, DW_AT_type(*$C$DW$T$39)
    1354                      .dwattr $C$DW$129, DW_AT_name("bit")
    1355                      .dwattr $C$DW$129, DW_AT_TI_symbol_name("_bit")
    1356                      .dwattr $C$DW$129, DW_AT_data_member_location[DW_OP_plus_uconst 0x0]
    1357                      .dwattr $C$DW$129, DW_AT_accessibility(DW_ACCESS_public)
    1358                      .dwendtag $C$DW$T$40
    1359              
    1360              
    1361              $C$DW$T$41      .dwtag  DW_TAG_structure_type
    1362                      .dwattr $C$DW$T$41, DW_AT_name("CPUSEL5_BITS")
    1363                      .dwattr $C$DW$T$41, DW_AT_byte_size(0x02)
    1364              $C$DW$130       .dwtag  DW_TAG_member
    1365                      .dwattr $C$DW$130, DW_AT_type(*$C$DW$T$19)
    1366                      .dwattr $C$DW$130, DW_AT_name("SCI_A")
    1367                      .dwattr $C$DW$130, DW_AT_TI_symbol_name("_SCI_A")
    1368                      .dwattr $C$DW$130, DW_AT_bit_offset(0x0f), DW_AT_bit_size(0x01)
    1369                      .dwattr $C$DW$130, DW_AT_data_member_location[DW_OP_plus_uconst 0x0]
    1370                      .dwattr $C$DW$130, DW_AT_accessibility(DW_ACCESS_public)
    1371              $C$DW$131       .dwtag  DW_TAG_member
    1372                      .dwattr $C$DW$131, DW_AT_type(*$C$DW$T$19)
    1373                      .dwattr $C$DW$131, DW_AT_name("SCI_B")
    1374                      .dwattr $C$DW$131, DW_AT_TI_symbol_name("_SCI_B")
    1375                      .dwattr $C$DW$131, DW_AT_bit_offset(0x0e), DW_AT_bit_size(0x01)
    1376                      .dwattr $C$DW$131, DW_AT_data_member_location[DW_OP_plus_uconst 0x0]
    1377                      .dwattr $C$DW$131, DW_AT_accessibility(DW_ACCESS_public)
    1378              $C$DW$132       .dwtag  DW_TAG_member
    1379                      .dwattr $C$DW$132, DW_AT_type(*$C$DW$T$19)
    1380                      .dwattr $C$DW$132, DW_AT_name("SCI_C")
    1381                      .dwattr $C$DW$132, DW_AT_TI_symbol_name("_SCI_C")
TMS320C2000 Assembler PC v6.1.3 Tue Oct 01 15:27:14 2013

Tools Copyright (c) 1996-2012 Texas Instruments Incorporated
C:\Users\a0272466\AppData\Local\Temp\0780810                         PAGE   27

    1382                      .dwattr $C$DW$132, DW_AT_bit_offset(0x0d), DW_AT_bit_size(0x01)
    1383                      .dwattr $C$DW$132, DW_AT_data_member_location[DW_OP_plus_uconst 0x0]
    1384                      .dwattr $C$DW$132, DW_AT_accessibility(DW_ACCESS_public)
    1385              $C$DW$133       .dwtag  DW_TAG_member
    1386                      .dwattr $C$DW$133, DW_AT_type(*$C$DW$T$19)
    1387                      .dwattr $C$DW$133, DW_AT_name("SCI_D")
    1388                      .dwattr $C$DW$133, DW_AT_TI_symbol_name("_SCI_D")
    1389                      .dwattr $C$DW$133, DW_AT_bit_offset(0x0c), DW_AT_bit_size(0x01)
    1390                      .dwattr $C$DW$133, DW_AT_data_member_location[DW_OP_plus_uconst 0x0]
    1391                      .dwattr $C$DW$133, DW_AT_accessibility(DW_ACCESS_public)
    1392              $C$DW$134       .dwtag  DW_TAG_member
    1393                      .dwattr $C$DW$134, DW_AT_type(*$C$DW$T$19)
    1394                      .dwattr $C$DW$134, DW_AT_name("rsvd1")
    1395                      .dwattr $C$DW$134, DW_AT_TI_symbol_name("_rsvd1")
    1396                      .dwattr $C$DW$134, DW_AT_bit_offset(0x00), DW_AT_bit_size(0x0c)
    1397                      .dwattr $C$DW$134, DW_AT_data_member_location[DW_OP_plus_uconst 0x0]
    1398                      .dwattr $C$DW$134, DW_AT_accessibility(DW_ACCESS_public)
    1399              $C$DW$135       .dwtag  DW_TAG_member
    1400                      .dwattr $C$DW$135, DW_AT_type(*$C$DW$T$19)
    1401                      .dwattr $C$DW$135, DW_AT_name("rsvd2")
    1402                      .dwattr $C$DW$135, DW_AT_TI_symbol_name("_rsvd2")
    1403                      .dwattr $C$DW$135, DW_AT_bit_offset(0x00), DW_AT_bit_size(0x10)
    1404                      .dwattr $C$DW$135, DW_AT_data_member_location[DW_OP_plus_uconst 0x1]
    1405                      .dwattr $C$DW$135, DW_AT_accessibility(DW_ACCESS_public)
    1406                      .dwendtag $C$DW$T$41
    1407              
    1408              
    1409              $C$DW$T$42      .dwtag  DW_TAG_union_type
    1410                      .dwattr $C$DW$T$42, DW_AT_name("CPUSEL5_REG")
    1411                      .dwattr $C$DW$T$42, DW_AT_byte_size(0x02)
    1412              $C$DW$136       .dwtag  DW_TAG_member
    1413                      .dwattr $C$DW$136, DW_AT_type(*$C$DW$T$21)
    1414                      .dwattr $C$DW$136, DW_AT_name("all")
    1415                      .dwattr $C$DW$136, DW_AT_TI_symbol_name("_all")
    1416                      .dwattr $C$DW$136, DW_AT_data_member_location[DW_OP_plus_uconst 0x0]
    1417                      .dwattr $C$DW$136, DW_AT_accessibility(DW_ACCESS_public)
    1418              $C$DW$137       .dwtag  DW_TAG_member
    1419                      .dwattr $C$DW$137, DW_AT_type(*$C$DW$T$41)
    1420                      .dwattr $C$DW$137, DW_AT_name("bit")
    1421                      .dwattr $C$DW$137, DW_AT_TI_symbol_name("_bit")
    1422                      .dwattr $C$DW$137, DW_AT_data_member_location[DW_OP_plus_uconst 0x0]
    1423                      .dwattr $C$DW$137, DW_AT_accessibility(DW_ACCESS_public)
    1424                      .dwendtag $C$DW$T$42
    1425              
    1426              
    1427              $C$DW$T$43      .dwtag  DW_TAG_structure_type
    1428                      .dwattr $C$DW$T$43, DW_AT_name("CPUSEL6_BITS")
    1429                      .dwattr $C$DW$T$43, DW_AT_byte_size(0x02)
    1430              $C$DW$138       .dwtag  DW_TAG_member
    1431                      .dwattr $C$DW$138, DW_AT_type(*$C$DW$T$19)
    1432                      .dwattr $C$DW$138, DW_AT_name("SPI_A")
    1433                      .dwattr $C$DW$138, DW_AT_TI_symbol_name("_SPI_A")
    1434                      .dwattr $C$DW$138, DW_AT_bit_offset(0x0f), DW_AT_bit_size(0x01)
    1435                      .dwattr $C$DW$138, DW_AT_data_member_location[DW_OP_plus_uconst 0x0]
    1436                      .dwattr $C$DW$138, DW_AT_accessibility(DW_ACCESS_public)
TMS320C2000 Assembler PC v6.1.3 Tue Oct 01 15:27:14 2013

Tools Copyright (c) 1996-2012 Texas Instruments Incorporated
C:\Users\a0272466\AppData\Local\Temp\0780810                         PAGE   28

    1437              $C$DW$139       .dwtag  DW_TAG_member
    1438                      .dwattr $C$DW$139, DW_AT_type(*$C$DW$T$19)
    1439                      .dwattr $C$DW$139, DW_AT_name("SPI_B")
    1440                      .dwattr $C$DW$139, DW_AT_TI_symbol_name("_SPI_B")
    1441                      .dwattr $C$DW$139, DW_AT_bit_offset(0x0e), DW_AT_bit_size(0x01)
    1442                      .dwattr $C$DW$139, DW_AT_data_member_location[DW_OP_plus_uconst 0x0]
    1443                      .dwattr $C$DW$139, DW_AT_accessibility(DW_ACCESS_public)
    1444              $C$DW$140       .dwtag  DW_TAG_member
    1445                      .dwattr $C$DW$140, DW_AT_type(*$C$DW$T$19)
    1446                      .dwattr $C$DW$140, DW_AT_name("SPI_C")
    1447                      .dwattr $C$DW$140, DW_AT_TI_symbol_name("_SPI_C")
    1448                      .dwattr $C$DW$140, DW_AT_bit_offset(0x0d), DW_AT_bit_size(0x01)
    1449                      .dwattr $C$DW$140, DW_AT_data_member_location[DW_OP_plus_uconst 0x0]
    1450                      .dwattr $C$DW$140, DW_AT_accessibility(DW_ACCESS_public)
    1451              $C$DW$141       .dwtag  DW_TAG_member
    1452                      .dwattr $C$DW$141, DW_AT_type(*$C$DW$T$19)
    1453                      .dwattr $C$DW$141, DW_AT_name("rsvd1")
    1454                      .dwattr $C$DW$141, DW_AT_TI_symbol_name("_rsvd1")
    1455                      .dwattr $C$DW$141, DW_AT_bit_offset(0x00), DW_AT_bit_size(0x0d)
    1456                      .dwattr $C$DW$141, DW_AT_data_member_location[DW_OP_plus_uconst 0x0]
    1457                      .dwattr $C$DW$141, DW_AT_accessibility(DW_ACCESS_public)
    1458              $C$DW$142       .dwtag  DW_TAG_member
    1459                      .dwattr $C$DW$142, DW_AT_type(*$C$DW$T$19)
    1460                      .dwattr $C$DW$142, DW_AT_name("rsvd2")
    1461                      .dwattr $C$DW$142, DW_AT_TI_symbol_name("_rsvd2")
    1462                      .dwattr $C$DW$142, DW_AT_bit_offset(0x00), DW_AT_bit_size(0x10)
    1463                      .dwattr $C$DW$142, DW_AT_data_member_location[DW_OP_plus_uconst 0x1]
    1464                      .dwattr $C$DW$142, DW_AT_accessibility(DW_ACCESS_public)
    1465                      .dwendtag $C$DW$T$43
    1466              
    1467              
    1468              $C$DW$T$44      .dwtag  DW_TAG_union_type
    1469                      .dwattr $C$DW$T$44, DW_AT_name("CPUSEL6_REG")
    1470                      .dwattr $C$DW$T$44, DW_AT_byte_size(0x02)
    1471              $C$DW$143       .dwtag  DW_TAG_member
    1472                      .dwattr $C$DW$143, DW_AT_type(*$C$DW$T$21)
    1473                      .dwattr $C$DW$143, DW_AT_name("all")
    1474                      .dwattr $C$DW$143, DW_AT_TI_symbol_name("_all")
    1475                      .dwattr $C$DW$143, DW_AT_data_member_location[DW_OP_plus_uconst 0x0]
    1476                      .dwattr $C$DW$143, DW_AT_accessibility(DW_ACCESS_public)
    1477              $C$DW$144       .dwtag  DW_TAG_member
    1478                      .dwattr $C$DW$144, DW_AT_type(*$C$DW$T$43)
    1479                      .dwattr $C$DW$144, DW_AT_name("bit")
    1480                      .dwattr $C$DW$144, DW_AT_TI_symbol_name("_bit")
    1481                      .dwattr $C$DW$144, DW_AT_data_member_location[DW_OP_plus_uconst 0x0]
    1482                      .dwattr $C$DW$144, DW_AT_accessibility(DW_ACCESS_public)
    1483                      .dwendtag $C$DW$T$44
    1484              
    1485              
    1486              $C$DW$T$45      .dwtag  DW_TAG_structure_type
    1487                      .dwattr $C$DW$T$45, DW_AT_name("CPUSEL7_BITS")
    1488                      .dwattr $C$DW$T$45, DW_AT_byte_size(0x02)
    1489              $C$DW$145       .dwtag  DW_TAG_member
    1490                      .dwattr $C$DW$145, DW_AT_type(*$C$DW$T$19)
    1491                      .dwattr $C$DW$145, DW_AT_name("I2C_A")
TMS320C2000 Assembler PC v6.1.3 Tue Oct 01 15:27:14 2013

Tools Copyright (c) 1996-2012 Texas Instruments Incorporated
C:\Users\a0272466\AppData\Local\Temp\0780810                         PAGE   29

    1492                      .dwattr $C$DW$145, DW_AT_TI_symbol_name("_I2C_A")
    1493                      .dwattr $C$DW$145, DW_AT_bit_offset(0x0f), DW_AT_bit_size(0x01)
    1494                      .dwattr $C$DW$145, DW_AT_data_member_location[DW_OP_plus_uconst 0x0]
    1495                      .dwattr $C$DW$145, DW_AT_accessibility(DW_ACCESS_public)
    1496              $C$DW$146       .dwtag  DW_TAG_member
    1497                      .dwattr $C$DW$146, DW_AT_type(*$C$DW$T$19)
    1498                      .dwattr $C$DW$146, DW_AT_name("I2C_B")
    1499                      .dwattr $C$DW$146, DW_AT_TI_symbol_name("_I2C_B")
    1500                      .dwattr $C$DW$146, DW_AT_bit_offset(0x0e), DW_AT_bit_size(0x01)
    1501                      .dwattr $C$DW$146, DW_AT_data_member_location[DW_OP_plus_uconst 0x0]
    1502                      .dwattr $C$DW$146, DW_AT_accessibility(DW_ACCESS_public)
    1503              $C$DW$147       .dwtag  DW_TAG_member
    1504                      .dwattr $C$DW$147, DW_AT_type(*$C$DW$T$19)
    1505                      .dwattr $C$DW$147, DW_AT_name("rsvd1")
    1506                      .dwattr $C$DW$147, DW_AT_TI_symbol_name("_rsvd1")
    1507                      .dwattr $C$DW$147, DW_AT_bit_offset(0x00), DW_AT_bit_size(0x0e)
    1508                      .dwattr $C$DW$147, DW_AT_data_member_location[DW_OP_plus_uconst 0x0]
    1509                      .dwattr $C$DW$147, DW_AT_accessibility(DW_ACCESS_public)
    1510              $C$DW$148       .dwtag  DW_TAG_member
    1511                      .dwattr $C$DW$148, DW_AT_type(*$C$DW$T$19)
    1512                      .dwattr $C$DW$148, DW_AT_name("rsvd2")
    1513                      .dwattr $C$DW$148, DW_AT_TI_symbol_name("_rsvd2")
    1514                      .dwattr $C$DW$148, DW_AT_bit_offset(0x00), DW_AT_bit_size(0x10)
    1515                      .dwattr $C$DW$148, DW_AT_data_member_location[DW_OP_plus_uconst 0x1]
    1516                      .dwattr $C$DW$148, DW_AT_accessibility(DW_ACCESS_public)
    1517                      .dwendtag $C$DW$T$45
    1518              
    1519              
    1520              $C$DW$T$46      .dwtag  DW_TAG_union_type
    1521                      .dwattr $C$DW$T$46, DW_AT_name("CPUSEL7_REG")
    1522                      .dwattr $C$DW$T$46, DW_AT_byte_size(0x02)
    1523              $C$DW$149       .dwtag  DW_TAG_member
    1524                      .dwattr $C$DW$149, DW_AT_type(*$C$DW$T$21)
    1525                      .dwattr $C$DW$149, DW_AT_name("all")
    1526                      .dwattr $C$DW$149, DW_AT_TI_symbol_name("_all")
    1527                      .dwattr $C$DW$149, DW_AT_data_member_location[DW_OP_plus_uconst 0x0]
    1528                      .dwattr $C$DW$149, DW_AT_accessibility(DW_ACCESS_public)
    1529              $C$DW$150       .dwtag  DW_TAG_member
    1530                      .dwattr $C$DW$150, DW_AT_type(*$C$DW$T$45)
    1531                      .dwattr $C$DW$150, DW_AT_name("bit")
    1532                      .dwattr $C$DW$150, DW_AT_TI_symbol_name("_bit")
    1533                      .dwattr $C$DW$150, DW_AT_data_member_location[DW_OP_plus_uconst 0x0]
    1534                      .dwattr $C$DW$150, DW_AT_accessibility(DW_ACCESS_public)
    1535                      .dwendtag $C$DW$T$46
    1536              
    1537              
    1538              $C$DW$T$47      .dwtag  DW_TAG_structure_type
    1539                      .dwattr $C$DW$T$47, DW_AT_name("CPUSEL8_BITS")
    1540                      .dwattr $C$DW$T$47, DW_AT_byte_size(0x02)
    1541              $C$DW$151       .dwtag  DW_TAG_member
    1542                      .dwattr $C$DW$151, DW_AT_type(*$C$DW$T$19)
    1543                      .dwattr $C$DW$151, DW_AT_name("CAN_A")
    1544                      .dwattr $C$DW$151, DW_AT_TI_symbol_name("_CAN_A")
    1545                      .dwattr $C$DW$151, DW_AT_bit_offset(0x0f), DW_AT_bit_size(0x01)
    1546                      .dwattr $C$DW$151, DW_AT_data_member_location[DW_OP_plus_uconst 0x0]
TMS320C2000 Assembler PC v6.1.3 Tue Oct 01 15:27:14 2013

Tools Copyright (c) 1996-2012 Texas Instruments Incorporated
C:\Users\a0272466\AppData\Local\Temp\0780810                         PAGE   30

    1547                      .dwattr $C$DW$151, DW_AT_accessibility(DW_ACCESS_public)
    1548              $C$DW$152       .dwtag  DW_TAG_member
    1549                      .dwattr $C$DW$152, DW_AT_type(*$C$DW$T$19)
    1550                      .dwattr $C$DW$152, DW_AT_name("CAN_B")
    1551                      .dwattr $C$DW$152, DW_AT_TI_symbol_name("_CAN_B")
    1552                      .dwattr $C$DW$152, DW_AT_bit_offset(0x0e), DW_AT_bit_size(0x01)
    1553                      .dwattr $C$DW$152, DW_AT_data_member_location[DW_OP_plus_uconst 0x0]
    1554                      .dwattr $C$DW$152, DW_AT_accessibility(DW_ACCESS_public)
    1555              $C$DW$153       .dwtag  DW_TAG_member
    1556                      .dwattr $C$DW$153, DW_AT_type(*$C$DW$T$19)
    1557                      .dwattr $C$DW$153, DW_AT_name("rsvd1")
    1558                      .dwattr $C$DW$153, DW_AT_TI_symbol_name("_rsvd1")
    1559                      .dwattr $C$DW$153, DW_AT_bit_offset(0x00), DW_AT_bit_size(0x0e)
    1560                      .dwattr $C$DW$153, DW_AT_data_member_location[DW_OP_plus_uconst 0x0]
    1561                      .dwattr $C$DW$153, DW_AT_accessibility(DW_ACCESS_public)
    1562              $C$DW$154       .dwtag  DW_TAG_member
    1563                      .dwattr $C$DW$154, DW_AT_type(*$C$DW$T$19)
    1564                      .dwattr $C$DW$154, DW_AT_name("rsvd2")
    1565                      .dwattr $C$DW$154, DW_AT_TI_symbol_name("_rsvd2")
    1566                      .dwattr $C$DW$154, DW_AT_bit_offset(0x00), DW_AT_bit_size(0x10)
    1567                      .dwattr $C$DW$154, DW_AT_data_member_location[DW_OP_plus_uconst 0x1]
    1568                      .dwattr $C$DW$154, DW_AT_accessibility(DW_ACCESS_public)
    1569                      .dwendtag $C$DW$T$47
    1570              
    1571              
    1572              $C$DW$T$48      .dwtag  DW_TAG_union_type
    1573                      .dwattr $C$DW$T$48, DW_AT_name("CPUSEL8_REG")
    1574                      .dwattr $C$DW$T$48, DW_AT_byte_size(0x02)
    1575              $C$DW$155       .dwtag  DW_TAG_member
    1576                      .dwattr $C$DW$155, DW_AT_type(*$C$DW$T$21)
    1577                      .dwattr $C$DW$155, DW_AT_name("all")
    1578                      .dwattr $C$DW$155, DW_AT_TI_symbol_name("_all")
    1579                      .dwattr $C$DW$155, DW_AT_data_member_location[DW_OP_plus_uconst 0x0]
    1580                      .dwattr $C$DW$155, DW_AT_accessibility(DW_ACCESS_public)
    1581              $C$DW$156       .dwtag  DW_TAG_member
    1582                      .dwattr $C$DW$156, DW_AT_type(*$C$DW$T$47)
    1583                      .dwattr $C$DW$156, DW_AT_name("bit")
    1584                      .dwattr $C$DW$156, DW_AT_TI_symbol_name("_bit")
    1585                      .dwattr $C$DW$156, DW_AT_data_member_location[DW_OP_plus_uconst 0x0]
    1586                      .dwattr $C$DW$156, DW_AT_accessibility(DW_ACCESS_public)
    1587                      .dwendtag $C$DW$T$48
    1588              
    1589              
    1590              $C$DW$T$49      .dwtag  DW_TAG_structure_type
    1591                      .dwattr $C$DW$T$49, DW_AT_name("CPUSEL9_BITS")
    1592                      .dwattr $C$DW$T$49, DW_AT_byte_size(0x02)
    1593              $C$DW$157       .dwtag  DW_TAG_member
    1594                      .dwattr $C$DW$157, DW_AT_type(*$C$DW$T$19)
    1595                      .dwattr $C$DW$157, DW_AT_name("McBSP_A")
    1596                      .dwattr $C$DW$157, DW_AT_TI_symbol_name("_McBSP_A")
    1597                      .dwattr $C$DW$157, DW_AT_bit_offset(0x0f), DW_AT_bit_size(0x01)
    1598                      .dwattr $C$DW$157, DW_AT_data_member_location[DW_OP_plus_uconst 0x0]
    1599                      .dwattr $C$DW$157, DW_AT_accessibility(DW_ACCESS_public)
    1600              $C$DW$158       .dwtag  DW_TAG_member
    1601                      .dwattr $C$DW$158, DW_AT_type(*$C$DW$T$19)
TMS320C2000 Assembler PC v6.1.3 Tue Oct 01 15:27:14 2013

Tools Copyright (c) 1996-2012 Texas Instruments Incorporated
C:\Users\a0272466\AppData\Local\Temp\0780810                         PAGE   31

    1602                      .dwattr $C$DW$158, DW_AT_name("McBSP_B")
    1603                      .dwattr $C$DW$158, DW_AT_TI_symbol_name("_McBSP_B")
    1604                      .dwattr $C$DW$158, DW_AT_bit_offset(0x0e), DW_AT_bit_size(0x01)
    1605                      .dwattr $C$DW$158, DW_AT_data_member_location[DW_OP_plus_uconst 0x0]
    1606                      .dwattr $C$DW$158, DW_AT_accessibility(DW_ACCESS_public)
    1607              $C$DW$159       .dwtag  DW_TAG_member
    1608                      .dwattr $C$DW$159, DW_AT_type(*$C$DW$T$19)
    1609                      .dwattr $C$DW$159, DW_AT_name("rsvd1")
    1610                      .dwattr $C$DW$159, DW_AT_TI_symbol_name("_rsvd1")
    1611                      .dwattr $C$DW$159, DW_AT_bit_offset(0x00), DW_AT_bit_size(0x0e)
    1612                      .dwattr $C$DW$159, DW_AT_data_member_location[DW_OP_plus_uconst 0x0]
    1613                      .dwattr $C$DW$159, DW_AT_accessibility(DW_ACCESS_public)
    1614              $C$DW$160       .dwtag  DW_TAG_member
    1615                      .dwattr $C$DW$160, DW_AT_type(*$C$DW$T$19)
    1616                      .dwattr $C$DW$160, DW_AT_name("rsvd2")
    1617                      .dwattr $C$DW$160, DW_AT_TI_symbol_name("_rsvd2")
    1618                      .dwattr $C$DW$160, DW_AT_bit_offset(0x00), DW_AT_bit_size(0x10)
    1619                      .dwattr $C$DW$160, DW_AT_data_member_location[DW_OP_plus_uconst 0x1]
    1620                      .dwattr $C$DW$160, DW_AT_accessibility(DW_ACCESS_public)
    1621                      .dwendtag $C$DW$T$49
    1622              
    1623              
    1624              $C$DW$T$50      .dwtag  DW_TAG_union_type
    1625                      .dwattr $C$DW$T$50, DW_AT_name("CPUSEL9_REG")
    1626                      .dwattr $C$DW$T$50, DW_AT_byte_size(0x02)
    1627              $C$DW$161       .dwtag  DW_TAG_member
    1628                      .dwattr $C$DW$161, DW_AT_type(*$C$DW$T$21)
    1629                      .dwattr $C$DW$161, DW_AT_name("all")
    1630                      .dwattr $C$DW$161, DW_AT_TI_symbol_name("_all")
    1631                      .dwattr $C$DW$161, DW_AT_data_member_location[DW_OP_plus_uconst 0x0]
    1632                      .dwattr $C$DW$161, DW_AT_accessibility(DW_ACCESS_public)
    1633              $C$DW$162       .dwtag  DW_TAG_member
    1634                      .dwattr $C$DW$162, DW_AT_type(*$C$DW$T$49)
    1635                      .dwattr $C$DW$162, DW_AT_name("bit")
    1636                      .dwattr $C$DW$162, DW_AT_TI_symbol_name("_bit")
    1637                      .dwattr $C$DW$162, DW_AT_data_member_location[DW_OP_plus_uconst 0x0]
    1638                      .dwattr $C$DW$162, DW_AT_accessibility(DW_ACCESS_public)
    1639                      .dwendtag $C$DW$T$50
    1640              
    1641              
    1642              $C$DW$T$51      .dwtag  DW_TAG_structure_type
    1643                      .dwattr $C$DW$T$51, DW_AT_name("CPUSYSLOCK1_BITS")
    1644                      .dwattr $C$DW$T$51, DW_AT_byte_size(0x02)
    1645              $C$DW$163       .dwtag  DW_TAG_member
    1646                      .dwattr $C$DW$163, DW_AT_type(*$C$DW$T$19)
    1647                      .dwattr $C$DW$163, DW_AT_name("HIBBOOTMODE")
    1648                      .dwattr $C$DW$163, DW_AT_TI_symbol_name("_HIBBOOTMODE")
    1649                      .dwattr $C$DW$163, DW_AT_bit_offset(0x0f), DW_AT_bit_size(0x01)
    1650                      .dwattr $C$DW$163, DW_AT_data_member_location[DW_OP_plus_uconst 0x0]
    1651                      .dwattr $C$DW$163, DW_AT_accessibility(DW_ACCESS_public)
    1652              $C$DW$164       .dwtag  DW_TAG_member
    1653                      .dwattr $C$DW$164, DW_AT_type(*$C$DW$T$19)
    1654                      .dwattr $C$DW$164, DW_AT_name("IORESTOREADDR")
    1655                      .dwattr $C$DW$164, DW_AT_TI_symbol_name("_IORESTOREADDR")
    1656                      .dwattr $C$DW$164, DW_AT_bit_offset(0x0e), DW_AT_bit_size(0x01)
TMS320C2000 Assembler PC v6.1.3 Tue Oct 01 15:27:14 2013

Tools Copyright (c) 1996-2012 Texas Instruments Incorporated
C:\Users\a0272466\AppData\Local\Temp\0780810                         PAGE   32

    1657                      .dwattr $C$DW$164, DW_AT_data_member_location[DW_OP_plus_uconst 0x0]
    1658                      .dwattr $C$DW$164, DW_AT_accessibility(DW_ACCESS_public)
    1659              $C$DW$165       .dwtag  DW_TAG_member
    1660                      .dwattr $C$DW$165, DW_AT_type(*$C$DW$T$19)
    1661                      .dwattr $C$DW$165, DW_AT_name("PIEVERRADDR")
    1662                      .dwattr $C$DW$165, DW_AT_TI_symbol_name("_PIEVERRADDR")
    1663                      .dwattr $C$DW$165, DW_AT_bit_offset(0x0d), DW_AT_bit_size(0x01)
    1664                      .dwattr $C$DW$165, DW_AT_data_member_location[DW_OP_plus_uconst 0x0]
    1665                      .dwattr $C$DW$165, DW_AT_accessibility(DW_ACCESS_public)
    1666              $C$DW$166       .dwtag  DW_TAG_member
    1667                      .dwattr $C$DW$166, DW_AT_type(*$C$DW$T$19)
    1668                      .dwattr $C$DW$166, DW_AT_name("PCLKCR0")
    1669                      .dwattr $C$DW$166, DW_AT_TI_symbol_name("_PCLKCR0")
    1670                      .dwattr $C$DW$166, DW_AT_bit_offset(0x0c), DW_AT_bit_size(0x01)
    1671                      .dwattr $C$DW$166, DW_AT_data_member_location[DW_OP_plus_uconst 0x0]
    1672                      .dwattr $C$DW$166, DW_AT_accessibility(DW_ACCESS_public)
    1673              $C$DW$167       .dwtag  DW_TAG_member
    1674                      .dwattr $C$DW$167, DW_AT_type(*$C$DW$T$19)
    1675                      .dwattr $C$DW$167, DW_AT_name("PCLKCR1")
    1676                      .dwattr $C$DW$167, DW_AT_TI_symbol_name("_PCLKCR1")
    1677                      .dwattr $C$DW$167, DW_AT_bit_offset(0x0b), DW_AT_bit_size(0x01)
    1678                      .dwattr $C$DW$167, DW_AT_data_member_location[DW_OP_plus_uconst 0x0]
    1679                      .dwattr $C$DW$167, DW_AT_accessibility(DW_ACCESS_public)
    1680              $C$DW$168       .dwtag  DW_TAG_member
    1681                      .dwattr $C$DW$168, DW_AT_type(*$C$DW$T$19)
    1682                      .dwattr $C$DW$168, DW_AT_name("PCLKCR2")
    1683                      .dwattr $C$DW$168, DW_AT_TI_symbol_name("_PCLKCR2")
    1684                      .dwattr $C$DW$168, DW_AT_bit_offset(0x0a), DW_AT_bit_size(0x01)
    1685                      .dwattr $C$DW$168, DW_AT_data_member_location[DW_OP_plus_uconst 0x0]
    1686                      .dwattr $C$DW$168, DW_AT_accessibility(DW_ACCESS_public)
    1687              $C$DW$169       .dwtag  DW_TAG_member
    1688                      .dwattr $C$DW$169, DW_AT_type(*$C$DW$T$19)
    1689                      .dwattr $C$DW$169, DW_AT_name("PCLKCR3")
    1690                      .dwattr $C$DW$169, DW_AT_TI_symbol_name("_PCLKCR3")
    1691                      .dwattr $C$DW$169, DW_AT_bit_offset(0x09), DW_AT_bit_size(0x01)
    1692                      .dwattr $C$DW$169, DW_AT_data_member_location[DW_OP_plus_uconst 0x0]
    1693                      .dwattr $C$DW$169, DW_AT_accessibility(DW_ACCESS_public)
    1694              $C$DW$170       .dwtag  DW_TAG_member
    1695                      .dwattr $C$DW$170, DW_AT_type(*$C$DW$T$19)
    1696                      .dwattr $C$DW$170, DW_AT_name("PCLKCR4")
    1697                      .dwattr $C$DW$170, DW_AT_TI_symbol_name("_PCLKCR4")
    1698                      .dwattr $C$DW$170, DW_AT_bit_offset(0x08), DW_AT_bit_size(0x01)
    1699                      .dwattr $C$DW$170, DW_AT_data_member_location[DW_OP_plus_uconst 0x0]
    1700                      .dwattr $C$DW$170, DW_AT_accessibility(DW_ACCESS_public)
    1701              $C$DW$171       .dwtag  DW_TAG_member
    1702                      .dwattr $C$DW$171, DW_AT_type(*$C$DW$T$19)
    1703                      .dwattr $C$DW$171, DW_AT_name("PCLKCR5")
    1704                      .dwattr $C$DW$171, DW_AT_TI_symbol_name("_PCLKCR5")
    1705                      .dwattr $C$DW$171, DW_AT_bit_offset(0x07), DW_AT_bit_size(0x01)
    1706                      .dwattr $C$DW$171, DW_AT_data_member_location[DW_OP_plus_uconst 0x0]
    1707                      .dwattr $C$DW$171, DW_AT_accessibility(DW_ACCESS_public)
    1708              $C$DW$172       .dwtag  DW_TAG_member
    1709                      .dwattr $C$DW$172, DW_AT_type(*$C$DW$T$19)
    1710                      .dwattr $C$DW$172, DW_AT_name("PCLKCR6")
    1711                      .dwattr $C$DW$172, DW_AT_TI_symbol_name("_PCLKCR6")
TMS320C2000 Assembler PC v6.1.3 Tue Oct 01 15:27:14 2013

Tools Copyright (c) 1996-2012 Texas Instruments Incorporated
C:\Users\a0272466\AppData\Local\Temp\0780810                         PAGE   33

    1712                      .dwattr $C$DW$172, DW_AT_bit_offset(0x06), DW_AT_bit_size(0x01)
    1713                      .dwattr $C$DW$172, DW_AT_data_member_location[DW_OP_plus_uconst 0x0]
    1714                      .dwattr $C$DW$172, DW_AT_accessibility(DW_ACCESS_public)
    1715              $C$DW$173       .dwtag  DW_TAG_member
    1716                      .dwattr $C$DW$173, DW_AT_type(*$C$DW$T$19)
    1717                      .dwattr $C$DW$173, DW_AT_name("PCLKCR7")
    1718                      .dwattr $C$DW$173, DW_AT_TI_symbol_name("_PCLKCR7")
    1719                      .dwattr $C$DW$173, DW_AT_bit_offset(0x05), DW_AT_bit_size(0x01)
    1720                      .dwattr $C$DW$173, DW_AT_data_member_location[DW_OP_plus_uconst 0x0]
    1721                      .dwattr $C$DW$173, DW_AT_accessibility(DW_ACCESS_public)
    1722              $C$DW$174       .dwtag  DW_TAG_member
    1723                      .dwattr $C$DW$174, DW_AT_type(*$C$DW$T$19)
    1724                      .dwattr $C$DW$174, DW_AT_name("PCLKCR8")
    1725                      .dwattr $C$DW$174, DW_AT_TI_symbol_name("_PCLKCR8")
    1726                      .dwattr $C$DW$174, DW_AT_bit_offset(0x04), DW_AT_bit_size(0x01)
    1727                      .dwattr $C$DW$174, DW_AT_data_member_location[DW_OP_plus_uconst 0x0]
    1728                      .dwattr $C$DW$174, DW_AT_accessibility(DW_ACCESS_public)
    1729              $C$DW$175       .dwtag  DW_TAG_member
    1730                      .dwattr $C$DW$175, DW_AT_type(*$C$DW$T$19)
    1731                      .dwattr $C$DW$175, DW_AT_name("PCLKCR9")
    1732                      .dwattr $C$DW$175, DW_AT_TI_symbol_name("_PCLKCR9")
    1733                      .dwattr $C$DW$175, DW_AT_bit_offset(0x03), DW_AT_bit_size(0x01)
    1734                      .dwattr $C$DW$175, DW_AT_data_member_location[DW_OP_plus_uconst 0x0]
    1735                      .dwattr $C$DW$175, DW_AT_accessibility(DW_ACCESS_public)
    1736              $C$DW$176       .dwtag  DW_TAG_member
    1737                      .dwattr $C$DW$176, DW_AT_type(*$C$DW$T$19)
    1738                      .dwattr $C$DW$176, DW_AT_name("PCLKCR10")
    1739                      .dwattr $C$DW$176, DW_AT_TI_symbol_name("_PCLKCR10")
    1740                      .dwattr $C$DW$176, DW_AT_bit_offset(0x02), DW_AT_bit_size(0x01)
    1741                      .dwattr $C$DW$176, DW_AT_data_member_location[DW_OP_plus_uconst 0x0]
    1742                      .dwattr $C$DW$176, DW_AT_accessibility(DW_ACCESS_public)
    1743              $C$DW$177       .dwtag  DW_TAG_member
    1744                      .dwattr $C$DW$177, DW_AT_type(*$C$DW$T$19)
    1745                      .dwattr $C$DW$177, DW_AT_name("PCLKCR11")
    1746                      .dwattr $C$DW$177, DW_AT_TI_symbol_name("_PCLKCR11")
    1747                      .dwattr $C$DW$177, DW_AT_bit_offset(0x01), DW_AT_bit_size(0x01)
    1748                      .dwattr $C$DW$177, DW_AT_data_member_location[DW_OP_plus_uconst 0x0]
    1749                      .dwattr $C$DW$177, DW_AT_accessibility(DW_ACCESS_public)
    1750              $C$DW$178       .dwtag  DW_TAG_member
    1751                      .dwattr $C$DW$178, DW_AT_type(*$C$DW$T$19)
    1752                      .dwattr $C$DW$178, DW_AT_name("PCLKCR12")
    1753                      .dwattr $C$DW$178, DW_AT_TI_symbol_name("_PCLKCR12")
    1754                      .dwattr $C$DW$178, DW_AT_bit_offset(0x00), DW_AT_bit_size(0x01)
    1755                      .dwattr $C$DW$178, DW_AT_data_member_location[DW_OP_plus_uconst 0x0]
    1756                      .dwattr $C$DW$178, DW_AT_accessibility(DW_ACCESS_public)
    1757              $C$DW$179       .dwtag  DW_TAG_member
    1758                      .dwattr $C$DW$179, DW_AT_type(*$C$DW$T$19)
    1759                      .dwattr $C$DW$179, DW_AT_name("PCLKCR13")
    1760                      .dwattr $C$DW$179, DW_AT_TI_symbol_name("_PCLKCR13")
    1761                      .dwattr $C$DW$179, DW_AT_bit_offset(0x0f), DW_AT_bit_size(0x01)
    1762                      .dwattr $C$DW$179, DW_AT_data_member_location[DW_OP_plus_uconst 0x1]
    1763                      .dwattr $C$DW$179, DW_AT_accessibility(DW_ACCESS_public)
    1764              $C$DW$180       .dwtag  DW_TAG_member
    1765                      .dwattr $C$DW$180, DW_AT_type(*$C$DW$T$19)
    1766                      .dwattr $C$DW$180, DW_AT_name("PCLKCR14")
TMS320C2000 Assembler PC v6.1.3 Tue Oct 01 15:27:14 2013

Tools Copyright (c) 1996-2012 Texas Instruments Incorporated
C:\Users\a0272466\AppData\Local\Temp\0780810                         PAGE   34

    1767                      .dwattr $C$DW$180, DW_AT_TI_symbol_name("_PCLKCR14")
    1768                      .dwattr $C$DW$180, DW_AT_bit_offset(0x0e), DW_AT_bit_size(0x01)
    1769                      .dwattr $C$DW$180, DW_AT_data_member_location[DW_OP_plus_uconst 0x1]
    1770                      .dwattr $C$DW$180, DW_AT_accessibility(DW_ACCESS_public)
    1771              $C$DW$181       .dwtag  DW_TAG_member
    1772                      .dwattr $C$DW$181, DW_AT_type(*$C$DW$T$19)
    1773                      .dwattr $C$DW$181, DW_AT_name("PCLKCR15")
    1774                      .dwattr $C$DW$181, DW_AT_TI_symbol_name("_PCLKCR15")
    1775                      .dwattr $C$DW$181, DW_AT_bit_offset(0x0d), DW_AT_bit_size(0x01)
    1776                      .dwattr $C$DW$181, DW_AT_data_member_location[DW_OP_plus_uconst 0x1]
    1777                      .dwattr $C$DW$181, DW_AT_accessibility(DW_ACCESS_public)
    1778              $C$DW$182       .dwtag  DW_TAG_member
    1779                      .dwattr $C$DW$182, DW_AT_type(*$C$DW$T$19)
    1780                      .dwattr $C$DW$182, DW_AT_name("PCLKCR16")
    1781                      .dwattr $C$DW$182, DW_AT_TI_symbol_name("_PCLKCR16")
    1782                      .dwattr $C$DW$182, DW_AT_bit_offset(0x0c), DW_AT_bit_size(0x01)
    1783                      .dwattr $C$DW$182, DW_AT_data_member_location[DW_OP_plus_uconst 0x1]
    1784                      .dwattr $C$DW$182, DW_AT_accessibility(DW_ACCESS_public)
    1785              $C$DW$183       .dwtag  DW_TAG_member
    1786                      .dwattr $C$DW$183, DW_AT_type(*$C$DW$T$19)
    1787                      .dwattr $C$DW$183, DW_AT_name("SECMSEL")
    1788                      .dwattr $C$DW$183, DW_AT_TI_symbol_name("_SECMSEL")
    1789                      .dwattr $C$DW$183, DW_AT_bit_offset(0x0b), DW_AT_bit_size(0x01)
    1790                      .dwattr $C$DW$183, DW_AT_data_member_location[DW_OP_plus_uconst 0x1]
    1791                      .dwattr $C$DW$183, DW_AT_accessibility(DW_ACCESS_public)
    1792              $C$DW$184       .dwtag  DW_TAG_member
    1793                      .dwattr $C$DW$184, DW_AT_type(*$C$DW$T$19)
    1794                      .dwattr $C$DW$184, DW_AT_name("LPMCR")
    1795                      .dwattr $C$DW$184, DW_AT_TI_symbol_name("_LPMCR")
    1796                      .dwattr $C$DW$184, DW_AT_bit_offset(0x0a), DW_AT_bit_size(0x01)
    1797                      .dwattr $C$DW$184, DW_AT_data_member_location[DW_OP_plus_uconst 0x1]
    1798                      .dwattr $C$DW$184, DW_AT_accessibility(DW_ACCESS_public)
    1799              $C$DW$185       .dwtag  DW_TAG_member
    1800                      .dwattr $C$DW$185, DW_AT_type(*$C$DW$T$19)
    1801                      .dwattr $C$DW$185, DW_AT_name("GPIOLPMSEL0")
    1802                      .dwattr $C$DW$185, DW_AT_TI_symbol_name("_GPIOLPMSEL0")
    1803                      .dwattr $C$DW$185, DW_AT_bit_offset(0x09), DW_AT_bit_size(0x01)
    1804                      .dwattr $C$DW$185, DW_AT_data_member_location[DW_OP_plus_uconst 0x1]
    1805                      .dwattr $C$DW$185, DW_AT_accessibility(DW_ACCESS_public)
    1806              $C$DW$186       .dwtag  DW_TAG_member
    1807                      .dwattr $C$DW$186, DW_AT_type(*$C$DW$T$19)
    1808                      .dwattr $C$DW$186, DW_AT_name("GPIOLPMSEL1")
    1809                      .dwattr $C$DW$186, DW_AT_TI_symbol_name("_GPIOLPMSEL1")
    1810                      .dwattr $C$DW$186, DW_AT_bit_offset(0x08), DW_AT_bit_size(0x01)
    1811                      .dwattr $C$DW$186, DW_AT_data_member_location[DW_OP_plus_uconst 0x1]
    1812                      .dwattr $C$DW$186, DW_AT_accessibility(DW_ACCESS_public)
    1813              $C$DW$187       .dwtag  DW_TAG_member
    1814                      .dwattr $C$DW$187, DW_AT_type(*$C$DW$T$19)
    1815                      .dwattr $C$DW$187, DW_AT_name("rsvd1")
    1816                      .dwattr $C$DW$187, DW_AT_TI_symbol_name("_rsvd1")
    1817                      .dwattr $C$DW$187, DW_AT_bit_offset(0x00), DW_AT_bit_size(0x08)
    1818                      .dwattr $C$DW$187, DW_AT_data_member_location[DW_OP_plus_uconst 0x1]
    1819                      .dwattr $C$DW$187, DW_AT_accessibility(DW_ACCESS_public)
    1820                      .dwendtag $C$DW$T$51
    1821              
TMS320C2000 Assembler PC v6.1.3 Tue Oct 01 15:27:14 2013

Tools Copyright (c) 1996-2012 Texas Instruments Incorporated
C:\Users\a0272466\AppData\Local\Temp\0780810                         PAGE   35

    1822              
    1823              $C$DW$T$52      .dwtag  DW_TAG_union_type
    1824                      .dwattr $C$DW$T$52, DW_AT_name("CPUSYSLOCK1_REG")
    1825                      .dwattr $C$DW$T$52, DW_AT_byte_size(0x02)
    1826              $C$DW$188       .dwtag  DW_TAG_member
    1827                      .dwattr $C$DW$188, DW_AT_type(*$C$DW$T$21)
    1828                      .dwattr $C$DW$188, DW_AT_name("all")
    1829                      .dwattr $C$DW$188, DW_AT_TI_symbol_name("_all")
    1830                      .dwattr $C$DW$188, DW_AT_data_member_location[DW_OP_plus_uconst 0x0]
    1831                      .dwattr $C$DW$188, DW_AT_accessibility(DW_ACCESS_public)
    1832              $C$DW$189       .dwtag  DW_TAG_member
    1833                      .dwattr $C$DW$189, DW_AT_type(*$C$DW$T$51)
    1834                      .dwattr $C$DW$189, DW_AT_name("bit")
    1835                      .dwattr $C$DW$189, DW_AT_TI_symbol_name("_bit")
    1836                      .dwattr $C$DW$189, DW_AT_data_member_location[DW_OP_plus_uconst 0x0]
    1837                      .dwattr $C$DW$189, DW_AT_accessibility(DW_ACCESS_public)
    1838                      .dwendtag $C$DW$T$52
    1839              
    1840              
    1841              $C$DW$T$57      .dwtag  DW_TAG_structure_type
    1842                      .dwattr $C$DW$T$57, DW_AT_name("CPU_SYS_REGS")
    1843                      .dwattr $C$DW$T$57, DW_AT_byte_size(0x82)
    1844              $C$DW$190       .dwtag  DW_TAG_member
    1845                      .dwattr $C$DW$190, DW_AT_type(*$C$DW$T$52)
    1846                      .dwattr $C$DW$190, DW_AT_name("CPUSYSLOCK1")
    1847                      .dwattr $C$DW$190, DW_AT_TI_symbol_name("_CPUSYSLOCK1")
    1848                      .dwattr $C$DW$190, DW_AT_data_member_location[DW_OP_plus_uconst 0x0]
    1849                      .dwattr $C$DW$190, DW_AT_accessibility(DW_ACCESS_public)
    1850              $C$DW$191       .dwtag  DW_TAG_member
    1851                      .dwattr $C$DW$191, DW_AT_type(*$C$DW$T$53)
    1852                      .dwattr $C$DW$191, DW_AT_name("rsvd1")
    1853                      .dwattr $C$DW$191, DW_AT_TI_symbol_name("_rsvd1")
    1854                      .dwattr $C$DW$191, DW_AT_data_member_location[DW_OP_plus_uconst 0x2]
    1855                      .dwattr $C$DW$191, DW_AT_accessibility(DW_ACCESS_public)
    1856              $C$DW$192       .dwtag  DW_TAG_member
    1857                      .dwattr $C$DW$192, DW_AT_type(*$C$DW$T$21)
    1858                      .dwattr $C$DW$192, DW_AT_name("HIBBOOTMODE")
    1859                      .dwattr $C$DW$192, DW_AT_TI_symbol_name("_HIBBOOTMODE")
    1860                      .dwattr $C$DW$192, DW_AT_data_member_location[DW_OP_plus_uconst 0x6]
    1861                      .dwattr $C$DW$192, DW_AT_accessibility(DW_ACCESS_public)
    1862              $C$DW$193       .dwtag  DW_TAG_member
    1863                      .dwattr $C$DW$193, DW_AT_type(*$C$DW$T$349)
    1864                      .dwattr $C$DW$193, DW_AT_name("IORESTOREADDR")
    1865                      .dwattr $C$DW$193, DW_AT_TI_symbol_name("_IORESTOREADDR")
    1866                      .dwattr $C$DW$193, DW_AT_data_member_location[DW_OP_plus_uconst 0x8]
    1867                      .dwattr $C$DW$193, DW_AT_accessibility(DW_ACCESS_public)
    1868              $C$DW$194       .dwtag  DW_TAG_member
    1869                      .dwattr $C$DW$194, DW_AT_type(*$C$DW$T$391)
    1870                      .dwattr $C$DW$194, DW_AT_name("PIEVERRADDR")
    1871                      .dwattr $C$DW$194, DW_AT_TI_symbol_name("_PIEVERRADDR")
    1872                      .dwattr $C$DW$194, DW_AT_data_member_location[DW_OP_plus_uconst 0xa]
    1873                      .dwattr $C$DW$194, DW_AT_accessibility(DW_ACCESS_public)
    1874              $C$DW$195       .dwtag  DW_TAG_member
    1875                      .dwattr $C$DW$195, DW_AT_type(*$C$DW$T$54)
    1876                      .dwattr $C$DW$195, DW_AT_name("rsvd2")
TMS320C2000 Assembler PC v6.1.3 Tue Oct 01 15:27:14 2013

Tools Copyright (c) 1996-2012 Texas Instruments Incorporated
C:\Users\a0272466\AppData\Local\Temp\0780810                         PAGE   36

    1877                      .dwattr $C$DW$195, DW_AT_TI_symbol_name("_rsvd2")
    1878                      .dwattr $C$DW$195, DW_AT_data_member_location[DW_OP_plus_uconst 0xc]
    1879                      .dwattr $C$DW$195, DW_AT_accessibility(DW_ACCESS_public)
    1880              $C$DW$196       .dwtag  DW_TAG_member
    1881                      .dwattr $C$DW$196, DW_AT_type(*$C$DW$T$357)
    1882                      .dwattr $C$DW$196, DW_AT_name("PCLKCR0")
    1883                      .dwattr $C$DW$196, DW_AT_TI_symbol_name("_PCLKCR0")
    1884                      .dwattr $C$DW$196, DW_AT_data_member_location[DW_OP_plus_uconst 0x22]
    1885                      .dwattr $C$DW$196, DW_AT_accessibility(DW_ACCESS_public)
    1886              $C$DW$197       .dwtag  DW_TAG_member
    1887                      .dwattr $C$DW$197, DW_AT_type(*$C$DW$T$371)
    1888                      .dwattr $C$DW$197, DW_AT_name("PCLKCR1")
    1889                      .dwattr $C$DW$197, DW_AT_TI_symbol_name("_PCLKCR1")
    1890                      .dwattr $C$DW$197, DW_AT_data_member_location[DW_OP_plus_uconst 0x24]
    1891                      .dwattr $C$DW$197, DW_AT_accessibility(DW_ACCESS_public)
    1892              $C$DW$198       .dwtag  DW_TAG_member
    1893                      .dwattr $C$DW$198, DW_AT_type(*$C$DW$T$373)
    1894                      .dwattr $C$DW$198, DW_AT_name("PCLKCR2")
    1895                      .dwattr $C$DW$198, DW_AT_TI_symbol_name("_PCLKCR2")
    1896                      .dwattr $C$DW$198, DW_AT_data_member_location[DW_OP_plus_uconst 0x26]
    1897                      .dwattr $C$DW$198, DW_AT_accessibility(DW_ACCESS_public)
    1898              $C$DW$199       .dwtag  DW_TAG_member
    1899                      .dwattr $C$DW$199, DW_AT_type(*$C$DW$T$375)
    1900                      .dwattr $C$DW$199, DW_AT_name("PCLKCR3")
    1901                      .dwattr $C$DW$199, DW_AT_TI_symbol_name("_PCLKCR3")
    1902                      .dwattr $C$DW$199, DW_AT_data_member_location[DW_OP_plus_uconst 0x28]
    1903                      .dwattr $C$DW$199, DW_AT_accessibility(DW_ACCESS_public)
    1904              $C$DW$200       .dwtag  DW_TAG_member
    1905                      .dwattr $C$DW$200, DW_AT_type(*$C$DW$T$377)
    1906                      .dwattr $C$DW$200, DW_AT_name("PCLKCR4")
    1907                      .dwattr $C$DW$200, DW_AT_TI_symbol_name("_PCLKCR4")
    1908                      .dwattr $C$DW$200, DW_AT_data_member_location[DW_OP_plus_uconst 0x2a]
    1909                      .dwattr $C$DW$200, DW_AT_accessibility(DW_ACCESS_public)
    1910              $C$DW$201       .dwtag  DW_TAG_member
    1911                      .dwattr $C$DW$201, DW_AT_type(*$C$DW$T$379)
    1912                      .dwattr $C$DW$201, DW_AT_name("PCLKCR5")
    1913                      .dwattr $C$DW$201, DW_AT_TI_symbol_name("_PCLKCR5")
    1914                      .dwattr $C$DW$201, DW_AT_data_member_location[DW_OP_plus_uconst 0x2c]
    1915                      .dwattr $C$DW$201, DW_AT_accessibility(DW_ACCESS_public)
    1916              $C$DW$202       .dwtag  DW_TAG_member
    1917                      .dwattr $C$DW$202, DW_AT_type(*$C$DW$T$381)
    1918                      .dwattr $C$DW$202, DW_AT_name("PCLKCR6")
    1919                      .dwattr $C$DW$202, DW_AT_TI_symbol_name("_PCLKCR6")
    1920                      .dwattr $C$DW$202, DW_AT_data_member_location[DW_OP_plus_uconst 0x2e]
    1921                      .dwattr $C$DW$202, DW_AT_accessibility(DW_ACCESS_public)
    1922              $C$DW$203       .dwtag  DW_TAG_member
    1923                      .dwattr $C$DW$203, DW_AT_type(*$C$DW$T$383)
    1924                      .dwattr $C$DW$203, DW_AT_name("PCLKCR7")
    1925                      .dwattr $C$DW$203, DW_AT_TI_symbol_name("_PCLKCR7")
    1926                      .dwattr $C$DW$203, DW_AT_data_member_location[DW_OP_plus_uconst 0x30]
    1927                      .dwattr $C$DW$203, DW_AT_accessibility(DW_ACCESS_public)
    1928              $C$DW$204       .dwtag  DW_TAG_member
    1929                      .dwattr $C$DW$204, DW_AT_type(*$C$DW$T$385)
    1930                      .dwattr $C$DW$204, DW_AT_name("PCLKCR8")
    1931                      .dwattr $C$DW$204, DW_AT_TI_symbol_name("_PCLKCR8")
TMS320C2000 Assembler PC v6.1.3 Tue Oct 01 15:27:14 2013

Tools Copyright (c) 1996-2012 Texas Instruments Incorporated
C:\Users\a0272466\AppData\Local\Temp\0780810                         PAGE   37

    1932                      .dwattr $C$DW$204, DW_AT_data_member_location[DW_OP_plus_uconst 0x32]
    1933                      .dwattr $C$DW$204, DW_AT_accessibility(DW_ACCESS_public)
    1934              $C$DW$205       .dwtag  DW_TAG_member
    1935                      .dwattr $C$DW$205, DW_AT_type(*$C$DW$T$387)
    1936                      .dwattr $C$DW$205, DW_AT_name("PCLKCR9")
    1937                      .dwattr $C$DW$205, DW_AT_TI_symbol_name("_PCLKCR9")
    1938                      .dwattr $C$DW$205, DW_AT_data_member_location[DW_OP_plus_uconst 0x34]
    1939                      .dwattr $C$DW$205, DW_AT_accessibility(DW_ACCESS_public)
    1940              $C$DW$206       .dwtag  DW_TAG_member
    1941                      .dwattr $C$DW$206, DW_AT_type(*$C$DW$T$359)
    1942                      .dwattr $C$DW$206, DW_AT_name("PCLKCR10")
    1943                      .dwattr $C$DW$206, DW_AT_TI_symbol_name("_PCLKCR10")
    1944                      .dwattr $C$DW$206, DW_AT_data_member_location[DW_OP_plus_uconst 0x36]
    1945                      .dwattr $C$DW$206, DW_AT_accessibility(DW_ACCESS_public)
    1946              $C$DW$207       .dwtag  DW_TAG_member
    1947                      .dwattr $C$DW$207, DW_AT_type(*$C$DW$T$361)
    1948                      .dwattr $C$DW$207, DW_AT_name("PCLKCR11")
    1949                      .dwattr $C$DW$207, DW_AT_TI_symbol_name("_PCLKCR11")
    1950                      .dwattr $C$DW$207, DW_AT_data_member_location[DW_OP_plus_uconst 0x38]
    1951                      .dwattr $C$DW$207, DW_AT_accessibility(DW_ACCESS_public)
    1952              $C$DW$208       .dwtag  DW_TAG_member
    1953                      .dwattr $C$DW$208, DW_AT_type(*$C$DW$T$363)
    1954                      .dwattr $C$DW$208, DW_AT_name("PCLKCR12")
    1955                      .dwattr $C$DW$208, DW_AT_TI_symbol_name("_PCLKCR12")
    1956                      .dwattr $C$DW$208, DW_AT_data_member_location[DW_OP_plus_uconst 0x3a]
    1957                      .dwattr $C$DW$208, DW_AT_accessibility(DW_ACCESS_public)
    1958              $C$DW$209       .dwtag  DW_TAG_member
    1959                      .dwattr $C$DW$209, DW_AT_type(*$C$DW$T$365)
    1960                      .dwattr $C$DW$209, DW_AT_name("PCLKCR13")
    1961                      .dwattr $C$DW$209, DW_AT_TI_symbol_name("_PCLKCR13")
    1962                      .dwattr $C$DW$209, DW_AT_data_member_location[DW_OP_plus_uconst 0x3c]
    1963                      .dwattr $C$DW$209, DW_AT_accessibility(DW_ACCESS_public)
    1964              $C$DW$210       .dwtag  DW_TAG_member
    1965                      .dwattr $C$DW$210, DW_AT_type(*$C$DW$T$367)
    1966                      .dwattr $C$DW$210, DW_AT_name("PCLKCR14")
    1967                      .dwattr $C$DW$210, DW_AT_TI_symbol_name("_PCLKCR14")
    1968                      .dwattr $C$DW$210, DW_AT_data_member_location[DW_OP_plus_uconst 0x3e]
    1969                      .dwattr $C$DW$210, DW_AT_accessibility(DW_ACCESS_public)
    1970              $C$DW$211       .dwtag  DW_TAG_member
    1971                      .dwattr $C$DW$211, DW_AT_type(*$C$DW$T$55)
    1972                      .dwattr $C$DW$211, DW_AT_name("rsvd3")
    1973                      .dwattr $C$DW$211, DW_AT_TI_symbol_name("_rsvd3")
    1974                      .dwattr $C$DW$211, DW_AT_data_member_location[DW_OP_plus_uconst 0x40]
    1975                      .dwattr $C$DW$211, DW_AT_accessibility(DW_ACCESS_public)
    1976              $C$DW$212       .dwtag  DW_TAG_member
    1977                      .dwattr $C$DW$212, DW_AT_type(*$C$DW$T$369)
    1978                      .dwattr $C$DW$212, DW_AT_name("PCLKCR16")
    1979                      .dwattr $C$DW$212, DW_AT_TI_symbol_name("_PCLKCR16")
    1980                      .dwattr $C$DW$212, DW_AT_data_member_location[DW_OP_plus_uconst 0x42]
    1981                      .dwattr $C$DW$212, DW_AT_accessibility(DW_ACCESS_public)
    1982              $C$DW$213       .dwtag  DW_TAG_member
    1983                      .dwattr $C$DW$213, DW_AT_type(*$C$DW$T$56)
    1984                      .dwattr $C$DW$213, DW_AT_name("rsvd4")
    1985                      .dwattr $C$DW$213, DW_AT_TI_symbol_name("_rsvd4")
    1986                      .dwattr $C$DW$213, DW_AT_data_member_location[DW_OP_plus_uconst 0x44]
TMS320C2000 Assembler PC v6.1.3 Tue Oct 01 15:27:14 2013

Tools Copyright (c) 1996-2012 Texas Instruments Incorporated
C:\Users\a0272466\AppData\Local\Temp\0780810                         PAGE   38

    1987                      .dwattr $C$DW$213, DW_AT_accessibility(DW_ACCESS_public)
    1988              $C$DW$214       .dwtag  DW_TAG_member
    1989                      .dwattr $C$DW$214, DW_AT_type(*$C$DW$T$22)
    1990                      .dwattr $C$DW$214, DW_AT_name("CCR")
    1991                      .dwattr $C$DW$214, DW_AT_TI_symbol_name("_CCR")
    1992                      .dwattr $C$DW$214, DW_AT_data_member_location[DW_OP_plus_uconst 0x72]
    1993                      .dwattr $C$DW$214, DW_AT_accessibility(DW_ACCESS_public)
    1994              $C$DW$215       .dwtag  DW_TAG_member
    1995                      .dwattr $C$DW$215, DW_AT_type(*$C$DW$T$399)
    1996                      .dwattr $C$DW$215, DW_AT_name("SECMSEL")
    1997                      .dwattr $C$DW$215, DW_AT_TI_symbol_name("_SECMSEL")
    1998                      .dwattr $C$DW$215, DW_AT_data_member_location[DW_OP_plus_uconst 0x74]
    1999                      .dwattr $C$DW$215, DW_AT_accessibility(DW_ACCESS_public)
    2000              $C$DW$216       .dwtag  DW_TAG_member
    2001                      .dwattr $C$DW$216, DW_AT_type(*$C$DW$T$351)
    2002                      .dwattr $C$DW$216, DW_AT_name("LPMCR")
    2003                      .dwattr $C$DW$216, DW_AT_TI_symbol_name("_LPMCR")
    2004                      .dwattr $C$DW$216, DW_AT_data_member_location[DW_OP_plus_uconst 0x76]
    2005                      .dwattr $C$DW$216, DW_AT_accessibility(DW_ACCESS_public)
    2006              $C$DW$217       .dwtag  DW_TAG_member
    2007                      .dwattr $C$DW$217, DW_AT_type(*$C$DW$T$324)
    2008                      .dwattr $C$DW$217, DW_AT_name("GPIOLPMSEL0")
    2009                      .dwattr $C$DW$217, DW_AT_TI_symbol_name("_GPIOLPMSEL0")
    2010                      .dwattr $C$DW$217, DW_AT_data_member_location[DW_OP_plus_uconst 0x78]
    2011                      .dwattr $C$DW$217, DW_AT_accessibility(DW_ACCESS_public)
    2012              $C$DW$218       .dwtag  DW_TAG_member
    2013                      .dwattr $C$DW$218, DW_AT_type(*$C$DW$T$326)
    2014                      .dwattr $C$DW$218, DW_AT_name("GPIOLPMSEL1")
    2015                      .dwattr $C$DW$218, DW_AT_TI_symbol_name("_GPIOLPMSEL1")
    2016                      .dwattr $C$DW$218, DW_AT_data_member_location[DW_OP_plus_uconst 0x7a]
    2017                      .dwattr $C$DW$218, DW_AT_accessibility(DW_ACCESS_public)
    2018              $C$DW$219       .dwtag  DW_TAG_member
    2019                      .dwattr $C$DW$219, DW_AT_type(*$C$DW$T$431)
    2020                      .dwattr $C$DW$219, DW_AT_name("TMR2CLKCTL")
    2021                      .dwattr $C$DW$219, DW_AT_TI_symbol_name("_TMR2CLKCTL")
    2022                      .dwattr $C$DW$219, DW_AT_data_member_location[DW_OP_plus_uconst 0x7c]
    2023                      .dwattr $C$DW$219, DW_AT_accessibility(DW_ACCESS_public)
    2024              $C$DW$220       .dwtag  DW_TAG_member
    2025                      .dwattr $C$DW$220, DW_AT_type(*$C$DW$T$55)
    2026                      .dwattr $C$DW$220, DW_AT_name("rsvd5")
    2027                      .dwattr $C$DW$220, DW_AT_TI_symbol_name("_rsvd5")
    2028                      .dwattr $C$DW$220, DW_AT_data_member_location[DW_OP_plus_uconst 0x7e]
    2029                      .dwattr $C$DW$220, DW_AT_accessibility(DW_ACCESS_public)
    2030              $C$DW$221       .dwtag  DW_TAG_member
    2031                      .dwattr $C$DW$221, DW_AT_type(*$C$DW$T$395)
    2032                      .dwattr $C$DW$221, DW_AT_name("RESC")
    2033                      .dwattr $C$DW$221, DW_AT_TI_symbol_name("_RESC")
    2034                      .dwattr $C$DW$221, DW_AT_data_member_location[DW_OP_plus_uconst 0x80]
    2035                      .dwattr $C$DW$221, DW_AT_accessibility(DW_ACCESS_public)
    2036                      .dwendtag $C$DW$T$57
    2037              
    2038              $C$DW$222       .dwtag  DW_TAG_TI_far_type
    2039                      .dwattr $C$DW$222, DW_AT_type(*$C$DW$T$57)
    2040              $C$DW$T$432     .dwtag  DW_TAG_volatile_type
    2041                      .dwattr $C$DW$T$432, DW_AT_type(*$C$DW$222)
TMS320C2000 Assembler PC v6.1.3 Tue Oct 01 15:27:14 2013

Tools Copyright (c) 1996-2012 Texas Instruments Incorporated
C:\Users\a0272466\AppData\Local\Temp\0780810                         PAGE   39

    2042              
    2043              $C$DW$T$58      .dwtag  DW_TAG_structure_type
    2044                      .dwattr $C$DW$T$58, DW_AT_name("DC0_BITS")
    2045                      .dwattr $C$DW$T$58, DW_AT_byte_size(0x02)
    2046              $C$DW$223       .dwtag  DW_TAG_member
    2047                      .dwattr $C$DW$223, DW_AT_type(*$C$DW$T$19)
    2048                      .dwattr $C$DW$223, DW_AT_name("SINGLE_CORE")
    2049                      .dwattr $C$DW$223, DW_AT_TI_symbol_name("_SINGLE_CORE")
    2050                      .dwattr $C$DW$223, DW_AT_bit_offset(0x0f), DW_AT_bit_size(0x01)
    2051                      .dwattr $C$DW$223, DW_AT_data_member_location[DW_OP_plus_uconst 0x0]
    2052                      .dwattr $C$DW$223, DW_AT_accessibility(DW_ACCESS_public)
    2053              $C$DW$224       .dwtag  DW_TAG_member
    2054                      .dwattr $C$DW$224, DW_AT_type(*$C$DW$T$19)
    2055                      .dwattr $C$DW$224, DW_AT_name("rsvd1")
    2056                      .dwattr $C$DW$224, DW_AT_TI_symbol_name("_rsvd1")
    2057                      .dwattr $C$DW$224, DW_AT_bit_offset(0x00), DW_AT_bit_size(0x0f)
    2058                      .dwattr $C$DW$224, DW_AT_data_member_location[DW_OP_plus_uconst 0x0]
    2059                      .dwattr $C$DW$224, DW_AT_accessibility(DW_ACCESS_public)
    2060              $C$DW$225       .dwtag  DW_TAG_member
    2061                      .dwattr $C$DW$225, DW_AT_type(*$C$DW$T$19)
    2062                      .dwattr $C$DW$225, DW_AT_name("rsvd2")
    2063                      .dwattr $C$DW$225, DW_AT_TI_symbol_name("_rsvd2")
    2064                      .dwattr $C$DW$225, DW_AT_bit_offset(0x00), DW_AT_bit_size(0x10)
    2065                      .dwattr $C$DW$225, DW_AT_data_member_location[DW_OP_plus_uconst 0x1]
    2066                      .dwattr $C$DW$225, DW_AT_accessibility(DW_ACCESS_public)
    2067                      .dwendtag $C$DW$T$58
    2068              
    2069              
    2070              $C$DW$T$59      .dwtag  DW_TAG_union_type
    2071                      .dwattr $C$DW$T$59, DW_AT_name("DC0_REG")
    2072                      .dwattr $C$DW$T$59, DW_AT_byte_size(0x02)
    2073              $C$DW$226       .dwtag  DW_TAG_member
    2074                      .dwattr $C$DW$226, DW_AT_type(*$C$DW$T$21)
    2075                      .dwattr $C$DW$226, DW_AT_name("all")
    2076                      .dwattr $C$DW$226, DW_AT_TI_symbol_name("_all")
    2077                      .dwattr $C$DW$226, DW_AT_data_member_location[DW_OP_plus_uconst 0x0]
    2078                      .dwattr $C$DW$226, DW_AT_accessibility(DW_ACCESS_public)
    2079              $C$DW$227       .dwtag  DW_TAG_member
    2080                      .dwattr $C$DW$227, DW_AT_type(*$C$DW$T$58)
    2081                      .dwattr $C$DW$227, DW_AT_name("bit")
    2082                      .dwattr $C$DW$227, DW_AT_TI_symbol_name("_bit")
    2083                      .dwattr $C$DW$227, DW_AT_data_member_location[DW_OP_plus_uconst 0x0]
    2084                      .dwattr $C$DW$227, DW_AT_accessibility(DW_ACCESS_public)
    2085                      .dwendtag $C$DW$T$59
    2086              
    2087              
    2088              $C$DW$T$60      .dwtag  DW_TAG_structure_type
    2089                      .dwattr $C$DW$T$60, DW_AT_name("DC10_BITS")
    2090                      .dwattr $C$DW$T$60, DW_AT_byte_size(0x02)
    2091              $C$DW$228       .dwtag  DW_TAG_member
    2092                      .dwattr $C$DW$228, DW_AT_type(*$C$DW$T$19)
    2093                      .dwattr $C$DW$228, DW_AT_name("I2C_A")
    2094                      .dwattr $C$DW$228, DW_AT_TI_symbol_name("_I2C_A")
    2095                      .dwattr $C$DW$228, DW_AT_bit_offset(0x0f), DW_AT_bit_size(0x01)
    2096                      .dwattr $C$DW$228, DW_AT_data_member_location[DW_OP_plus_uconst 0x0]
TMS320C2000 Assembler PC v6.1.3 Tue Oct 01 15:27:14 2013

Tools Copyright (c) 1996-2012 Texas Instruments Incorporated
C:\Users\a0272466\AppData\Local\Temp\0780810                         PAGE   40

    2097                      .dwattr $C$DW$228, DW_AT_accessibility(DW_ACCESS_public)
    2098              $C$DW$229       .dwtag  DW_TAG_member
    2099                      .dwattr $C$DW$229, DW_AT_type(*$C$DW$T$19)
    2100                      .dwattr $C$DW$229, DW_AT_name("I2C_B")
    2101                      .dwattr $C$DW$229, DW_AT_TI_symbol_name("_I2C_B")
    2102                      .dwattr $C$DW$229, DW_AT_bit_offset(0x0e), DW_AT_bit_size(0x01)
    2103                      .dwattr $C$DW$229, DW_AT_data_member_location[DW_OP_plus_uconst 0x0]
    2104                      .dwattr $C$DW$229, DW_AT_accessibility(DW_ACCESS_public)
    2105              $C$DW$230       .dwtag  DW_TAG_member
    2106                      .dwattr $C$DW$230, DW_AT_type(*$C$DW$T$19)
    2107                      .dwattr $C$DW$230, DW_AT_name("rsvd1")
    2108                      .dwattr $C$DW$230, DW_AT_TI_symbol_name("_rsvd1")
    2109                      .dwattr $C$DW$230, DW_AT_bit_offset(0x00), DW_AT_bit_size(0x0e)
    2110                      .dwattr $C$DW$230, DW_AT_data_member_location[DW_OP_plus_uconst 0x0]
    2111                      .dwattr $C$DW$230, DW_AT_accessibility(DW_ACCESS_public)
    2112              $C$DW$231       .dwtag  DW_TAG_member
    2113                      .dwattr $C$DW$231, DW_AT_type(*$C$DW$T$19)
    2114                      .dwattr $C$DW$231, DW_AT_name("rsvd2")
    2115                      .dwattr $C$DW$231, DW_AT_TI_symbol_name("_rsvd2")
    2116                      .dwattr $C$DW$231, DW_AT_bit_offset(0x00), DW_AT_bit_size(0x10)
    2117                      .dwattr $C$DW$231, DW_AT_data_member_location[DW_OP_plus_uconst 0x1]
    2118                      .dwattr $C$DW$231, DW_AT_accessibility(DW_ACCESS_public)
    2119                      .dwendtag $C$DW$T$60
    2120              
    2121              
    2122              $C$DW$T$61      .dwtag  DW_TAG_union_type
    2123                      .dwattr $C$DW$T$61, DW_AT_name("DC10_REG")
    2124                      .dwattr $C$DW$T$61, DW_AT_byte_size(0x02)
    2125              $C$DW$232       .dwtag  DW_TAG_member
    2126                      .dwattr $C$DW$232, DW_AT_type(*$C$DW$T$21)
    2127                      .dwattr $C$DW$232, DW_AT_name("all")
    2128                      .dwattr $C$DW$232, DW_AT_TI_symbol_name("_all")
    2129                      .dwattr $C$DW$232, DW_AT_data_member_location[DW_OP_plus_uconst 0x0]
    2130                      .dwattr $C$DW$232, DW_AT_accessibility(DW_ACCESS_public)
    2131              $C$DW$233       .dwtag  DW_TAG_member
    2132                      .dwattr $C$DW$233, DW_AT_type(*$C$DW$T$60)
    2133                      .dwattr $C$DW$233, DW_AT_name("bit")
    2134                      .dwattr $C$DW$233, DW_AT_TI_symbol_name("_bit")
    2135                      .dwattr $C$DW$233, DW_AT_data_member_location[DW_OP_plus_uconst 0x0]
    2136                      .dwattr $C$DW$233, DW_AT_accessibility(DW_ACCESS_public)
    2137                      .dwendtag $C$DW$T$61
    2138              
    2139              
    2140              $C$DW$T$62      .dwtag  DW_TAG_structure_type
    2141                      .dwattr $C$DW$T$62, DW_AT_name("DC11_BITS")
    2142                      .dwattr $C$DW$T$62, DW_AT_byte_size(0x02)
    2143              $C$DW$234       .dwtag  DW_TAG_member
    2144                      .dwattr $C$DW$234, DW_AT_type(*$C$DW$T$19)
    2145                      .dwattr $C$DW$234, DW_AT_name("CAN_A")
    2146                      .dwattr $C$DW$234, DW_AT_TI_symbol_name("_CAN_A")
    2147                      .dwattr $C$DW$234, DW_AT_bit_offset(0x0f), DW_AT_bit_size(0x01)
    2148                      .dwattr $C$DW$234, DW_AT_data_member_location[DW_OP_plus_uconst 0x0]
    2149                      .dwattr $C$DW$234, DW_AT_accessibility(DW_ACCESS_public)
    2150              $C$DW$235       .dwtag  DW_TAG_member
    2151                      .dwattr $C$DW$235, DW_AT_type(*$C$DW$T$19)
TMS320C2000 Assembler PC v6.1.3 Tue Oct 01 15:27:14 2013

Tools Copyright (c) 1996-2012 Texas Instruments Incorporated
C:\Users\a0272466\AppData\Local\Temp\0780810                         PAGE   41

    2152                      .dwattr $C$DW$235, DW_AT_name("CAN_B")
    2153                      .dwattr $C$DW$235, DW_AT_TI_symbol_name("_CAN_B")
    2154                      .dwattr $C$DW$235, DW_AT_bit_offset(0x0e), DW_AT_bit_size(0x01)
    2155                      .dwattr $C$DW$235, DW_AT_data_member_location[DW_OP_plus_uconst 0x0]
    2156                      .dwattr $C$DW$235, DW_AT_accessibility(DW_ACCESS_public)
    2157              $C$DW$236       .dwtag  DW_TAG_member
    2158                      .dwattr $C$DW$236, DW_AT_type(*$C$DW$T$19)
    2159                      .dwattr $C$DW$236, DW_AT_name("rsvd1")
    2160                      .dwattr $C$DW$236, DW_AT_TI_symbol_name("_rsvd1")
    2161                      .dwattr $C$DW$236, DW_AT_bit_offset(0x00), DW_AT_bit_size(0x0e)
    2162                      .dwattr $C$DW$236, DW_AT_data_member_location[DW_OP_plus_uconst 0x0]
    2163                      .dwattr $C$DW$236, DW_AT_accessibility(DW_ACCESS_public)
    2164              $C$DW$237       .dwtag  DW_TAG_member
    2165                      .dwattr $C$DW$237, DW_AT_type(*$C$DW$T$19)
    2166                      .dwattr $C$DW$237, DW_AT_name("rsvd2")
    2167                      .dwattr $C$DW$237, DW_AT_TI_symbol_name("_rsvd2")
    2168                      .dwattr $C$DW$237, DW_AT_bit_offset(0x00), DW_AT_bit_size(0x10)
    2169                      .dwattr $C$DW$237, DW_AT_data_member_location[DW_OP_plus_uconst 0x1]
    2170                      .dwattr $C$DW$237, DW_AT_accessibility(DW_ACCESS_public)
    2171                      .dwendtag $C$DW$T$62
    2172              
    2173              
    2174              $C$DW$T$63      .dwtag  DW_TAG_union_type
    2175                      .dwattr $C$DW$T$63, DW_AT_name("DC11_REG")
    2176                      .dwattr $C$DW$T$63, DW_AT_byte_size(0x02)
    2177              $C$DW$238       .dwtag  DW_TAG_member
    2178                      .dwattr $C$DW$238, DW_AT_type(*$C$DW$T$21)
    2179                      .dwattr $C$DW$238, DW_AT_name("all")
    2180                      .dwattr $C$DW$238, DW_AT_TI_symbol_name("_all")
    2181                      .dwattr $C$DW$238, DW_AT_data_member_location[DW_OP_plus_uconst 0x0]
    2182                      .dwattr $C$DW$238, DW_AT_accessibility(DW_ACCESS_public)
    2183              $C$DW$239       .dwtag  DW_TAG_member
    2184                      .dwattr $C$DW$239, DW_AT_type(*$C$DW$T$62)
    2185                      .dwattr $C$DW$239, DW_AT_name("bit")
    2186                      .dwattr $C$DW$239, DW_AT_TI_symbol_name("_bit")
    2187                      .dwattr $C$DW$239, DW_AT_data_member_location[DW_OP_plus_uconst 0x0]
    2188                      .dwattr $C$DW$239, DW_AT_accessibility(DW_ACCESS_public)
    2189                      .dwendtag $C$DW$T$63
    2190              
    2191              
    2192              $C$DW$T$64      .dwtag  DW_TAG_structure_type
    2193                      .dwattr $C$DW$T$64, DW_AT_name("DC12_BITS")
    2194                      .dwattr $C$DW$T$64, DW_AT_byte_size(0x02)
    2195              $C$DW$240       .dwtag  DW_TAG_member
    2196                      .dwattr $C$DW$240, DW_AT_type(*$C$DW$T$19)
    2197                      .dwattr $C$DW$240, DW_AT_name("McBSP_A")
    2198                      .dwattr $C$DW$240, DW_AT_TI_symbol_name("_McBSP_A")
    2199                      .dwattr $C$DW$240, DW_AT_bit_offset(0x0f), DW_AT_bit_size(0x01)
    2200                      .dwattr $C$DW$240, DW_AT_data_member_location[DW_OP_plus_uconst 0x0]
    2201                      .dwattr $C$DW$240, DW_AT_accessibility(DW_ACCESS_public)
    2202              $C$DW$241       .dwtag  DW_TAG_member
    2203                      .dwattr $C$DW$241, DW_AT_type(*$C$DW$T$19)
    2204                      .dwattr $C$DW$241, DW_AT_name("McBSP_B")
    2205                      .dwattr $C$DW$241, DW_AT_TI_symbol_name("_McBSP_B")
    2206                      .dwattr $C$DW$241, DW_AT_bit_offset(0x0e), DW_AT_bit_size(0x01)
TMS320C2000 Assembler PC v6.1.3 Tue Oct 01 15:27:14 2013

Tools Copyright (c) 1996-2012 Texas Instruments Incorporated
C:\Users\a0272466\AppData\Local\Temp\0780810                         PAGE   42

    2207                      .dwattr $C$DW$241, DW_AT_data_member_location[DW_OP_plus_uconst 0x0]
    2208                      .dwattr $C$DW$241, DW_AT_accessibility(DW_ACCESS_public)
    2209              $C$DW$242       .dwtag  DW_TAG_member
    2210                      .dwattr $C$DW$242, DW_AT_type(*$C$DW$T$19)
    2211                      .dwattr $C$DW$242, DW_AT_name("rsvd1")
    2212                      .dwattr $C$DW$242, DW_AT_TI_symbol_name("_rsvd1")
    2213                      .dwattr $C$DW$242, DW_AT_bit_offset(0x00), DW_AT_bit_size(0x0e)
    2214                      .dwattr $C$DW$242, DW_AT_data_member_location[DW_OP_plus_uconst 0x0]
    2215                      .dwattr $C$DW$242, DW_AT_accessibility(DW_ACCESS_public)
    2216              $C$DW$243       .dwtag  DW_TAG_member
    2217                      .dwattr $C$DW$243, DW_AT_type(*$C$DW$T$19)
    2218                      .dwattr $C$DW$243, DW_AT_name("USB_A")
    2219                      .dwattr $C$DW$243, DW_AT_TI_symbol_name("_USB_A")
    2220                      .dwattr $C$DW$243, DW_AT_bit_offset(0x0e), DW_AT_bit_size(0x02)
    2221                      .dwattr $C$DW$243, DW_AT_data_member_location[DW_OP_plus_uconst 0x1]
    2222                      .dwattr $C$DW$243, DW_AT_accessibility(DW_ACCESS_public)
    2223              $C$DW$244       .dwtag  DW_TAG_member
    2224                      .dwattr $C$DW$244, DW_AT_type(*$C$DW$T$19)
    2225                      .dwattr $C$DW$244, DW_AT_name("rsvd2")
    2226                      .dwattr $C$DW$244, DW_AT_TI_symbol_name("_rsvd2")
    2227                      .dwattr $C$DW$244, DW_AT_bit_offset(0x00), DW_AT_bit_size(0x0e)
    2228                      .dwattr $C$DW$244, DW_AT_data_member_location[DW_OP_plus_uconst 0x1]
    2229                      .dwattr $C$DW$244, DW_AT_accessibility(DW_ACCESS_public)
    2230                      .dwendtag $C$DW$T$64
    2231              
    2232              
    2233              $C$DW$T$65      .dwtag  DW_TAG_union_type
    2234                      .dwattr $C$DW$T$65, DW_AT_name("DC12_REG")
    2235                      .dwattr $C$DW$T$65, DW_AT_byte_size(0x02)
    2236              $C$DW$245       .dwtag  DW_TAG_member
    2237                      .dwattr $C$DW$245, DW_AT_type(*$C$DW$T$21)
    2238                      .dwattr $C$DW$245, DW_AT_name("all")
    2239                      .dwattr $C$DW$245, DW_AT_TI_symbol_name("_all")
    2240                      .dwattr $C$DW$245, DW_AT_data_member_location[DW_OP_plus_uconst 0x0]
    2241                      .dwattr $C$DW$245, DW_AT_accessibility(DW_ACCESS_public)
    2242              $C$DW$246       .dwtag  DW_TAG_member
    2243                      .dwattr $C$DW$246, DW_AT_type(*$C$DW$T$64)
    2244                      .dwattr $C$DW$246, DW_AT_name("bit")
    2245                      .dwattr $C$DW$246, DW_AT_TI_symbol_name("_bit")
    2246                      .dwattr $C$DW$246, DW_AT_data_member_location[DW_OP_plus_uconst 0x0]
    2247                      .dwattr $C$DW$246, DW_AT_accessibility(DW_ACCESS_public)
    2248                      .dwendtag $C$DW$T$65
    2249              
    2250              
    2251              $C$DW$T$66      .dwtag  DW_TAG_structure_type
    2252                      .dwattr $C$DW$T$66, DW_AT_name("DC13_BITS")
    2253                      .dwattr $C$DW$T$66, DW_AT_byte_size(0x02)
    2254              $C$DW$247       .dwtag  DW_TAG_member
    2255                      .dwattr $C$DW$247, DW_AT_type(*$C$DW$T$19)
    2256                      .dwattr $C$DW$247, DW_AT_name("uPP_A")
    2257                      .dwattr $C$DW$247, DW_AT_TI_symbol_name("_uPP_A")
    2258                      .dwattr $C$DW$247, DW_AT_bit_offset(0x0f), DW_AT_bit_size(0x01)
    2259                      .dwattr $C$DW$247, DW_AT_data_member_location[DW_OP_plus_uconst 0x0]
    2260                      .dwattr $C$DW$247, DW_AT_accessibility(DW_ACCESS_public)
    2261              $C$DW$248       .dwtag  DW_TAG_member
TMS320C2000 Assembler PC v6.1.3 Tue Oct 01 15:27:14 2013

Tools Copyright (c) 1996-2012 Texas Instruments Incorporated
C:\Users\a0272466\AppData\Local\Temp\0780810                         PAGE   43

    2262                      .dwattr $C$DW$248, DW_AT_type(*$C$DW$T$19)
    2263                      .dwattr $C$DW$248, DW_AT_name("rsvd1")
    2264                      .dwattr $C$DW$248, DW_AT_TI_symbol_name("_rsvd1")
    2265                      .dwattr $C$DW$248, DW_AT_bit_offset(0x00), DW_AT_bit_size(0x0f)
    2266                      .dwattr $C$DW$248, DW_AT_data_member_location[DW_OP_plus_uconst 0x0]
    2267                      .dwattr $C$DW$248, DW_AT_accessibility(DW_ACCESS_public)
    2268              $C$DW$249       .dwtag  DW_TAG_member
    2269                      .dwattr $C$DW$249, DW_AT_type(*$C$DW$T$19)
    2270                      .dwattr $C$DW$249, DW_AT_name("rsvd2")
    2271                      .dwattr $C$DW$249, DW_AT_TI_symbol_name("_rsvd2")
    2272                      .dwattr $C$DW$249, DW_AT_bit_offset(0x00), DW_AT_bit_size(0x10)
    2273                      .dwattr $C$DW$249, DW_AT_data_member_location[DW_OP_plus_uconst 0x1]
    2274                      .dwattr $C$DW$249, DW_AT_accessibility(DW_ACCESS_public)
    2275                      .dwendtag $C$DW$T$66
    2276              
    2277              
    2278              $C$DW$T$67      .dwtag  DW_TAG_union_type
    2279                      .dwattr $C$DW$T$67, DW_AT_name("DC13_REG")
    2280                      .dwattr $C$DW$T$67, DW_AT_byte_size(0x02)
    2281              $C$DW$250       .dwtag  DW_TAG_member
    2282                      .dwattr $C$DW$250, DW_AT_type(*$C$DW$T$21)
    2283                      .dwattr $C$DW$250, DW_AT_name("all")
    2284                      .dwattr $C$DW$250, DW_AT_TI_symbol_name("_all")
    2285                      .dwattr $C$DW$250, DW_AT_data_member_location[DW_OP_plus_uconst 0x0]
    2286                      .dwattr $C$DW$250, DW_AT_accessibility(DW_ACCESS_public)
    2287              $C$DW$251       .dwtag  DW_TAG_member
    2288                      .dwattr $C$DW$251, DW_AT_type(*$C$DW$T$66)
    2289                      .dwattr $C$DW$251, DW_AT_name("bit")
    2290                      .dwattr $C$DW$251, DW_AT_TI_symbol_name("_bit")
    2291                      .dwattr $C$DW$251, DW_AT_data_member_location[DW_OP_plus_uconst 0x0]
    2292                      .dwattr $C$DW$251, DW_AT_accessibility(DW_ACCESS_public)
    2293                      .dwendtag $C$DW$T$67
    2294              
    2295              
    2296              $C$DW$T$68      .dwtag  DW_TAG_structure_type
    2297                      .dwattr $C$DW$T$68, DW_AT_name("DC14_BITS")
    2298                      .dwattr $C$DW$T$68, DW_AT_byte_size(0x02)
    2299              $C$DW$252       .dwtag  DW_TAG_member
    2300                      .dwattr $C$DW$252, DW_AT_type(*$C$DW$T$19)
    2301                      .dwattr $C$DW$252, DW_AT_name("ADC1")
    2302                      .dwattr $C$DW$252, DW_AT_TI_symbol_name("_ADC1")
    2303                      .dwattr $C$DW$252, DW_AT_bit_offset(0x0f), DW_AT_bit_size(0x01)
    2304                      .dwattr $C$DW$252, DW_AT_data_member_location[DW_OP_plus_uconst 0x0]
    2305                      .dwattr $C$DW$252, DW_AT_accessibility(DW_ACCESS_public)
    2306              $C$DW$253       .dwtag  DW_TAG_member
    2307                      .dwattr $C$DW$253, DW_AT_type(*$C$DW$T$19)
    2308                      .dwattr $C$DW$253, DW_AT_name("ADC2")
    2309                      .dwattr $C$DW$253, DW_AT_TI_symbol_name("_ADC2")
    2310                      .dwattr $C$DW$253, DW_AT_bit_offset(0x0e), DW_AT_bit_size(0x01)
    2311                      .dwattr $C$DW$253, DW_AT_data_member_location[DW_OP_plus_uconst 0x0]
    2312                      .dwattr $C$DW$253, DW_AT_accessibility(DW_ACCESS_public)
    2313              $C$DW$254       .dwtag  DW_TAG_member
    2314                      .dwattr $C$DW$254, DW_AT_type(*$C$DW$T$19)
    2315                      .dwattr $C$DW$254, DW_AT_name("ADC3")
    2316                      .dwattr $C$DW$254, DW_AT_TI_symbol_name("_ADC3")
TMS320C2000 Assembler PC v6.1.3 Tue Oct 01 15:27:14 2013

Tools Copyright (c) 1996-2012 Texas Instruments Incorporated
C:\Users\a0272466\AppData\Local\Temp\0780810                         PAGE   44

    2317                      .dwattr $C$DW$254, DW_AT_bit_offset(0x0d), DW_AT_bit_size(0x01)
    2318                      .dwattr $C$DW$254, DW_AT_data_member_location[DW_OP_plus_uconst 0x0]
    2319                      .dwattr $C$DW$254, DW_AT_accessibility(DW_ACCESS_public)
    2320              $C$DW$255       .dwtag  DW_TAG_member
    2321                      .dwattr $C$DW$255, DW_AT_type(*$C$DW$T$19)
    2322                      .dwattr $C$DW$255, DW_AT_name("ADC4")
    2323                      .dwattr $C$DW$255, DW_AT_TI_symbol_name("_ADC4")
    2324                      .dwattr $C$DW$255, DW_AT_bit_offset(0x0c), DW_AT_bit_size(0x01)
    2325                      .dwattr $C$DW$255, DW_AT_data_member_location[DW_OP_plus_uconst 0x0]
    2326                      .dwattr $C$DW$255, DW_AT_accessibility(DW_ACCESS_public)
    2327              $C$DW$256       .dwtag  DW_TAG_member
    2328                      .dwattr $C$DW$256, DW_AT_type(*$C$DW$T$19)
    2329                      .dwattr $C$DW$256, DW_AT_name("rsvd1")
    2330                      .dwattr $C$DW$256, DW_AT_TI_symbol_name("_rsvd1")
    2331                      .dwattr $C$DW$256, DW_AT_bit_offset(0x00), DW_AT_bit_size(0x0c)
    2332                      .dwattr $C$DW$256, DW_AT_data_member_location[DW_OP_plus_uconst 0x0]
    2333                      .dwattr $C$DW$256, DW_AT_accessibility(DW_ACCESS_public)
    2334              $C$DW$257       .dwtag  DW_TAG_member
    2335                      .dwattr $C$DW$257, DW_AT_type(*$C$DW$T$19)
    2336                      .dwattr $C$DW$257, DW_AT_name("rsvd2")
    2337                      .dwattr $C$DW$257, DW_AT_TI_symbol_name("_rsvd2")
    2338                      .dwattr $C$DW$257, DW_AT_bit_offset(0x00), DW_AT_bit_size(0x10)
    2339                      .dwattr $C$DW$257, DW_AT_data_member_location[DW_OP_plus_uconst 0x1]
    2340                      .dwattr $C$DW$257, DW_AT_accessibility(DW_ACCESS_public)
    2341                      .dwendtag $C$DW$T$68
    2342              
    2343              
    2344              $C$DW$T$69      .dwtag  DW_TAG_union_type
    2345                      .dwattr $C$DW$T$69, DW_AT_name("DC14_REG")
    2346                      .dwattr $C$DW$T$69, DW_AT_byte_size(0x02)
    2347              $C$DW$258       .dwtag  DW_TAG_member
    2348                      .dwattr $C$DW$258, DW_AT_type(*$C$DW$T$21)
    2349                      .dwattr $C$DW$258, DW_AT_name("all")
    2350                      .dwattr $C$DW$258, DW_AT_TI_symbol_name("_all")
    2351                      .dwattr $C$DW$258, DW_AT_data_member_location[DW_OP_plus_uconst 0x0]
    2352                      .dwattr $C$DW$258, DW_AT_accessibility(DW_ACCESS_public)
    2353              $C$DW$259       .dwtag  DW_TAG_member
    2354                      .dwattr $C$DW$259, DW_AT_type(*$C$DW$T$68)
    2355                      .dwattr $C$DW$259, DW_AT_name("bit")
    2356                      .dwattr $C$DW$259, DW_AT_TI_symbol_name("_bit")
    2357                      .dwattr $C$DW$259, DW_AT_data_member_location[DW_OP_plus_uconst 0x0]
    2358                      .dwattr $C$DW$259, DW_AT_accessibility(DW_ACCESS_public)
    2359                      .dwendtag $C$DW$T$69
    2360              
    2361              
    2362              $C$DW$T$70      .dwtag  DW_TAG_structure_type
    2363                      .dwattr $C$DW$T$70, DW_AT_name("DC15_BITS")
    2364                      .dwattr $C$DW$T$70, DW_AT_byte_size(0x02)
    2365              $C$DW$260       .dwtag  DW_TAG_member
    2366                      .dwattr $C$DW$260, DW_AT_type(*$C$DW$T$19)
    2367                      .dwattr $C$DW$260, DW_AT_name("CMPSS1")
    2368                      .dwattr $C$DW$260, DW_AT_TI_symbol_name("_CMPSS1")
    2369                      .dwattr $C$DW$260, DW_AT_bit_offset(0x0f), DW_AT_bit_size(0x01)
    2370                      .dwattr $C$DW$260, DW_AT_data_member_location[DW_OP_plus_uconst 0x0]
    2371                      .dwattr $C$DW$260, DW_AT_accessibility(DW_ACCESS_public)
TMS320C2000 Assembler PC v6.1.3 Tue Oct 01 15:27:14 2013

Tools Copyright (c) 1996-2012 Texas Instruments Incorporated
C:\Users\a0272466\AppData\Local\Temp\0780810                         PAGE   45

    2372              $C$DW$261       .dwtag  DW_TAG_member
    2373                      .dwattr $C$DW$261, DW_AT_type(*$C$DW$T$19)
    2374                      .dwattr $C$DW$261, DW_AT_name("CMPSS2")
    2375                      .dwattr $C$DW$261, DW_AT_TI_symbol_name("_CMPSS2")
    2376                      .dwattr $C$DW$261, DW_AT_bit_offset(0x0e), DW_AT_bit_size(0x01)
    2377                      .dwattr $C$DW$261, DW_AT_data_member_location[DW_OP_plus_uconst 0x0]
    2378                      .dwattr $C$DW$261, DW_AT_accessibility(DW_ACCESS_public)
    2379              $C$DW$262       .dwtag  DW_TAG_member
    2380                      .dwattr $C$DW$262, DW_AT_type(*$C$DW$T$19)
    2381                      .dwattr $C$DW$262, DW_AT_name("CMPSS3")
    2382                      .dwattr $C$DW$262, DW_AT_TI_symbol_name("_CMPSS3")
    2383                      .dwattr $C$DW$262, DW_AT_bit_offset(0x0d), DW_AT_bit_size(0x01)
    2384                      .dwattr $C$DW$262, DW_AT_data_member_location[DW_OP_plus_uconst 0x0]
    2385                      .dwattr $C$DW$262, DW_AT_accessibility(DW_ACCESS_public)
    2386              $C$DW$263       .dwtag  DW_TAG_member
    2387                      .dwattr $C$DW$263, DW_AT_type(*$C$DW$T$19)
    2388                      .dwattr $C$DW$263, DW_AT_name("CMPSS4")
    2389                      .dwattr $C$DW$263, DW_AT_TI_symbol_name("_CMPSS4")
    2390                      .dwattr $C$DW$263, DW_AT_bit_offset(0x0c), DW_AT_bit_size(0x01)
    2391                      .dwattr $C$DW$263, DW_AT_data_member_location[DW_OP_plus_uconst 0x0]
    2392                      .dwattr $C$DW$263, DW_AT_accessibility(DW_ACCESS_public)
    2393              $C$DW$264       .dwtag  DW_TAG_member
    2394                      .dwattr $C$DW$264, DW_AT_type(*$C$DW$T$19)
    2395                      .dwattr $C$DW$264, DW_AT_name("CMPSS5")
    2396                      .dwattr $C$DW$264, DW_AT_TI_symbol_name("_CMPSS5")
    2397                      .dwattr $C$DW$264, DW_AT_bit_offset(0x0b), DW_AT_bit_size(0x01)
    2398                      .dwattr $C$DW$264, DW_AT_data_member_location[DW_OP_plus_uconst 0x0]
    2399                      .dwattr $C$DW$264, DW_AT_accessibility(DW_ACCESS_public)
    2400              $C$DW$265       .dwtag  DW_TAG_member
    2401                      .dwattr $C$DW$265, DW_AT_type(*$C$DW$T$19)
    2402                      .dwattr $C$DW$265, DW_AT_name("CMPSS6")
    2403                      .dwattr $C$DW$265, DW_AT_TI_symbol_name("_CMPSS6")
    2404                      .dwattr $C$DW$265, DW_AT_bit_offset(0x0a), DW_AT_bit_size(0x01)
    2405                      .dwattr $C$DW$265, DW_AT_data_member_location[DW_OP_plus_uconst 0x0]
    2406                      .dwattr $C$DW$265, DW_AT_accessibility(DW_ACCESS_public)
    2407              $C$DW$266       .dwtag  DW_TAG_member
    2408                      .dwattr $C$DW$266, DW_AT_type(*$C$DW$T$19)
    2409                      .dwattr $C$DW$266, DW_AT_name("CMPSS7")
    2410                      .dwattr $C$DW$266, DW_AT_TI_symbol_name("_CMPSS7")
    2411                      .dwattr $C$DW$266, DW_AT_bit_offset(0x09), DW_AT_bit_size(0x01)
    2412                      .dwattr $C$DW$266, DW_AT_data_member_location[DW_OP_plus_uconst 0x0]
    2413                      .dwattr $C$DW$266, DW_AT_accessibility(DW_ACCESS_public)
    2414              $C$DW$267       .dwtag  DW_TAG_member
    2415                      .dwattr $C$DW$267, DW_AT_type(*$C$DW$T$19)
    2416                      .dwattr $C$DW$267, DW_AT_name("CMPSS8")
    2417                      .dwattr $C$DW$267, DW_AT_TI_symbol_name("_CMPSS8")
    2418                      .dwattr $C$DW$267, DW_AT_bit_offset(0x08), DW_AT_bit_size(0x01)
    2419                      .dwattr $C$DW$267, DW_AT_data_member_location[DW_OP_plus_uconst 0x0]
    2420                      .dwattr $C$DW$267, DW_AT_accessibility(DW_ACCESS_public)
    2421              $C$DW$268       .dwtag  DW_TAG_member
    2422                      .dwattr $C$DW$268, DW_AT_type(*$C$DW$T$19)
    2423                      .dwattr $C$DW$268, DW_AT_name("rsvd1")
    2424                      .dwattr $C$DW$268, DW_AT_TI_symbol_name("_rsvd1")
    2425                      .dwattr $C$DW$268, DW_AT_bit_offset(0x00), DW_AT_bit_size(0x08)
    2426                      .dwattr $C$DW$268, DW_AT_data_member_location[DW_OP_plus_uconst 0x0]
TMS320C2000 Assembler PC v6.1.3 Tue Oct 01 15:27:14 2013

Tools Copyright (c) 1996-2012 Texas Instruments Incorporated
C:\Users\a0272466\AppData\Local\Temp\0780810                         PAGE   46

    2427                      .dwattr $C$DW$268, DW_AT_accessibility(DW_ACCESS_public)
    2428              $C$DW$269       .dwtag  DW_TAG_member
    2429                      .dwattr $C$DW$269, DW_AT_type(*$C$DW$T$19)
    2430                      .dwattr $C$DW$269, DW_AT_name("rsvd2")
    2431                      .dwattr $C$DW$269, DW_AT_TI_symbol_name("_rsvd2")
    2432                      .dwattr $C$DW$269, DW_AT_bit_offset(0x00), DW_AT_bit_size(0x10)
    2433                      .dwattr $C$DW$269, DW_AT_data_member_location[DW_OP_plus_uconst 0x1]
    2434                      .dwattr $C$DW$269, DW_AT_accessibility(DW_ACCESS_public)
    2435                      .dwendtag $C$DW$T$70
    2436              
    2437              
    2438              $C$DW$T$71      .dwtag  DW_TAG_union_type
    2439                      .dwattr $C$DW$T$71, DW_AT_name("DC15_REG")
    2440                      .dwattr $C$DW$T$71, DW_AT_byte_size(0x02)
    2441              $C$DW$270       .dwtag  DW_TAG_member
    2442                      .dwattr $C$DW$270, DW_AT_type(*$C$DW$T$21)
    2443                      .dwattr $C$DW$270, DW_AT_name("all")
    2444                      .dwattr $C$DW$270, DW_AT_TI_symbol_name("_all")
    2445                      .dwattr $C$DW$270, DW_AT_data_member_location[DW_OP_plus_uconst 0x0]
    2446                      .dwattr $C$DW$270, DW_AT_accessibility(DW_ACCESS_public)
    2447              $C$DW$271       .dwtag  DW_TAG_member
    2448                      .dwattr $C$DW$271, DW_AT_type(*$C$DW$T$70)
    2449                      .dwattr $C$DW$271, DW_AT_name("bit")
    2450                      .dwattr $C$DW$271, DW_AT_TI_symbol_name("_bit")
    2451                      .dwattr $C$DW$271, DW_AT_data_member_location[DW_OP_plus_uconst 0x0]
    2452                      .dwattr $C$DW$271, DW_AT_accessibility(DW_ACCESS_public)
    2453                      .dwendtag $C$DW$T$71
    2454              
    2455              
    2456              $C$DW$T$72      .dwtag  DW_TAG_structure_type
    2457                      .dwattr $C$DW$T$72, DW_AT_name("DC17_BITS")
    2458                      .dwattr $C$DW$T$72, DW_AT_byte_size(0x02)
    2459              $C$DW$272       .dwtag  DW_TAG_member
    2460                      .dwattr $C$DW$272, DW_AT_type(*$C$DW$T$19)
    2461                      .dwattr $C$DW$272, DW_AT_name("rsvd1")
    2462                      .dwattr $C$DW$272, DW_AT_TI_symbol_name("_rsvd1")
    2463                      .dwattr $C$DW$272, DW_AT_bit_offset(0x00), DW_AT_bit_size(0x10)
    2464                      .dwattr $C$DW$272, DW_AT_data_member_location[DW_OP_plus_uconst 0x0]
    2465                      .dwattr $C$DW$272, DW_AT_accessibility(DW_ACCESS_public)
    2466              $C$DW$273       .dwtag  DW_TAG_member
    2467                      .dwattr $C$DW$273, DW_AT_type(*$C$DW$T$19)
    2468                      .dwattr $C$DW$273, DW_AT_name("Buffered_DAC12_1")
    2469                      .dwattr $C$DW$273, DW_AT_TI_symbol_name("_Buffered_DAC12_1")
    2470                      .dwattr $C$DW$273, DW_AT_bit_offset(0x0f), DW_AT_bit_size(0x01)
    2471                      .dwattr $C$DW$273, DW_AT_data_member_location[DW_OP_plus_uconst 0x1]
    2472                      .dwattr $C$DW$273, DW_AT_accessibility(DW_ACCESS_public)
    2473              $C$DW$274       .dwtag  DW_TAG_member
    2474                      .dwattr $C$DW$274, DW_AT_type(*$C$DW$T$19)
    2475                      .dwattr $C$DW$274, DW_AT_name("Buffered_DAC12_2")
    2476                      .dwattr $C$DW$274, DW_AT_TI_symbol_name("_Buffered_DAC12_2")
    2477                      .dwattr $C$DW$274, DW_AT_bit_offset(0x0e), DW_AT_bit_size(0x01)
    2478                      .dwattr $C$DW$274, DW_AT_data_member_location[DW_OP_plus_uconst 0x1]
    2479                      .dwattr $C$DW$274, DW_AT_accessibility(DW_ACCESS_public)
    2480              $C$DW$275       .dwtag  DW_TAG_member
    2481                      .dwattr $C$DW$275, DW_AT_type(*$C$DW$T$19)
TMS320C2000 Assembler PC v6.1.3 Tue Oct 01 15:27:14 2013

Tools Copyright (c) 1996-2012 Texas Instruments Incorporated
C:\Users\a0272466\AppData\Local\Temp\0780810                         PAGE   47

    2482                      .dwattr $C$DW$275, DW_AT_name("Buffered_DAC12_3")
    2483                      .dwattr $C$DW$275, DW_AT_TI_symbol_name("_Buffered_DAC12_3")
    2484                      .dwattr $C$DW$275, DW_AT_bit_offset(0x0d), DW_AT_bit_size(0x01)
    2485                      .dwattr $C$DW$275, DW_AT_data_member_location[DW_OP_plus_uconst 0x1]
    2486                      .dwattr $C$DW$275, DW_AT_accessibility(DW_ACCESS_public)
    2487              $C$DW$276       .dwtag  DW_TAG_member
    2488                      .dwattr $C$DW$276, DW_AT_type(*$C$DW$T$19)
    2489                      .dwattr $C$DW$276, DW_AT_name("rsvd2")
    2490                      .dwattr $C$DW$276, DW_AT_TI_symbol_name("_rsvd2")
    2491                      .dwattr $C$DW$276, DW_AT_bit_offset(0x00), DW_AT_bit_size(0x0d)
    2492                      .dwattr $C$DW$276, DW_AT_data_member_location[DW_OP_plus_uconst 0x1]
    2493                      .dwattr $C$DW$276, DW_AT_accessibility(DW_ACCESS_public)
    2494                      .dwendtag $C$DW$T$72
    2495              
    2496              
    2497              $C$DW$T$73      .dwtag  DW_TAG_union_type
    2498                      .dwattr $C$DW$T$73, DW_AT_name("DC17_REG")
    2499                      .dwattr $C$DW$T$73, DW_AT_byte_size(0x02)
    2500              $C$DW$277       .dwtag  DW_TAG_member
    2501                      .dwattr $C$DW$277, DW_AT_type(*$C$DW$T$21)
    2502                      .dwattr $C$DW$277, DW_AT_name("all")
    2503                      .dwattr $C$DW$277, DW_AT_TI_symbol_name("_all")
    2504                      .dwattr $C$DW$277, DW_AT_data_member_location[DW_OP_plus_uconst 0x0]
    2505                      .dwattr $C$DW$277, DW_AT_accessibility(DW_ACCESS_public)
    2506              $C$DW$278       .dwtag  DW_TAG_member
    2507                      .dwattr $C$DW$278, DW_AT_type(*$C$DW$T$72)
    2508                      .dwattr $C$DW$278, DW_AT_name("bit")
    2509                      .dwattr $C$DW$278, DW_AT_TI_symbol_name("_bit")
    2510                      .dwattr $C$DW$278, DW_AT_data_member_location[DW_OP_plus_uconst 0x0]
    2511                      .dwattr $C$DW$278, DW_AT_accessibility(DW_ACCESS_public)
    2512                      .dwendtag $C$DW$T$73
    2513              
    2514              
    2515              $C$DW$T$74      .dwtag  DW_TAG_structure_type
    2516                      .dwattr $C$DW$T$74, DW_AT_name("DC18_BITS")
    2517                      .dwattr $C$DW$T$74, DW_AT_byte_size(0x02)
    2518              $C$DW$279       .dwtag  DW_TAG_member
    2519                      .dwattr $C$DW$279, DW_AT_type(*$C$DW$T$19)
    2520                      .dwattr $C$DW$279, DW_AT_name("LS0_1")
    2521                      .dwattr $C$DW$279, DW_AT_TI_symbol_name("_LS0_1")
    2522                      .dwattr $C$DW$279, DW_AT_bit_offset(0x0f), DW_AT_bit_size(0x01)
    2523                      .dwattr $C$DW$279, DW_AT_data_member_location[DW_OP_plus_uconst 0x0]
    2524                      .dwattr $C$DW$279, DW_AT_accessibility(DW_ACCESS_public)
    2525              $C$DW$280       .dwtag  DW_TAG_member
    2526                      .dwattr $C$DW$280, DW_AT_type(*$C$DW$T$19)
    2527                      .dwattr $C$DW$280, DW_AT_name("LS1_1")
    2528                      .dwattr $C$DW$280, DW_AT_TI_symbol_name("_LS1_1")
    2529                      .dwattr $C$DW$280, DW_AT_bit_offset(0x0e), DW_AT_bit_size(0x01)
    2530                      .dwattr $C$DW$280, DW_AT_data_member_location[DW_OP_plus_uconst 0x0]
    2531                      .dwattr $C$DW$280, DW_AT_accessibility(DW_ACCESS_public)
    2532              $C$DW$281       .dwtag  DW_TAG_member
    2533                      .dwattr $C$DW$281, DW_AT_type(*$C$DW$T$19)
    2534                      .dwattr $C$DW$281, DW_AT_name("LS2_1")
    2535                      .dwattr $C$DW$281, DW_AT_TI_symbol_name("_LS2_1")
    2536                      .dwattr $C$DW$281, DW_AT_bit_offset(0x0d), DW_AT_bit_size(0x01)
TMS320C2000 Assembler PC v6.1.3 Tue Oct 01 15:27:14 2013

Tools Copyright (c) 1996-2012 Texas Instruments Incorporated
C:\Users\a0272466\AppData\Local\Temp\0780810                         PAGE   48

    2537                      .dwattr $C$DW$281, DW_AT_data_member_location[DW_OP_plus_uconst 0x0]
    2538                      .dwattr $C$DW$281, DW_AT_accessibility(DW_ACCESS_public)
    2539              $C$DW$282       .dwtag  DW_TAG_member
    2540                      .dwattr $C$DW$282, DW_AT_type(*$C$DW$T$19)
    2541                      .dwattr $C$DW$282, DW_AT_name("LS3_1")
    2542                      .dwattr $C$DW$282, DW_AT_TI_symbol_name("_LS3_1")
    2543                      .dwattr $C$DW$282, DW_AT_bit_offset(0x0c), DW_AT_bit_size(0x01)
    2544                      .dwattr $C$DW$282, DW_AT_data_member_location[DW_OP_plus_uconst 0x0]
    2545                      .dwattr $C$DW$282, DW_AT_accessibility(DW_ACCESS_public)
    2546              $C$DW$283       .dwtag  DW_TAG_member
    2547                      .dwattr $C$DW$283, DW_AT_type(*$C$DW$T$19)
    2548                      .dwattr $C$DW$283, DW_AT_name("LS4_1")
    2549                      .dwattr $C$DW$283, DW_AT_TI_symbol_name("_LS4_1")
    2550                      .dwattr $C$DW$283, DW_AT_bit_offset(0x0b), DW_AT_bit_size(0x01)
    2551                      .dwattr $C$DW$283, DW_AT_data_member_location[DW_OP_plus_uconst 0x0]
    2552                      .dwattr $C$DW$283, DW_AT_accessibility(DW_ACCESS_public)
    2553              $C$DW$284       .dwtag  DW_TAG_member
    2554                      .dwattr $C$DW$284, DW_AT_type(*$C$DW$T$19)
    2555                      .dwattr $C$DW$284, DW_AT_name("LS5_1")
    2556                      .dwattr $C$DW$284, DW_AT_TI_symbol_name("_LS5_1")
    2557                      .dwattr $C$DW$284, DW_AT_bit_offset(0x0a), DW_AT_bit_size(0x01)
    2558                      .dwattr $C$DW$284, DW_AT_data_member_location[DW_OP_plus_uconst 0x0]
    2559                      .dwattr $C$DW$284, DW_AT_accessibility(DW_ACCESS_public)
    2560              $C$DW$285       .dwtag  DW_TAG_member
    2561                      .dwattr $C$DW$285, DW_AT_type(*$C$DW$T$19)
    2562                      .dwattr $C$DW$285, DW_AT_name("rsvd1")
    2563                      .dwattr $C$DW$285, DW_AT_TI_symbol_name("_rsvd1")
    2564                      .dwattr $C$DW$285, DW_AT_bit_offset(0x00), DW_AT_bit_size(0x0a)
    2565                      .dwattr $C$DW$285, DW_AT_data_member_location[DW_OP_plus_uconst 0x0]
    2566                      .dwattr $C$DW$285, DW_AT_accessibility(DW_ACCESS_public)
    2567              $C$DW$286       .dwtag  DW_TAG_member
    2568                      .dwattr $C$DW$286, DW_AT_type(*$C$DW$T$19)
    2569                      .dwattr $C$DW$286, DW_AT_name("rsvd2")
    2570                      .dwattr $C$DW$286, DW_AT_TI_symbol_name("_rsvd2")
    2571                      .dwattr $C$DW$286, DW_AT_bit_offset(0x00), DW_AT_bit_size(0x10)
    2572                      .dwattr $C$DW$286, DW_AT_data_member_location[DW_OP_plus_uconst 0x1]
    2573                      .dwattr $C$DW$286, DW_AT_accessibility(DW_ACCESS_public)
    2574                      .dwendtag $C$DW$T$74
    2575              
    2576              
    2577              $C$DW$T$75      .dwtag  DW_TAG_union_type
    2578                      .dwattr $C$DW$T$75, DW_AT_name("DC18_REG")
    2579                      .dwattr $C$DW$T$75, DW_AT_byte_size(0x02)
    2580              $C$DW$287       .dwtag  DW_TAG_member
    2581                      .dwattr $C$DW$287, DW_AT_type(*$C$DW$T$21)
    2582                      .dwattr $C$DW$287, DW_AT_name("all")
    2583                      .dwattr $C$DW$287, DW_AT_TI_symbol_name("_all")
    2584                      .dwattr $C$DW$287, DW_AT_data_member_location[DW_OP_plus_uconst 0x0]
    2585                      .dwattr $C$DW$287, DW_AT_accessibility(DW_ACCESS_public)
    2586              $C$DW$288       .dwtag  DW_TAG_member
    2587                      .dwattr $C$DW$288, DW_AT_type(*$C$DW$T$74)
    2588                      .dwattr $C$DW$288, DW_AT_name("bit")
    2589                      .dwattr $C$DW$288, DW_AT_TI_symbol_name("_bit")
    2590                      .dwattr $C$DW$288, DW_AT_data_member_location[DW_OP_plus_uconst 0x0]
    2591                      .dwattr $C$DW$288, DW_AT_accessibility(DW_ACCESS_public)
TMS320C2000 Assembler PC v6.1.3 Tue Oct 01 15:27:14 2013

Tools Copyright (c) 1996-2012 Texas Instruments Incorporated
C:\Users\a0272466\AppData\Local\Temp\0780810                         PAGE   49

    2592                      .dwendtag $C$DW$T$75
    2593              
    2594              
    2595              $C$DW$T$76      .dwtag  DW_TAG_structure_type
    2596                      .dwattr $C$DW$T$76, DW_AT_name("DC19_BITS")
    2597                      .dwattr $C$DW$T$76, DW_AT_byte_size(0x02)
    2598              $C$DW$289       .dwtag  DW_TAG_member
    2599                      .dwattr $C$DW$289, DW_AT_type(*$C$DW$T$19)
    2600                      .dwattr $C$DW$289, DW_AT_name("LS0_2")
    2601                      .dwattr $C$DW$289, DW_AT_TI_symbol_name("_LS0_2")
    2602                      .dwattr $C$DW$289, DW_AT_bit_offset(0x0f), DW_AT_bit_size(0x01)
    2603                      .dwattr $C$DW$289, DW_AT_data_member_location[DW_OP_plus_uconst 0x0]
    2604                      .dwattr $C$DW$289, DW_AT_accessibility(DW_ACCESS_public)
    2605              $C$DW$290       .dwtag  DW_TAG_member
    2606                      .dwattr $C$DW$290, DW_AT_type(*$C$DW$T$19)
    2607                      .dwattr $C$DW$290, DW_AT_name("LS1_2")
    2608                      .dwattr $C$DW$290, DW_AT_TI_symbol_name("_LS1_2")
    2609                      .dwattr $C$DW$290, DW_AT_bit_offset(0x0e), DW_AT_bit_size(0x01)
    2610                      .dwattr $C$DW$290, DW_AT_data_member_location[DW_OP_plus_uconst 0x0]
    2611                      .dwattr $C$DW$290, DW_AT_accessibility(DW_ACCESS_public)
    2612              $C$DW$291       .dwtag  DW_TAG_member
    2613                      .dwattr $C$DW$291, DW_AT_type(*$C$DW$T$19)
    2614                      .dwattr $C$DW$291, DW_AT_name("LS2_2")
    2615                      .dwattr $C$DW$291, DW_AT_TI_symbol_name("_LS2_2")
    2616                      .dwattr $C$DW$291, DW_AT_bit_offset(0x0d), DW_AT_bit_size(0x01)
    2617                      .dwattr $C$DW$291, DW_AT_data_member_location[DW_OP_plus_uconst 0x0]
    2618                      .dwattr $C$DW$291, DW_AT_accessibility(DW_ACCESS_public)
    2619              $C$DW$292       .dwtag  DW_TAG_member
    2620                      .dwattr $C$DW$292, DW_AT_type(*$C$DW$T$19)
    2621                      .dwattr $C$DW$292, DW_AT_name("LS3_2")
    2622                      .dwattr $C$DW$292, DW_AT_TI_symbol_name("_LS3_2")
    2623                      .dwattr $C$DW$292, DW_AT_bit_offset(0x0c), DW_AT_bit_size(0x01)
    2624                      .dwattr $C$DW$292, DW_AT_data_member_location[DW_OP_plus_uconst 0x0]
    2625                      .dwattr $C$DW$292, DW_AT_accessibility(DW_ACCESS_public)
    2626              $C$DW$293       .dwtag  DW_TAG_member
    2627                      .dwattr $C$DW$293, DW_AT_type(*$C$DW$T$19)
    2628                      .dwattr $C$DW$293, DW_AT_name("LS4_2")
    2629                      .dwattr $C$DW$293, DW_AT_TI_symbol_name("_LS4_2")
    2630                      .dwattr $C$DW$293, DW_AT_bit_offset(0x0b), DW_AT_bit_size(0x01)
    2631                      .dwattr $C$DW$293, DW_AT_data_member_location[DW_OP_plus_uconst 0x0]
    2632                      .dwattr $C$DW$293, DW_AT_accessibility(DW_ACCESS_public)
    2633              $C$DW$294       .dwtag  DW_TAG_member
    2634                      .dwattr $C$DW$294, DW_AT_type(*$C$DW$T$19)
    2635                      .dwattr $C$DW$294, DW_AT_name("LS5_2")
    2636                      .dwattr $C$DW$294, DW_AT_TI_symbol_name("_LS5_2")
    2637                      .dwattr $C$DW$294, DW_AT_bit_offset(0x0a), DW_AT_bit_size(0x01)
    2638                      .dwattr $C$DW$294, DW_AT_data_member_location[DW_OP_plus_uconst 0x0]
    2639                      .dwattr $C$DW$294, DW_AT_accessibility(DW_ACCESS_public)
    2640              $C$DW$295       .dwtag  DW_TAG_member
    2641                      .dwattr $C$DW$295, DW_AT_type(*$C$DW$T$19)
    2642                      .dwattr $C$DW$295, DW_AT_name("rsvd1")
    2643                      .dwattr $C$DW$295, DW_AT_TI_symbol_name("_rsvd1")
    2644                      .dwattr $C$DW$295, DW_AT_bit_offset(0x00), DW_AT_bit_size(0x0a)
    2645                      .dwattr $C$DW$295, DW_AT_data_member_location[DW_OP_plus_uconst 0x0]
    2646                      .dwattr $C$DW$295, DW_AT_accessibility(DW_ACCESS_public)
TMS320C2000 Assembler PC v6.1.3 Tue Oct 01 15:27:14 2013

Tools Copyright (c) 1996-2012 Texas Instruments Incorporated
C:\Users\a0272466\AppData\Local\Temp\0780810                         PAGE   50

    2647              $C$DW$296       .dwtag  DW_TAG_member
    2648                      .dwattr $C$DW$296, DW_AT_type(*$C$DW$T$19)
    2649                      .dwattr $C$DW$296, DW_AT_name("rsvd2")
    2650                      .dwattr $C$DW$296, DW_AT_TI_symbol_name("_rsvd2")
    2651                      .dwattr $C$DW$296, DW_AT_bit_offset(0x00), DW_AT_bit_size(0x10)
    2652                      .dwattr $C$DW$296, DW_AT_data_member_location[DW_OP_plus_uconst 0x1]
    2653                      .dwattr $C$DW$296, DW_AT_accessibility(DW_ACCESS_public)
    2654                      .dwendtag $C$DW$T$76
    2655              
    2656              
    2657              $C$DW$T$77      .dwtag  DW_TAG_union_type
    2658                      .dwattr $C$DW$T$77, DW_AT_name("DC19_REG")
    2659                      .dwattr $C$DW$T$77, DW_AT_byte_size(0x02)
    2660              $C$DW$297       .dwtag  DW_TAG_member
    2661                      .dwattr $C$DW$297, DW_AT_type(*$C$DW$T$21)
    2662                      .dwattr $C$DW$297, DW_AT_name("all")
    2663                      .dwattr $C$DW$297, DW_AT_TI_symbol_name("_all")
    2664                      .dwattr $C$DW$297, DW_AT_data_member_location[DW_OP_plus_uconst 0x0]
    2665                      .dwattr $C$DW$297, DW_AT_accessibility(DW_ACCESS_public)
    2666              $C$DW$298       .dwtag  DW_TAG_member
    2667                      .dwattr $C$DW$298, DW_AT_type(*$C$DW$T$76)
    2668                      .dwattr $C$DW$298, DW_AT_name("bit")
    2669                      .dwattr $C$DW$298, DW_AT_TI_symbol_name("_bit")
    2670                      .dwattr $C$DW$298, DW_AT_data_member_location[DW_OP_plus_uconst 0x0]
    2671                      .dwattr $C$DW$298, DW_AT_accessibility(DW_ACCESS_public)
    2672                      .dwendtag $C$DW$T$77
    2673              
    2674              
    2675              $C$DW$T$78      .dwtag  DW_TAG_structure_type
    2676                      .dwattr $C$DW$T$78, DW_AT_name("DC1_BITS")
    2677                      .dwattr $C$DW$T$78, DW_AT_byte_size(0x02)
    2678              $C$DW$299       .dwtag  DW_TAG_member
    2679                      .dwattr $C$DW$299, DW_AT_type(*$C$DW$T$19)
    2680                      .dwattr $C$DW$299, DW_AT_name("CPU1_FPU_TMU")
    2681                      .dwattr $C$DW$299, DW_AT_TI_symbol_name("_CPU1_FPU_TMU")
    2682                      .dwattr $C$DW$299, DW_AT_bit_offset(0x0f), DW_AT_bit_size(0x01)
    2683                      .dwattr $C$DW$299, DW_AT_data_member_location[DW_OP_plus_uconst 0x0]
    2684                      .dwattr $C$DW$299, DW_AT_accessibility(DW_ACCESS_public)
    2685              $C$DW$300       .dwtag  DW_TAG_member
    2686                      .dwattr $C$DW$300, DW_AT_type(*$C$DW$T$19)
    2687                      .dwattr $C$DW$300, DW_AT_name("CPU2_FPU_TMU")
    2688                      .dwattr $C$DW$300, DW_AT_TI_symbol_name("_CPU2_FPU_TMU")
    2689                      .dwattr $C$DW$300, DW_AT_bit_offset(0x0e), DW_AT_bit_size(0x01)
    2690                      .dwattr $C$DW$300, DW_AT_data_member_location[DW_OP_plus_uconst 0x0]
    2691                      .dwattr $C$DW$300, DW_AT_accessibility(DW_ACCESS_public)
    2692              $C$DW$301       .dwtag  DW_TAG_member
    2693                      .dwattr $C$DW$301, DW_AT_type(*$C$DW$T$19)
    2694                      .dwattr $C$DW$301, DW_AT_name("CPU1_VCU")
    2695                      .dwattr $C$DW$301, DW_AT_TI_symbol_name("_CPU1_VCU")
    2696                      .dwattr $C$DW$301, DW_AT_bit_offset(0x0d), DW_AT_bit_size(0x01)
    2697                      .dwattr $C$DW$301, DW_AT_data_member_location[DW_OP_plus_uconst 0x0]
    2698                      .dwattr $C$DW$301, DW_AT_accessibility(DW_ACCESS_public)
    2699              $C$DW$302       .dwtag  DW_TAG_member
    2700                      .dwattr $C$DW$302, DW_AT_type(*$C$DW$T$19)
    2701                      .dwattr $C$DW$302, DW_AT_name("CPU2_VCU")
TMS320C2000 Assembler PC v6.1.3 Tue Oct 01 15:27:14 2013

Tools Copyright (c) 1996-2012 Texas Instruments Incorporated
C:\Users\a0272466\AppData\Local\Temp\0780810                         PAGE   51

    2702                      .dwattr $C$DW$302, DW_AT_TI_symbol_name("_CPU2_VCU")
    2703                      .dwattr $C$DW$302, DW_AT_bit_offset(0x0c), DW_AT_bit_size(0x01)
    2704                      .dwattr $C$DW$302, DW_AT_data_member_location[DW_OP_plus_uconst 0x0]
    2705                      .dwattr $C$DW$302, DW_AT_accessibility(DW_ACCESS_public)
    2706              $C$DW$303       .dwtag  DW_TAG_member
    2707                      .dwattr $C$DW$303, DW_AT_type(*$C$DW$T$19)
    2708                      .dwattr $C$DW$303, DW_AT_name("rsvd1")
    2709                      .dwattr $C$DW$303, DW_AT_TI_symbol_name("_rsvd1")
    2710                      .dwattr $C$DW$303, DW_AT_bit_offset(0x0a), DW_AT_bit_size(0x02)
    2711                      .dwattr $C$DW$303, DW_AT_data_member_location[DW_OP_plus_uconst 0x0]
    2712                      .dwattr $C$DW$303, DW_AT_accessibility(DW_ACCESS_public)
    2713              $C$DW$304       .dwtag  DW_TAG_member
    2714                      .dwattr $C$DW$304, DW_AT_type(*$C$DW$T$19)
    2715                      .dwattr $C$DW$304, DW_AT_name("CPU1_CLA1")
    2716                      .dwattr $C$DW$304, DW_AT_TI_symbol_name("_CPU1_CLA1")
    2717                      .dwattr $C$DW$304, DW_AT_bit_offset(0x09), DW_AT_bit_size(0x01)
    2718                      .dwattr $C$DW$304, DW_AT_data_member_location[DW_OP_plus_uconst 0x0]
    2719                      .dwattr $C$DW$304, DW_AT_accessibility(DW_ACCESS_public)
    2720              $C$DW$305       .dwtag  DW_TAG_member
    2721                      .dwattr $C$DW$305, DW_AT_type(*$C$DW$T$19)
    2722                      .dwattr $C$DW$305, DW_AT_name("rsvd2")
    2723                      .dwattr $C$DW$305, DW_AT_TI_symbol_name("_rsvd2")
    2724                      .dwattr $C$DW$305, DW_AT_bit_offset(0x08), DW_AT_bit_size(0x01)
    2725                      .dwattr $C$DW$305, DW_AT_data_member_location[DW_OP_plus_uconst 0x0]
    2726                      .dwattr $C$DW$305, DW_AT_accessibility(DW_ACCESS_public)
    2727              $C$DW$306       .dwtag  DW_TAG_member
    2728                      .dwattr $C$DW$306, DW_AT_type(*$C$DW$T$19)
    2729                      .dwattr $C$DW$306, DW_AT_name("CPU2_CLA1")
    2730                      .dwattr $C$DW$306, DW_AT_TI_symbol_name("_CPU2_CLA1")
    2731                      .dwattr $C$DW$306, DW_AT_bit_offset(0x07), DW_AT_bit_size(0x01)
    2732                      .dwattr $C$DW$306, DW_AT_data_member_location[DW_OP_plus_uconst 0x0]
    2733                      .dwattr $C$DW$306, DW_AT_accessibility(DW_ACCESS_public)
    2734              $C$DW$307       .dwtag  DW_TAG_member
    2735                      .dwattr $C$DW$307, DW_AT_type(*$C$DW$T$19)
    2736                      .dwattr $C$DW$307, DW_AT_name("rsvd3")
    2737                      .dwattr $C$DW$307, DW_AT_TI_symbol_name("_rsvd3")
    2738                      .dwattr $C$DW$307, DW_AT_bit_offset(0x00), DW_AT_bit_size(0x07)
    2739                      .dwattr $C$DW$307, DW_AT_data_member_location[DW_OP_plus_uconst 0x0]
    2740                      .dwattr $C$DW$307, DW_AT_accessibility(DW_ACCESS_public)
    2741              $C$DW$308       .dwtag  DW_TAG_member
    2742                      .dwattr $C$DW$308, DW_AT_type(*$C$DW$T$19)
    2743                      .dwattr $C$DW$308, DW_AT_name("rsvd4")
    2744                      .dwattr $C$DW$308, DW_AT_TI_symbol_name("_rsvd4")
    2745                      .dwattr $C$DW$308, DW_AT_bit_offset(0x00), DW_AT_bit_size(0x10)
    2746                      .dwattr $C$DW$308, DW_AT_data_member_location[DW_OP_plus_uconst 0x1]
    2747                      .dwattr $C$DW$308, DW_AT_accessibility(DW_ACCESS_public)
    2748                      .dwendtag $C$DW$T$78
    2749              
    2750              
    2751              $C$DW$T$79      .dwtag  DW_TAG_union_type
    2752                      .dwattr $C$DW$T$79, DW_AT_name("DC1_REG")
    2753                      .dwattr $C$DW$T$79, DW_AT_byte_size(0x02)
    2754              $C$DW$309       .dwtag  DW_TAG_member
    2755                      .dwattr $C$DW$309, DW_AT_type(*$C$DW$T$21)
    2756                      .dwattr $C$DW$309, DW_AT_name("all")
TMS320C2000 Assembler PC v6.1.3 Tue Oct 01 15:27:14 2013

Tools Copyright (c) 1996-2012 Texas Instruments Incorporated
C:\Users\a0272466\AppData\Local\Temp\0780810                         PAGE   52

    2757                      .dwattr $C$DW$309, DW_AT_TI_symbol_name("_all")
    2758                      .dwattr $C$DW$309, DW_AT_data_member_location[DW_OP_plus_uconst 0x0]
    2759                      .dwattr $C$DW$309, DW_AT_accessibility(DW_ACCESS_public)
    2760              $C$DW$310       .dwtag  DW_TAG_member
    2761                      .dwattr $C$DW$310, DW_AT_type(*$C$DW$T$78)
    2762                      .dwattr $C$DW$310, DW_AT_name("bit")
    2763                      .dwattr $C$DW$310, DW_AT_TI_symbol_name("_bit")
    2764                      .dwattr $C$DW$310, DW_AT_data_member_location[DW_OP_plus_uconst 0x0]
    2765                      .dwattr $C$DW$310, DW_AT_accessibility(DW_ACCESS_public)
    2766                      .dwendtag $C$DW$T$79
    2767              
    2768              
    2769              $C$DW$T$80      .dwtag  DW_TAG_structure_type
    2770                      .dwattr $C$DW$T$80, DW_AT_name("DC20_BITS")
    2771                      .dwattr $C$DW$T$80, DW_AT_byte_size(0x02)
    2772              $C$DW$311       .dwtag  DW_TAG_member
    2773                      .dwattr $C$DW$311, DW_AT_type(*$C$DW$T$19)
    2774                      .dwattr $C$DW$311, DW_AT_name("GS0")
    2775                      .dwattr $C$DW$311, DW_AT_TI_symbol_name("_GS0")
    2776                      .dwattr $C$DW$311, DW_AT_bit_offset(0x0f), DW_AT_bit_size(0x01)
    2777                      .dwattr $C$DW$311, DW_AT_data_member_location[DW_OP_plus_uconst 0x0]
    2778                      .dwattr $C$DW$311, DW_AT_accessibility(DW_ACCESS_public)
    2779              $C$DW$312       .dwtag  DW_TAG_member
    2780                      .dwattr $C$DW$312, DW_AT_type(*$C$DW$T$19)
    2781                      .dwattr $C$DW$312, DW_AT_name("GS1")
    2782                      .dwattr $C$DW$312, DW_AT_TI_symbol_name("_GS1")
    2783                      .dwattr $C$DW$312, DW_AT_bit_offset(0x0e), DW_AT_bit_size(0x01)
    2784                      .dwattr $C$DW$312, DW_AT_data_member_location[DW_OP_plus_uconst 0x0]
    2785                      .dwattr $C$DW$312, DW_AT_accessibility(DW_ACCESS_public)
    2786              $C$DW$313       .dwtag  DW_TAG_member
    2787                      .dwattr $C$DW$313, DW_AT_type(*$C$DW$T$19)
    2788                      .dwattr $C$DW$313, DW_AT_name("GS2")
    2789                      .dwattr $C$DW$313, DW_AT_TI_symbol_name("_GS2")
    2790                      .dwattr $C$DW$313, DW_AT_bit_offset(0x0d), DW_AT_bit_size(0x01)
    2791                      .dwattr $C$DW$313, DW_AT_data_member_location[DW_OP_plus_uconst 0x0]
    2792                      .dwattr $C$DW$313, DW_AT_accessibility(DW_ACCESS_public)
    2793              $C$DW$314       .dwtag  DW_TAG_member
    2794                      .dwattr $C$DW$314, DW_AT_type(*$C$DW$T$19)
    2795                      .dwattr $C$DW$314, DW_AT_name("GS3")
    2796                      .dwattr $C$DW$314, DW_AT_TI_symbol_name("_GS3")
    2797                      .dwattr $C$DW$314, DW_AT_bit_offset(0x0c), DW_AT_bit_size(0x01)
    2798                      .dwattr $C$DW$314, DW_AT_data_member_location[DW_OP_plus_uconst 0x0]
    2799                      .dwattr $C$DW$314, DW_AT_accessibility(DW_ACCESS_public)
    2800              $C$DW$315       .dwtag  DW_TAG_member
    2801                      .dwattr $C$DW$315, DW_AT_type(*$C$DW$T$19)
    2802                      .dwattr $C$DW$315, DW_AT_name("GS4")
    2803                      .dwattr $C$DW$315, DW_AT_TI_symbol_name("_GS4")
    2804                      .dwattr $C$DW$315, DW_AT_bit_offset(0x0b), DW_AT_bit_size(0x01)
    2805                      .dwattr $C$DW$315, DW_AT_data_member_location[DW_OP_plus_uconst 0x0]
    2806                      .dwattr $C$DW$315, DW_AT_accessibility(DW_ACCESS_public)
    2807              $C$DW$316       .dwtag  DW_TAG_member
    2808                      .dwattr $C$DW$316, DW_AT_type(*$C$DW$T$19)
    2809                      .dwattr $C$DW$316, DW_AT_name("GS5")
    2810                      .dwattr $C$DW$316, DW_AT_TI_symbol_name("_GS5")
    2811                      .dwattr $C$DW$316, DW_AT_bit_offset(0x0a), DW_AT_bit_size(0x01)
TMS320C2000 Assembler PC v6.1.3 Tue Oct 01 15:27:14 2013

Tools Copyright (c) 1996-2012 Texas Instruments Incorporated
C:\Users\a0272466\AppData\Local\Temp\0780810                         PAGE   53

    2812                      .dwattr $C$DW$316, DW_AT_data_member_location[DW_OP_plus_uconst 0x0]
    2813                      .dwattr $C$DW$316, DW_AT_accessibility(DW_ACCESS_public)
    2814              $C$DW$317       .dwtag  DW_TAG_member
    2815                      .dwattr $C$DW$317, DW_AT_type(*$C$DW$T$19)
    2816                      .dwattr $C$DW$317, DW_AT_name("GS6")
    2817                      .dwattr $C$DW$317, DW_AT_TI_symbol_name("_GS6")
    2818                      .dwattr $C$DW$317, DW_AT_bit_offset(0x09), DW_AT_bit_size(0x01)
    2819                      .dwattr $C$DW$317, DW_AT_data_member_location[DW_OP_plus_uconst 0x0]
    2820                      .dwattr $C$DW$317, DW_AT_accessibility(DW_ACCESS_public)
    2821              $C$DW$318       .dwtag  DW_TAG_member
    2822                      .dwattr $C$DW$318, DW_AT_type(*$C$DW$T$19)
    2823                      .dwattr $C$DW$318, DW_AT_name("GS7")
    2824                      .dwattr $C$DW$318, DW_AT_TI_symbol_name("_GS7")
    2825                      .dwattr $C$DW$318, DW_AT_bit_offset(0x08), DW_AT_bit_size(0x01)
    2826                      .dwattr $C$DW$318, DW_AT_data_member_location[DW_OP_plus_uconst 0x0]
    2827                      .dwattr $C$DW$318, DW_AT_accessibility(DW_ACCESS_public)
    2828              $C$DW$319       .dwtag  DW_TAG_member
    2829                      .dwattr $C$DW$319, DW_AT_type(*$C$DW$T$19)
    2830                      .dwattr $C$DW$319, DW_AT_name("GS8")
    2831                      .dwattr $C$DW$319, DW_AT_TI_symbol_name("_GS8")
    2832                      .dwattr $C$DW$319, DW_AT_bit_offset(0x07), DW_AT_bit_size(0x01)
    2833                      .dwattr $C$DW$319, DW_AT_data_member_location[DW_OP_plus_uconst 0x0]
    2834                      .dwattr $C$DW$319, DW_AT_accessibility(DW_ACCESS_public)
    2835              $C$DW$320       .dwtag  DW_TAG_member
    2836                      .dwattr $C$DW$320, DW_AT_type(*$C$DW$T$19)
    2837                      .dwattr $C$DW$320, DW_AT_name("GS9")
    2838                      .dwattr $C$DW$320, DW_AT_TI_symbol_name("_GS9")
    2839                      .dwattr $C$DW$320, DW_AT_bit_offset(0x06), DW_AT_bit_size(0x01)
    2840                      .dwattr $C$DW$320, DW_AT_data_member_location[DW_OP_plus_uconst 0x0]
    2841                      .dwattr $C$DW$320, DW_AT_accessibility(DW_ACCESS_public)
    2842              $C$DW$321       .dwtag  DW_TAG_member
    2843                      .dwattr $C$DW$321, DW_AT_type(*$C$DW$T$19)
    2844                      .dwattr $C$DW$321, DW_AT_name("GS10")
    2845                      .dwattr $C$DW$321, DW_AT_TI_symbol_name("_GS10")
    2846                      .dwattr $C$DW$321, DW_AT_bit_offset(0x05), DW_AT_bit_size(0x01)
    2847                      .dwattr $C$DW$321, DW_AT_data_member_location[DW_OP_plus_uconst 0x0]
    2848                      .dwattr $C$DW$321, DW_AT_accessibility(DW_ACCESS_public)
    2849              $C$DW$322       .dwtag  DW_TAG_member
    2850                      .dwattr $C$DW$322, DW_AT_type(*$C$DW$T$19)
    2851                      .dwattr $C$DW$322, DW_AT_name("GS11")
    2852                      .dwattr $C$DW$322, DW_AT_TI_symbol_name("_GS11")
    2853                      .dwattr $C$DW$322, DW_AT_bit_offset(0x04), DW_AT_bit_size(0x01)
    2854                      .dwattr $C$DW$322, DW_AT_data_member_location[DW_OP_plus_uconst 0x0]
    2855                      .dwattr $C$DW$322, DW_AT_accessibility(DW_ACCESS_public)
    2856              $C$DW$323       .dwtag  DW_TAG_member
    2857                      .dwattr $C$DW$323, DW_AT_type(*$C$DW$T$19)
    2858                      .dwattr $C$DW$323, DW_AT_name("GS12")
    2859                      .dwattr $C$DW$323, DW_AT_TI_symbol_name("_GS12")
    2860                      .dwattr $C$DW$323, DW_AT_bit_offset(0x03), DW_AT_bit_size(0x01)
    2861                      .dwattr $C$DW$323, DW_AT_data_member_location[DW_OP_plus_uconst 0x0]
    2862                      .dwattr $C$DW$323, DW_AT_accessibility(DW_ACCESS_public)
    2863              $C$DW$324       .dwtag  DW_TAG_member
    2864                      .dwattr $C$DW$324, DW_AT_type(*$C$DW$T$19)
    2865                      .dwattr $C$DW$324, DW_AT_name("GS13")
    2866                      .dwattr $C$DW$324, DW_AT_TI_symbol_name("_GS13")
TMS320C2000 Assembler PC v6.1.3 Tue Oct 01 15:27:14 2013

Tools Copyright (c) 1996-2012 Texas Instruments Incorporated
C:\Users\a0272466\AppData\Local\Temp\0780810                         PAGE   54

    2867                      .dwattr $C$DW$324, DW_AT_bit_offset(0x02), DW_AT_bit_size(0x01)
    2868                      .dwattr $C$DW$324, DW_AT_data_member_location[DW_OP_plus_uconst 0x0]
    2869                      .dwattr $C$DW$324, DW_AT_accessibility(DW_ACCESS_public)
    2870              $C$DW$325       .dwtag  DW_TAG_member
    2871                      .dwattr $C$DW$325, DW_AT_type(*$C$DW$T$19)
    2872                      .dwattr $C$DW$325, DW_AT_name("GS14")
    2873                      .dwattr $C$DW$325, DW_AT_TI_symbol_name("_GS14")
    2874                      .dwattr $C$DW$325, DW_AT_bit_offset(0x01), DW_AT_bit_size(0x01)
    2875                      .dwattr $C$DW$325, DW_AT_data_member_location[DW_OP_plus_uconst 0x0]
    2876                      .dwattr $C$DW$325, DW_AT_accessibility(DW_ACCESS_public)
    2877              $C$DW$326       .dwtag  DW_TAG_member
    2878                      .dwattr $C$DW$326, DW_AT_type(*$C$DW$T$19)
    2879                      .dwattr $C$DW$326, DW_AT_name("GS15")
    2880                      .dwattr $C$DW$326, DW_AT_TI_symbol_name("_GS15")
    2881                      .dwattr $C$DW$326, DW_AT_bit_offset(0x00), DW_AT_bit_size(0x01)
    2882                      .dwattr $C$DW$326, DW_AT_data_member_location[DW_OP_plus_uconst 0x0]
    2883                      .dwattr $C$DW$326, DW_AT_accessibility(DW_ACCESS_public)
    2884              $C$DW$327       .dwtag  DW_TAG_member
    2885                      .dwattr $C$DW$327, DW_AT_type(*$C$DW$T$19)
    2886                      .dwattr $C$DW$327, DW_AT_name("rsvd1")
    2887                      .dwattr $C$DW$327, DW_AT_TI_symbol_name("_rsvd1")
    2888                      .dwattr $C$DW$327, DW_AT_bit_offset(0x00), DW_AT_bit_size(0x10)
    2889                      .dwattr $C$DW$327, DW_AT_data_member_location[DW_OP_plus_uconst 0x1]
    2890                      .dwattr $C$DW$327, DW_AT_accessibility(DW_ACCESS_public)
    2891                      .dwendtag $C$DW$T$80
    2892              
    2893              
    2894              $C$DW$T$81      .dwtag  DW_TAG_union_type
    2895                      .dwattr $C$DW$T$81, DW_AT_name("DC20_REG")
    2896                      .dwattr $C$DW$T$81, DW_AT_byte_size(0x02)
    2897              $C$DW$328       .dwtag  DW_TAG_member
    2898                      .dwattr $C$DW$328, DW_AT_type(*$C$DW$T$21)
    2899                      .dwattr $C$DW$328, DW_AT_name("all")
    2900                      .dwattr $C$DW$328, DW_AT_TI_symbol_name("_all")
    2901                      .dwattr $C$DW$328, DW_AT_data_member_location[DW_OP_plus_uconst 0x0]
    2902                      .dwattr $C$DW$328, DW_AT_accessibility(DW_ACCESS_public)
    2903              $C$DW$329       .dwtag  DW_TAG_member
    2904                      .dwattr $C$DW$329, DW_AT_type(*$C$DW$T$80)
    2905                      .dwattr $C$DW$329, DW_AT_name("bit")
    2906                      .dwattr $C$DW$329, DW_AT_TI_symbol_name("_bit")
    2907                      .dwattr $C$DW$329, DW_AT_data_member_location[DW_OP_plus_uconst 0x0]
    2908                      .dwattr $C$DW$329, DW_AT_accessibility(DW_ACCESS_public)
    2909                      .dwendtag $C$DW$T$81
    2910              
    2911              
    2912              $C$DW$T$82      .dwtag  DW_TAG_structure_type
    2913                      .dwattr $C$DW$T$82, DW_AT_name("DC2_BITS")
    2914                      .dwattr $C$DW$T$82, DW_AT_byte_size(0x02)
    2915              $C$DW$330       .dwtag  DW_TAG_member
    2916                      .dwattr $C$DW$330, DW_AT_type(*$C$DW$T$19)
    2917                      .dwattr $C$DW$330, DW_AT_name("EMIF1")
    2918                      .dwattr $C$DW$330, DW_AT_TI_symbol_name("_EMIF1")
    2919                      .dwattr $C$DW$330, DW_AT_bit_offset(0x0f), DW_AT_bit_size(0x01)
    2920                      .dwattr $C$DW$330, DW_AT_data_member_location[DW_OP_plus_uconst 0x0]
    2921                      .dwattr $C$DW$330, DW_AT_accessibility(DW_ACCESS_public)
TMS320C2000 Assembler PC v6.1.3 Tue Oct 01 15:27:14 2013

Tools Copyright (c) 1996-2012 Texas Instruments Incorporated
C:\Users\a0272466\AppData\Local\Temp\0780810                         PAGE   55

    2922              $C$DW$331       .dwtag  DW_TAG_member
    2923                      .dwattr $C$DW$331, DW_AT_type(*$C$DW$T$19)
    2924                      .dwattr $C$DW$331, DW_AT_name("EMIF2")
    2925                      .dwattr $C$DW$331, DW_AT_TI_symbol_name("_EMIF2")
    2926                      .dwattr $C$DW$331, DW_AT_bit_offset(0x0e), DW_AT_bit_size(0x01)
    2927                      .dwattr $C$DW$331, DW_AT_data_member_location[DW_OP_plus_uconst 0x0]
    2928                      .dwattr $C$DW$331, DW_AT_accessibility(DW_ACCESS_public)
    2929              $C$DW$332       .dwtag  DW_TAG_member
    2930                      .dwattr $C$DW$332, DW_AT_type(*$C$DW$T$19)
    2931                      .dwattr $C$DW$332, DW_AT_name("rsvd1")
    2932                      .dwattr $C$DW$332, DW_AT_TI_symbol_name("_rsvd1")
    2933                      .dwattr $C$DW$332, DW_AT_bit_offset(0x00), DW_AT_bit_size(0x0e)
    2934                      .dwattr $C$DW$332, DW_AT_data_member_location[DW_OP_plus_uconst 0x0]
    2935                      .dwattr $C$DW$332, DW_AT_accessibility(DW_ACCESS_public)
    2936              $C$DW$333       .dwtag  DW_TAG_member
    2937                      .dwattr $C$DW$333, DW_AT_type(*$C$DW$T$19)
    2938                      .dwattr $C$DW$333, DW_AT_name("rsvd2")
    2939                      .dwattr $C$DW$333, DW_AT_TI_symbol_name("_rsvd2")
    2940                      .dwattr $C$DW$333, DW_AT_bit_offset(0x00), DW_AT_bit_size(0x10)
    2941                      .dwattr $C$DW$333, DW_AT_data_member_location[DW_OP_plus_uconst 0x1]
    2942                      .dwattr $C$DW$333, DW_AT_accessibility(DW_ACCESS_public)
    2943                      .dwendtag $C$DW$T$82
    2944              
    2945              
    2946              $C$DW$T$83      .dwtag  DW_TAG_union_type
    2947                      .dwattr $C$DW$T$83, DW_AT_name("DC2_REG")
    2948                      .dwattr $C$DW$T$83, DW_AT_byte_size(0x02)
    2949              $C$DW$334       .dwtag  DW_TAG_member
    2950                      .dwattr $C$DW$334, DW_AT_type(*$C$DW$T$21)
    2951                      .dwattr $C$DW$334, DW_AT_name("all")
    2952                      .dwattr $C$DW$334, DW_AT_TI_symbol_name("_all")
    2953                      .dwattr $C$DW$334, DW_AT_data_member_location[DW_OP_plus_uconst 0x0]
    2954                      .dwattr $C$DW$334, DW_AT_accessibility(DW_ACCESS_public)
    2955              $C$DW$335       .dwtag  DW_TAG_member
    2956                      .dwattr $C$DW$335, DW_AT_type(*$C$DW$T$82)
    2957                      .dwattr $C$DW$335, DW_AT_name("bit")
    2958                      .dwattr $C$DW$335, DW_AT_TI_symbol_name("_bit")
    2959                      .dwattr $C$DW$335, DW_AT_data_member_location[DW_OP_plus_uconst 0x0]
    2960                      .dwattr $C$DW$335, DW_AT_accessibility(DW_ACCESS_public)
    2961                      .dwendtag $C$DW$T$83
    2962              
    2963              
    2964              $C$DW$T$84      .dwtag  DW_TAG_structure_type
    2965                      .dwattr $C$DW$T$84, DW_AT_name("DC3_BITS")
    2966                      .dwattr $C$DW$T$84, DW_AT_byte_size(0x02)
    2967              $C$DW$336       .dwtag  DW_TAG_member
    2968                      .dwattr $C$DW$336, DW_AT_type(*$C$DW$T$19)
    2969                      .dwattr $C$DW$336, DW_AT_name("EPWM1")
    2970                      .dwattr $C$DW$336, DW_AT_TI_symbol_name("_EPWM1")
    2971                      .dwattr $C$DW$336, DW_AT_bit_offset(0x0f), DW_AT_bit_size(0x01)
    2972                      .dwattr $C$DW$336, DW_AT_data_member_location[DW_OP_plus_uconst 0x0]
    2973                      .dwattr $C$DW$336, DW_AT_accessibility(DW_ACCESS_public)
    2974              $C$DW$337       .dwtag  DW_TAG_member
    2975                      .dwattr $C$DW$337, DW_AT_type(*$C$DW$T$19)
    2976                      .dwattr $C$DW$337, DW_AT_name("EPWM2")
TMS320C2000 Assembler PC v6.1.3 Tue Oct 01 15:27:14 2013

Tools Copyright (c) 1996-2012 Texas Instruments Incorporated
C:\Users\a0272466\AppData\Local\Temp\0780810                         PAGE   56

    2977                      .dwattr $C$DW$337, DW_AT_TI_symbol_name("_EPWM2")
    2978                      .dwattr $C$DW$337, DW_AT_bit_offset(0x0e), DW_AT_bit_size(0x01)
    2979                      .dwattr $C$DW$337, DW_AT_data_member_location[DW_OP_plus_uconst 0x0]
    2980                      .dwattr $C$DW$337, DW_AT_accessibility(DW_ACCESS_public)
    2981              $C$DW$338       .dwtag  DW_TAG_member
    2982                      .dwattr $C$DW$338, DW_AT_type(*$C$DW$T$19)
    2983                      .dwattr $C$DW$338, DW_AT_name("EPWM3")
    2984                      .dwattr $C$DW$338, DW_AT_TI_symbol_name("_EPWM3")
    2985                      .dwattr $C$DW$338, DW_AT_bit_offset(0x0d), DW_AT_bit_size(0x01)
    2986                      .dwattr $C$DW$338, DW_AT_data_member_location[DW_OP_plus_uconst 0x0]
    2987                      .dwattr $C$DW$338, DW_AT_accessibility(DW_ACCESS_public)
    2988              $C$DW$339       .dwtag  DW_TAG_member
    2989                      .dwattr $C$DW$339, DW_AT_type(*$C$DW$T$19)
    2990                      .dwattr $C$DW$339, DW_AT_name("EPWM4")
    2991                      .dwattr $C$DW$339, DW_AT_TI_symbol_name("_EPWM4")
    2992                      .dwattr $C$DW$339, DW_AT_bit_offset(0x0c), DW_AT_bit_size(0x01)
    2993                      .dwattr $C$DW$339, DW_AT_data_member_location[DW_OP_plus_uconst 0x0]
    2994                      .dwattr $C$DW$339, DW_AT_accessibility(DW_ACCESS_public)
    2995              $C$DW$340       .dwtag  DW_TAG_member
    2996                      .dwattr $C$DW$340, DW_AT_type(*$C$DW$T$19)
    2997                      .dwattr $C$DW$340, DW_AT_name("EPWM5")
    2998                      .dwattr $C$DW$340, DW_AT_TI_symbol_name("_EPWM5")
    2999                      .dwattr $C$DW$340, DW_AT_bit_offset(0x0b), DW_AT_bit_size(0x01)
    3000                      .dwattr $C$DW$340, DW_AT_data_member_location[DW_OP_plus_uconst 0x0]
    3001                      .dwattr $C$DW$340, DW_AT_accessibility(DW_ACCESS_public)
    3002              $C$DW$341       .dwtag  DW_TAG_member
    3003                      .dwattr $C$DW$341, DW_AT_type(*$C$DW$T$19)
    3004                      .dwattr $C$DW$341, DW_AT_name("EPWM6")
    3005                      .dwattr $C$DW$341, DW_AT_TI_symbol_name("_EPWM6")
    3006                      .dwattr $C$DW$341, DW_AT_bit_offset(0x0a), DW_AT_bit_size(0x01)
    3007                      .dwattr $C$DW$341, DW_AT_data_member_location[DW_OP_plus_uconst 0x0]
    3008                      .dwattr $C$DW$341, DW_AT_accessibility(DW_ACCESS_public)
    3009              $C$DW$342       .dwtag  DW_TAG_member
    3010                      .dwattr $C$DW$342, DW_AT_type(*$C$DW$T$19)
    3011                      .dwattr $C$DW$342, DW_AT_name("EPWM7")
    3012                      .dwattr $C$DW$342, DW_AT_TI_symbol_name("_EPWM7")
    3013                      .dwattr $C$DW$342, DW_AT_bit_offset(0x09), DW_AT_bit_size(0x01)
    3014                      .dwattr $C$DW$342, DW_AT_data_member_location[DW_OP_plus_uconst 0x0]
    3015                      .dwattr $C$DW$342, DW_AT_accessibility(DW_ACCESS_public)
    3016              $C$DW$343       .dwtag  DW_TAG_member
    3017                      .dwattr $C$DW$343, DW_AT_type(*$C$DW$T$19)
    3018                      .dwattr $C$DW$343, DW_AT_name("EPWM8")
    3019                      .dwattr $C$DW$343, DW_AT_TI_symbol_name("_EPWM8")
    3020                      .dwattr $C$DW$343, DW_AT_bit_offset(0x08), DW_AT_bit_size(0x01)
    3021                      .dwattr $C$DW$343, DW_AT_data_member_location[DW_OP_plus_uconst 0x0]
    3022                      .dwattr $C$DW$343, DW_AT_accessibility(DW_ACCESS_public)
    3023              $C$DW$344       .dwtag  DW_TAG_member
    3024                      .dwattr $C$DW$344, DW_AT_type(*$C$DW$T$19)
    3025                      .dwattr $C$DW$344, DW_AT_name("EPWM9")
    3026                      .dwattr $C$DW$344, DW_AT_TI_symbol_name("_EPWM9")
    3027                      .dwattr $C$DW$344, DW_AT_bit_offset(0x07), DW_AT_bit_size(0x01)
    3028                      .dwattr $C$DW$344, DW_AT_data_member_location[DW_OP_plus_uconst 0x0]
    3029                      .dwattr $C$DW$344, DW_AT_accessibility(DW_ACCESS_public)
    3030              $C$DW$345       .dwtag  DW_TAG_member
    3031                      .dwattr $C$DW$345, DW_AT_type(*$C$DW$T$19)
TMS320C2000 Assembler PC v6.1.3 Tue Oct 01 15:27:14 2013

Tools Copyright (c) 1996-2012 Texas Instruments Incorporated
C:\Users\a0272466\AppData\Local\Temp\0780810                         PAGE   57

    3032                      .dwattr $C$DW$345, DW_AT_name("EPWM10")
    3033                      .dwattr $C$DW$345, DW_AT_TI_symbol_name("_EPWM10")
    3034                      .dwattr $C$DW$345, DW_AT_bit_offset(0x06), DW_AT_bit_size(0x01)
    3035                      .dwattr $C$DW$345, DW_AT_data_member_location[DW_OP_plus_uconst 0x0]
    3036                      .dwattr $C$DW$345, DW_AT_accessibility(DW_ACCESS_public)
    3037              $C$DW$346       .dwtag  DW_TAG_member
    3038                      .dwattr $C$DW$346, DW_AT_type(*$C$DW$T$19)
    3039                      .dwattr $C$DW$346, DW_AT_name("EPWM11")
    3040                      .dwattr $C$DW$346, DW_AT_TI_symbol_name("_EPWM11")
    3041                      .dwattr $C$DW$346, DW_AT_bit_offset(0x05), DW_AT_bit_size(0x01)
    3042                      .dwattr $C$DW$346, DW_AT_data_member_location[DW_OP_plus_uconst 0x0]
    3043                      .dwattr $C$DW$346, DW_AT_accessibility(DW_ACCESS_public)
    3044              $C$DW$347       .dwtag  DW_TAG_member
    3045                      .dwattr $C$DW$347, DW_AT_type(*$C$DW$T$19)
    3046                      .dwattr $C$DW$347, DW_AT_name("EPWM12")
    3047                      .dwattr $C$DW$347, DW_AT_TI_symbol_name("_EPWM12")
    3048                      .dwattr $C$DW$347, DW_AT_bit_offset(0x04), DW_AT_bit_size(0x01)
    3049                      .dwattr $C$DW$347, DW_AT_data_member_location[DW_OP_plus_uconst 0x0]
    3050                      .dwattr $C$DW$347, DW_AT_accessibility(DW_ACCESS_public)
    3051              $C$DW$348       .dwtag  DW_TAG_member
    3052                      .dwattr $C$DW$348, DW_AT_type(*$C$DW$T$19)
    3053                      .dwattr $C$DW$348, DW_AT_name("rsvd1")
    3054                      .dwattr $C$DW$348, DW_AT_TI_symbol_name("_rsvd1")
    3055                      .dwattr $C$DW$348, DW_AT_bit_offset(0x00), DW_AT_bit_size(0x04)
    3056                      .dwattr $C$DW$348, DW_AT_data_member_location[DW_OP_plus_uconst 0x0]
    3057                      .dwattr $C$DW$348, DW_AT_accessibility(DW_ACCESS_public)
    3058              $C$DW$349       .dwtag  DW_TAG_member
    3059                      .dwattr $C$DW$349, DW_AT_type(*$C$DW$T$19)
    3060                      .dwattr $C$DW$349, DW_AT_name("rsvd2")
    3061                      .dwattr $C$DW$349, DW_AT_TI_symbol_name("_rsvd2")
    3062                      .dwattr $C$DW$349, DW_AT_bit_offset(0x00), DW_AT_bit_size(0x10)
    3063                      .dwattr $C$DW$349, DW_AT_data_member_location[DW_OP_plus_uconst 0x1]
    3064                      .dwattr $C$DW$349, DW_AT_accessibility(DW_ACCESS_public)
    3065                      .dwendtag $C$DW$T$84
    3066              
    3067              
    3068              $C$DW$T$85      .dwtag  DW_TAG_union_type
    3069                      .dwattr $C$DW$T$85, DW_AT_name("DC3_REG")
    3070                      .dwattr $C$DW$T$85, DW_AT_byte_size(0x02)
    3071              $C$DW$350       .dwtag  DW_TAG_member
    3072                      .dwattr $C$DW$350, DW_AT_type(*$C$DW$T$21)
    3073                      .dwattr $C$DW$350, DW_AT_name("all")
    3074                      .dwattr $C$DW$350, DW_AT_TI_symbol_name("_all")
    3075                      .dwattr $C$DW$350, DW_AT_data_member_location[DW_OP_plus_uconst 0x0]
    3076                      .dwattr $C$DW$350, DW_AT_accessibility(DW_ACCESS_public)
    3077              $C$DW$351       .dwtag  DW_TAG_member
    3078                      .dwattr $C$DW$351, DW_AT_type(*$C$DW$T$84)
    3079                      .dwattr $C$DW$351, DW_AT_name("bit")
    3080                      .dwattr $C$DW$351, DW_AT_TI_symbol_name("_bit")
    3081                      .dwattr $C$DW$351, DW_AT_data_member_location[DW_OP_plus_uconst 0x0]
    3082                      .dwattr $C$DW$351, DW_AT_accessibility(DW_ACCESS_public)
    3083                      .dwendtag $C$DW$T$85
    3084              
    3085              
    3086              $C$DW$T$86      .dwtag  DW_TAG_structure_type
TMS320C2000 Assembler PC v6.1.3 Tue Oct 01 15:27:14 2013

Tools Copyright (c) 1996-2012 Texas Instruments Incorporated
C:\Users\a0272466\AppData\Local\Temp\0780810                         PAGE   58

    3087                      .dwattr $C$DW$T$86, DW_AT_name("DC4_BITS")
    3088                      .dwattr $C$DW$T$86, DW_AT_byte_size(0x02)
    3089              $C$DW$352       .dwtag  DW_TAG_member
    3090                      .dwattr $C$DW$352, DW_AT_type(*$C$DW$T$19)
    3091                      .dwattr $C$DW$352, DW_AT_name("ECAP1")
    3092                      .dwattr $C$DW$352, DW_AT_TI_symbol_name("_ECAP1")
    3093                      .dwattr $C$DW$352, DW_AT_bit_offset(0x0f), DW_AT_bit_size(0x01)
    3094                      .dwattr $C$DW$352, DW_AT_data_member_location[DW_OP_plus_uconst 0x0]
    3095                      .dwattr $C$DW$352, DW_AT_accessibility(DW_ACCESS_public)
    3096              $C$DW$353       .dwtag  DW_TAG_member
    3097                      .dwattr $C$DW$353, DW_AT_type(*$C$DW$T$19)
    3098                      .dwattr $C$DW$353, DW_AT_name("ECAP2")
    3099                      .dwattr $C$DW$353, DW_AT_TI_symbol_name("_ECAP2")
    3100                      .dwattr $C$DW$353, DW_AT_bit_offset(0x0e), DW_AT_bit_size(0x01)
    3101                      .dwattr $C$DW$353, DW_AT_data_member_location[DW_OP_plus_uconst 0x0]
    3102                      .dwattr $C$DW$353, DW_AT_accessibility(DW_ACCESS_public)
    3103              $C$DW$354       .dwtag  DW_TAG_member
    3104                      .dwattr $C$DW$354, DW_AT_type(*$C$DW$T$19)
    3105                      .dwattr $C$DW$354, DW_AT_name("ECAP3")
    3106                      .dwattr $C$DW$354, DW_AT_TI_symbol_name("_ECAP3")
    3107                      .dwattr $C$DW$354, DW_AT_bit_offset(0x0d), DW_AT_bit_size(0x01)
    3108                      .dwattr $C$DW$354, DW_AT_data_member_location[DW_OP_plus_uconst 0x0]
    3109                      .dwattr $C$DW$354, DW_AT_accessibility(DW_ACCESS_public)
    3110              $C$DW$355       .dwtag  DW_TAG_member
    3111                      .dwattr $C$DW$355, DW_AT_type(*$C$DW$T$19)
    3112                      .dwattr $C$DW$355, DW_AT_name("ECAP4")
    3113                      .dwattr $C$DW$355, DW_AT_TI_symbol_name("_ECAP4")
    3114                      .dwattr $C$DW$355, DW_AT_bit_offset(0x0c), DW_AT_bit_size(0x01)
    3115                      .dwattr $C$DW$355, DW_AT_data_member_location[DW_OP_plus_uconst 0x0]
    3116                      .dwattr $C$DW$355, DW_AT_accessibility(DW_ACCESS_public)
    3117              $C$DW$356       .dwtag  DW_TAG_member
    3118                      .dwattr $C$DW$356, DW_AT_type(*$C$DW$T$19)
    3119                      .dwattr $C$DW$356, DW_AT_name("ECAP5")
    3120                      .dwattr $C$DW$356, DW_AT_TI_symbol_name("_ECAP5")
    3121                      .dwattr $C$DW$356, DW_AT_bit_offset(0x0b), DW_AT_bit_size(0x01)
    3122                      .dwattr $C$DW$356, DW_AT_data_member_location[DW_OP_plus_uconst 0x0]
    3123                      .dwattr $C$DW$356, DW_AT_accessibility(DW_ACCESS_public)
    3124              $C$DW$357       .dwtag  DW_TAG_member
    3125                      .dwattr $C$DW$357, DW_AT_type(*$C$DW$T$19)
    3126                      .dwattr $C$DW$357, DW_AT_name("ECAP6")
    3127                      .dwattr $C$DW$357, DW_AT_TI_symbol_name("_ECAP6")
    3128                      .dwattr $C$DW$357, DW_AT_bit_offset(0x0a), DW_AT_bit_size(0x01)
